ARM GAS  /tmp/ccvHIMcj.s 			page 1


   1              		.syntax unified
   2              		.cpu cortex-m3
   3              		.fpu softvfp
   4              		.eabi_attribute 20, 1
   5              		.eabi_attribute 21, 1
   6              		.eabi_attribute 23, 3
   7              		.eabi_attribute 24, 1
   8              		.eabi_attribute 25, 1
   9              		.eabi_attribute 26, 1
  10              		.eabi_attribute 30, 2
  11              		.eabi_attribute 18, 4
  12              		.thumb
  13              		.file	"amx.c"
  20 0000 AF140000 		.text
  20      02000A01 
  20      00000201 
  20      FB0E0D00 
  20      01010101 
  21              	.Ltext0:
  22              		.cfi_sections	.debug_frame
  23              		.section	.text.amx_Callback,"ax",%progbits
  24              		.align	2
  25              		.p2align 4,,15
  26              		.global	amx_Callback
  27              		.thumb
  28              		.thumb_func
  29              		.type	amx_Callback, %function
  30              	amx_Callback:
  31              	.LFB4:
  32              		.file 1 "pawn/amx.c"
  33              		.loc 1 522 0
  34              		.cfi_startproc
  35              		@ args = 0, pretend = 0, frame = 0
  36              		@ frame_needed = 0, uses_anonymous_args = 0
  37              	.LVL0:
  38 0000 F8B5     		push	{r3, r4, r5, r6, r7, lr}
  39              	.LCFI0:
  40              		.cfi_def_cfa_offset 24
  41              		.loc 1 536 0
  42 0002 0029     		cmp	r1, #0
  43              		.loc 1 522 0
  44 0004 1546     		mov	r5, r2
  45              		.cfi_offset 14, -4
  46              		.cfi_offset 7, -8
  47              		.cfi_offset 6, -12
  48              		.cfi_offset 5, -16
  49              		.cfi_offset 4, -20
  50              		.cfi_offset 3, -24
  51 0006 0446     		mov	r4, r0
  52              		.loc 1 531 0
  53 0008 0268     		ldr	r2, [r0, #0]	@ unaligned
ARM GAS  /tmp/ccvHIMcj.s 			page 2


  54              	.LVL1:
  55              		.loc 1 536 0
  56 000a 24DB     		blt	.L7
  57              		.loc 1 542 0
  58 000c B2F90A60 		ldrsh	r6, [r2, #10]	@ unaligned
  59 0010 D2F824C0 		ldr	ip, [r2, #36]	@ unaligned
  60              		.loc 1 543 0
  61 0014 06FB0122 		mla	r2, r6, r1, r2
  62              	.LVL2:
  63 0018 52F80C20 		ldr	r2, [r2, ip]	@ unaligned
  64              	.LVL3:
  65              	.L3:
  66              		.loc 1 556 0
  67 001c E16E     		ldr	r1, [r4, #108]	@ unaligned
  68 001e 59B1     		cbz	r1, .L4
  69              	.LBB25:
  70              		.loc 1 560 0
  71 0020 A069     		ldr	r0, [r4, #24]	@ unaligned
  72 0022 6768     		ldr	r7, [r4, #4]	@ unaligned
  73              		.loc 1 561 0
  74 0024 266B     		ldr	r6, [r4, #48]	@ unaligned
  75              		.loc 1 560 0
  76 0026 0438     		subs	r0, r0, #4
  77 0028 3818     		adds	r0, r7, r0
  78              	.LVL4:
  79              		.loc 1 561 0
  80 002a 16F4006F 		tst	r6, #2048
  81              		.loc 1 562 0
  82 002e 18BF     		it	ne
  83 0030 0438     		subne	r0, r0, #4
  84              	.LVL5:
  85              		.loc 1 571 0
  86 0032 40F8041C 		str	r1, [r0, #-4]
  87              		.loc 1 572 0
  88 0036 0260     		str	r2, [r0, #0]
  89              	.LVL6:
  90              	.L4:
  91              	.LBE25:
  92              		.loc 1 581 0
  93 0038 0021     		movs	r1, #0
  94 003a 84F85410 		strb	r1, [r4, #84]
  95 003e 84F85510 		strb	r1, [r4, #85]
  96 0042 84F85610 		strb	r1, [r4, #86]
  97 0046 84F85710 		strb	r1, [r4, #87]
  98              		.loc 1 582 0
  99 004a 2046     		mov	r0, r4
 100 004c 1946     		mov	r1, r3
 101 004e 9047     		blx	r2
 102              	.LVL7:
 103 0050 2860     		str	r0, [r5, #0]
 104              		.loc 1 584 0
 105 0052 606D     		ldr	r0, [r4, #84]	@ unaligned
 106 0054 F8BD     		pop	{r3, r4, r5, r6, r7, pc}
 107              	.LVL8:
 108              	.L7:
 109              		.loc 1 538 0
 110 0056 0248     		ldr	r0, .L8
ARM GAS  /tmp/ccvHIMcj.s 			page 3


 111 0058 C943     		mvns	r1, r1
 112              	.LVL9:
 113 005a 50F82120 		ldr	r2, [r0, r1, lsl #2]
 114              	.LVL10:
 115 005e DDE7     		b	.L3
 116              	.L9:
 117              		.align	2
 118              	.L8:
 119 0060 00000000 		.word	g_nativetable
 120              		.cfi_endproc
 121              	.LFE4:
 122              		.size	amx_Callback, .-amx_Callback
 123 0064 AFF30080 		.section	.text.VerifyPcode,"ax",%progbits
 123      AFF30080 
 123      AFF30080 
 124              		.align	2
 125              		.p2align 4,,15
 126              		.thumb
 127              		.thumb_func
 128              		.type	VerifyPcode, %function
 129              	VerifyPcode:
 130              	.LFB5:
 131              		.loc 1 616 0
 132              		.cfi_startproc
 133              		@ args = 0, pretend = 0, frame = 8
 134              		@ frame_needed = 0, uses_anonymous_args = 0
 135              		@ link register save eliminated.
 136              	.LVL11:
 137 0000 2DE9F00F 		push	{r4, r5, r6, r7, r8, r9, sl, fp}
 138              	.LCFI1:
 139              		.cfi_def_cfa_offset 32
 140              		.loc 1 632 0
 141 0004 D0F830C0 		ldr	ip, [r0, #48]	@ unaligned
 142              		.loc 1 629 0
 143 0008 0368     		ldr	r3, [r0, #0]	@ unaligned
 144              	.LVL12:
 145              		.loc 1 632 0
 146 000a 4CF4804C 		orr	ip, ip, #16384
 147 000e C0F830C0 		str	ip, [r0, #48]	@ unaligned
 148              		.loc 1 677 0
 149 0012 D0F86CB0 		ldr	fp, [r0, #108]	@ unaligned
 150              		.cfi_offset 11, -4
 151              		.cfi_offset 10, -8
 152              		.cfi_offset 9, -12
 153              		.cfi_offset 8, -16
 154              		.cfi_offset 7, -20
 155              		.cfi_offset 6, -24
 156              		.cfi_offset 5, -28
 157              		.cfi_offset 4, -32
 158              		.loc 1 633 0
 159 0016 5A69     		ldr	r2, [r3, #20]	@ unaligned
 160 0018 D3F81090 		ldr	r9, [r3, #16]	@ unaligned
 161              		.loc 1 634 0
 162 001c 9E69     		ldr	r6, [r3, #24]	@ unaligned
 163              		.loc 1 677 0
 164 001e BBF14B0F 		cmp	fp, #75
 165              		.loc 1 616 0
ARM GAS  /tmp/ccvHIMcj.s 			page 4


 166 0022 82B0     		sub	sp, sp, #8
 167              	.LCFI2:
 168              		.cfi_def_cfa_offset 40
 169              		.loc 1 633 0
 170 0024 C9EB0209 		rsb	r9, r9, r2
 171              	.LVL13:
 172              		.loc 1 634 0
 173 0028 C2EB0606 		rsb	r6, r2, r6
 174              	.LVL14:
 175              		.loc 1 677 0
 176 002c 00F04882 		beq	.L64
 177              		.loc 1 670 0
 178 0030 BBF14C0F 		cmp	fp, #76
 179 0034 0CBF     		ite	eq
 180 0036 4FF0020B 		moveq	fp, #2
 181 003a 4FF0000B 		movne	fp, #0
 182              	.L11:
 183              	.LVL15:
 184              		.loc 1 682 0
 185 003e 0024     		movs	r4, #0
 186 0040 426F     		ldr	r2, [r0, #116]	@ unaligned
 187 0042 80F86C40 		strb	r4, [r0, #108]
 188 0046 80F86D40 		strb	r4, [r0, #109]
 189 004a 80F86E40 		strb	r4, [r0, #110]
 190 004e 80F86F40 		strb	r4, [r0, #111]
 191              	.LVL16:
 192              		.loc 1 908 0
 193 0052 C6F10008 		rsb	r8, r6, #0
 194              	.LVL17:
 195              	.L78:
 196              		.loc 1 686 0 discriminator 1
 197 0056 9442     		cmp	r4, r2
 198 0058 80F28A81 		bge	.L97
 199              	.L63:
 200              		.loc 1 687 0
 201 005c 4368     		ldr	r3, [r0, #4]	@ unaligned
 202 005e 2146     		mov	r1, r4
 203 0060 1F59     		ldr	r7, [r3, r4]
 204              	.LVL18:
 205              		.loc 1 688 0
 206 0062 BDB2     		uxth	r5, r7
 207 0064 AE2D     		cmp	r5, #174
 208 0066 00F39E81 		bgt	.L15
 209              	.LVL19:
 210              		.loc 1 709 0
 211 006a 0434     		adds	r4, r4, #4
 212              	.LVL20:
 213              		.loc 1 710 0
 214 006c AE2D     		cmp	r5, #174
 215 006e 00F29A81 		bhi	.L15
 216 0072 0FF2080A 		adr	sl, .L36
 217 0076 5AF825F0 		ldr	pc, [sl, r5, lsl #2]
 218 007a 00BF     		.align	2
 219              	.L36:
 220 007c 57000000 		.word	.L78+1
 221 0080 51040000 		.word	.L17+1
 222 0084 51040000 		.word	.L17+1
ARM GAS  /tmp/ccvHIMcj.s 			page 5


 223 0088 43040000 		.word	.L18+1
 224 008c 43040000 		.word	.L18+1
 225 0090 43040000 		.word	.L18+1
 226 0094 43040000 		.word	.L18+1
 227 0098 57000000 		.word	.L78+1
 228 009c 69030000 		.word	.L87+1
 229 00a0 69030000 		.word	.L87+1
 230 00a4 69030000 		.word	.L87+1
 231 00a8 69030000 		.word	.L87+1
 232 00ac 69030000 		.word	.L87+1
 233 00b0 51040000 		.word	.L17+1
 234 00b4 43040000 		.word	.L18+1
 235 00b8 43040000 		.word	.L18+1
 236 00bc 57000000 		.word	.L78+1
 237 00c0 69030000 		.word	.L87+1
 238 00c4 69030000 		.word	.L87+1
 239 00c8 69030000 		.word	.L87+1
 240 00cc 69030000 		.word	.L87+1
 241 00d0 57000000 		.word	.L78+1
 242 00d4 57000000 		.word	.L78+1
 243 00d8 57000000 		.word	.L78+1
 244 00dc 57000000 		.word	.L78+1
 245 00e0 57000000 		.word	.L78+1
 246 00e4 57000000 		.word	.L78+1
 247 00e8 69030000 		.word	.L87+1
 248 00ec 69030000 		.word	.L87+1
 249 00f0 69030000 		.word	.L87+1
 250 00f4 57000000 		.word	.L78+1
 251 00f8 57000000 		.word	.L78+1
 252 00fc 57000000 		.word	.L78+1
 253 0100 33040000 		.word	.L20+1
 254 0104 33040000 		.word	.L20+1
 255 0108 33040000 		.word	.L20+1
 256 010c 33040000 		.word	.L20+1
 257 0110 57000000 		.word	.L78+1
 258 0114 57000000 		.word	.L78+1
 259 0118 57000000 		.word	.L78+1
 260 011c 69030000 		.word	.L87+1
 261 0120 69030000 		.word	.L87+1
 262 0124 57000000 		.word	.L78+1
 263 0128 57000000 		.word	.L78+1
 264 012c 57000000 		.word	.L78+1
 265 0130 57000000 		.word	.L78+1
 266 0134 57000000 		.word	.L78+1
 267 0138 57000000 		.word	.L78+1
 268 013c 57000000 		.word	.L78+1
 269 0140 57000000 		.word	.L78+1
 270 0144 57000000 		.word	.L78+1
 271 0148 57000000 		.word	.L78+1
 272 014c 57000000 		.word	.L78+1
 273 0150 57000000 		.word	.L78+1
 274 0154 57000000 		.word	.L78+1
 275 0158 57000000 		.word	.L78+1
 276 015c 57000000 		.word	.L78+1
 277 0160 57000000 		.word	.L78+1
 278 0164 57000000 		.word	.L78+1
 279 0168 57000000 		.word	.L78+1
ARM GAS  /tmp/ccvHIMcj.s 			page 6


 280 016c 57000000 		.word	.L78+1
 281 0170 57000000 		.word	.L78+1
 282 0174 57000000 		.word	.L78+1
 283 0178 57000000 		.word	.L78+1
 284 017c 69030000 		.word	.L87+1
 285 0180 69030000 		.word	.L87+1
 286 0184 69030000 		.word	.L87+1
 287 0188 69030000 		.word	.L87+1
 288 018c 69030000 		.word	.L87+1
 289 0190 2B040000 		.word	.L21+1
 290 0194 33040000 		.word	.L20+1
 291 0198 57000000 		.word	.L78+1
 292 019c 57000000 		.word	.L78+1
 293 01a0 57000000 		.word	.L78+1
 294 01a4 EB030000 		.word	.L22+1
 295 01a8 A7030000 		.word	.L15+1
 296 01ac A7030000 		.word	.L15+1
 297 01b0 99030000 		.word	.L23+1
 298 01b4 9B030000 		.word	.L24+1
 299 01b8 8D030000 		.word	.L25+1
 300 01bc DB030000 		.word	.L26+1
 301 01c0 57000000 		.word	.L78+1
 302 01c4 69030000 		.word	.L87+1
 303 01c8 57000000 		.word	.L78+1
 304 01cc 69030000 		.word	.L87+1
 305 01d0 69030000 		.word	.L87+1
 306 01d4 51040000 		.word	.L17+1
 307 01d8 43040000 		.word	.L18+1
 308 01dc 69030000 		.word	.L87+1
 309 01e0 69030000 		.word	.L87+1
 310 01e4 43040000 		.word	.L18+1
 311 01e8 69030000 		.word	.L87+1
 312 01ec 33040000 		.word	.L20+1
 313 01f0 33040000 		.word	.L20+1
 314 01f4 33040000 		.word	.L20+1
 315 01f8 33040000 		.word	.L20+1
 316 01fc 33040000 		.word	.L20+1
 317 0200 33040000 		.word	.L20+1
 318 0204 57000000 		.word	.L78+1
 319 0208 57000000 		.word	.L78+1
 320 020c 69030000 		.word	.L87+1
 321 0210 69030000 		.word	.L87+1
 322 0214 57000000 		.word	.L78+1
 323 0218 57000000 		.word	.L78+1
 324 021c 69030000 		.word	.L87+1
 325 0220 69030000 		.word	.L87+1
 326 0224 69030000 		.word	.L87+1
 327 0228 69030000 		.word	.L87+1
 328 022c 51040000 		.word	.L17+1
 329 0230 43040000 		.word	.L18+1
 330 0234 51040000 		.word	.L17+1
 331 0238 43040000 		.word	.L18+1
 332 023c A9040000 		.word	.L27+1
 333 0240 9F040000 		.word	.L28+1
 334 0244 9F040000 		.word	.L28+1
 335 0248 9F040000 		.word	.L28+1
 336 024c 9F040000 		.word	.L28+1
ARM GAS  /tmp/ccvHIMcj.s 			page 7


 337 0250 9F040000 		.word	.L28+1
 338 0254 9F040000 		.word	.L28+1
 339 0258 9F040000 		.word	.L28+1
 340 025c 81040000 		.word	.L29+1
 341 0260 67040000 		.word	.L30+1
 342 0264 B9040000 		.word	.L31+1
 343 0268 B1040000 		.word	.L32+1
 344 026c CF030000 		.word	.L33+1
 345 0270 CF030000 		.word	.L33+1
 346 0274 B9030000 		.word	.L34+1
 347 0278 B9030000 		.word	.L34+1
 348 027c B9030000 		.word	.L34+1
 349 0280 B9030000 		.word	.L34+1
 350 0284 57000000 		.word	.L78+1
 351 0288 57000000 		.word	.L78+1
 352 028c 57000000 		.word	.L78+1
 353 0290 57000000 		.word	.L78+1
 354 0294 57000000 		.word	.L78+1
 355 0298 CF030000 		.word	.L33+1
 356 029c B9030000 		.word	.L34+1
 357 02a0 B9030000 		.word	.L34+1
 358 02a4 57000000 		.word	.L78+1
 359 02a8 57000000 		.word	.L78+1
 360 02ac 57000000 		.word	.L78+1
 361 02b0 57000000 		.word	.L78+1
 362 02b4 57000000 		.word	.L78+1
 363 02b8 57000000 		.word	.L78+1
 364 02bc 57000000 		.word	.L78+1
 365 02c0 57000000 		.word	.L78+1
 366 02c4 57000000 		.word	.L78+1
 367 02c8 57000000 		.word	.L78+1
 368 02cc 57000000 		.word	.L78+1
 369 02d0 5F040000 		.word	.L35+1
 370 02d4 5F040000 		.word	.L35+1
 371 02d8 5F040000 		.word	.L35+1
 372 02dc 5F040000 		.word	.L35+1
 373 02e0 5F040000 		.word	.L35+1
 374 02e4 5F040000 		.word	.L35+1
 375 02e8 5F040000 		.word	.L35+1
 376 02ec 57000000 		.word	.L78+1
 377 02f0 57000000 		.word	.L78+1
 378 02f4 57000000 		.word	.L78+1
 379 02f8 57000000 		.word	.L78+1
 380 02fc 57000000 		.word	.L78+1
 381 0300 57000000 		.word	.L78+1
 382 0304 57000000 		.word	.L78+1
 383 0308 57000000 		.word	.L78+1
 384 030c 57000000 		.word	.L78+1
 385 0310 57000000 		.word	.L78+1
 386 0314 CF030000 		.word	.L33+1
 387 0318 B9030000 		.word	.L34+1
 388 031c CF030000 		.word	.L33+1
 389 0320 B9030000 		.word	.L34+1
 390 0324 57000000 		.word	.L78+1
 391 0328 57000000 		.word	.L78+1
 392 032c 57000000 		.word	.L78+1
 393 0330 57000000 		.word	.L78+1
ARM GAS  /tmp/ccvHIMcj.s 			page 8


 394 0334 57000000 		.word	.L78+1
 395              	.LVL21:
 396              	.L62:
 397              	.LBB26:
 398              		.loc 1 1039 0
 399 0338 1F59     		ldr	r7, [r3, r4]
 400 033a E719     		adds	r7, r4, r7
 401              	.LVL22:
 402              		.loc 1 1040 0
 403 033c 043F     		subs	r7, r7, #4
 404              	.LVL23:
 405 033e 01F10804 		add	r4, r1, #8
 406              	.LVL24:
 407 0342 3FD4     		bmi	.L59
 408              		.loc 1 1040 0 is_stmt 0 discriminator 1
 409 0344 9742     		cmp	r7, r2
 410 0346 3DDC     		bgt	.L59
 411              	.LVL25:
 412              		.loc 1 1039 0 is_stmt 1
 413 0348 5F58     		ldr	r7, [r3, r1]
 414 034a C919     		adds	r1, r1, r7
 415              		.loc 1 1040 0
 416 034c 0439     		subs	r1, r1, #4
 417 034e 39D4     		bmi	.L59
 418 0350 9142     		cmp	r1, r2
 419 0352 37DC     		bgt	.L59
 420              	.LVL26:
 421              	.L61:
 422              		.loc 1 1037 0
 423 0354 0135     		adds	r5, r5, #1
 424 0356 AA45     		cmp	sl, r5
 425              		.loc 1 1040 0
 426 0358 04F10801 		add	r1, r4, #8
 427              		.loc 1 1037 0
 428 035c 05F10105 		add	r5, r5, #1
 429 0360 EADA     		bge	.L62
 430              	.L58:
 431              		.loc 1 1049 0
 432 0362 019B     		ldr	r3, [sp, #4]
 433 0364 03EBCA04 		add	r4, r3, sl, lsl #3
 434              	.LVL27:
 435              	.L87:
 436 0368 0434     		adds	r4, r4, #4
 437              	.LVL28:
 438              	.L98:
 439              	.LBE26:
 440              		.loc 1 686 0
 441 036a 9442     		cmp	r4, r2
 442 036c FFF676AE 		blt	.L63
 443              	.L97:
 444              		.loc 1 1085 0
 445 0370 2CF4804C 		bic	ip, ip, #16384
 446              		.loc 1 1086 0
 447 0374 4CF40041 		orr	r1, ip, #32768
 448              		.loc 1 1087 0
 449 0378 1BF0020B 		ands	fp, fp, #2
 450              	.LVL29:
ARM GAS  /tmp/ccvHIMcj.s 			page 9


 451              		.loc 1 1086 0
 452 037c 0163     		str	r1, [r0, #48]	@ unaligned
 453              		.loc 1 1087 0
 454 037e 00F0A280 		beq	.L68
 455              		.loc 1 1088 0
 456 0382 4CF40842 		orr	r2, ip, #34816
 457 0386 0263     		str	r2, [r0, #48]	@ unaligned
 458              		.loc 1 1090 0
 459 0388 0020     		movs	r0, #0
 460              	.LVL30:
 461 038a 11E0     		b	.L14
 462              	.LVL31:
 463              	.L25:
 464              		.loc 1 994 0
 465 038c 1959     		ldr	r1, [r3, r4]
 466 038e 6318     		adds	r3, r4, r1
 467              	.LVL32:
 468              		.loc 1 995 0
 469 0390 043B     		subs	r3, r3, #4
 470              	.LVL33:
 471 0392 17D4     		bmi	.L59
 472              		.loc 1 995 0 is_stmt 0 discriminator 1
 473 0394 9342     		cmp	r3, r2
 474 0396 15DC     		bgt	.L59
 475              	.LVL34:
 476              	.L23:
 477              		.loc 1 1001 0 is_stmt 1
 478 0398 0434     		adds	r4, r4, #4
 479              	.LVL35:
 480              	.L24:
 481              		.loc 1 1009 0
 482 039a 4369     		ldr	r3, [r0, #20]	@ unaligned
 483 039c 002B     		cmp	r3, #0
 484 039e 7FF45AAE 		bne	.L78
 485              	.LVL36:
 486              	.L67:
 487              	.LBB27:
 488              		.loc 1 1017 0
 489 03a2 1C20     		movs	r0, #28
 490              	.LVL37:
 491 03a4 04E0     		b	.L14
 492              	.LVL38:
 493              	.L15:
 494              	.LBE27:
 495              		.loc 1 1054 0
 496 03a6 2CF4804C 		bic	ip, ip, #16384
 497 03aa C0F830C0 		str	ip, [r0, #48]	@ unaligned
 498              		.loc 1 1055 0
 499 03ae 0620     		movs	r0, #6
 500              	.LVL39:
 501              	.L14:
 502              		.loc 1 1091 0
 503 03b0 02B0     		add	sp, sp, #8
 504 03b2 BDE8F00F 		pop	{r4, r5, r6, r7, r8, r9, sl, fp}
 505 03b6 7047     		bx	lr
 506              	.LVL40:
 507              	.L34:
ARM GAS  /tmp/ccvHIMcj.s 			page 10


 508              		.loc 1 824 0
 509 03b8 3F14     		asrs	r7, r7, #16
 510              	.LVL41:
 511              		.loc 1 825 0
 512 03ba 4745     		cmp	r7, r8
 513 03bc 02DB     		blt	.L59
 514              		.loc 1 825 0 is_stmt 0 discriminator 1
 515 03be BE42     		cmp	r6, r7
 516 03c0 BFF649AE 		bge	.L78
 517              	.LVL42:
 518              	.L59:
 519              	.LBB28:
 520              		.loc 1 1041 0 is_stmt 1
 521 03c4 2CF48042 		bic	r2, ip, #16384
 522 03c8 0263     		str	r2, [r0, #48]	@ unaligned
 523              		.loc 1 1042 0
 524 03ca 0420     		movs	r0, #4
 525              	.LVL43:
 526 03cc F0E7     		b	.L14
 527              	.LVL44:
 528              	.L33:
 529              	.LBE28:
 530              		.loc 1 810 0
 531 03ce 3F14     		asrs	r7, r7, #16
 532              	.LVL45:
 533 03d0 F8D4     		bmi	.L59
 534              		.loc 1 810 0 is_stmt 0 discriminator 1
 535 03d2 B945     		cmp	r9, r7
 536 03d4 3FF73FAE 		bgt	.L78
 537 03d8 F4E7     		b	.L59
 538              	.LVL46:
 539              	.L26:
 540              	.LBB29:
 541              		.loc 1 1016 0 is_stmt 1
 542 03da 4169     		ldr	r1, [r0, #20]	@ unaligned
 543              	.LVL47:
 544              		.loc 1 1014 0
 545 03dc 1B59     		ldr	r3, [r3, r4]
 546              	.LVL48:
 547              		.loc 1 1016 0
 548 03de 0029     		cmp	r1, #0
 549 03e0 DFD0     		beq	.L67
 550              		.loc 1 1015 0
 551 03e2 04EBC304 		add	r4, r4, r3, lsl #3
 552              	.LVL49:
 553 03e6 0834     		adds	r4, r4, #8
 554 03e8 35E6     		b	.L78
 555              	.LVL50:
 556              	.L22:
 557              	.LBE29:
 558              	.LBB30:
 559              		.loc 1 1036 0
 560 03ea 53F804A0 		ldr	sl, [r3, r4]
 561              	.LVL51:
 562 03ee 0434     		adds	r4, r4, #4
 563              	.LVL52:
 564              		.loc 1 1037 0
ARM GAS  /tmp/ccvHIMcj.s 			page 11


 565 03f0 BAF1000F 		cmp	sl, #0
 566              		.loc 1 1036 0
 567 03f4 0194     		str	r4, [sp, #4]
 568              	.LVL53:
 569              		.loc 1 1037 0
 570 03f6 B4DB     		blt	.L58
 571              	.LVL54:
 572              		.loc 1 1039 0
 573 03f8 1C59     		ldr	r4, [r3, r4]
 574              	.LVL55:
 575 03fa 019D     		ldr	r5, [sp, #4]
 576              	.LVL56:
 577 03fc 2C19     		adds	r4, r5, r4
 578              	.LVL57:
 579              		.loc 1 1040 0
 580 03fe 043C     		subs	r4, r4, #4
 581              	.LVL58:
 582 0400 E0D4     		bmi	.L59
 583 0402 9442     		cmp	r4, r2
 584 0404 DEDC     		bgt	.L59
 585              		.loc 1 1037 0
 586 0406 0025     		movs	r5, #0
 587              	.LVL59:
 588 0408 1AF0010F 		tst	sl, #1
 589              		.loc 1 1042 0
 590 040c 01F11004 		add	r4, r1, #16
 591              	.LVL60:
 592 0410 A0D0     		beq	.L61
 593              		.loc 1 1037 0
 594 0412 0125     		movs	r5, #1
 595              	.LVL61:
 596 0414 AA45     		cmp	sl, r5
 597 0416 A4DB     		blt	.L58
 598              	.LVL62:
 599              		.loc 1 1039 0
 600 0418 1F59     		ldr	r7, [r3, r4]
 601              	.LVL63:
 602 041a E419     		adds	r4, r4, r7
 603              	.LVL64:
 604              		.loc 1 1040 0
 605 041c 271F     		subs	r7, r4, #4
 606 041e D1D4     		bmi	.L59
 607 0420 9742     		cmp	r7, r2
 608 0422 01F11804 		add	r4, r1, #24
 609 0426 95DD     		ble	.L61
 610 0428 CCE7     		b	.L59
 611              	.LVL65:
 612              	.L21:
 613              	.LBE30:
 614              		.loc 1 1023 0
 615 042a 0434     		adds	r4, r4, #4
 616              	.LVL66:
 617              		.loc 1 1024 0
 618 042c 4BF0010B 		orr	fp, fp, #1
 619              	.LVL67:
 620              		.loc 1 1025 0
 621 0430 11E6     		b	.L78
ARM GAS  /tmp/ccvHIMcj.s 			page 12


 622              	.L20:
 623              		.loc 1 978 0
 624 0432 1959     		ldr	r1, [r3, r4]
 625              	.LVL68:
 626 0434 6318     		adds	r3, r4, r1
 627              	.LVL69:
 628              		.loc 1 979 0
 629 0436 043B     		subs	r3, r3, #4
 630              	.LVL70:
 631 0438 C4D4     		bmi	.L59
 632              		.loc 1 979 0 is_stmt 0 discriminator 1
 633 043a 9342     		cmp	r3, r2
 634 043c C2DC     		bgt	.L59
 635              	.LBB31:
 636              		.loc 1 1049 0 is_stmt 1
 637 043e 0434     		adds	r4, r4, #4
 638              	.LVL71:
 639 0440 93E7     		b	.L98
 640              	.LVL72:
 641              	.L18:
 642              	.LBE31:
 643              		.loc 1 907 0
 644 0442 1B59     		ldr	r3, [r3, r4]
 645              	.LVL73:
 646              		.loc 1 908 0
 647 0444 4345     		cmp	r3, r8
 648 0446 BDDB     		blt	.L59
 649              		.loc 1 908 0 is_stmt 0 discriminator 1
 650 0448 9E42     		cmp	r6, r3
 651 044a BBDB     		blt	.L59
 652              	.LBB32:
 653              		.loc 1 1049 0 is_stmt 1
 654 044c 0434     		adds	r4, r4, #4
 655              	.LVL74:
 656 044e 8CE7     		b	.L98
 657              	.LVL75:
 658              	.L17:
 659              	.LBE32:
 660              		.loc 1 887 0
 661 0450 1B59     		ldr	r3, [r3, r4]
 662              	.LVL76:
 663              		.loc 1 888 0
 664 0452 002B     		cmp	r3, #0
 665 0454 B6DB     		blt	.L59
 666              		.loc 1 888 0 is_stmt 0 discriminator 1
 667 0456 9945     		cmp	r9, r3
 668 0458 B4DD     		ble	.L59
 669              	.LBB33:
 670              		.loc 1 1049 0 is_stmt 1
 671 045a 0434     		adds	r4, r4, #4
 672              	.LVL77:
 673 045c 85E7     		b	.L98
 674              	.LVL78:
 675              	.L35:
 676              	.LBE33:
 677              		.loc 1 838 0
 678 045e 3F14     		asrs	r7, r7, #16
ARM GAS  /tmp/ccvHIMcj.s 			page 13


 679              	.LVL79:
 680              		.loc 1 839 0
 681 0460 04EB8704 		add	r4, r4, r7, lsl #2
 682              	.LVL80:
 683              		.loc 1 840 0
 684 0464 F7E5     		b	.L78
 685              	.LVL81:
 686              	.L30:
 687              		.loc 1 738 0
 688 0466 1959     		ldr	r1, [r3, r4]
 689              	.LVL82:
 690              		.loc 1 739 0
 691 0468 4145     		cmp	r1, r8
 692 046a ABDB     		blt	.L59
 693              		.loc 1 739 0 is_stmt 0 discriminator 1
 694 046c 8E42     		cmp	r6, r1
 695 046e A9DB     		blt	.L59
 696              		.loc 1 743 0 is_stmt 1
 697 0470 1919     		adds	r1, r3, r4
 698 0472 4B68     		ldr	r3, [r1, #4]
 699              	.LVL83:
 700              		.loc 1 744 0
 701 0474 9845     		cmp	r8, r3
 702 0476 A5DC     		bgt	.L59
 703              	.LVL84:
 704              	.L91:
 705              		.loc 1 762 0 discriminator 1
 706 0478 9E42     		cmp	r6, r3
 707 047a A3DB     		blt	.L59
 708              	.LBB34:
 709              		.loc 1 1015 0
 710 047c 0834     		adds	r4, r4, #8
 711              	.LVL85:
 712 047e EAE5     		b	.L78
 713              	.LVL86:
 714              	.L29:
 715              	.LBE34:
 716              		.loc 1 724 0
 717 0480 1959     		ldr	r1, [r3, r4]
 718              	.LVL87:
 719              		.loc 1 725 0
 720 0482 0029     		cmp	r1, #0
 721 0484 9EDB     		blt	.L59
 722              		.loc 1 725 0 is_stmt 0 discriminator 1
 723 0486 8945     		cmp	r9, r1
 724 0488 9CDD     		ble	.L59
 725              		.loc 1 729 0 is_stmt 1
 726 048a 03EB040A 		add	sl, r3, r4
 727 048e DAF80430 		ldr	r3, [sl, #4]
 728              	.LVL88:
 729              		.loc 1 730 0
 730 0492 002B     		cmp	r3, #0
 731 0494 96DB     		blt	.L59
 732              	.LVL89:
 733              	.L89:
 734              		.loc 1 753 0 discriminator 1
 735 0496 9945     		cmp	r9, r3
ARM GAS  /tmp/ccvHIMcj.s 			page 14


 736 0498 94DD     		ble	.L59
 737              	.LBB35:
 738              		.loc 1 1015 0
 739 049a 0834     		adds	r4, r4, #8
 740              	.LVL90:
 741 049c DBE5     		b	.L78
 742              	.LVL91:
 743              	.L28:
 744              	.LBE35:
 745              		.loc 1 720 0
 746 049e 1B59     		ldr	r3, [r3, r4]
 747              	.LVL92:
 748 04a0 591C     		adds	r1, r3, #1
 749 04a2 04EB8104 		add	r4, r4, r1, lsl #2
 750              	.LVL93:
 751              		.loc 1 721 0
 752 04a6 D6E5     		b	.L78
 753              	.LVL94:
 754              	.L27:
 755              		.loc 1 1028 0
 756 04a8 0834     		adds	r4, r4, #8
 757              	.LVL95:
 758              		.loc 1 1029 0
 759 04aa 4BF0020B 		orr	fp, fp, #2
 760              	.LVL96:
 761              		.loc 1 1030 0
 762 04ae D2E5     		b	.L78
 763              	.L32:
 764              		.loc 1 761 0
 765 04b0 1B59     		ldr	r3, [r3, r4]
 766              	.LVL97:
 767              		.loc 1 762 0
 768 04b2 4345     		cmp	r3, r8
 769 04b4 E0DA     		bge	.L91
 770 04b6 85E7     		b	.L59
 771              	.LVL98:
 772              	.L31:
 773              		.loc 1 752 0
 774 04b8 1B59     		ldr	r3, [r3, r4]
 775              	.LVL99:
 776              		.loc 1 753 0
 777 04ba 002B     		cmp	r3, #0
 778 04bc EBDA     		bge	.L89
 779 04be 81E7     		b	.L59
 780              	.LVL100:
 781              	.L64:
 782              		.loc 1 678 0
 783 04c0 4FF0010B 		mov	fp, #1
 784 04c4 BBE5     		b	.L11
 785              	.LVL101:
 786              	.L68:
 787              		.loc 1 1090 0
 788 04c6 5846     		mov	r0, fp
 789              	.LVL102:
 790 04c8 72E7     		b	.L14
 791              		.cfi_endproc
 792              	.LFE5:
ARM GAS  /tmp/ccvHIMcj.s 			page 15


 793              		.size	VerifyPcode, .-VerifyPcode
 794 04ca 00BFAFF3 		.section	.text.amx_Swap32,"ax",%progbits
 794      0080
 795              		.align	2
 796              		.p2align 4,,15
 797              		.global	amx_Swap32
 798              		.thumb
 799              		.thumb_func
 800              		.type	amx_Swap32, %function
 801              	amx_Swap32:
 802              	.LFB0:
 803              		.loc 1 426 0
 804              		.cfi_startproc
 805              		@ args = 0, pretend = 0, frame = 0
 806              		@ frame_needed = 0, uses_anonymous_args = 0
 807              		@ link register save eliminated.
 808              	.LVL103:
 809              		.loc 1 432 0
 810 0000 0178     		ldrb	r1, [r0, #0]	@ zero_extendqisi2
 811              	.LVL104:
 812              		.loc 1 436 0
 813 0002 4378     		ldrb	r3, [r0, #1]	@ zero_extendqisi2
 814              	.LVL105:
 815              		.loc 1 437 0
 816 0004 8278     		ldrb	r2, [r0, #2]	@ zero_extendqisi2
 817              		.loc 1 426 0
 818 0006 10B4     		push	{r4}
 819              	.LCFI3:
 820              		.cfi_def_cfa_offset 4
 821              		.loc 1 433 0
 822 0008 C478     		ldrb	r4, [r0, #3]	@ zero_extendqisi2
 823              		.cfi_offset 4, -4
 824              		.loc 1 437 0
 825 000a 4270     		strb	r2, [r0, #1]
 826              		.loc 1 433 0
 827 000c 0470     		strb	r4, [r0, #0]
 828              		.loc 1 434 0
 829 000e C170     		strb	r1, [r0, #3]
 830              		.loc 1 438 0
 831 0010 8370     		strb	r3, [r0, #2]
 832              		.loc 1 439 0
 833 0012 10BC     		pop	{r4}
 834 0014 7047     		bx	lr
 835              		.cfi_endproc
 836              	.LFE0:
 837              		.size	amx_Swap32, .-amx_Swap32
 838 0016 00BFAFF3 		.section	.text.amx_Align16,"ax",%progbits
 838      0080AFF3 
 838      0080
 839              		.align	2
 840              		.p2align 4,,15
 841              		.global	amx_Align16
 842              		.thumb
 843              		.thumb_func
 844              		.type	amx_Align16, %function
 845              	amx_Align16:
 846              	.LFB1:
ARM GAS  /tmp/ccvHIMcj.s 			page 16


 847              		.loc 1 470 0
 848              		.cfi_startproc
 849              		@ args = 0, pretend = 0, frame = 0
 850              		@ frame_needed = 0, uses_anonymous_args = 0
 851              		@ link register save eliminated.
 852              	.LVL106:
 853              		.loc 1 477 0
 854 0000 7047     		bx	lr
 855              		.cfi_endproc
 856              	.LFE1:
 857              		.size	amx_Align16, .-amx_Align16
 858 0002 00BFAFF3 		.section	.text.amx_Align32,"ax",%progbits
 858      0080AFF3 
 858      0080AFF3 
 858      0080
 859              		.align	2
 860              		.p2align 4,,15
 861              		.global	amx_Align32
 862              		.thumb
 863              		.thumb_func
 864              		.type	amx_Align32, %function
 865              	amx_Align32:
 866              	.LFB2:
 867              		.loc 1 480 0
 868              		.cfi_startproc
 869              		@ args = 0, pretend = 0, frame = 0
 870              		@ frame_needed = 0, uses_anonymous_args = 0
 871              		@ link register save eliminated.
 872              	.LVL107:
 873              		.loc 1 487 0
 874 0000 7047     		bx	lr
 875              		.cfi_endproc
 876              	.LFE2:
 877              		.size	amx_Align32, .-amx_Align32
 878 0002 00BFAFF3 		.section	.text.amx_Flags,"ax",%progbits
 878      0080AFF3 
 878      0080AFF3 
 878      0080
 879              		.align	2
 880              		.p2align 4,,15
 881              		.global	amx_Flags
 882              		.thumb
 883              		.thumb_func
 884              		.type	amx_Flags, %function
 885              	amx_Flags:
 886              	.LFB3:
 887              		.loc 1 504 0
 888              		.cfi_startproc
 889              		@ args = 0, pretend = 0, frame = 0
 890              		@ frame_needed = 0, uses_anonymous_args = 0
 891              		@ link register save eliminated.
 892              	.LVL108:
 893              		.loc 1 507 0
 894 0000 0023     		movs	r3, #0
 895 0002 0B80     		strh	r3, [r1, #0]	@ movhi
 896              		.loc 1 508 0
 897 0004 28B1     		cbz	r0, .L105
ARM GAS  /tmp/ccvHIMcj.s 			page 17


 898              		.loc 1 510 0
 899 0006 0368     		ldr	r3, [r0, #0]	@ unaligned
 900              	.LVL109:
 901              		.loc 1 511 0
 902 0008 4FF2E012 		movw	r2, #61920
 903 000c 9888     		ldrh	r0, [r3, #4]	@ unaligned
 904              	.LVL110:
 905 000e 9042     		cmp	r0, r2
 906 0010 01D0     		beq	.L108
 907              	.LVL111:
 908              	.L105:
 909              		.loc 1 512 0
 910 0012 1120     		movs	r0, #17
 911 0014 7047     		bx	lr
 912              	.LVL112:
 913              	.L108:
 914              		.loc 1 513 0
 915 0016 93F806C0 		ldrb	ip, [r3, #6]	@ zero_extendqisi2
 916 001a BCF10B0F 		cmp	ip, #11
 917 001e 0CD8     		bhi	.L106
 918              		.loc 1 513 0 is_stmt 0 discriminator 1
 919 0020 D879     		ldrb	r0, [r3, #7]	@ zero_extendqisi2
 920 0022 0A28     		cmp	r0, #10
 921 0024 07D9     		bls	.L107
 922              		.loc 1 515 0 is_stmt 1
 923 0026 1A7A     		ldrb	r2, [r3, #8]	@ zero_extendqisi2
 924 0028 93F809C0 		ldrb	ip, [r3, #9]	@ zero_extendqisi2
 925              		.loc 1 516 0
 926 002c 0020     		movs	r0, #0
 927              		.loc 1 515 0
 928 002e 42EA0C23 		orr	r3, r2, ip, lsl #8
 929              	.LVL113:
 930 0032 0B80     		strh	r3, [r1, #0]	@ movhi
 931              		.loc 1 516 0
 932 0034 7047     		bx	lr
 933              	.LVL114:
 934              	.L107:
 935              		.loc 1 514 0
 936 0036 1220     		movs	r0, #18
 937              		.loc 1 517 0
 938 0038 7047     		bx	lr
 939              	.L106:
 940              		.loc 1 514 0
 941 003a 1220     		movs	r0, #18
 942 003c 7047     		bx	lr
 943              		.cfi_endproc
 944              	.LFE3:
 945              		.size	amx_Flags, .-amx_Flags
 946 003e 00BF     		.section	.text.amx_Init,"ax",%progbits
 947              		.align	2
 948              		.p2align 4,,15
 949              		.global	amx_Init
 950              		.thumb
 951              		.thumb_func
 952              		.type	amx_Init, %function
 953              	amx_Init:
 954              	.LFB6:
ARM GAS  /tmp/ccvHIMcj.s 			page 18


 955              		.loc 1 1099 0
 956              		.cfi_startproc
 957              		@ args = 0, pretend = 0, frame = 0
 958              		@ frame_needed = 0, uses_anonymous_args = 0
 959              	.LVL115:
 960 0000 70B5     		push	{r4, r5, r6, lr}
 961              	.LCFI4:
 962              		.cfi_def_cfa_offset 16
 963              		.loc 1 1121 0
 964 0002 036B     		ldr	r3, [r0, #48]	@ unaligned
 965              		.loc 1 1099 0
 966 0004 0546     		mov	r5, r0
 967              		.cfi_offset 14, -4
 968              		.cfi_offset 6, -8
 969              		.cfi_offset 5, -12
 970              		.cfi_offset 4, -16
 971              		.loc 1 1121 0
 972 0006 13F4004F 		tst	r3, #32768
 973              		.loc 1 1099 0
 974 000a 0C46     		mov	r4, r1
 975              		.loc 1 1121 0
 976 000c 58D1     		bne	.L119
 977              	.LVL116:
 978              		.loc 1 1148 0
 979 000e 8988     		ldrh	r1, [r1, #4]	@ unaligned
 980              	.LVL117:
 981 0010 4FF2E012 		movw	r2, #61920
 982 0014 9142     		cmp	r1, r2
 983 0016 01D0     		beq	.L128
 984              	.LVL118:
 985              	.L124:
 986              		.loc 1 1159 0
 987 0018 1120     		movs	r0, #17
 988 001a 70BD     		pop	{r4, r5, r6, pc}
 989              	.L128:
 990              		.loc 1 1150 0
 991 001c A079     		ldrb	r0, [r4, #6]	@ zero_extendqisi2
 992 001e 0B28     		cmp	r0, #11
 993 0020 50D8     		bhi	.L122
 994              		.loc 1 1150 0 is_stmt 0 discriminator 1
 995 0022 94F807C0 		ldrb	ip, [r4, #7]	@ zero_extendqisi2
 996 0026 BCF10A0F 		cmp	ip, #10
 997 002a 4BD9     		bls	.L122
 998              		.loc 1 1152 0 is_stmt 1
 999 002c B4F90A10 		ldrsh	r1, [r4, #10]	@ unaligned
 1000 0030 0829     		cmp	r1, #8
 1001 0032 F1D1     		bne	.L124
 1002              	.LVL119:
 1003              		.loc 1 1156 0
 1004 0034 606B     		ldr	r0, [r4, #52]	@ unaligned
 1005              		.loc 1 1158 0
 1006 0036 225A     		ldrh	r2, [r4, r0]
 1007 0038 1F2A     		cmp	r2, #31
 1008 003a EDD8     		bhi	.L124
 1009              		.loc 1 1160 0
 1010 003c A069     		ldr	r0, [r4, #24]	@ unaligned
 1011 003e 0028     		cmp	r0, #0
ARM GAS  /tmp/ccvHIMcj.s 			page 19


 1012 0040 56DD     		ble	.L125
 1013              		.loc 1 1171 0
 1014 0042 2C60     		str	r4, [r5, #0]	@ unaligned
 1015              		.loc 1 1174 0
 1016 0044 2169     		ldr	r1, [r4, #16]	@ unaligned
 1017 0046 D4F814C0 		ldr	ip, [r4, #20]	@ unaligned
 1018              		.loc 1 1175 0
 1019 004a 401A     		subs	r0, r0, r1
 1020              		.loc 1 1179 0
 1021 004c EE68     		ldr	r6, [r5, #12]	@ unaligned
 1022              		.loc 1 1174 0
 1023 004e C1EB0C02 		rsb	r2, r1, ip
 1024              		.loc 1 1175 0
 1025 0052 0438     		subs	r0, r0, #4
 1026              		.loc 1 1174 0
 1027 0054 6A62     		str	r2, [r5, #36]	@ unaligned
 1028              		.loc 1 1175 0
 1029 0056 E862     		str	r0, [r5, #44]	@ unaligned
 1030              		.loc 1 1176 0
 1031 0058 2A62     		str	r2, [r5, #32]	@ unaligned
 1032              		.loc 1 1177 0
 1033 005a A862     		str	r0, [r5, #40]	@ unaligned
 1034              		.loc 1 1179 0
 1035 005c 002E     		cmp	r6, #0
 1036 005e 49D0     		beq	.L129
 1037              	.L111:
 1038              		.loc 1 1188 0
 1039 0060 6868     		ldr	r0, [r5, #4]	@ unaligned
 1040 0062 0028     		cmp	r0, #0
 1041 0064 4BD0     		beq	.L130
 1042              	.L112:
 1043              		.loc 1 1190 0
 1044 0066 686F     		ldr	r0, [r5, #116]	@ unaligned
 1045 0068 20B9     		cbnz	r0, .L113
 1046              		.loc 1 1191 0
 1047 006a E668     		ldr	r6, [r4, #12]	@ unaligned
 1048 006c C6EB010C 		rsb	ip, r6, r1
 1049 0070 C5F874C0 		str	ip, [r5, #116]	@ unaligned
 1050              	.L113:
 1051              		.loc 1 1198 0
 1052 0074 AE68     		ldr	r6, [r5, #8]	@ unaligned
 1053 0076 002E     		cmp	r6, #0
 1054 0078 3FD0     		beq	.L114
 1055              	.LVL120:
 1056              		.loc 1 1200 0
 1057 007a 13F0200F 		tst	r3, #32
 1058 007e 02D1     		bne	.L115
 1059              		.loc 1 1200 0 is_stmt 0 discriminator 1
 1060 0080 6B69     		ldr	r3, [r5, #20]	@ unaligned
 1061 0082 002B     		cmp	r3, #0
 1062 0084 43D0     		beq	.L131
 1063              	.LVL121:
 1064              	.L115:
 1065              		.loc 1 1209 0 is_stmt 1
 1066 0086 A369     		ldr	r3, [r4, #24]	@ unaligned
 1067 0088 D4F810C0 		ldr	ip, [r4, #16]	@ unaligned
 1068 008c 0022     		movs	r2, #0
ARM GAS  /tmp/ccvHIMcj.s 			page 20


 1069 008e CCEB0300 		rsb	r0, ip, r3
 1070 0092 3618     		adds	r6, r6, r0
 1071              	.LVL122:
 1072 0094 46F8042C 		str	r2, [r6, #-4]
 1073              		.loc 1 1263 0
 1074 0098 2189     		ldrh	r1, [r4, #8]	@ unaligned
 1075 009a 11F0010F 		tst	r1, #1
 1076 009e 22D0     		beq	.L132
 1077              	.LBB36:
 1078              		.loc 1 1267 0
 1079 00a0 6B69     		ldr	r3, [r5, #20]	@ unaligned
 1080 00a2 002B     		cmp	r3, #0
 1081 00a4 31D0     		beq	.L126
 1082              	.LVL123:
 1083              		.loc 1 1271 0 discriminator 1
 1084 00a6 606B     		ldr	r0, [r4, #52]	@ unaligned
 1085 00a8 D4F838C0 		ldr	ip, [r4, #56]	@ unaligned
 1086 00ac CCEB0001 		rsb	r1, ip, r0
 1087 00b0 C808     		lsrs	r0, r1, #3
 1088 00b2 04D0     		beq	.L110
 1089              		.loc 1 1271 0 is_stmt 0
 1090 00b4 1646     		mov	r6, r2
 1091              	.LVL124:
 1092              	.L118:
 1093              		.loc 1 1272 0 is_stmt 1
 1094 00b6 3146     		mov	r1, r6
 1095 00b8 2846     		mov	r0, r5
 1096 00ba 9847     		blx	r3
 1097              	.LVL125:
 1098              		.loc 1 1273 0
 1099 00bc 20B1     		cbz	r0, .L133
 1100              	.LVL126:
 1101              	.L110:
 1102              	.LBE36:
 1103              		.loc 1 1336 0
 1104 00be 70BD     		pop	{r4, r5, r6, pc}
 1105              	.LVL127:
 1106              	.L119:
 1107              		.loc 1 1122 0
 1108 00c0 1620     		movs	r0, #22
 1109 00c2 70BD     		pop	{r4, r5, r6, pc}
 1110              	.LVL128:
 1111              	.L122:
 1112              		.loc 1 1151 0
 1113 00c4 1220     		movs	r0, #18
 1114 00c6 70BD     		pop	{r4, r5, r6, pc}
 1115              	.LVL129:
 1116              	.L133:
 1117              	.LBB37:
 1118              		.loc 1 1274 0
 1119 00c8 2846     		mov	r0, r5
 1120              	.LVL130:
 1121              		.loc 1 1271 0
 1122 00ca 0136     		adds	r6, r6, #1
 1123              		.loc 1 1274 0
 1124 00cc FFF7FEFF 		bl	VerifyPcode
 1125              	.LVL131:
ARM GAS  /tmp/ccvHIMcj.s 			page 21


 1126              		.loc 1 1271 0
 1127 00d0 0028     		cmp	r0, #0
 1128 00d2 F4D1     		bne	.L110
 1129              		.loc 1 1271 0 is_stmt 0 discriminator 2
 1130 00d4 626B     		ldr	r2, [r4, #52]	@ unaligned
 1131 00d6 A36B     		ldr	r3, [r4, #56]	@ unaligned
 1132 00d8 C3EB020E 		rsb	lr, r3, r2
 1133 00dc B6EBDE0F 		cmp	r6, lr, lsr #3
 1134 00e0 EDDA     		bge	.L110
 1135              		.loc 1 1271 0
 1136 00e2 6B69     		ldr	r3, [r5, #20]	@ unaligned
 1137 00e4 E7E7     		b	.L118
 1138              	.LVL132:
 1139              	.L132:
 1140              	.LBE37:
 1141              		.loc 1 1264 0 is_stmt 1
 1142 00e6 2846     		mov	r0, r5
 1143              		.loc 1 1336 0
 1144 00e8 BDE87040 		pop	{r4, r5, r6, lr}
 1145              		.loc 1 1264 0
 1146 00ec FFF7FEBF 		b	VerifyPcode
 1147              	.LVL133:
 1148              	.L125:
 1149              		.loc 1 1161 0
 1150 00f0 1120     		movs	r0, #17
 1151 00f2 E4E7     		b	.L110
 1152              	.L129:
 1153              		.loc 1 1180 0
 1154 00f4 084E     		ldr	r6, .L134
 1155 00f6 EE60     		str	r6, [r5, #12]	@ unaligned
 1156 00f8 B2E7     		b	.L111
 1157              	.L114:
 1158              		.loc 1 1203 0
 1159 00fa 6618     		adds	r6, r4, r1
 1160              	.LVL134:
 1161 00fc C3E7     		b	.L115
 1162              	.LVL135:
 1163              	.L130:
 1164              		.loc 1 1189 0
 1165 00fe E668     		ldr	r6, [r4, #12]	@ unaligned
 1166 0100 04EB060C 		add	ip, r4, r6
 1167 0104 C5F804C0 		str	ip, [r5, #4]	@ unaligned
 1168 0108 ADE7     		b	.L112
 1169              	.LVL136:
 1170              	.L126:
 1171              	.LBB38:
 1172              		.loc 1 1267 0
 1173 010a 1C20     		movs	r0, #28
 1174              	.LVL137:
 1175 010c 70BD     		pop	{r4, r5, r6, pc}
 1176              	.LVL138:
 1177              	.L131:
 1178              	.LBE38:
 1179              		.loc 1 1201 0
 1180 010e 3046     		mov	r0, r6
 1181 0110 6118     		adds	r1, r4, r1
 1182 0112 FFF7FEFF 		bl	memcpy
ARM GAS  /tmp/ccvHIMcj.s 			page 22


 1183              	.LVL139:
 1184 0116 B6E7     		b	.L115
 1185              	.L135:
 1186              		.align	2
 1187              	.L134:
 1188 0118 00000000 		.word	amx_Callback
 1189              		.cfi_endproc
 1190              	.LFE6:
 1191              		.size	amx_Init, .-amx_Init
 1192 011c AFF30080 		.section	.text.amx_InitJIT,"ax",%progbits
 1193              		.align	2
 1194              		.p2align 4,,15
 1195              		.global	amx_InitJIT
 1196              		.thumb
 1197              		.thumb_func
 1198              		.type	amx_InitJIT, %function
 1199              	amx_InitJIT:
 1200              	.LFB7:
 1201              		.loc 1 1427 0
 1202              		.cfi_startproc
 1203              		@ args = 0, pretend = 0, frame = 0
 1204              		@ frame_needed = 0, uses_anonymous_args = 0
 1205              		@ link register save eliminated.
 1206              	.LVL140:
 1207              		.loc 1 1432 0
 1208 0000 1820     		movs	r0, #24
 1209              	.LVL141:
 1210 0002 7047     		bx	lr
 1211              		.cfi_endproc
 1212              	.LFE7:
 1213              		.size	amx_InitJIT, .-amx_InitJIT
 1214 0004 AFF30080 		.section	.text.amx_Cleanup,"ax",%progbits
 1214      AFF30080 
 1214      AFF30080 
 1215              		.align	2
 1216              		.p2align 4,,15
 1217              		.global	amx_Cleanup
 1218              		.thumb
 1219              		.thumb_func
 1220              		.type	amx_Cleanup, %function
 1221              	amx_Cleanup:
 1222              	.LFB8:
 1223              		.loc 1 1440 0
 1224              		.cfi_startproc
 1225              		@ args = 0, pretend = 0, frame = 0
 1226              		@ frame_needed = 0, uses_anonymous_args = 0
 1227              		@ link register save eliminated.
 1228              	.LVL142:
 1229              		.loc 1 1478 0
 1230 0000 0020     		movs	r0, #0
 1231              	.LVL143:
 1232 0002 7047     		bx	lr
 1233              		.cfi_endproc
 1234              	.LFE8:
 1235              		.size	amx_Cleanup, .-amx_Cleanup
 1236 0004 AFF30080 		.section	.text.amx_Clone,"ax",%progbits
 1236      AFF30080 
ARM GAS  /tmp/ccvHIMcj.s 			page 23


 1236      AFF30080 
 1237              		.align	2
 1238              		.p2align 4,,15
 1239              		.global	amx_Clone
 1240              		.thumb
 1241              		.thumb_func
 1242              		.type	amx_Clone, %function
 1243              	amx_Clone:
 1244              	.LFB9:
 1245              		.loc 1 1483 0
 1246              		.cfi_startproc
 1247              		@ args = 0, pretend = 0, frame = 0
 1248              		@ frame_needed = 0, uses_anonymous_args = 0
 1249              	.LVL144:
 1250 0000 F8B5     		push	{r3, r4, r5, r6, r7, lr}
 1251              	.LCFI5:
 1252              		.cfi_def_cfa_offset 24
 1253              		.loc 1 1483 0
 1254 0002 0446     		mov	r4, r0
 1255              		.cfi_offset 14, -4
 1256              		.cfi_offset 7, -8
 1257              		.cfi_offset 6, -12
 1258              		.cfi_offset 5, -16
 1259              		.cfi_offset 4, -20
 1260              		.cfi_offset 3, -24
 1261              		.loc 1 1487 0
 1262 0004 59B1     		cbz	r1, .L146
 1263              		.loc 1 1489 0
 1264 0006 0028     		cmp	r0, #0
 1265 0008 3DD0     		beq	.L144
 1266              		.loc 1 1491 0
 1267 000a 0E6B     		ldr	r6, [r1, #48]	@ unaligned
 1268 000c 16F4004F 		tst	r6, #32768
 1269 0010 35D0     		beq	.L145
 1270              		.loc 1 1493 0
 1271 0012 0D68     		ldr	r5, [r1, #0]	@ unaligned
 1272              	.LVL145:
 1273              		.loc 1 1494 0
 1274 0014 4FF2E013 		movw	r3, #61920
 1275 0018 A888     		ldrh	r0, [r5, #4]	@ unaligned
 1276              	.LVL146:
 1277 001a 9842     		cmp	r0, r3
 1278 001c 01D0     		beq	.L149
 1279              	.LVL147:
 1280              	.L146:
 1281              		.loc 1 1495 0
 1282 001e 1120     		movs	r0, #17
 1283 0020 F8BD     		pop	{r3, r4, r5, r6, r7, pc}
 1284              	.LVL148:
 1285              	.L149:
 1286              		.loc 1 1496 0
 1287 0022 95F806C0 		ldrb	ip, [r5, #6]	@ zero_extendqisi2
 1288 0026 BCF10B0F 		cmp	ip, #11
 1289 002a 2AD8     		bhi	.L147
 1290              		.loc 1 1496 0 is_stmt 0 discriminator 1
 1291 002c E879     		ldrb	r0, [r5, #7]	@ zero_extendqisi2
 1292 002e 0A28     		cmp	r0, #10
ARM GAS  /tmp/ccvHIMcj.s 			page 24


 1293 0030 2BD9     		bls	.L148
 1294              		.loc 1 1500 0 is_stmt 1
 1295 0032 2560     		str	r5, [r4, #0]	@ unaligned
 1296              		.loc 1 1501 0
 1297 0034 4868     		ldr	r0, [r1, #4]	@ unaligned
 1298              		.loc 1 1507 0
 1299 0036 E768     		ldr	r7, [r4, #12]	@ unaligned
 1300              		.loc 1 1501 0
 1301 0038 6060     		str	r0, [r4, #4]	@ unaligned
 1302              		.loc 1 1502 0
 1303 003a D1F874C0 		ldr	ip, [r1, #116]	@ unaligned
 1304 003e C4F874C0 		str	ip, [r4, #116]	@ unaligned
 1305              		.loc 1 1503 0
 1306 0042 2869     		ldr	r0, [r5, #16]	@ unaligned
 1307 0044 6B69     		ldr	r3, [r5, #20]	@ unaligned
 1308 0046 1B1A     		subs	r3, r3, r0
 1309 0048 6362     		str	r3, [r4, #36]	@ unaligned
 1310              		.loc 1 1504 0
 1311 004a D5F818E0 		ldr	lr, [r5, #24]	@ unaligned
 1312              		.loc 1 1505 0
 1313 004e 2362     		str	r3, [r4, #32]	@ unaligned
 1314              		.loc 1 1504 0
 1315 0050 C0EB0E05 		rsb	r5, r0, lr
 1316              	.LVL149:
 1317 0054 043D     		subs	r5, r5, #4
 1318 0056 E562     		str	r5, [r4, #44]	@ unaligned
 1319              		.loc 1 1506 0
 1320 0058 A562     		str	r5, [r4, #40]	@ unaligned
 1321              		.loc 1 1507 0
 1322 005a C7B1     		cbz	r7, .L150
 1323              	.L140:
 1324              		.loc 1 1509 0
 1325 005c 2569     		ldr	r5, [r4, #16]	@ unaligned
 1326 005e 002D     		cmp	r5, #0
 1327 0060 1BD0     		beq	.L151
 1328              	.L141:
 1329              		.loc 1 1511 0
 1330 0062 2663     		str	r6, [r4, #48]	@ unaligned
 1331              		.loc 1 1515 0
 1332 0064 A260     		str	r2, [r4, #8]	@ unaligned
 1333              		.loc 1 1516 0
 1334 0066 8D68     		ldr	r5, [r1, #8]	@ unaligned
 1335 0068 A5B1     		cbz	r5, .L152
 1336              	.LVL150:
 1337              	.L142:
 1338              		.loc 1 1517 0 discriminator 3
 1339 006a 1046     		mov	r0, r2
 1340 006c 2946     		mov	r1, r5
 1341 006e 1A46     		mov	r2, r3
 1342              	.LVL151:
 1343 0070 FFF7FEFF 		bl	memcpy
 1344              	.LVL152:
 1345              		.loc 1 1522 0 discriminator 3
 1346 0074 A268     		ldr	r2, [r4, #8]	@ unaligned
 1347 0076 E36A     		ldr	r3, [r4, #44]	@ unaligned
 1348 0078 0020     		movs	r0, #0
 1349 007a D050     		str	r0, [r2, r3]
ARM GAS  /tmp/ccvHIMcj.s 			page 25


 1350              		.loc 1 1524 0 discriminator 3
 1351 007c F8BD     		pop	{r3, r4, r5, r6, r7, pc}
 1352              	.LVL153:
 1353              	.L145:
 1354              		.loc 1 1492 0
 1355 007e 1620     		movs	r0, #22
 1356 0080 F8BD     		pop	{r3, r4, r5, r6, r7, pc}
 1357              	.LVL154:
 1358              	.L147:
 1359              		.loc 1 1497 0
 1360 0082 1220     		movs	r0, #18
 1361 0084 F8BD     		pop	{r3, r4, r5, r6, r7, pc}
 1362              	.LVL155:
 1363              	.L144:
 1364              		.loc 1 1490 0
 1365 0086 1920     		movs	r0, #25
 1366 0088 F8BD     		pop	{r3, r4, r5, r6, r7, pc}
 1367              	.LVL156:
 1368              	.L148:
 1369              		.loc 1 1497 0
 1370 008a 1220     		movs	r0, #18
 1371              		.loc 1 1525 0
 1372 008c F8BD     		pop	{r3, r4, r5, r6, r7, pc}
 1373              	.LVL157:
 1374              	.L150:
 1375              		.loc 1 1508 0
 1376 008e CD68     		ldr	r5, [r1, #12]	@ unaligned
 1377 0090 E560     		str	r5, [r4, #12]	@ unaligned
 1378 0092 E3E7     		b	.L140
 1379              	.L152:
 1380              		.loc 1 1516 0 discriminator 2
 1381 0094 0968     		ldr	r1, [r1, #0]	@ unaligned
 1382              	.LVL158:
 1383 0096 0D18     		adds	r5, r1, r0
 1384 0098 E7E7     		b	.L142
 1385              	.LVL159:
 1386              	.L151:
 1387              		.loc 1 1510 0
 1388 009a D1F810E0 		ldr	lr, [r1, #16]	@ unaligned
 1389 009e C4F810E0 		str	lr, [r4, #16]	@ unaligned
 1390 00a2 DEE7     		b	.L141
 1391              		.cfi_endproc
 1392              	.LFE9:
 1393              		.size	amx_Clone, .-amx_Clone
 1394 00a4 AFF30080 		.section	.text.amx_MemInfo,"ax",%progbits
 1394      AFF30080 
 1394      AFF30080 
 1395              		.align	2
 1396              		.p2align 4,,15
 1397              		.global	amx_MemInfo
 1398              		.thumb
 1399              		.thumb_func
 1400              		.type	amx_MemInfo, %function
 1401              	amx_MemInfo:
 1402              	.LFB10:
 1403              		.loc 1 1530 0
 1404              		.cfi_startproc
ARM GAS  /tmp/ccvHIMcj.s 			page 26


 1405              		@ args = 0, pretend = 0, frame = 0
 1406              		@ frame_needed = 0, uses_anonymous_args = 0
 1407              		@ link register save eliminated.
 1408              	.LVL160:
 1409 0000 70B4     		push	{r4, r5, r6}
 1410              	.LCFI6:
 1411              		.cfi_def_cfa_offset 12
 1412              		.loc 1 1533 0
 1413 0002 28B1     		cbz	r0, .L158
 1414              		.cfi_offset 6, -4
 1415              		.cfi_offset 5, -8
 1416              		.cfi_offset 4, -12
 1417              		.loc 1 1535 0
 1418 0004 0468     		ldr	r4, [r0, #0]	@ unaligned
 1419              	.LVL161:
 1420              		.loc 1 1536 0
 1421 0006 4FF2E015 		movw	r5, #61920
 1422 000a A688     		ldrh	r6, [r4, #4]	@ unaligned
 1423 000c AE42     		cmp	r6, r5
 1424 000e 02D0     		beq	.L162
 1425              	.LVL162:
 1426              	.L158:
 1427              		.loc 1 1537 0
 1428 0010 1120     		movs	r0, #17
 1429              	.LVL163:
 1430              	.L154:
 1431              		.loc 1 1549 0
 1432 0012 70BC     		pop	{r4, r5, r6}
 1433 0014 7047     		bx	lr
 1434              	.LVL164:
 1435              	.L162:
 1436              		.loc 1 1538 0
 1437 0016 A579     		ldrb	r5, [r4, #6]	@ zero_extendqisi2
 1438 0018 0B2D     		cmp	r5, #11
 1439 001a 15D8     		bhi	.L160
 1440              		.loc 1 1538 0 is_stmt 0 discriminator 1
 1441 001c E579     		ldrb	r5, [r4, #7]	@ zero_extendqisi2
 1442 001e 0A2D     		cmp	r5, #10
 1443 0020 12D9     		bls	.L160
 1444              		.loc 1 1541 0 is_stmt 1
 1445 0022 09B1     		cbz	r1, .L155
 1446              		.loc 1 1542 0
 1447 0024 406F     		ldr	r0, [r0, #116]	@ unaligned
 1448              	.LVL165:
 1449 0026 0860     		str	r0, [r1, #0]
 1450              	.L155:
 1451              		.loc 1 1543 0
 1452 0028 2AB1     		cbz	r2, .L156
 1453              		.loc 1 1544 0
 1454 002a 6069     		ldr	r0, [r4, #20]	@ unaligned
 1455 002c D4F810C0 		ldr	ip, [r4, #16]	@ unaligned
 1456 0030 CCEB0001 		rsb	r1, ip, r0
 1457              	.LVL166:
 1458 0034 1160     		str	r1, [r2, #0]
 1459              	.L156:
 1460              		.loc 1 1545 0
 1461 0036 4BB1     		cbz	r3, .L161
ARM GAS  /tmp/ccvHIMcj.s 			page 27


 1462              		.loc 1 1546 0
 1463 0038 A169     		ldr	r1, [r4, #24]	@ unaligned
 1464 003a D4F814C0 		ldr	ip, [r4, #20]	@ unaligned
 1465              		.loc 1 1548 0
 1466 003e 0020     		movs	r0, #0
 1467              		.loc 1 1546 0
 1468 0040 CCEB0102 		rsb	r2, ip, r1
 1469              	.LVL167:
 1470 0044 1A60     		str	r2, [r3, #0]
 1471 0046 E4E7     		b	.L154
 1472              	.LVL168:
 1473              	.L160:
 1474              		.loc 1 1539 0
 1475 0048 1220     		movs	r0, #18
 1476              	.LVL169:
 1477 004a E2E7     		b	.L154
 1478              	.LVL170:
 1479              	.L161:
 1480              		.loc 1 1548 0
 1481 004c 1846     		mov	r0, r3
 1482 004e E0E7     		b	.L154
 1483              		.cfi_endproc
 1484              	.LFE10:
 1485              		.size	amx_MemInfo, .-amx_MemInfo
 1486              		.section	.text.amx_NameLength,"ax",%progbits
 1487              		.align	2
 1488              		.p2align 4,,15
 1489              		.global	amx_NameLength
 1490              		.thumb
 1491              		.thumb_func
 1492              		.type	amx_NameLength, %function
 1493              	amx_NameLength:
 1494              	.LFB11:
 1495              		.loc 1 1554 0
 1496              		.cfi_startproc
 1497              		@ args = 0, pretend = 0, frame = 0
 1498              		@ frame_needed = 0, uses_anonymous_args = 0
 1499              		@ link register save eliminated.
 1500              	.LVL171:
 1501              		.loc 1 1559 0
 1502 0000 D0F800C0 		ldr	ip, [r0, #0]	@ unaligned
 1503              	.LVL172:
 1504              		.loc 1 1565 0
 1505 0004 0020     		movs	r0, #0
 1506              	.LVL173:
 1507              		.loc 1 1562 0
 1508 0006 DCF83420 		ldr	r2, [ip, #52]	@ unaligned
 1509              		.loc 1 1563 0
 1510 000a 3CF80230 		ldrh	r3, [ip, r2]
 1511 000e 0B60     		str	r3, [r1, #0]
 1512              		.loc 1 1565 0
 1513 0010 7047     		bx	lr
 1514              		.cfi_endproc
 1515              	.LFE11:
 1516              		.size	amx_NameLength, .-amx_NameLength
 1517 0012 00BFAFF3 		.section	.text.amx_NumNatives,"ax",%progbits
 1517      0080AFF3 
ARM GAS  /tmp/ccvHIMcj.s 			page 28


 1517      0080AFF3 
 1517      0080
 1518              		.align	2
 1519              		.p2align 4,,15
 1520              		.global	amx_NumNatives
 1521              		.thumb
 1522              		.thumb_func
 1523              		.type	amx_NumNatives, %function
 1524              	amx_NumNatives:
 1525              	.LFB12:
 1526              		.loc 1 1570 0
 1527              		.cfi_startproc
 1528              		@ args = 0, pretend = 0, frame = 0
 1529              		@ frame_needed = 0, uses_anonymous_args = 0
 1530              		@ link register save eliminated.
 1531              	.LVL174:
 1532 0000 30B4     		push	{r4, r5}
 1533              	.LCFI7:
 1534              		.cfi_def_cfa_offset 8
 1535              		.loc 1 1571 0
 1536 0002 0368     		ldr	r3, [r0, #0]	@ unaligned
 1537              	.LVL175:
 1538              		.loc 1 1577 0
 1539 0004 0020     		movs	r0, #0
 1540              	.LVL176:
 1541              		.loc 1 1575 0
 1542 0006 9D6A     		ldr	r5, [r3, #40]	@ unaligned
 1543              		.cfi_offset 5, -4
 1544              		.cfi_offset 4, -8
 1545 0008 5C6A     		ldr	r4, [r3, #36]	@ unaligned
 1546 000a B3F90A20 		ldrsh	r2, [r3, #10]	@ unaligned
 1547 000e C4EB050C 		rsb	ip, r4, r5
 1548 0012 9CFBF2F3 		sdiv	r3, ip, r2
 1549              	.LVL177:
 1550 0016 0B60     		str	r3, [r1, #0]
 1551              		.loc 1 1577 0
 1552 0018 30BC     		pop	{r4, r5}
 1553 001a 7047     		bx	lr
 1554              		.cfi_endproc
 1555              	.LFE12:
 1556              		.size	amx_NumNatives, .-amx_NumNatives
 1557 001c AFF30080 		.section	.text.amx_GetNative,"ax",%progbits
 1558              		.align	2
 1559              		.p2align 4,,15
 1560              		.global	amx_GetNative
 1561              		.thumb
 1562              		.thumb_func
 1563              		.type	amx_GetNative, %function
 1564              	amx_GetNative:
 1565              	.LFB13:
 1566              		.loc 1 1580 0
 1567              		.cfi_startproc
 1568              		@ args = 0, pretend = 0, frame = 0
 1569              		@ frame_needed = 0, uses_anonymous_args = 0
 1570              	.LVL178:
 1571 0000 70B5     		push	{r4, r5, r6, lr}
 1572              	.LCFI8:
ARM GAS  /tmp/ccvHIMcj.s 			page 29


 1573              		.cfi_def_cfa_offset 16
 1574              		.loc 1 1584 0
 1575 0002 0368     		ldr	r3, [r0, #0]	@ unaligned
 1576              	.LVL179:
 1577              		.loc 1 1588 0
 1578 0004 5D6A     		ldr	r5, [r3, #36]	@ unaligned
 1579              		.cfi_offset 14, -4
 1580              		.cfi_offset 6, -8
 1581              		.cfi_offset 5, -12
 1582              		.cfi_offset 4, -16
 1583 0006 986A     		ldr	r0, [r3, #40]	@ unaligned
 1584              	.LVL180:
 1585 0008 B3F90A40 		ldrsh	r4, [r3, #10]	@ unaligned
 1586 000c 461B     		subs	r6, r0, r5
 1587 000e 96FBF4F6 		sdiv	r6, r6, r4
 1588 0012 8E42     		cmp	r6, r1
 1589 0014 01DC     		bgt	.L168
 1590              		.loc 1 1589 0
 1591 0016 1420     		movs	r0, #20
 1592              		.loc 1 1594 0
 1593 0018 70BD     		pop	{r4, r5, r6, pc}
 1594              	.L168:
 1595              		.loc 1 1592 0
 1596 001a 5D19     		adds	r5, r3, r5
 1597 001c 04FB015C 		mla	ip, r4, r1, r5
 1598 0020 DCF80410 		ldr	r1, [ip, #4]	@ unaligned
 1599              	.LVL181:
 1600 0024 1046     		mov	r0, r2
 1601 0026 5918     		adds	r1, r3, r1
 1602 0028 FFF7FEFF 		bl	strcpy
 1603              	.LVL182:
 1604              		.loc 1 1593 0
 1605 002c 0020     		movs	r0, #0
 1606 002e 70BD     		pop	{r4, r5, r6, pc}
 1607              		.cfi_endproc
 1608              	.LFE13:
 1609              		.size	amx_GetNative, .-amx_GetNative
 1610              		.section	.text.amx_FindNative,"ax",%progbits
 1611              		.align	2
 1612              		.p2align 4,,15
 1613              		.global	amx_FindNative
 1614              		.thumb
 1615              		.thumb_func
 1616              		.type	amx_FindNative, %function
 1617              	amx_FindNative:
 1618              	.LFB14:
 1619              		.loc 1 1597 0
 1620              		.cfi_startproc
 1621              		@ args = 0, pretend = 0, frame = 32
 1622              		@ frame_needed = 0, uses_anonymous_args = 0
 1623              	.LVL183:
 1624 0000 2DE9F043 		push	{r4, r5, r6, r7, r8, r9, lr}
 1625              	.LCFI9:
 1626              		.cfi_def_cfa_offset 28
 1627              	.LBB39:
 1628              	.LBB40:
 1629              		.loc 1 1571 0
ARM GAS  /tmp/ccvHIMcj.s 			page 30


 1630 0004 D0F800C0 		ldr	ip, [r0, #0]	@ unaligned
 1631              	.LBE40:
 1632              	.LBE39:
 1633              		.loc 1 1597 0
 1634 0008 0E46     		mov	r6, r1
 1635              		.cfi_offset 14, -4
 1636              		.cfi_offset 9, -8
 1637              		.cfi_offset 8, -12
 1638              		.cfi_offset 7, -16
 1639              		.cfi_offset 6, -20
 1640              		.cfi_offset 5, -24
 1641              		.cfi_offset 4, -28
 1642              	.LBB42:
 1643              	.LBB41:
 1644              		.loc 1 1575 0
 1645 000a DCF82880 		ldr	r8, [ip, #40]	@ unaligned
 1646 000e DCF82410 		ldr	r1, [ip, #36]	@ unaligned
 1647              	.LVL184:
 1648 0012 BCF90A30 		ldrsh	r3, [ip, #10]	@ unaligned
 1649 0016 C1EB0807 		rsb	r7, r1, r8
 1650 001a 97FBF3F7 		sdiv	r7, r7, r3
 1651              	.LBE41:
 1652              	.LBE42:
 1653              		.loc 1 1603 0
 1654 001e 002F     		cmp	r7, #0
 1655              		.loc 1 1597 0
 1656 0020 89B0     		sub	sp, sp, #36
 1657              	.LCFI10:
 1658              		.cfi_def_cfa_offset 64
 1659              		.loc 1 1597 0
 1660 0022 0546     		mov	r5, r0
 1661              	.LVL185:
 1662 0024 9046     		mov	r8, r2
 1663              		.loc 1 1603 0
 1664 0026 43DD     		ble	.L170
 1665              	.LVL186:
 1666 0028 0024     		movs	r4, #0
 1667              		.loc 1 1604 0
 1668 002a 6A46     		mov	r2, sp
 1669              	.LVL187:
 1670 002c 2146     		mov	r1, r4
 1671 002e FFF7FEFF 		bl	amx_GetNative
 1672              	.LVL188:
 1673              		.loc 1 1605 0
 1674 0032 6846     		mov	r0, sp
 1675 0034 3146     		mov	r1, r6
 1676 0036 FFF7FEFF 		bl	strcmp
 1677 003a 07F1FF39 		add	r9, r7, #-1
 1678 003e 09F00109 		and	r9, r9, #1
 1679 0042 0346     		mov	r3, r0
 1680 0044 0028     		cmp	r0, #0
 1681 0046 2FD0     		beq	.L183
 1682              		.loc 1 1603 0
 1683 0048 0124     		movs	r4, #1
 1684              	.LVL189:
 1685 004a BC42     		cmp	r4, r7
 1686 004c 30D0     		beq	.L170
ARM GAS  /tmp/ccvHIMcj.s 			page 31


 1687 004e B9F1000F 		cmp	r9, #0
 1688 0052 1BD0     		beq	.L173
 1689              		.loc 1 1604 0
 1690 0054 6A46     		mov	r2, sp
 1691 0056 2146     		mov	r1, r4
 1692 0058 2846     		mov	r0, r5
 1693 005a FFF7FEFF 		bl	amx_GetNative
 1694              		.loc 1 1605 0
 1695 005e 6846     		mov	r0, sp
 1696 0060 3146     		mov	r1, r6
 1697 0062 FFF7FEFF 		bl	strcmp
 1698 0066 0346     		mov	r3, r0
 1699 0068 F0B1     		cbz	r0, .L183
 1700              		.loc 1 1603 0
 1701 006a 0224     		movs	r4, #2
 1702              	.LVL190:
 1703 006c BC42     		cmp	r4, r7
 1704 006e 0DD1     		bne	.L173
 1705 0070 1EE0     		b	.L170
 1706              	.L171:
 1707 0072 0134     		adds	r4, r4, #1
 1708              	.LVL191:
 1709              		.loc 1 1604 0
 1710 0074 2146     		mov	r1, r4
 1711 0076 FFF7FEFF 		bl	amx_GetNative
 1712              		.loc 1 1605 0
 1713 007a 6846     		mov	r0, sp
 1714 007c 3146     		mov	r1, r6
 1715 007e FFF7FEFF 		bl	strcmp
 1716 0082 0346     		mov	r3, r0
 1717 0084 80B1     		cbz	r0, .L183
 1718              		.loc 1 1603 0
 1719 0086 0134     		adds	r4, r4, #1
 1720              	.LVL192:
 1721 0088 BC42     		cmp	r4, r7
 1722 008a 11D0     		beq	.L170
 1723              	.L173:
 1724              		.loc 1 1604 0
 1725 008c 6A46     		mov	r2, sp
 1726 008e 2146     		mov	r1, r4
 1727 0090 2846     		mov	r0, r5
 1728 0092 FFF7FEFF 		bl	amx_GetNative
 1729              		.loc 1 1605 0
 1730 0096 6846     		mov	r0, sp
 1731 0098 3146     		mov	r1, r6
 1732 009a FFF7FEFF 		bl	strcmp
 1733 009e 0346     		mov	r3, r0
 1734              		.loc 1 1604 0
 1735 00a0 6A46     		mov	r2, sp
 1736 00a2 2846     		mov	r0, r5
 1737              		.loc 1 1605 0
 1738 00a4 002B     		cmp	r3, #0
 1739 00a6 E4D1     		bne	.L171
 1740              	.LVL193:
 1741              	.L183:
 1742              		.loc 1 1606 0
 1743 00a8 C8F80040 		str	r4, [r8, #0]
ARM GAS  /tmp/ccvHIMcj.s 			page 32


 1744              		.loc 1 1607 0
 1745 00ac 1846     		mov	r0, r3
 1746 00ae 04E0     		b	.L172
 1747              	.L170:
 1748              		.loc 1 1610 0
 1749 00b0 6FF00040 		mvn	r0, #-2147483648
 1750 00b4 C8F80000 		str	r0, [r8, #0]
 1751              		.loc 1 1611 0
 1752 00b8 1320     		movs	r0, #19
 1753              	.L172:
 1754              		.loc 1 1612 0
 1755 00ba 09B0     		add	sp, sp, #36
 1756 00bc BDE8F083 		pop	{r4, r5, r6, r7, r8, r9, pc}
 1757              		.cfi_endproc
 1758              	.LFE14:
 1759              		.size	amx_FindNative, .-amx_FindNative
 1760              		.section	.text.amx_NumPublics,"ax",%progbits
 1761              		.align	2
 1762              		.p2align 4,,15
 1763              		.global	amx_NumPublics
 1764              		.thumb
 1765              		.thumb_func
 1766              		.type	amx_NumPublics, %function
 1767              	amx_NumPublics:
 1768              	.LFB15:
 1769              		.loc 1 1617 0
 1770              		.cfi_startproc
 1771              		@ args = 0, pretend = 0, frame = 0
 1772              		@ frame_needed = 0, uses_anonymous_args = 0
 1773              		@ link register save eliminated.
 1774              	.LVL194:
 1775 0000 30B4     		push	{r4, r5}
 1776              	.LCFI11:
 1777              		.cfi_def_cfa_offset 8
 1778              		.loc 1 1618 0
 1779 0002 0368     		ldr	r3, [r0, #0]	@ unaligned
 1780              	.LVL195:
 1781              		.loc 1 1624 0
 1782 0004 0020     		movs	r0, #0
 1783              	.LVL196:
 1784              		.loc 1 1622 0
 1785 0006 5D6A     		ldr	r5, [r3, #36]	@ unaligned
 1786              		.cfi_offset 5, -4
 1787              		.cfi_offset 4, -8
 1788 0008 1C6A     		ldr	r4, [r3, #32]	@ unaligned
 1789 000a B3F90A20 		ldrsh	r2, [r3, #10]	@ unaligned
 1790 000e C4EB050C 		rsb	ip, r4, r5
 1791 0012 9CFBF2F3 		sdiv	r3, ip, r2
 1792              	.LVL197:
 1793 0016 0B60     		str	r3, [r1, #0]
 1794              		.loc 1 1624 0
 1795 0018 30BC     		pop	{r4, r5}
 1796 001a 7047     		bx	lr
 1797              		.cfi_endproc
 1798              	.LFE15:
 1799              		.size	amx_NumPublics, .-amx_NumPublics
 1800 001c AFF30080 		.section	.text.amx_GetPublic,"ax",%progbits
ARM GAS  /tmp/ccvHIMcj.s 			page 33


 1801              		.align	2
 1802              		.p2align 4,,15
 1803              		.global	amx_GetPublic
 1804              		.thumb
 1805              		.thumb_func
 1806              		.type	amx_GetPublic, %function
 1807              	amx_GetPublic:
 1808              	.LFB16:
 1809              		.loc 1 1627 0
 1810              		.cfi_startproc
 1811              		@ args = 0, pretend = 0, frame = 0
 1812              		@ frame_needed = 0, uses_anonymous_args = 0
 1813              	.LVL198:
 1814 0000 F8B5     		push	{r3, r4, r5, r6, r7, lr}
 1815              	.LCFI12:
 1816              		.cfi_def_cfa_offset 24
 1817              		.loc 1 1631 0
 1818 0002 0468     		ldr	r4, [r0, #0]	@ unaligned
 1819              		.cfi_offset 14, -4
 1820              		.cfi_offset 7, -8
 1821              		.cfi_offset 6, -12
 1822              		.cfi_offset 5, -16
 1823              		.cfi_offset 4, -20
 1824              		.cfi_offset 3, -24
 1825              	.LVL199:
 1826              		.loc 1 1635 0
 1827 0004 676A     		ldr	r7, [r4, #36]	@ unaligned
 1828 0006 256A     		ldr	r5, [r4, #32]	@ unaligned
 1829 0008 B4F90A60 		ldrsh	r6, [r4, #10]	@ unaligned
 1830 000c 781B     		subs	r0, r7, r5
 1831              	.LVL200:
 1832 000e 90FBF6FC 		sdiv	ip, r0, r6
 1833 0012 8C45     		cmp	ip, r1
 1834              		.loc 1 1627 0
 1835 0014 1F46     		mov	r7, r3
 1836              		.loc 1 1635 0
 1837 0016 0DDD     		ble	.L188
 1838              		.loc 1 1638 0
 1839 0018 06FB0155 		mla	r5, r6, r1, r5
 1840 001c 6519     		adds	r5, r4, r5
 1841              	.LVL201:
 1842              		.loc 1 1639 0
 1843 001e 22B1     		cbz	r2, .L187
 1844              		.loc 1 1640 0
 1845 0020 6968     		ldr	r1, [r5, #4]	@ unaligned
 1846              	.LVL202:
 1847 0022 1046     		mov	r0, r2
 1848 0024 6118     		adds	r1, r4, r1
 1849 0026 FFF7FEFF 		bl	strcpy
 1850              	.LVL203:
 1851              	.L187:
 1852              		.loc 1 1641 0
 1853 002a 2FB1     		cbz	r7, .L189
 1854              		.loc 1 1642 0
 1855 002c 2B68     		ldr	r3, [r5, #0]	@ unaligned
 1856              		.loc 1 1643 0
 1857 002e 0020     		movs	r0, #0
ARM GAS  /tmp/ccvHIMcj.s 			page 34


 1858              		.loc 1 1642 0
 1859 0030 3B60     		str	r3, [r7, #0]
 1860 0032 F8BD     		pop	{r3, r4, r5, r6, r7, pc}
 1861              	.LVL204:
 1862              	.L188:
 1863              		.loc 1 1636 0
 1864 0034 1420     		movs	r0, #20
 1865 0036 F8BD     		pop	{r3, r4, r5, r6, r7, pc}
 1866              	.LVL205:
 1867              	.L189:
 1868              		.loc 1 1643 0
 1869 0038 3846     		mov	r0, r7
 1870              		.loc 1 1644 0
 1871 003a F8BD     		pop	{r3, r4, r5, r6, r7, pc}
 1872              		.cfi_endproc
 1873              	.LFE16:
 1874              		.size	amx_GetPublic, .-amx_GetPublic
 1875 003c AFF30080 		.section	.text.amx_FindPublic,"ax",%progbits
 1876              		.align	2
 1877              		.p2align 4,,15
 1878              		.global	amx_FindPublic
 1879              		.thumb
 1880              		.thumb_func
 1881              		.type	amx_FindPublic, %function
 1882              	amx_FindPublic:
 1883              	.LFB17:
 1884              		.loc 1 1647 0
 1885              		.cfi_startproc
 1886              		@ args = 0, pretend = 0, frame = 32
 1887              		@ frame_needed = 0, uses_anonymous_args = 0
 1888              	.LVL206:
 1889 0000 2DE9F043 		push	{r4, r5, r6, r7, r8, r9, lr}
 1890              	.LCFI13:
 1891              		.cfi_def_cfa_offset 28
 1892              	.LBB43:
 1893              	.LBB45:
 1894              		.loc 1 1618 0
 1895 0004 D0F800C0 		ldr	ip, [r0, #0]	@ unaligned
 1896              	.LBE45:
 1897              	.LBE43:
 1898              		.loc 1 1647 0
 1899 0008 8846     		mov	r8, r1
 1900              		.cfi_offset 14, -4
 1901              		.cfi_offset 9, -8
 1902              		.cfi_offset 8, -12
 1903              		.cfi_offset 7, -16
 1904              		.cfi_offset 6, -20
 1905              		.cfi_offset 5, -24
 1906              		.cfi_offset 4, -28
 1907              	.LBB47:
 1908              	.LBB44:
 1909              		.loc 1 1622 0
 1910 000a DCF82490 		ldr	r9, [ip, #36]	@ unaligned
 1911 000e DCF82010 		ldr	r1, [ip, #32]	@ unaligned
 1912              	.LVL207:
 1913 0012 BCF90A30 		ldrsh	r3, [ip, #10]	@ unaligned
 1914              	.LBE44:
ARM GAS  /tmp/ccvHIMcj.s 			page 35


 1915              	.LBE47:
 1916              		.loc 1 1647 0
 1917 0016 0746     		mov	r7, r0
 1918              	.LVL208:
 1919              	.LBB48:
 1920              	.LBB46:
 1921              		.loc 1 1622 0
 1922 0018 C1EB0900 		rsb	r0, r1, r9
 1923              	.LVL209:
 1924 001c 90FBF3F5 		sdiv	r5, r0, r3
 1925              	.LVL210:
 1926              	.LBE46:
 1927              	.LBE48:
 1928              		.loc 1 1655 0
 1929 0020 013D     		subs	r5, r5, #1
 1930              	.LVL211:
 1931              		.loc 1 1647 0
 1932 0022 89B0     		sub	sp, sp, #36
 1933              	.LCFI14:
 1934              		.cfi_def_cfa_offset 64
 1935              		.loc 1 1647 0
 1936 0024 9146     		mov	r9, r2
 1937              		.loc 1 1655 0
 1938 0026 18D4     		bmi	.L191
 1939 0028 0026     		movs	r6, #0
 1940 002a 02E0     		b	.L196
 1941              	.LVL212:
 1942              	.L198:
 1943              		.loc 1 1660 0
 1944 002c 651E     		subs	r5, r4, #1
 1945              	.LVL213:
 1946              		.loc 1 1655 0
 1947 002e AE42     		cmp	r6, r5
 1948 0030 13DC     		bgt	.L191
 1949              	.LVL214:
 1950              	.L196:
 1951              		.loc 1 1656 0
 1952 0032 AA19     		adds	r2, r5, r6
 1953 0034 02EBD274 		add	r4, r2, r2, lsr #31
 1954 0038 6410     		asrs	r4, r4, #1
 1955              	.LVL215:
 1956              		.loc 1 1657 0
 1957 003a 0023     		movs	r3, #0
 1958 003c 2146     		mov	r1, r4
 1959 003e 6A46     		mov	r2, sp
 1960 0040 3846     		mov	r0, r7
 1961 0042 FFF7FEFF 		bl	amx_GetPublic
 1962              		.loc 1 1658 0
 1963 0046 6846     		mov	r0, sp
 1964 0048 4146     		mov	r1, r8
 1965 004a FFF7FEFF 		bl	strcmp
 1966              	.LVL216:
 1967              		.loc 1 1659 0
 1968 004e 0028     		cmp	r0, #0
 1969 0050 ECDC     		bgt	.L198
 1970              		.loc 1 1661 0
 1971 0052 0AD0     		beq	.L194
ARM GAS  /tmp/ccvHIMcj.s 			page 36


 1972              		.loc 1 1662 0
 1973 0054 661C     		adds	r6, r4, #1
 1974              	.LVL217:
 1975              		.loc 1 1655 0
 1976 0056 AE42     		cmp	r6, r5
 1977 0058 EBDD     		ble	.L196
 1978              	.LVL218:
 1979              	.L191:
 1980              		.loc 1 1671 0
 1981 005a 6FF00040 		mvn	r0, #-2147483648
 1982 005e C9F80000 		str	r0, [r9, #0]
 1983              		.loc 1 1672 0
 1984 0062 1320     		movs	r0, #19
 1985              	.L195:
 1986              		.loc 1 1673 0
 1987 0064 09B0     		add	sp, sp, #36
 1988 0066 BDE8F083 		pop	{r4, r5, r6, r7, r8, r9, pc}
 1989              	.LVL219:
 1990              	.L194:
 1991              		.loc 1 1664 0
 1992 006a C9F80040 		str	r4, [r9, #0]
 1993              		.loc 1 1665 0
 1994 006e F9E7     		b	.L195
 1995              		.cfi_endproc
 1996              	.LFE17:
 1997              		.size	amx_FindPublic, .-amx_FindPublic
 1998              		.section	.text.amx_NumPubVars,"ax",%progbits
 1999              		.align	2
 2000              		.p2align 4,,15
 2001              		.global	amx_NumPubVars
 2002              		.thumb
 2003              		.thumb_func
 2004              		.type	amx_NumPubVars, %function
 2005              	amx_NumPubVars:
 2006              	.LFB18:
 2007              		.loc 1 1678 0
 2008              		.cfi_startproc
 2009              		@ args = 0, pretend = 0, frame = 0
 2010              		@ frame_needed = 0, uses_anonymous_args = 0
 2011              		@ link register save eliminated.
 2012              	.LVL220:
 2013 0000 30B4     		push	{r4, r5}
 2014              	.LCFI15:
 2015              		.cfi_def_cfa_offset 8
 2016              		.loc 1 1682 0
 2017 0002 0368     		ldr	r3, [r0, #0]	@ unaligned
 2018              	.LVL221:
 2019              		.loc 1 1688 0
 2020 0004 0020     		movs	r0, #0
 2021              	.LVL222:
 2022              		.loc 1 1686 0
 2023 0006 1D6B     		ldr	r5, [r3, #48]	@ unaligned
 2024              		.cfi_offset 5, -4
 2025              		.cfi_offset 4, -8
 2026 0008 DC6A     		ldr	r4, [r3, #44]	@ unaligned
 2027 000a B3F90A20 		ldrsh	r2, [r3, #10]	@ unaligned
 2028 000e C4EB050C 		rsb	ip, r4, r5
ARM GAS  /tmp/ccvHIMcj.s 			page 37


 2029 0012 9CFBF2F3 		sdiv	r3, ip, r2
 2030              	.LVL223:
 2031 0016 0B60     		str	r3, [r1, #0]
 2032              		.loc 1 1688 0
 2033 0018 30BC     		pop	{r4, r5}
 2034 001a 7047     		bx	lr
 2035              		.cfi_endproc
 2036              	.LFE18:
 2037              		.size	amx_NumPubVars, .-amx_NumPubVars
 2038 001c AFF30080 		.section	.text.amx_GetPubVar,"ax",%progbits
 2039              		.align	2
 2040              		.p2align 4,,15
 2041              		.global	amx_GetPubVar
 2042              		.thumb
 2043              		.thumb_func
 2044              		.type	amx_GetPubVar, %function
 2045              	amx_GetPubVar:
 2046              	.LFB19:
 2047              		.loc 1 1691 0
 2048              		.cfi_startproc
 2049              		@ args = 0, pretend = 0, frame = 0
 2050              		@ frame_needed = 0, uses_anonymous_args = 0
 2051              	.LVL224:
 2052 0000 2DE9F041 		push	{r4, r5, r6, r7, r8, lr}
 2053              	.LCFI16:
 2054              		.cfi_def_cfa_offset 24
 2055              		.loc 1 1697 0
 2056 0004 0468     		ldr	r4, [r0, #0]	@ unaligned
 2057              		.cfi_offset 14, -4
 2058              		.cfi_offset 8, -8
 2059              		.cfi_offset 7, -12
 2060              		.cfi_offset 6, -16
 2061              		.cfi_offset 5, -20
 2062              		.cfi_offset 4, -24
 2063              	.LVL225:
 2064              		.loc 1 1691 0
 2065 0006 0546     		mov	r5, r0
 2066              		.loc 1 1701 0
 2067 0008 D4F83080 		ldr	r8, [r4, #48]	@ unaligned
 2068 000c E66A     		ldr	r6, [r4, #44]	@ unaligned
 2069 000e B4F90A70 		ldrsh	r7, [r4, #10]	@ unaligned
 2070 0012 C6EB0800 		rsb	r0, r6, r8
 2071              	.LVL226:
 2072 0016 90FBF7FC 		sdiv	ip, r0, r7
 2073 001a 8C45     		cmp	ip, r1
 2074              		.loc 1 1691 0
 2075 001c 9846     		mov	r8, r3
 2076              		.loc 1 1701 0
 2077 001e 02DC     		bgt	.L204
 2078              		.loc 1 1702 0
 2079 0020 1420     		movs	r0, #20
 2080              		.loc 1 1710 0
 2081 0022 BDE8F081 		pop	{r4, r5, r6, r7, r8, pc}
 2082              	.L204:
 2083              		.loc 1 1704 0
 2084 0026 07FB0166 		mla	r6, r7, r1, r6
 2085 002a A619     		adds	r6, r4, r6
ARM GAS  /tmp/ccvHIMcj.s 			page 38


 2086              	.LVL227:
 2087              		.loc 1 1705 0
 2088 002c 7168     		ldr	r1, [r6, #4]	@ unaligned
 2089              	.LVL228:
 2090 002e 1046     		mov	r0, r2
 2091 0030 6118     		adds	r1, r4, r1
 2092 0032 FFF7FEFF 		bl	strcpy
 2093              	.LVL229:
 2094              		.loc 1 1706 0
 2095 0036 AB68     		ldr	r3, [r5, #8]	@ unaligned
 2096 0038 43B1     		cbz	r3, .L205
 2097              	.L202:
 2098              	.LVL230:
 2099              		.loc 1 1708 0 discriminator 3
 2100 003a D6F800E0 		ldr	lr, [r6, #0]	@ unaligned
 2101              		.loc 1 1709 0 discriminator 3
 2102 003e 0020     		movs	r0, #0
 2103              		.loc 1 1708 0 discriminator 3
 2104 0040 03EB0E01 		add	r1, r3, lr
 2105 0044 C8F80010 		str	r1, [r8, #0]
 2106              		.loc 1 1709 0 discriminator 3
 2107 0048 BDE8F081 		pop	{r4, r5, r6, r7, r8, pc}
 2108              	.LVL231:
 2109              	.L205:
 2110              		.loc 1 1706 0 discriminator 2
 2111 004c 2A68     		ldr	r2, [r5, #0]	@ unaligned
 2112 004e 2369     		ldr	r3, [r4, #16]	@ unaligned
 2113 0050 D318     		adds	r3, r2, r3
 2114 0052 F2E7     		b	.L202
 2115              		.cfi_endproc
 2116              	.LFE19:
 2117              		.size	amx_GetPubVar, .-amx_GetPubVar
 2118 0054 AFF30080 		.section	.text.amx_FindPubVar,"ax",%progbits
 2118      AFF30080 
 2118      AFF30080 
 2119              		.align	2
 2120              		.p2align 4,,15
 2121              		.global	amx_FindPubVar
 2122              		.thumb
 2123              		.thumb_func
 2124              		.type	amx_FindPubVar, %function
 2125              	amx_FindPubVar:
 2126              	.LFB20:
 2127              		.loc 1 1713 0
 2128              		.cfi_startproc
 2129              		@ args = 0, pretend = 0, frame = 32
 2130              		@ frame_needed = 0, uses_anonymous_args = 0
 2131              	.LVL232:
 2132 0000 2DE9F043 		push	{r4, r5, r6, r7, r8, r9, lr}
 2133              	.LCFI17:
 2134              		.cfi_def_cfa_offset 28
 2135              	.LBB49:
 2136              	.LBB51:
 2137              		.loc 1 1682 0
 2138 0004 D0F800C0 		ldr	ip, [r0, #0]	@ unaligned
 2139              	.LBE51:
 2140              	.LBE49:
ARM GAS  /tmp/ccvHIMcj.s 			page 39


 2141              		.loc 1 1713 0
 2142 0008 8946     		mov	r9, r1
 2143              		.cfi_offset 14, -4
 2144              		.cfi_offset 9, -8
 2145              		.cfi_offset 8, -12
 2146              		.cfi_offset 7, -16
 2147              		.cfi_offset 6, -20
 2148              		.cfi_offset 5, -24
 2149              		.cfi_offset 4, -28
 2150              	.LBB53:
 2151              	.LBB50:
 2152              		.loc 1 1686 0
 2153 000a DCF83080 		ldr	r8, [ip, #48]	@ unaligned
 2154 000e DCF82C10 		ldr	r1, [ip, #44]	@ unaligned
 2155              	.LVL233:
 2156 0012 BCF90A30 		ldrsh	r3, [ip, #10]	@ unaligned
 2157              	.LBE50:
 2158              	.LBE53:
 2159              		.loc 1 1713 0
 2160 0016 0746     		mov	r7, r0
 2161              	.LVL234:
 2162              	.LBB54:
 2163              	.LBB52:
 2164              		.loc 1 1686 0
 2165 0018 C1EB0800 		rsb	r0, r1, r8
 2166              	.LVL235:
 2167 001c 90FBF3F5 		sdiv	r5, r0, r3
 2168              	.LVL236:
 2169              	.LBE52:
 2170              	.LBE54:
 2171              		.loc 1 1721 0
 2172 0020 013D     		subs	r5, r5, #1
 2173              	.LVL237:
 2174              		.loc 1 1713 0
 2175 0022 89B0     		sub	sp, sp, #36
 2176              	.LCFI18:
 2177              		.cfi_def_cfa_offset 64
 2178              		.loc 1 1713 0
 2179 0024 9046     		mov	r8, r2
 2180              		.loc 1 1721 0
 2181 0026 18D4     		bmi	.L207
 2182 0028 0026     		movs	r6, #0
 2183 002a 02E0     		b	.L211
 2184              	.LVL238:
 2185              	.L214:
 2186              		.loc 1 1726 0
 2187 002c 651E     		subs	r5, r4, #1
 2188              	.LVL239:
 2189              		.loc 1 1721 0
 2190 002e AE42     		cmp	r6, r5
 2191 0030 13DC     		bgt	.L207
 2192              	.LVL240:
 2193              	.L211:
 2194              		.loc 1 1722 0
 2195 0032 7219     		adds	r2, r6, r5
 2196 0034 02EBD274 		add	r4, r2, r2, lsr #31
 2197 0038 6410     		asrs	r4, r4, #1
ARM GAS  /tmp/ccvHIMcj.s 			page 40


 2198              	.LVL241:
 2199              		.loc 1 1723 0
 2200 003a 2146     		mov	r1, r4
 2201 003c 6A46     		mov	r2, sp
 2202 003e 4346     		mov	r3, r8
 2203 0040 3846     		mov	r0, r7
 2204 0042 FFF7FEFF 		bl	amx_GetPubVar
 2205              		.loc 1 1724 0
 2206 0046 6846     		mov	r0, sp
 2207 0048 4946     		mov	r1, r9
 2208 004a FFF7FEFF 		bl	strcmp
 2209              	.LVL242:
 2210              		.loc 1 1725 0
 2211 004e 0028     		cmp	r0, #0
 2212 0050 ECDC     		bgt	.L214
 2213              		.loc 1 1727 0
 2214 0052 06D0     		beq	.L210
 2215              		.loc 1 1728 0
 2216 0054 661C     		adds	r6, r4, #1
 2217              	.LVL243:
 2218              		.loc 1 1721 0
 2219 0056 AE42     		cmp	r6, r5
 2220 0058 EBDD     		ble	.L211
 2221              	.LVL244:
 2222              	.L207:
 2223              		.loc 1 1734 0
 2224 005a 0020     		movs	r0, #0
 2225 005c C8F80000 		str	r0, [r8, #0]
 2226              		.loc 1 1735 0
 2227 0060 1320     		movs	r0, #19
 2228              	.L210:
 2229              		.loc 1 1736 0
 2230 0062 09B0     		add	sp, sp, #36
 2231 0064 BDE8F083 		pop	{r4, r5, r6, r7, r8, r9, pc}
 2232              		.cfi_endproc
 2233              	.LFE20:
 2234              		.size	amx_FindPubVar, .-amx_FindPubVar
 2235 0068 AFF30080 		.section	.text.amx_NumTags,"ax",%progbits
 2235      AFF30080 
 2236              		.align	2
 2237              		.p2align 4,,15
 2238              		.global	amx_NumTags
 2239              		.thumb
 2240              		.thumb_func
 2241              		.type	amx_NumTags, %function
 2242              	amx_NumTags:
 2243              	.LFB21:
 2244              		.loc 1 1741 0
 2245              		.cfi_startproc
 2246              		@ args = 0, pretend = 0, frame = 0
 2247              		@ frame_needed = 0, uses_anonymous_args = 0
 2248              		@ link register save eliminated.
 2249              	.LVL245:
 2250 0000 10B4     		push	{r4}
 2251              	.LCFI19:
 2252              		.cfi_def_cfa_offset 4
 2253              		.loc 1 1742 0
ARM GAS  /tmp/ccvHIMcj.s 			page 41


 2254 0002 0368     		ldr	r3, [r0, #0]	@ unaligned
 2255              	.LVL246:
 2256              		.loc 1 1745 0
 2257 0004 9A79     		ldrb	r2, [r3, #6]	@ zero_extendqisi2
 2258 0006 042A     		cmp	r2, #4
 2259 0008 04D8     		bhi	.L216
 2260              		.cfi_offset 4, -4
 2261              		.loc 1 1746 0
 2262 000a 0023     		movs	r3, #0
 2263              	.LVL247:
 2264 000c 0B60     		str	r3, [r1, #0]
 2265              		.loc 1 1747 0
 2266 000e 1220     		movs	r0, #18
 2267              	.LVL248:
 2268              	.L217:
 2269              		.loc 1 1757 0
 2270 0010 10BC     		pop	{r4}
 2271 0012 7047     		bx	lr
 2272              	.LVL249:
 2273              	.L216:
 2274              		.loc 1 1749 0
 2275 0014 062A     		cmp	r2, #6
 2276              		.loc 1 1751 0
 2277 0016 94BF     		ite	ls
 2278 0018 DC68     		ldrls	r4, [r3, #12]	@ unaligned
 2279              		.loc 1 1754 0
 2280 001a 5C6B     		ldrhi	r4, [r3, #52]	@ unaligned
 2281 001c 186B     		ldr	r0, [r3, #48]	@ unaligned
 2282              	.LVL250:
 2283 001e B3F90A20 		ldrsh	r2, [r3, #10]	@ unaligned
 2284 0022 C0EB040C 		rsb	ip, r0, r4
 2285 0026 9CFBF2F0 		sdiv	r0, ip, r2
 2286 002a 0860     		str	r0, [r1, #0]
 2287              		.loc 1 1756 0
 2288 002c 0020     		movs	r0, #0
 2289 002e EFE7     		b	.L217
 2290              		.cfi_endproc
 2291              	.LFE21:
 2292              		.size	amx_NumTags, .-amx_NumTags
 2293              		.section	.text.amx_GetTag,"ax",%progbits
 2294              		.align	2
 2295              		.p2align 4,,15
 2296              		.global	amx_GetTag
 2297              		.thumb
 2298              		.thumb_func
 2299              		.type	amx_GetTag, %function
 2300              	amx_GetTag:
 2301              	.LFB22:
 2302              		.loc 1 1760 0
 2303              		.cfi_startproc
 2304              		@ args = 0, pretend = 0, frame = 0
 2305              		@ frame_needed = 0, uses_anonymous_args = 0
 2306              	.LVL251:
 2307 0000 F8B5     		push	{r3, r4, r5, r6, r7, lr}
 2308              	.LCFI20:
 2309              		.cfi_def_cfa_offset 24
 2310              		.loc 1 1764 0
ARM GAS  /tmp/ccvHIMcj.s 			page 42


 2311 0002 0468     		ldr	r4, [r0, #0]	@ unaligned
 2312              		.cfi_offset 14, -4
 2313              		.cfi_offset 7, -8
 2314              		.cfi_offset 6, -12
 2315              		.cfi_offset 5, -16
 2316              		.cfi_offset 4, -20
 2317              		.cfi_offset 3, -24
 2318              	.LVL252:
 2319              		.loc 1 1760 0
 2320 0004 1E46     		mov	r6, r3
 2321              		.loc 1 1767 0
 2322 0006 A579     		ldrb	r5, [r4, #6]	@ zero_extendqisi2
 2323 0008 042D     		cmp	r5, #4
 2324 000a 04D8     		bhi	.L221
 2325              		.loc 1 1768 0
 2326 000c 0023     		movs	r3, #0
 2327              	.LVL253:
 2328 000e 1370     		strb	r3, [r2, #0]
 2329              		.loc 1 1770 0
 2330 0010 1220     		movs	r0, #18
 2331              	.LVL254:
 2332              		.loc 1 1769 0
 2333 0012 3360     		str	r3, [r6, #0]
 2334              		.loc 1 1770 0
 2335 0014 F8BD     		pop	{r3, r4, r5, r6, r7, pc}
 2336              	.LVL255:
 2337              	.L221:
 2338              		.loc 1 1773 0
 2339 0016 062D     		cmp	r5, #6
 2340 0018 0CD8     		bhi	.L223
 2341              		.loc 1 1775 0
 2342 001a E068     		ldr	r0, [r4, #12]	@ unaligned
 2343              	.LVL256:
 2344 001c B4F90A50 		ldrsh	r5, [r4, #10]	@ unaligned
 2345 0020 236B     		ldr	r3, [r4, #48]	@ unaligned
 2346 0022 2FB2     		sxth	r7, r5
 2347 0024 C3EB000C 		rsb	ip, r3, r0
 2348 0028 9CFBF7F0 		sdiv	r0, ip, r7
 2349 002c 8842     		cmp	r0, r1
 2350 002e 0DDC     		bgt	.L224
 2351              		.loc 1 1776 0
 2352 0030 1420     		movs	r0, #20
 2353 0032 F8BD     		pop	{r3, r4, r5, r6, r7, pc}
 2354              	.LVL257:
 2355              	.L223:
 2356              		.loc 1 1779 0
 2357 0034 D4F834C0 		ldr	ip, [r4, #52]	@ unaligned
 2358 0038 B4F90A50 		ldrsh	r5, [r4, #10]	@ unaligned
 2359 003c 236B     		ldr	r3, [r4, #48]	@ unaligned
 2360 003e 2FB2     		sxth	r7, r5
 2361 0040 C3EB0C00 		rsb	r0, r3, ip
 2362              	.LVL258:
 2363 0044 90FBF7FC 		sdiv	ip, r0, r7
 2364 0048 6145     		cmp	r1, ip
 2365 004a 0EDA     		bge	.L226
 2366              	.L224:
 2367              		.loc 1 1783 0
ARM GAS  /tmp/ccvHIMcj.s 			page 43


 2368 004c 28B2     		sxth	r0, r5
 2369 004e 01FB0035 		mla	r5, r1, r0, r3
 2370 0052 6519     		adds	r5, r4, r5
 2371              	.LVL259:
 2372              		.loc 1 1784 0
 2373 0054 D5F804E0 		ldr	lr, [r5, #4]	@ unaligned
 2374 0058 1046     		mov	r0, r2
 2375 005a 04EB0E01 		add	r1, r4, lr
 2376              	.LVL260:
 2377 005e FFF7FEFF 		bl	strcpy
 2378              	.LVL261:
 2379              		.loc 1 1785 0
 2380 0062 2968     		ldr	r1, [r5, #0]	@ unaligned
 2381              		.loc 1 1787 0
 2382 0064 0020     		movs	r0, #0
 2383              		.loc 1 1785 0
 2384 0066 3160     		str	r1, [r6, #0]
 2385              		.loc 1 1787 0
 2386 0068 F8BD     		pop	{r3, r4, r5, r6, r7, pc}
 2387              	.LVL262:
 2388              	.L226:
 2389              		.loc 1 1780 0
 2390 006a 1420     		movs	r0, #20
 2391              		.loc 1 1788 0
 2392 006c F8BD     		pop	{r3, r4, r5, r6, r7, pc}
 2393              		.cfi_endproc
 2394              	.LFE22:
 2395              		.size	amx_GetTag, .-amx_GetTag
 2396 006e 00BF     		.section	.text.amx_FindTagId,"ax",%progbits
 2397              		.align	2
 2398              		.p2align 4,,15
 2399              		.global	amx_FindTagId
 2400              		.thumb
 2401              		.thumb_func
 2402              		.type	amx_FindTagId, %function
 2403              	amx_FindTagId:
 2404              	.LFB23:
 2405              		.loc 1 1791 0
 2406              		.cfi_startproc
 2407              		@ args = 0, pretend = 0, frame = 8
 2408              		@ frame_needed = 0, uses_anonymous_args = 0
 2409              	.LVL263:
 2410 0000 2DE9F043 		push	{r4, r5, r6, r7, r8, r9, lr}
 2411              	.LCFI21:
 2412              		.cfi_def_cfa_offset 28
 2413 0004 83B0     		sub	sp, sp, #12
 2414              	.LCFI22:
 2415              		.cfi_def_cfa_offset 40
 2416              		.loc 1 1791 0
 2417 0006 8946     		mov	r9, r1
 2418              		.cfi_offset 14, -4
 2419              		.cfi_offset 9, -8
 2420              		.cfi_offset 8, -12
 2421              		.cfi_offset 7, -16
 2422              		.cfi_offset 6, -20
 2423              		.cfi_offset 5, -24
 2424              		.cfi_offset 4, -28
ARM GAS  /tmp/ccvHIMcj.s 			page 44


 2425              		.loc 1 1809 0
 2426 0008 01A9     		add	r1, sp, #4
 2427              	.LVL264:
 2428              		.loc 1 1791 0
 2429 000a 8046     		mov	r8, r0
 2430 000c 1746     		mov	r7, r2
 2431              		.loc 1 1809 0
 2432 000e FFF7FEFF 		bl	amx_NumTags
 2433              	.LVL265:
 2434              		.loc 1 1810 0
 2435 0012 019D     		ldr	r5, [sp, #4]
 2436              		.loc 1 1811 0
 2437 0014 0026     		movs	r6, #0
 2438              		.loc 1 1810 0
 2439 0016 013D     		subs	r5, r5, #1
 2440 0018 0195     		str	r5, [sp, #4]
 2441              	.LVL266:
 2442              	.L228:
 2443              		.loc 1 1814 0 discriminator 1
 2444 001a A819     		adds	r0, r5, r6
 2445 001c 00EBD074 		add	r4, r0, r0, lsr #31
 2446 0020 6410     		asrs	r4, r4, #1
 2447              		.loc 1 1813 0 discriminator 1
 2448 0022 AE42     		cmp	r6, r5
 2449              		.loc 1 1815 0 discriminator 1
 2450 0024 4046     		mov	r0, r8
 2451 0026 2146     		mov	r1, r4
 2452 0028 3A46     		mov	r2, r7
 2453 002a 6B46     		mov	r3, sp
 2454              		.loc 1 1813 0 discriminator 1
 2455 002c 0CDC     		bgt	.L234
 2456              	.LVL267:
 2457              		.loc 1 1815 0
 2458 002e FFF7FEFF 		bl	amx_GetTag
 2459              		.loc 1 1816 0
 2460 0032 009B     		ldr	r3, [sp, #0]
 2461              		.loc 1 1817 0
 2462 0034 621E     		subs	r2, r4, #1
 2463              		.loc 1 1816 0
 2464 0036 4B45     		cmp	r3, r9
 2465 0038 02DD     		ble	.L229
 2466              		.loc 1 1817 0
 2467 003a 0192     		str	r2, [sp, #4]
 2468              		.loc 1 1819 0
 2469 003c 019D     		ldr	r5, [sp, #4]
 2470 003e ECE7     		b	.L228
 2471              	.L229:
 2472              		.loc 1 1818 0
 2473 0040 08DA     		bge	.L233
 2474              		.loc 1 1819 0
 2475 0042 661C     		adds	r6, r4, #1
 2476              	.LVL268:
 2477 0044 019D     		ldr	r5, [sp, #4]
 2478 0046 E8E7     		b	.L228
 2479              	.LVL269:
 2480              	.L234:
 2481              		.loc 1 1824 0
ARM GAS  /tmp/ccvHIMcj.s 			page 45


 2482 0048 0021     		movs	r1, #0
 2483 004a 3970     		strb	r1, [r7, #0]
 2484              		.loc 1 1825 0
 2485 004c 1320     		movs	r0, #19
 2486              	.L231:
 2487              		.loc 1 1826 0
 2488 004e 03B0     		add	sp, sp, #12
 2489 0050 BDE8F083 		pop	{r4, r5, r6, r7, r8, r9, pc}
 2490              	.LVL270:
 2491              	.L233:
 2492              		.loc 1 1821 0
 2493 0054 0020     		movs	r0, #0
 2494 0056 FAE7     		b	.L231
 2495              		.cfi_endproc
 2496              	.LFE23:
 2497              		.size	amx_FindTagId, .-amx_FindTagId
 2498 0058 AFF30080 		.section	.text.amx_GetUserData,"ax",%progbits
 2498      AFF30080 
 2499              		.align	2
 2500              		.p2align 4,,15
 2501              		.global	amx_GetUserData
 2502              		.thumb
 2503              		.thumb_func
 2504              		.type	amx_GetUserData, %function
 2505              	amx_GetUserData:
 2506              	.LFB24:
 2507              		.loc 1 1831 0
 2508              		.cfi_startproc
 2509              		@ args = 0, pretend = 0, frame = 0
 2510              		@ frame_needed = 0, uses_anonymous_args = 0
 2511              		@ link register save eliminated.
 2512              	.LVL271:
 2513              		.loc 1 1836 0
 2514 0000 436B     		ldr	r3, [r0, #52]	@ unaligned
 2515 0002 8B42     		cmp	r3, r1
 2516 0004 0CD0     		beq	.L238
 2517              	.LVL272:
 2518 0006 D0F838C0 		ldr	ip, [r0, #56]	@ unaligned
 2519 000a 8C45     		cmp	ip, r1
 2520 000c 10D0     		beq	.L239
 2521              	.LVL273:
 2522 000e C36B     		ldr	r3, [r0, #60]	@ unaligned
 2523 0010 8B42     		cmp	r3, r1
 2524 0012 0FD0     		beq	.L240
 2525              	.LVL274:
 2526 0014 D0F840C0 		ldr	ip, [r0, #64]	@ unaligned
 2527 0018 8C45     		cmp	ip, r1
 2528 001a 0DD0     		beq	.L241
 2529              		.loc 1 1839 0
 2530 001c 1720     		movs	r0, #23
 2531              	.LVL275:
 2532              		.loc 1 1842 0
 2533 001e 7047     		bx	lr
 2534              	.LVL276:
 2535              	.L238:
 2536              		.loc 1 1836 0
 2537 0020 0023     		movs	r3, #0
ARM GAS  /tmp/ccvHIMcj.s 			page 46


 2538              	.LVL277:
 2539              	.L236:
 2540              		.loc 1 1840 0
 2541 0022 1033     		adds	r3, r3, #16
 2542 0024 00EB8300 		add	r0, r0, r3, lsl #2
 2543              	.LVL278:
 2544 0028 4168     		ldr	r1, [r0, #4]	@ unaligned
 2545              	.LVL279:
 2546              		.loc 1 1841 0
 2547 002a 0020     		movs	r0, #0
 2548              		.loc 1 1840 0
 2549 002c 1160     		str	r1, [r2, #0]
 2550              		.loc 1 1841 0
 2551 002e 7047     		bx	lr
 2552              	.LVL280:
 2553              	.L239:
 2554              		.loc 1 1836 0
 2555 0030 0123     		movs	r3, #1
 2556 0032 F6E7     		b	.L236
 2557              	.LVL281:
 2558              	.L240:
 2559 0034 0223     		movs	r3, #2
 2560 0036 F4E7     		b	.L236
 2561              	.LVL282:
 2562              	.L241:
 2563 0038 0323     		movs	r3, #3
 2564 003a F2E7     		b	.L236
 2565              		.cfi_endproc
 2566              	.LFE24:
 2567              		.size	amx_GetUserData, .-amx_GetUserData
 2568 003c AFF30080 		.section	.text.amx_SetUserData,"ax",%progbits
 2569              		.align	2
 2570              		.p2align 4,,15
 2571              		.global	amx_SetUserData
 2572              		.thumb
 2573              		.thumb_func
 2574              		.type	amx_SetUserData, %function
 2575              	amx_SetUserData:
 2576              	.LFB25:
 2577              		.loc 1 1845 0
 2578              		.cfi_startproc
 2579              		@ args = 0, pretend = 0, frame = 0
 2580              		@ frame_needed = 0, uses_anonymous_args = 0
 2581              		@ link register save eliminated.
 2582              	.LVL283:
 2583 0000 70B4     		push	{r4, r5, r6}
 2584              	.LCFI23:
 2585              		.cfi_def_cfa_offset 12
 2586              		.loc 1 1851 0
 2587 0002 436B     		ldr	r3, [r0, #52]	@ unaligned
 2588 0004 8B42     		cmp	r3, r1
 2589 0006 1AD0     		beq	.L247
 2590              		.cfi_offset 6, -4
 2591              		.cfi_offset 5, -8
 2592              		.cfi_offset 4, -12
 2593              	.LVL284:
 2594 0008 846B     		ldr	r4, [r0, #56]	@ unaligned
ARM GAS  /tmp/ccvHIMcj.s 			page 47


 2595 000a 8C42     		cmp	r4, r1
 2596 000c 0CD0     		beq	.L252
 2597              	.LVL285:
 2598 000e C56B     		ldr	r5, [r0, #60]	@ unaligned
 2599 0010 8D42     		cmp	r5, r1
 2600 0012 10D0     		beq	.L253
 2601              	.LVL286:
 2602 0014 066C     		ldr	r6, [r0, #64]	@ unaligned
 2603 0016 8E42     		cmp	r6, r1
 2604 0018 0FD0     		beq	.L250
 2605              	.LVL287:
 2606              		.loc 1 1855 0 discriminator 1
 2607 001a 33B1     		cbz	r3, .L246
 2608              	.LVL288:
 2609              		.loc 1 1855 0 is_stmt 0
 2610 001c 24B1     		cbz	r4, .L252
 2611              	.LVL289:
 2612 001e 55B1     		cbz	r5, .L253
 2613              	.LVL290:
 2614 0020 5EB1     		cbz	r6, .L250
 2615              		.loc 1 1859 0 is_stmt 1
 2616 0022 1420     		movs	r0, #20
 2617              	.LVL291:
 2618              	.L245:
 2619              		.loc 1 1864 0
 2620 0024 70BC     		pop	{r4, r5, r6}
 2621 0026 7047     		bx	lr
 2622              	.LVL292:
 2623              	.L252:
 2624              		.loc 1 1855 0
 2625 0028 0123     		movs	r3, #1
 2626              	.LVL293:
 2627              	.L246:
 2628              		.loc 1 1861 0
 2629 002a 00EB8304 		add	r4, r0, r3, lsl #2
 2630 002e 6163     		str	r1, [r4, #52]	@ unaligned
 2631              		.loc 1 1863 0
 2632 0030 0020     		movs	r0, #0
 2633              	.LVL294:
 2634              		.loc 1 1862 0
 2635 0032 6264     		str	r2, [r4, #68]	@ unaligned
 2636              		.loc 1 1863 0
 2637 0034 F6E7     		b	.L245
 2638              	.LVL295:
 2639              	.L253:
 2640              		.loc 1 1855 0
 2641 0036 0223     		movs	r3, #2
 2642 0038 F7E7     		b	.L246
 2643              	.LVL296:
 2644              	.L250:
 2645              		.loc 1 1851 0
 2646 003a 0323     		movs	r3, #3
 2647 003c F5E7     		b	.L246
 2648              	.LVL297:
 2649              	.L247:
 2650 003e 0023     		movs	r3, #0
 2651 0040 F3E7     		b	.L246
ARM GAS  /tmp/ccvHIMcj.s 			page 48


 2652              		.cfi_endproc
 2653              	.LFE25:
 2654              		.size	amx_SetUserData, .-amx_SetUserData
 2655 0042 00BFAFF3 		.section	.text.amx_Register,"ax",%progbits
 2655      0080AFF3 
 2655      0080AFF3 
 2655      0080
 2656              		.align	2
 2657              		.p2align 4,,15
 2658              		.global	amx_Register
 2659              		.thumb
 2660              		.thumb_func
 2661              		.type	amx_Register, %function
 2662              	amx_Register:
 2663              	.LFB27:
 2664              		.loc 1 1880 0
 2665              		.cfi_startproc
 2666              		@ args = 0, pretend = 0, frame = 24
 2667              		@ frame_needed = 0, uses_anonymous_args = 0
 2668              	.LVL298:
 2669 0000 2DE9F04F 		push	{r4, r5, r6, r7, r8, r9, sl, fp, lr}
 2670              	.LCFI24:
 2671              		.cfi_def_cfa_offset 36
 2672 0004 87B0     		sub	sp, sp, #28
 2673              	.LCFI25:
 2674              		.cfi_def_cfa_offset 64
 2675              		.loc 1 1880 0
 2676 0006 0590     		str	r0, [sp, #20]
 2677              		.loc 1 1887 0
 2678 0008 0768     		ldr	r7, [r0, #0]	@ unaligned
 2679              		.cfi_offset 14, -4
 2680              		.cfi_offset 11, -8
 2681              		.cfi_offset 10, -12
 2682              		.cfi_offset 9, -16
 2683              		.cfi_offset 8, -20
 2684              		.cfi_offset 7, -24
 2685              		.cfi_offset 6, -28
 2686              		.cfi_offset 5, -32
 2687              		.cfi_offset 4, -36
 2688              		.loc 1 1880 0
 2689 000a 0C46     		mov	r4, r1
 2690              		.loc 1 1887 0
 2691 000c 0297     		str	r7, [sp, #8]
 2692              	.LVL299:
 2693              		.loc 1 1891 0
 2694 000e B7F90A10 		ldrsh	r1, [r7, #10]	@ unaligned
 2695              	.LVL300:
 2696 0012 029B     		ldr	r3, [sp, #8]
 2697 0014 0191     		str	r1, [sp, #4]
 2698 0016 D3F824A0 		ldr	sl, [r3, #36]	@ unaligned
 2699 001a D3F828C0 		ldr	ip, [r3, #40]	@ unaligned
 2700 001e 019B     		ldr	r3, [sp, #4]
 2701 0020 CAEB0C00 		rsb	r0, sl, ip
 2702              	.LVL301:
 2703 0024 1FB2     		sxth	r7, r3
 2704              	.LVL302:
 2705 0026 90FBF7F1 		sdiv	r1, r0, r7
ARM GAS  /tmp/ccvHIMcj.s 			page 49


 2706              		.loc 1 1895 0
 2707 002a 0029     		cmp	r1, #0
 2708              		.loc 1 1891 0
 2709 002c 0391     		str	r1, [sp, #12]
 2710              	.LVL303:
 2711              		.loc 1 1880 0
 2712 002e 1746     		mov	r7, r2
 2713              		.loc 1 1895 0
 2714 0030 3EDD     		ble	.L256
 2715              		.loc 1 1894 0
 2716 0032 029A     		ldr	r2, [sp, #8]
 2717              	.LVL304:
 2718              		.loc 1 1893 0
 2719 0034 0025     		movs	r5, #0
 2720 0036 0495     		str	r5, [sp, #16]
 2721              		.loc 1 1894 0
 2722 0038 9244     		add	sl, r2, sl
 2723              	.LVL305:
 2724              		.loc 1 1895 0
 2725 003a 4FF0000B 		mov	fp, #0
 2726              	.LVL306:
 2727              	.L265:
 2728              		.loc 1 1896 0
 2729 003e DAF80050 		ldr	r5, [sl, #0]	@ unaligned
 2730 0042 15BB     		cbnz	r5, .L257
 2731              		.loc 1 1898 0
 2732 0044 54B3     		cbz	r4, .L269
 2733              		.loc 1 1898 0 is_stmt 0 discriminator 1
 2734 0046 DAF80480 		ldr	r8, [sl, #4]	@ unaligned
 2735 004a 0298     		ldr	r0, [sp, #8]
 2736              	.LBB55:
 2737              	.LBB58:
 2738              		.loc 1 1873 0 is_stmt 1 discriminator 1
 2739 004c 2168     		ldr	r1, [r4, #0]	@ unaligned
 2740              	.LBE58:
 2741              	.LBE55:
 2742              		.loc 1 1898 0 discriminator 1
 2743 004e 8044     		add	r8, r0, r8
 2744              	.LVL307:
 2745              	.LBB61:
 2746              	.LBB57:
 2747              		.loc 1 1873 0 discriminator 1
 2748 0050 21B3     		cbz	r1, .L269
 2749              		.loc 1 1879 0
 2750 0052 04F10806 		add	r6, r4, #8
 2751              	.LBE57:
 2752              	.LBE61:
 2753 0056 A146     		mov	r9, r4
 2754 0058 04E0     		b	.L260
 2755              	.LVL308:
 2756              	.L261:
 2757              	.LBB62:
 2758              	.LBB59:
 2759              		.loc 1 1873 0
 2760 005a B146     		mov	r9, r6
 2761 005c 56F8081B 		ldr	r1, [r6], #8	@ unaligned
 2762 0060 0135     		adds	r5, r5, #1
ARM GAS  /tmp/ccvHIMcj.s 			page 50


 2763              	.LVL309:
 2764 0062 D9B1     		cbz	r1, .L269
 2765              	.LVL310:
 2766              	.L260:
 2767 0064 AF42     		cmp	r7, r5
 2768              		.loc 1 1874 0
 2769 0066 4046     		mov	r0, r8
 2770              		.loc 1 1873 0
 2771 0068 02DC     		bgt	.L263
 2772 006a B7F1FF3F 		cmp	r7, #-1
 2773 006e 15D1     		bne	.L269
 2774              	.L263:
 2775              		.loc 1 1874 0
 2776 0070 FFF7FEFF 		bl	strcmp
 2777 0074 0028     		cmp	r0, #0
 2778 0076 F0D1     		bne	.L261
 2779              		.loc 1 1875 0
 2780 0078 D9F80430 		ldr	r3, [r9, #4]	@ unaligned
 2781              	.LVL311:
 2782              	.LBE59:
 2783              	.LBE62:
 2784              		.loc 1 1899 0
 2785 007c 73B1     		cbz	r3, .L269
 2786              		.loc 1 1900 0
 2787 007e CAF80030 		str	r3, [sl, #0]	@ unaligned
 2788 0082 029B     		ldr	r3, [sp, #8]
 2789              	.LVL312:
 2790 0084 B3F90A30 		ldrsh	r3, [r3, #10]	@ unaligned
 2791 0088 0193     		str	r3, [sp, #4]
 2792              	.LVL313:
 2793              	.L257:
 2794              		.loc 1 1895 0
 2795 008a 039A     		ldr	r2, [sp, #12]
 2796 008c 0BF1010B 		add	fp, fp, #1
 2797              	.LVL314:
 2798 0090 9345     		cmp	fp, r2
 2799 0092 0BD0     		beq	.L264
 2800              	.LVL315:
 2801              	.L270:
 2802              		.loc 1 1904 0
 2803 0094 0FFA83FC 		sxth	ip, r3
 2804 0098 E244     		add	sl, sl, ip
 2805 009a D0E7     		b	.L265
 2806              	.LVL316:
 2807              	.L269:
 2808              		.loc 1 1895 0
 2809 009c 039A     		ldr	r2, [sp, #12]
 2810 009e 0BF1010B 		add	fp, fp, #1
 2811              	.LBB63:
 2812              	.LBB56:
 2813              		.loc 1 1902 0
 2814 00a2 1321     		movs	r1, #19
 2815              	.LBE56:
 2816              	.LBE63:
 2817              		.loc 1 1895 0
 2818 00a4 9345     		cmp	fp, r2
 2819              	.LBB64:
ARM GAS  /tmp/ccvHIMcj.s 			page 51


 2820              	.LBB60:
 2821              		.loc 1 1873 0
 2822 00a6 019B     		ldr	r3, [sp, #4]
 2823              		.loc 1 1902 0
 2824 00a8 0491     		str	r1, [sp, #16]
 2825              	.LVL317:
 2826              	.LBE60:
 2827              	.LBE64:
 2828              		.loc 1 1895 0
 2829 00aa F3D1     		bne	.L270
 2830              	.L264:
 2831              		.loc 1 1906 0
 2832 00ac 0498     		ldr	r0, [sp, #16]
 2833 00ae 40B9     		cbnz	r0, .L266
 2834              	.LVL318:
 2835              	.L256:
 2836              		.loc 1 1907 0
 2837 00b0 0598     		ldr	r0, [sp, #20]
 2838 00b2 0599     		ldr	r1, [sp, #20]
 2839 00b4 D0F830C0 		ldr	ip, [r0, #48]	@ unaligned
 2840 00b8 0022     		movs	r2, #0
 2841 00ba 4CF48053 		orr	r3, ip, #4096
 2842 00be 0492     		str	r2, [sp, #16]
 2843 00c0 0B63     		str	r3, [r1, #48]	@ unaligned
 2844              	.L266:
 2845              		.loc 1 1909 0
 2846 00c2 0498     		ldr	r0, [sp, #16]
 2847 00c4 07B0     		add	sp, sp, #28
 2848 00c6 BDE8F08F 		pop	{r4, r5, r6, r7, r8, r9, sl, fp, pc}
 2849              		.cfi_endproc
 2850              	.LFE27:
 2851              		.size	amx_Register, .-amx_Register
 2852 00ca 00BFAFF3 		.section	.text.amx_NativeInfo,"ax",%progbits
 2852      0080
 2853              		.align	2
 2854              		.p2align 4,,15
 2855              		.global	amx_NativeInfo
 2856              		.thumb
 2857              		.thumb_func
 2858              		.type	amx_NativeInfo, %function
 2859              	amx_NativeInfo:
 2860              	.LFB28:
 2861              		.loc 1 1914 0
 2862              		.cfi_startproc
 2863              		@ args = 0, pretend = 0, frame = 0
 2864              		@ frame_needed = 0, uses_anonymous_args = 0
 2865              		@ link register save eliminated.
 2866              	.LVL319:
 2867              		.loc 1 1916 0
 2868 0000 024B     		ldr	r3, .L272
 2869 0002 1860     		str	r0, [r3, #0]
 2870              		.loc 1 1917 0
 2871 0004 5960     		str	r1, [r3, #4]
 2872              		.loc 1 1919 0
 2873 0006 1846     		mov	r0, r3
 2874              	.LVL320:
 2875 0008 7047     		bx	lr
ARM GAS  /tmp/ccvHIMcj.s 			page 52


 2876              	.L273:
 2877 000a 00BF     		.align	2
 2878              	.L272:
 2879 000c 00000000 		.word	.LANCHOR0
 2880              		.cfi_endproc
 2881              	.LFE28:
 2882              		.size	amx_NativeInfo, .-amx_NativeInfo
 2883              		.section	.text.amx_Push,"ax",%progbits
 2884              		.align	2
 2885              		.p2align 4,,15
 2886              		.global	amx_Push
 2887              		.thumb
 2888              		.thumb_func
 2889              		.type	amx_Push, %function
 2890              	amx_Push:
 2891              	.LFB29:
 2892              		.loc 1 1928 0
 2893              		.cfi_startproc
 2894              		@ args = 0, pretend = 0, frame = 0
 2895              		@ frame_needed = 0, uses_anonymous_args = 0
 2896              		@ link register save eliminated.
 2897              	.LVL321:
 2898 0000 10B4     		push	{r4}
 2899              	.LCFI26:
 2900              		.cfi_def_cfa_offset 4
 2901              		.loc 1 1932 0
 2902 0002 026A     		ldr	r2, [r0, #32]	@ unaligned
 2903 0004 836A     		ldr	r3, [r0, #40]	@ unaligned
 2904 0006 3F32     		adds	r2, r2, #63
 2905 0008 9A42     		cmp	r2, r3
 2906 000a 0BDA     		bge	.L277
 2907              		.cfi_offset 4, -4
 2908              		.loc 1 1935 0
 2909 000c 8268     		ldr	r2, [r0, #8]	@ unaligned
 2910              		.loc 1 1934 0
 2911 000e 0468     		ldr	r4, [r0, #0]	@ unaligned
 2912              	.LVL322:
 2913              		.loc 1 1935 0
 2914 0010 52B1     		cbz	r2, .L278
 2915              	.L276:
 2916              	.LVL323:
 2917              		.loc 1 1937 0 discriminator 3
 2918 0012 846D     		ldr	r4, [r0, #88]	@ unaligned
 2919              	.LVL324:
 2920              		.loc 1 1936 0 discriminator 3
 2921 0014 043B     		subs	r3, r3, #4
 2922              		.loc 1 1937 0 discriminator 3
 2923 0016 0134     		adds	r4, r4, #1
 2924              		.loc 1 1936 0 discriminator 3
 2925 0018 8362     		str	r3, [r0, #40]	@ unaligned
 2926              		.loc 1 1937 0 discriminator 3
 2927 001a 8465     		str	r4, [r0, #88]	@ unaligned
 2928              		.loc 1 1939 0 discriminator 3
 2929 001c 0020     		movs	r0, #0
 2930              	.LVL325:
 2931              		.loc 1 1938 0 discriminator 3
 2932 001e D150     		str	r1, [r2, r3]
ARM GAS  /tmp/ccvHIMcj.s 			page 53


 2933              	.LVL326:
 2934              	.L275:
 2935              		.loc 1 1940 0
 2936 0020 10BC     		pop	{r4}
 2937 0022 7047     		bx	lr
 2938              	.LVL327:
 2939              	.L277:
 2940              		.loc 1 1933 0
 2941 0024 0320     		movs	r0, #3
 2942              	.LVL328:
 2943 0026 FBE7     		b	.L275
 2944              	.LVL329:
 2945              	.L278:
 2946              		.loc 1 1935 0 discriminator 2
 2947 0028 D4F810C0 		ldr	ip, [r4, #16]	@ unaligned
 2948 002c 04EB0C02 		add	r2, r4, ip
 2949 0030 EFE7     		b	.L276
 2950              		.cfi_endproc
 2951              	.LFE29:
 2952              		.size	amx_Push, .-amx_Push
 2953 0032 00BFAFF3 		.section	.text.amx_PushAddress,"ax",%progbits
 2953      0080AFF3 
 2953      0080AFF3 
 2953      0080
 2954              		.align	2
 2955              		.p2align 4,,15
 2956              		.global	amx_PushAddress
 2957              		.thumb
 2958              		.thumb_func
 2959              		.type	amx_PushAddress, %function
 2960              	amx_PushAddress:
 2961              	.LFB30:
 2962              		.loc 1 1943 0
 2963              		.cfi_startproc
 2964              		@ args = 0, pretend = 0, frame = 0
 2965              		@ frame_needed = 0, uses_anonymous_args = 0
 2966              		@ link register save eliminated.
 2967              	.LVL330:
 2968 0000 30B4     		push	{r4, r5}
 2969              	.LCFI27:
 2970              		.cfi_def_cfa_offset 8
 2971              		.loc 1 1953 0
 2972 0002 8368     		ldr	r3, [r0, #8]	@ unaligned
 2973              		.loc 1 1950 0
 2974 0004 0568     		ldr	r5, [r0, #0]	@ unaligned
 2975              		.cfi_offset 5, -4
 2976              		.cfi_offset 4, -8
 2977              	.LVL331:
 2978              		.loc 1 1953 0
 2979 0006 BBB1     		cbz	r3, .L286
 2980 0008 1C46     		mov	r4, r3
 2981              	.L280:
 2982              	.LVL332:
 2983              		.loc 1 1955 0 discriminator 3
 2984 000a C26A     		ldr	r2, [r0, #44]	@ unaligned
 2985              		.loc 1 1954 0 discriminator 3
 2986 000c 091B     		subs	r1, r1, r4
ARM GAS  /tmp/ccvHIMcj.s 			page 54


 2987              	.LVL333:
 2988              		.loc 1 1955 0 discriminator 3
 2989 000e 9142     		cmp	r1, r2
 2990 0010 10D2     		bcs	.L284
 2991              	.LVL334:
 2992              	.LBB65:
 2993              	.LBB67:
 2994              		.loc 1 1932 0
 2995 0012 046A     		ldr	r4, [r0, #32]	@ unaligned
 2996              	.LVL335:
 2997 0014 826A     		ldr	r2, [r0, #40]	@ unaligned
 2998 0016 3F34     		adds	r4, r4, #63
 2999 0018 9442     		cmp	r4, r2
 3000 001a 09DA     		bge	.L285
 3001              	.LVL336:
 3002              		.loc 1 1935 0
 3003 001c 7BB1     		cbz	r3, .L287
 3004              	.L282:
 3005              	.LVL337:
 3006              		.loc 1 1937 0
 3007 001e 846D     		ldr	r4, [r0, #88]	@ unaligned
 3008              		.loc 1 1936 0
 3009 0020 043A     		subs	r2, r2, #4
 3010              		.loc 1 1937 0
 3011 0022 0134     		adds	r4, r4, #1
 3012              		.loc 1 1936 0
 3013 0024 8262     		str	r2, [r0, #40]	@ unaligned
 3014              		.loc 1 1937 0
 3015 0026 8465     		str	r4, [r0, #88]	@ unaligned
 3016              		.loc 1 1939 0
 3017 0028 0020     		movs	r0, #0
 3018              	.LVL338:
 3019              		.loc 1 1938 0
 3020 002a 9950     		str	r1, [r3, r2]
 3021              	.LVL339:
 3022              	.L281:
 3023              	.LBE67:
 3024              	.LBE65:
 3025              		.loc 1 1958 0
 3026 002c 30BC     		pop	{r4, r5}
 3027 002e 7047     		bx	lr
 3028              	.LVL340:
 3029              	.L285:
 3030              	.LBB69:
 3031              	.LBB66:
 3032              		.loc 1 1933 0
 3033 0030 0320     		movs	r0, #3
 3034              	.LVL341:
 3035 0032 FBE7     		b	.L281
 3036              	.LVL342:
 3037              	.L284:
 3038              	.LBE66:
 3039              	.LBE69:
 3040              		.loc 1 1956 0
 3041 0034 0520     		movs	r0, #5
 3042              	.LVL343:
 3043 0036 F9E7     		b	.L281
ARM GAS  /tmp/ccvHIMcj.s 			page 55


 3044              	.LVL344:
 3045              	.L286:
 3046              		.loc 1 1953 0 discriminator 2
 3047 0038 2C69     		ldr	r4, [r5, #16]	@ unaligned
 3048 003a 2C19     		adds	r4, r5, r4
 3049 003c E5E7     		b	.L280
 3050              	.LVL345:
 3051              	.L287:
 3052              	.LBB70:
 3053              	.LBB68:
 3054              		.loc 1 1935 0
 3055 003e 2B69     		ldr	r3, [r5, #16]	@ unaligned
 3056 0040 EB18     		adds	r3, r5, r3
 3057 0042 ECE7     		b	.L282
 3058              	.LBE68:
 3059              	.LBE70:
 3060              		.cfi_endproc
 3061              	.LFE30:
 3062              		.size	amx_PushAddress, .-amx_PushAddress
 3063 0044 AFF30080 		.section	.text.amx_exec_list,"ax",%progbits
 3063      AFF30080 
 3063      AFF30080 
 3064              		.align	2
 3065              		.p2align 4,,15
 3066              		.global	amx_exec_list
 3067              		.thumb
 3068              		.thumb_func
 3069              		.type	amx_exec_list, %function
 3070              	amx_exec_list:
 3071              	.LFB33:
 3072              		.loc 1 2054 0
 3073              		.cfi_startproc
 3074              		@ args = 0, pretend = 0, frame = 0
 3075              		@ frame_needed = 0, uses_anonymous_args = 0
 3076              		@ link register save eliminated.
 3077              	.LVL346:
 3078              		.loc 1 2057 0
 3079 0000 0020     		movs	r0, #0
 3080              	.LVL347:
 3081              		.loc 1 2059 0
 3082 0002 AF23     		movs	r3, #175
 3083              		.loc 1 2057 0
 3084 0004 0860     		str	r0, [r1, #0]
 3085              		.loc 1 2059 0
 3086 0006 1360     		str	r3, [r2, #0]
 3087              		.loc 1 2061 0
 3088 0008 7047     		bx	lr
 3089              		.cfi_endproc
 3090              	.LFE33:
 3091              		.size	amx_exec_list, .-amx_exec_list
 3092 000a 00BFAFF3 		.section	.text.amx_Exec,"ax",%progbits
 3092      0080
 3093              		.align	2
 3094              		.p2align 4,,15
 3095              		.global	amx_Exec
 3096              		.thumb
 3097              		.thumb_func
ARM GAS  /tmp/ccvHIMcj.s 			page 56


 3098              		.type	amx_Exec, %function
 3099              	amx_Exec:
 3100              	.LFB34:
 3101              		.loc 1 2065 0
 3102              		.cfi_startproc
 3103              		@ args = 0, pretend = 0, frame = 48
 3104              		@ frame_needed = 0, uses_anonymous_args = 0
 3105              	.LVL348:
 3106 0000 2DE9F04F 		push	{r4, r5, r6, r7, r8, r9, sl, fp, lr}
 3107              	.LCFI28:
 3108              		.cfi_def_cfa_offset 36
 3109              		.loc 1 2077 0
 3110 0004 036B     		ldr	r3, [r0, #48]	@ unaligned
 3111              		.loc 1 2065 0
 3112 0006 8DB0     		sub	sp, sp, #52
 3113              	.LCFI29:
 3114              		.cfi_def_cfa_offset 88
 3115              		.loc 1 2077 0
 3116 0008 13F4004F 		tst	r3, #32768
 3117              		.loc 1 2065 0
 3118 000c 0446     		mov	r4, r0
 3119              		.cfi_offset 14, -4
 3120              		.cfi_offset 11, -8
 3121              		.cfi_offset 10, -12
 3122              		.cfi_offset 9, -16
 3123              		.cfi_offset 8, -20
 3124              		.cfi_offset 7, -24
 3125              		.cfi_offset 6, -28
 3126              		.cfi_offset 5, -32
 3127              		.cfi_offset 4, -36
 3128 000e 0391     		str	r1, [sp, #12]
 3129              		.loc 1 2077 0
 3130 0010 00F06081 		beq	.L591
 3131              		.loc 1 2079 0
 3132 0014 C168     		ldr	r1, [r0, #12]	@ unaligned
 3133              	.LVL349:
 3134 0016 0029     		cmp	r1, #0
 3135 0018 00F07981 		beq	.L592
 3136              		.loc 1 2082 0
 3137 001c D0F80080 		ldr	r8, [r0, #0]	@ unaligned
 3138              	.LVL350:
 3139              		.loc 1 2086 0
 3140 0020 13F48050 		ands	r0, r3, #4096
 3141              	.LVL351:
 3142 0024 28D1     		bne	.L291
 3143              	.LBB71:
 3144              		.loc 1 2092 0
 3145 0026 B8F90A60 		ldrsh	r6, [r8, #10]	@ unaligned
 3146 002a D8F82410 		ldr	r1, [r8, #36]	@ unaligned
 3147 002e D8F828C0 		ldr	ip, [r8, #40]	@ unaligned
 3148 0032 35B2     		sxth	r5, r6
 3149 0034 C1EB0C07 		rsb	r7, r1, ip
 3150 0038 97FBF5F7 		sdiv	r7, r7, r5
 3151              	.LVL352:
 3152              		.loc 1 2094 0
 3153 003c 002F     		cmp	r7, #0
 3154 003e 18DD     		ble	.L292
ARM GAS  /tmp/ccvHIMcj.s 			page 57


 3155              		.loc 1 2093 0
 3156 0040 4144     		add	r1, r8, r1
 3157              	.LVL353:
 3158              		.loc 1 2094 0
 3159 0042 0D68     		ldr	r5, [r1, #0]	@ unaligned
 3160 0044 3DB1     		cbz	r5, .L593
 3161 0046 17F0010F 		tst	r7, #1
 3162              		.loc 1 2095 0 discriminator 1
 3163 004a 36B2     		sxth	r6, r6
 3164 004c 0ED1     		bne	.L293
 3165              		.loc 1 2064 0
 3166 004e 8919     		adds	r1, r1, r6
 3167              		.loc 1 2094 0
 3168 0050 0D68     		ldr	r5, [r1, #0]	@ unaligned
 3169 0052 0120     		movs	r0, #1
 3170              	.LVL354:
 3171 0054 55B9     		cbnz	r5, .L293
 3172              	.LVL355:
 3173              	.L593:
 3174              		.loc 1 2097 0
 3175 0056 1320     		movs	r0, #19
 3176 0058 3DE1     		b	.L290
 3177              	.L806:
 3178              		.loc 1 2064 0 discriminator 2
 3179 005a 8D19     		adds	r5, r1, r6
 3180 005c A919     		adds	r1, r5, r6
 3181              		.loc 1 2094 0 discriminator 2
 3182 005e 2D68     		ldr	r5, [r5, #0]	@ unaligned
 3183 0060 0130     		adds	r0, r0, #1
 3184 0062 002D     		cmp	r5, #0
 3185 0064 F7D0     		beq	.L593
 3186              	.LVL356:
 3187              		.loc 1 2094 0 is_stmt 0
 3188 0066 0D68     		ldr	r5, [r1, #0]	@ unaligned
 3189 0068 002D     		cmp	r5, #0
 3190 006a F4D0     		beq	.L593
 3191              	.LVL357:
 3192              	.L293:
 3193              		.loc 1 2094 0 discriminator 1
 3194 006c 0130     		adds	r0, r0, #1
 3195 006e B842     		cmp	r0, r7
 3196 0070 F3D1     		bne	.L806
 3197              	.L292:
 3198              		.loc 1 2098 0 is_stmt 1
 3199 0072 43F48053 		orr	r3, r3, #4096
 3200 0076 2363     		str	r3, [r4, #48]	@ unaligned
 3201              	.LVL358:
 3202              	.L291:
 3203              	.LBE71:
 3204              		.loc 1 2105 0
 3205 0078 A668     		ldr	r6, [r4, #8]	@ unaligned
 3206 007a 002E     		cmp	r6, #0
 3207 007c 00F04981 		beq	.L807
 3208              	.L294:
 3209              	.LVL359:
 3210              		.loc 1 2106 0 discriminator 3
 3211 0080 A16A     		ldr	r1, [r4, #40]	@ unaligned
ARM GAS  /tmp/ccvHIMcj.s 			page 58


 3212              		.loc 1 2108 0 discriminator 3
 3213 0082 0023     		movs	r3, #0
 3214 0084 84F85430 		strb	r3, [r4, #84]
 3215 0088 84F85530 		strb	r3, [r4, #85]
 3216 008c 84F85630 		strb	r3, [r4, #86]
 3217 0090 84F85730 		strb	r3, [r4, #87]
 3218              		.loc 1 2106 0 discriminator 3
 3219 0094 0491     		str	r1, [sp, #16]
 3220              	.LVL360:
 3221              		.loc 1 2107 0 discriminator 3
 3222 0096 206A     		ldr	r0, [r4, #32]	@ unaligned
 3223              		.loc 1 2111 0 discriminator 3
 3224 0098 B2F1FF3F 		cmp	r2, #-1
 3225              		.loc 1 2107 0 discriminator 3
 3226 009c 0590     		str	r0, [sp, #20]
 3227              	.LVL361:
 3228              		.loc 1 2111 0 discriminator 3
 3229 009e 00F01D81 		beq	.L808
 3230              		.loc 1 2123 0
 3231 00a2 12F1020F 		cmn	r2, #2
 3232 00a6 01F05D83 		beq	.L809
 3233              		.loc 1 2133 0
 3234 00aa 002A     		cmp	r2, #0
 3235 00ac C0F21B81 		blt	.L598
 3236              		.loc 1 2136 0
 3237 00b0 D8F82400 		ldr	r0, [r8, #36]	@ unaligned
 3238              	.LVL362:
 3239 00b4 D8F82010 		ldr	r1, [r8, #32]	@ unaligned
 3240              	.LVL363:
 3241 00b8 B8F90A30 		ldrsh	r3, [r8, #10]	@ unaligned
 3242 00bc C1EB000C 		rsb	ip, r1, r0
 3243 00c0 9CFBF3F0 		sdiv	r0, ip, r3
 3244 00c4 8242     		cmp	r2, r0
 3245 00c6 80F20E81 		bge	.L598
 3246              		.loc 1 2139 0
 3247 00ca 08EB010C 		add	ip, r8, r1
 3248 00ce 03FB02C1 		mla	r1, r3, r2, ip
 3249 00d2 0968     		ldr	r1, [r1, #0]	@ unaligned
 3250              	.L805:
 3251 00d4 A161     		str	r1, [r4, #24]	@ unaligned
 3252              		.loc 1 2140 0
 3253 00d6 D8F83800 		ldr	r0, [r8, #56]	@ unaligned
 3254 00da D8F83430 		ldr	r3, [r8, #52]	@ unaligned
 3255 00de 9842     		cmp	r0, r3
 3256 00e0 40F00581 		bne	.L810
 3257 00e4 DDF81090 		ldr	r9, [sp, #16]
 3258              	.LVL364:
 3259              	.L296:
 3260              		.loc 1 2150 0
 3261 00e8 E16A     		ldr	r1, [r4, #44]	@ unaligned
 3262 00ea 4945     		cmp	r1, r9
 3263 00ec C0F2FD80 		blt	.L624
 3264              		.loc 1 2152 0
 3265 00f0 D4F820B0 		ldr	fp, [r4, #32]	@ unaligned
 3266 00f4 606A     		ldr	r0, [r4, #36]	@ unaligned
 3267 00f6 8345     		cmp	fp, r0
 3268 00f8 C0F20F81 		blt	.L626
ARM GAS  /tmp/ccvHIMcj.s 			page 59


 3269              		.loc 1 2180 0
 3270 00fc 12F1020F 		cmn	r2, #2
 3271 0100 1BD0     		beq	.L298
 3272              		.loc 1 2181 0
 3273 0102 A06D     		ldr	r0, [r4, #88]	@ unaligned
 3274              		.loc 1 2182 0
 3275 0104 A9F10409 		sub	r9, r9, #4
 3276              		.loc 1 2181 0
 3277 0108 8000     		lsls	r0, r0, #2
 3278              		.loc 1 2182 0
 3279 010a C4F82890 		str	r9, [r4, #40]	@ unaligned
 3280 010e 46F80900 		str	r0, [r6, r9]
 3281              		.loc 1 2184 0
 3282 0112 A36A     		ldr	r3, [r4, #40]	@ unaligned
 3283              		.loc 1 2183 0
 3284 0114 0022     		movs	r2, #0
 3285              		.loc 1 2184 0
 3286 0116 191F     		subs	r1, r3, #4
 3287 0118 A162     		str	r1, [r4, #40]	@ unaligned
 3288              		.loc 1 2183 0
 3289 011a 84F85820 		strb	r2, [r4, #88]
 3290 011e 84F85920 		strb	r2, [r4, #89]
 3291 0122 84F85A20 		strb	r2, [r4, #90]
 3292 0126 84F85B20 		strb	r2, [r4, #91]
 3293              		.loc 1 2181 0
 3294 012a 049B     		ldr	r3, [sp, #16]
 3295              		.loc 1 2184 0
 3296 012c 7250     		str	r2, [r6, r1]
 3297              		.loc 1 2181 0
 3298 012e 1A18     		adds	r2, r3, r0
 3299              		.loc 1 2184 0
 3300 0130 D4F820B0 		ldr	fp, [r4, #32]	@ unaligned
 3301 0134 D4F82890 		ldr	r9, [r4, #40]	@ unaligned
 3302              		.loc 1 2181 0
 3303 0138 0492     		str	r2, [sp, #16]
 3304              	.LVL365:
 3305              	.L298:
 3306              		.loc 1 2187 0
 3307 013a 0BF13F0C 		add	ip, fp, #63
 3308 013e CC45     		cmp	ip, r9
 3309 0140 80F2ED80 		bge	.L625
 3310              		.loc 1 2228 0
 3311 0144 E26D     		ldr	r2, [r4, #92]	@ unaligned
 3312 0146 0CAB     		add	r3, sp, #48
 3313              		.loc 1 2231 0
 3314 0148 6568     		ldr	r5, [r4, #4]	@ unaligned
 3315 014a A169     		ldr	r1, [r4, #24]	@ unaligned
 3316              		.loc 1 2228 0
 3317 014c 43F8042D 		str	r2, [r3, #-4]!
 3318              	.LVL366:
 3319 0150 0693     		str	r3, [sp, #24]
 3320              		.loc 1 2064 0
 3321 0152 371D     		adds	r7, r6, #4
 3322              		.loc 1 2229 0
 3323 0154 D4F860A0 		ldr	sl, [r4, #96]	@ unaligned
 3324              	.LVL367:
 3325              		.loc 1 2230 0
ARM GAS  /tmp/ccvHIMcj.s 			page 60


 3326 0158 D4F81CC0 		ldr	ip, [r4, #28]	@ unaligned
 3327              	.LVL368:
 3328              		.loc 1 2231 0
 3329 015c 6D18     		adds	r5, r5, r1
 3330              	.LVL369:
 3331              		.loc 1 2064 0
 3332 015e 0897     		str	r7, [sp, #32]
 3333 0160 4746     		mov	r7, r8
 3334 0162 A046     		mov	r8, r4
 3335              	.LVL370:
 3336              	.L743:
 3337              		.loc 1 2237 0
 3338 0164 2C46     		mov	r4, r5
 3339 0166 54F8040B 		ldr	r0, [r4], #4
 3340              	.LVL371:
 3341              		.loc 1 2238 0
 3342 016a C1B2     		uxtb	r1, r0
 3343 016c AE29     		cmp	r1, #174
 3344 016e 00F23D86 		bhi	.L302
 3345 0172 DFE811F0 		tbh	[pc, r1, lsl #1]
 3346              	.L472:
 3347 0176 3806     		.2byte	(.L300-.L472)/2
 3348 0178 3206     		.2byte	(.L303-.L472)/2
 3349 017a 2C06     		.2byte	(.L304-.L472)/2
 3350 017c 2406     		.2byte	(.L305-.L472)/2
 3351 017e 1C06     		.2byte	(.L306-.L472)/2
 3352 0180 1306     		.2byte	(.L307-.L472)/2
 3353 0182 0906     		.2byte	(.L308-.L472)/2
 3354 0184 F905     		.2byte	(.L309-.L472)/2
 3355 0186 F605     		.2byte	(.L310-.L472)/2
 3356 0188 F105     		.2byte	(.L311-.L472)/2
 3357 018a EC05     		.2byte	(.L312-.L472)/2
 3358 018c E505     		.2byte	(.L313-.L472)/2
 3359 018e DF05     		.2byte	(.L314-.L472)/2
 3360 0190 D905     		.2byte	(.L315-.L472)/2
 3361 0192 D706     		.2byte	(.L316-.L472)/2
 3362 0194 CE06     		.2byte	(.L317-.L472)/2
 3363 0196 BE06     		.2byte	(.L318-.L472)/2
 3364 0198 BB06     		.2byte	(.L319-.L472)/2
 3365 019a 6D06     		.2byte	(.L320-.L472)/2
 3366 019c 5F06     		.2byte	(.L321-.L472)/2
 3367 019e 4B06     		.2byte	(.L322-.L472)/2
 3368 01a0 4406     		.2byte	(.L323-.L472)/2
 3369 01a2 9206     		.2byte	(.L324-.L472)/2
 3370 01a4 8B06     		.2byte	(.L325-.L472)/2
 3371 01a6 8206     		.2byte	(.L326-.L472)/2
 3372 01a8 7A06     		.2byte	(.L327-.L472)/2
 3373 01aa A206     		.2byte	(.L328-.L472)/2
 3374 01ac 9A06     		.2byte	(.L329-.L472)/2
 3375 01ae A906     		.2byte	(.L330-.L472)/2
 3376 01b0 E204     		.2byte	(.L331-.L472)/2
 3377 01b2 B005     		.2byte	(.L332-.L472)/2
 3378 01b4 9F05     		.2byte	(.L333-.L472)/2
 3379 01b6 8B05     		.2byte	(.L334-.L472)/2
 3380 01b8 7E05     		.2byte	(.L335-.L472)/2
 3381 01ba 7905     		.2byte	(.L336-.L472)/2
 3382 01bc 7005     		.2byte	(.L337-.L472)/2
ARM GAS  /tmp/ccvHIMcj.s 			page 61


 3383 01be 6705     		.2byte	(.L338-.L472)/2
 3384 01c0 6005     		.2byte	(.L339-.L472)/2
 3385 01c2 D205     		.2byte	(.L340-.L472)/2
 3386 01c4 CB05     		.2byte	(.L341-.L472)/2
 3387 01c6 C305     		.2byte	(.L342-.L472)/2
 3388 01c8 BD05     		.2byte	(.L343-.L472)/2
 3389 01ca C004     		.2byte	(.L344-.L472)/2
 3390 01cc AC04     		.2byte	(.L345-.L472)/2
 3391 01ce A504     		.2byte	(.L346-.L472)/2
 3392 01d0 9E04     		.2byte	(.L347-.L472)/2
 3393 01d2 9704     		.2byte	(.L348-.L472)/2
 3394 01d4 9004     		.2byte	(.L349-.L472)/2
 3395 01d6 8904     		.2byte	(.L350-.L472)/2
 3396 01d8 8004     		.2byte	(.L351-.L472)/2
 3397 01da 7A04     		.2byte	(.L352-.L472)/2
 3398 01dc 7404     		.2byte	(.L353-.L472)/2
 3399 01de 6A04     		.2byte	(.L354-.L472)/2
 3400 01e0 6104     		.2byte	(.L355-.L472)/2
 3401 01e2 5804     		.2byte	(.L356-.L472)/2
 3402 01e4 4F04     		.2byte	(.L357-.L472)/2
 3403 01e6 4604     		.2byte	(.L358-.L472)/2
 3404 01e8 3D04     		.2byte	(.L359-.L472)/2
 3405 01ea 3704     		.2byte	(.L360-.L472)/2
 3406 01ec 3204     		.2byte	(.L361-.L472)/2
 3407 01ee 2B04     		.2byte	(.L362-.L472)/2
 3408 01f0 2504     		.2byte	(.L363-.L472)/2
 3409 01f2 4609     		.2byte	(.L364-.L472)/2
 3410 01f4 3F09     		.2byte	(.L365-.L472)/2
 3411 01f6 3B09     		.2byte	(.L366-.L472)/2
 3412 01f8 3709     		.2byte	(.L367-.L472)/2
 3413 01fa 3309     		.2byte	(.L368-.L472)/2
 3414 01fc 2D09     		.2byte	(.L369-.L472)/2
 3415 01fe 1809     		.2byte	(.L370-.L472)/2
 3416 0200 EC08     		.2byte	(.L371-.L472)/2
 3417 0202 5409     		.2byte	(.L372-.L472)/2
 3418 0204 4B09     		.2byte	(.L373-.L472)/2
 3419 0206 8807     		.2byte	(.L374-.L472)/2
 3420 0208 6B07     		.2byte	(.L375-.L472)/2
 3421 020a 3B06     		.2byte	(.L302-.L472)/2
 3422 020c 3B06     		.2byte	(.L302-.L472)/2
 3423 020e 3B06     		.2byte	(.L302-.L472)/2
 3424 0210 4D07     		.2byte	(.L376-.L472)/2
 3425 0212 2707     		.2byte	(.L377-.L472)/2
 3426 0214 F106     		.2byte	(.L378-.L472)/2
 3427 0216 3B06     		.2byte	(.L302-.L472)/2
 3428 0218 DF06     		.2byte	(.L379-.L472)/2
 3429 021a A708     		.2byte	(.L380-.L472)/2
 3430 021c A008     		.2byte	(.L381-.L472)/2
 3431 021e 9608     		.2byte	(.L382-.L472)/2
 3432 0220 8E08     		.2byte	(.L383-.L472)/2
 3433 0222 8508     		.2byte	(.L384-.L472)/2
 3434 0224 7A08     		.2byte	(.L385-.L472)/2
 3435 0226 7008     		.2byte	(.L386-.L472)/2
 3436 0228 6708     		.2byte	(.L387-.L472)/2
 3437 022a E008     		.2byte	(.L388-.L472)/2
 3438 022c D508     		.2byte	(.L389-.L472)/2
 3439 022e C508     		.2byte	(.L390-.L472)/2
ARM GAS  /tmp/ccvHIMcj.s 			page 62


 3440 0230 BC08     		.2byte	(.L391-.L472)/2
 3441 0232 CC08     		.2byte	(.L392-.L472)/2
 3442 0234 D904     		.2byte	(.L393-.L472)/2
 3443 0236 D004     		.2byte	(.L394-.L472)/2
 3444 0238 C704     		.2byte	(.L395-.L472)/2
 3445 023a AA09     		.2byte	(.L396-.L472)/2
 3446 023c A309     		.2byte	(.L397-.L472)/2
 3447 023e 9C09     		.2byte	(.L398-.L472)/2
 3448 0240 9409     		.2byte	(.L399-.L472)/2
 3449 0242 8F09     		.2byte	(.L400-.L472)/2
 3450 0244 8A09     		.2byte	(.L603-.L472)/2
 3451 0246 8409     		.2byte	(.L401-.L472)/2
 3452 0248 7C09     		.2byte	(.L402-.L472)/2
 3453 024a D409     		.2byte	(.L403-.L472)/2
 3454 024c CA09     		.2byte	(.L404-.L472)/2
 3455 024e E509     		.2byte	(.L405-.L472)/2
 3456 0250 C109     		.2byte	(.L406-.L472)/2
 3457 0252 DE09     		.2byte	(.L407-.L472)/2
 3458 0254 5705     		.2byte	(.L408-.L472)/2
 3459 0256 2405     		.2byte	(.L409-.L472)/2
 3460 0258 F304     		.2byte	(.L410-.L472)/2
 3461 025a 5A0A     		.2byte	(.L411-.L472)/2
 3462 025c 170A     		.2byte	(.L412-.L472)/2
 3463 025e 8F0A     		.2byte	(.L413-.L472)/2
 3464 0260 3108     		.2byte	(.L414-.L472)/2
 3465 0262 EA07     		.2byte	(.L415-.L472)/2
 3466 0264 A807     		.2byte	(.L416-.L472)/2
 3467 0266 9E07     		.2byte	(.L417-.L472)/2
 3468 0268 9007     		.2byte	(.L418-.L472)/2
 3469 026a 010A     		.2byte	(.L419-.L472)/2
 3470 026c F809     		.2byte	(.L420-.L472)/2
 3471 026e F209     		.2byte	(.L421-.L472)/2
 3472 0270 EC09     		.2byte	(.L422-.L472)/2
 3473 0272 0F0A     		.2byte	(.L423-.L472)/2
 3474 0274 080A     		.2byte	(.L424-.L472)/2
 3475 0276 1D04     		.2byte	(.L425-.L472)/2
 3476 0278 1504     		.2byte	(.L426-.L472)/2
 3477 027a CD03     		.2byte	(.L427-.L472)/2
 3478 027c C903     		.2byte	(.L428-.L472)/2
 3479 027e C503     		.2byte	(.L429-.L472)/2
 3480 0280 C003     		.2byte	(.L430-.L472)/2
 3481 0282 BC03     		.2byte	(.L431-.L472)/2
 3482 0284 B703     		.2byte	(.L432-.L472)/2
 3483 0286 B003     		.2byte	(.L433-.L472)/2
 3484 0288 A903     		.2byte	(.L434-.L472)/2
 3485 028a FB03     		.2byte	(.L435-.L472)/2
 3486 028c E603     		.2byte	(.L436-.L472)/2
 3487 028e 5903     		.2byte	(.L437-.L472)/2
 3488 0290 4D03     		.2byte	(.L438-.L472)/2
 3489 0292 4603     		.2byte	(.L439-.L472)/2
 3490 0294 3E03     		.2byte	(.L440-.L472)/2
 3491 0296 3403     		.2byte	(.L441-.L472)/2
 3492 0298 2C03     		.2byte	(.L442-.L472)/2
 3493 029a A103     		.2byte	(.L443-.L472)/2
 3494 029c 9603     		.2byte	(.L444-.L472)/2
 3495 029e 8C03     		.2byte	(.L445-.L472)/2
 3496 02a0 6203     		.2byte	(.L446-.L472)/2
ARM GAS  /tmp/ccvHIMcj.s 			page 63


 3497 02a2 FE02     		.2byte	(.L447-.L472)/2
 3498 02a4 CD02     		.2byte	(.L448-.L472)/2
 3499 02a6 9E02     		.2byte	(.L449-.L472)/2
 3500 02a8 7002     		.2byte	(.L450-.L472)/2
 3501 02aa 3C02     		.2byte	(.L451-.L472)/2
 3502 02ac 0B02     		.2byte	(.L452-.L472)/2
 3503 02ae FB01     		.2byte	(.L453-.L472)/2
 3504 02b0 EB01     		.2byte	(.L454-.L472)/2
 3505 02b2 E401     		.2byte	(.L455-.L472)/2
 3506 02b4 DF01     		.2byte	(.L456-.L472)/2
 3507 02b6 D901     		.2byte	(.L457-.L472)/2
 3508 02b8 D201     		.2byte	(.L458-.L472)/2
 3509 02ba CD01     		.2byte	(.L459-.L472)/2
 3510 02bc C601     		.2byte	(.L460-.L472)/2
 3511 02be BD01     		.2byte	(.L461-.L472)/2
 3512 02c0 B501     		.2byte	(.L462-.L472)/2
 3513 02c2 AF01     		.2byte	(.L463-.L472)/2
 3514 02c4 A801     		.2byte	(.L464-.L472)/2
 3515 02c6 A201     		.2byte	(.L465-.L472)/2
 3516 02c8 9B01     		.2byte	(.L466-.L472)/2
 3517 02ca 2B01     		.2byte	(.L467-.L472)/2
 3518 02cc F800     		.2byte	(.L468-.L472)/2
 3519 02ce 5D01     		.2byte	(.L469-.L472)/2
 3520 02d0 DD00     		.2byte	(.L470-.L472)/2
 3521 02d2 D600     		.2byte	(.L471-.L472)/2
 3522              	.LVL372:
 3523              	.L591:
 3524              		.loc 1 2078 0
 3525 02d4 1620     		movs	r0, #22
 3526              	.LVL373:
 3527              	.L290:
 3528              		.loc 1 3365 0
 3529 02d6 0DB0     		add	sp, sp, #52
 3530 02d8 BDE8F08F 		pop	{r4, r5, r6, r7, r8, r9, sl, fp, pc}
 3531              	.LVL374:
 3532              	.L808:
 3533              		.loc 1 2112 0
 3534 02dc D8F81C10 		ldr	r1, [r8, #28]	@ unaligned
 3535              	.LVL375:
 3536 02e0 9942     		cmp	r1, r3
 3537 02e2 BFF6F7AE 		bge	.L805
 3538              	.LVL376:
 3539              	.L598:
 3540              		.loc 1 2137 0
 3541 02e6 1420     		movs	r0, #20
 3542 02e8 F5E7     		b	.L290
 3543              	.LVL377:
 3544              	.L624:
 3545              		.loc 1 3262 0
 3546 02ea 0720     		movs	r0, #7
 3547 02ec F3E7     		b	.L290
 3548              	.LVL378:
 3549              	.L810:
 3550              		.loc 1 2143 0
 3551 02ee 2167     		str	r1, [r4, #112]	@ unaligned
 3552              		.loc 1 2144 0
 3553 02f0 D4F814C0 		ldr	ip, [r4, #20]	@ unaligned
ARM GAS  /tmp/ccvHIMcj.s 			page 64


 3554 02f4 2046     		mov	r0, r4
 3555 02f6 0192     		str	r2, [sp, #4]
 3556 02f8 E047     		blx	ip
 3557              	.LVL379:
 3558 02fa 019A     		ldr	r2, [sp, #4]
 3559 02fc 0028     		cmp	r0, #0
 3560 02fe EAD1     		bne	.L290
 3561              		.loc 1 2146 0
 3562 0300 2076     		strb	r0, [r4, #24]
 3563 0302 6076     		strb	r0, [r4, #25]
 3564 0304 A076     		strb	r0, [r4, #26]
 3565 0306 E076     		strb	r0, [r4, #27]
 3566 0308 D4F82890 		ldr	r9, [r4, #40]	@ unaligned
 3567 030c ECE6     		b	.L296
 3568              	.LVL380:
 3569              	.L592:
 3570              		.loc 1 2080 0
 3571 030e 0920     		movs	r0, #9
 3572 0310 E1E7     		b	.L290
 3573              	.LVL381:
 3574              	.L807:
 3575              		.loc 1 2105 0 discriminator 2
 3576 0312 D8F81060 		ldr	r6, [r8, #16]	@ unaligned
 3577 0316 4644     		add	r6, r8, r6
 3578 0318 B2E6     		b	.L294
 3579              	.LVL382:
 3580              	.L626:
 3581              		.loc 1 3269 0
 3582 031a 0820     		movs	r0, #8
 3583 031c DBE7     		b	.L290
 3584              	.L625:
 3585              		.loc 1 3268 0
 3586 031e 0320     		movs	r0, #3
 3587 0320 D9E7     		b	.L290
 3588              	.LVL383:
 3589              	.L471:
 3590              		.loc 1 3353 0
 3591 0322 0B9B     		ldr	r3, [sp, #44]
 3592 0324 B3EB204F 		cmp	r3, r0, asr #16
 3593 0328 01F2CA82 		bhi	.L811
 3594              		.loc 1 2237 0
 3595 032c 2546     		mov	r5, r4
 3596 032e 19E7     		b	.L743
 3597              	.LVL384:
 3598              	.L470:
 3599 0330 2746     		mov	r7, r4
 3600              	.LVL385:
 3601              		.loc 1 3349 0
 3602 0332 0014     		asrs	r0, r0, #16
 3603              	.LVL386:
 3604 0334 4446     		mov	r4, r8
 3605              	.LVL387:
 3606              	.L545:
 3607              		.loc 1 2655 0
 3608 0336 039B     		ldr	r3, [sp, #12]
 3609 0338 002B     		cmp	r3, #0
 3610 033a 01F08382 		beq	.L812
ARM GAS  /tmp/ccvHIMcj.s 			page 65


 3611              		.loc 1 2656 0
 3612 033e 0B9B     		ldr	r3, [sp, #44]
 3613 0340 039A     		ldr	r2, [sp, #12]
 3614 0342 1360     		str	r3, [r2, #0]
 3615              	.L547:
 3616              		.loc 1 2661 0
 3617 0344 6168     		ldr	r1, [r4, #4]	@ unaligned
 3618              		.loc 1 2662 0
 3619 0346 0C28     		cmp	r0, #12
 3620              		.loc 1 2661 0
 3621 0348 C1EB0707 		rsb	r7, r1, r7
 3622              	.LVL388:
 3623              		.loc 1 2658 0
 3624 034c C4F81CC0 		str	ip, [r4, #28]	@ unaligned
 3625              		.loc 1 2659 0
 3626 0350 E365     		str	r3, [r4, #92]	@ unaligned
 3627              		.loc 1 2660 0
 3628 0352 C4F860A0 		str	sl, [r4, #96]	@ unaligned
 3629              		.loc 1 2661 0
 3630 0356 A761     		str	r7, [r4, #24]	@ unaligned
 3631              		.loc 1 2662 0
 3632 0358 01F02182 		beq	.L813
 3633              		.loc 1 2669 0
 3634 035c 049B     		ldr	r3, [sp, #16]
 3635 035e A362     		str	r3, [r4, #40]	@ unaligned
 3636 0360 0599     		ldr	r1, [sp, #20]
 3637 0362 2162     		str	r1, [r4, #32]	@ unaligned
 3638 0364 B7E7     		b	.L290
 3639              	.LVL389:
 3640              	.L468:
 3641              		.loc 1 3343 0
 3642 0366 0214     		asrs	r2, r0, #16
 3643              	.LVL390:
 3644              		.loc 1 2237 0
 3645 0368 2546     		mov	r5, r4
 3646              	.LVL391:
 3647              	.L524:
 3648              		.loc 1 2623 0
 3649 036a 0B99     		ldr	r1, [sp, #44]
 3650 036c 8B45     		cmp	fp, r1
 3651 036e 02DC     		bgt	.L525
 3652              		.loc 1 2623 0 is_stmt 0 discriminator 1
 3653 0370 8945     		cmp	r9, r1
 3654 0372 01F35B82 		bgt	.L561
 3655              	.L525:
 3656              		.loc 1 2623 0 discriminator 2
 3657 0376 D8F82C30 		ldr	r3, [r8, #44]	@ unaligned
 3658 037a 9942     		cmp	r1, r3
 3659 037c 81F05682 		bcs	.L561
 3660              		.loc 1 2625 0 is_stmt 1
 3661 0380 5018     		adds	r0, r2, r1
 3662 0382 8345     		cmp	fp, r0
 3663 0384 02DA     		bge	.L528
 3664              		.loc 1 2625 0 is_stmt 0 discriminator 1
 3665 0386 8145     		cmp	r9, r0
 3666 0388 01F34782 		bgt	.L564
 3667              	.L528:
ARM GAS  /tmp/ccvHIMcj.s 			page 66


 3668              		.loc 1 2625 0 discriminator 2
 3669 038c 8342     		cmp	r3, r0
 3670 038e C1F04482 		bcc	.L564
 3671              		.loc 1 2627 0 is_stmt 1
 3672 0392 DA45     		cmp	sl, fp
 3673 0394 02DB     		blt	.L531
 3674              		.loc 1 2627 0 is_stmt 0 discriminator 1
 3675 0396 CA45     		cmp	sl, r9
 3676 0398 C1F24882 		blt	.L561
 3677              	.L531:
 3678              		.loc 1 2627 0 discriminator 2
 3679 039c 5345     		cmp	r3, sl
 3680 039e 41F24582 		bls	.L561
 3681              		.loc 1 2629 0 is_stmt 1
 3682 03a2 02EB0A00 		add	r0, r2, sl
 3683 03a6 8345     		cmp	fp, r0
 3684 03a8 02DA     		bge	.L534
 3685              		.loc 1 2629 0 is_stmt 0 discriminator 1
 3686 03aa 8145     		cmp	r9, r0
 3687 03ac 01F33582 		bgt	.L564
 3688              	.L534:
 3689              		.loc 1 2629 0 discriminator 2
 3690 03b0 8342     		cmp	r3, r0
 3691 03b2 C1F03282 		bcc	.L564
 3692              		.loc 1 2632 0 is_stmt 1
 3693 03b6 06EB0A00 		add	r0, r6, sl
 3694 03ba 7118     		adds	r1, r6, r1
 3695 03bc CDF804C0 		str	ip, [sp, #4]
 3696 03c0 FFF7FEFF 		bl	memcmp
 3697              	.LVL392:
 3698              		.loc 1 2640 0
 3699 03c4 DDF804C0 		ldr	ip, [sp, #4]
 3700              	.LVL393:
 3701              		.loc 1 2632 0
 3702 03c8 0B90     		str	r0, [sp, #44]
 3703              	.LVL394:
 3704              		.loc 1 2640 0
 3705 03ca CBE6     		b	.L743
 3706              	.LVL395:
 3707              	.L467:
 3708              		.loc 1 3340 0
 3709 03cc 0214     		asrs	r2, r0, #16
 3710              	.LVL396:
 3711              		.loc 1 2237 0
 3712 03ce 2546     		mov	r5, r4
 3713              	.LVL397:
 3714              	.L511:
 3715              		.loc 1 2596 0
 3716 03d0 0B99     		ldr	r1, [sp, #44]
 3717 03d2 8B45     		cmp	fp, r1
 3718 03d4 02DC     		bgt	.L512
 3719              		.loc 1 2596 0 is_stmt 0 discriminator 1
 3720 03d6 8945     		cmp	r9, r1
 3721 03d8 01F32882 		bgt	.L561
 3722              	.L512:
 3723              		.loc 1 2596 0 discriminator 2
 3724 03dc D8F82C30 		ldr	r3, [r8, #44]	@ unaligned
ARM GAS  /tmp/ccvHIMcj.s 			page 67


 3725 03e0 9942     		cmp	r1, r3
 3726 03e2 81F02382 		bcs	.L561
 3727              		.loc 1 2598 0 is_stmt 1
 3728 03e6 5018     		adds	r0, r2, r1
 3729              	.LVL398:
 3730 03e8 8345     		cmp	fp, r0
 3731 03ea 02DA     		bge	.L515
 3732              		.loc 1 2598 0 is_stmt 0 discriminator 1
 3733 03ec 8145     		cmp	r9, r0
 3734 03ee 01F31482 		bgt	.L564
 3735              	.L515:
 3736              		.loc 1 2598 0 discriminator 2
 3737 03f2 8342     		cmp	r3, r0
 3738 03f4 C1F01182 		bcc	.L564
 3739              		.loc 1 2600 0 is_stmt 1
 3740 03f8 DA45     		cmp	sl, fp
 3741 03fa 02DB     		blt	.L518
 3742              		.loc 1 2600 0 is_stmt 0 discriminator 1
 3743 03fc CA45     		cmp	sl, r9
 3744 03fe C1F21582 		blt	.L561
 3745              	.L518:
 3746              		.loc 1 2600 0 discriminator 2
 3747 0402 5345     		cmp	r3, sl
 3748 0404 41F21282 		bls	.L561
 3749              		.loc 1 2602 0 is_stmt 1
 3750 0408 02EB0A00 		add	r0, r2, sl
 3751 040c 8345     		cmp	fp, r0
 3752 040e 02DA     		bge	.L521
 3753              		.loc 1 2602 0 is_stmt 0 discriminator 1
 3754 0410 8145     		cmp	r9, r0
 3755 0412 01F30282 		bgt	.L564
 3756              	.L521:
 3757              		.loc 1 2602 0 discriminator 2
 3758 0416 8342     		cmp	r3, r0
 3759 0418 C1F0FF81 		bcc	.L564
 3760              		.loc 1 2605 0 is_stmt 1
 3761 041c 06EB0A00 		add	r0, r6, sl
 3762 0420 7118     		adds	r1, r6, r1
 3763 0422 CDF804C0 		str	ip, [sp, #4]
 3764 0426 FFF7FEFF 		bl	memcpy
 3765              	.LVL399:
 3766              		.loc 1 2616 0
 3767 042a DDF804C0 		ldr	ip, [sp, #4]
 3768 042e 99E6     		b	.L743
 3769              	.LVL400:
 3770              	.L469:
 3771              		.loc 1 3346 0
 3772 0430 0014     		asrs	r0, r0, #16
 3773              	.LVL401:
 3774              		.loc 1 2237 0
 3775 0432 2546     		mov	r5, r4
 3776              	.LVL402:
 3777              	.L537:
 3778              		.loc 1 2645 0
 3779 0434 DA45     		cmp	sl, fp
 3780 0436 02DB     		blt	.L538
 3781              		.loc 1 2645 0 is_stmt 0 discriminator 1
ARM GAS  /tmp/ccvHIMcj.s 			page 68


 3782 0438 CA45     		cmp	sl, r9
 3783 043a C1F2F781 		blt	.L561
 3784              	.L538:
 3785              		.loc 1 2645 0 discriminator 2
 3786 043e D8F82C20 		ldr	r2, [r8, #44]	@ unaligned
 3787 0442 9245     		cmp	sl, r2
 3788 0444 81F0F281 		bcs	.L561
 3789              		.loc 1 2647 0 is_stmt 1
 3790 0448 00EB0A03 		add	r3, r0, sl
 3791 044c 9B45     		cmp	fp, r3
 3792 044e 02DA     		bge	.L541
 3793              		.loc 1 2647 0 is_stmt 0 discriminator 1
 3794 0450 9945     		cmp	r9, r3
 3795 0452 01F3E281 		bgt	.L564
 3796              	.L541:
 3797              		.loc 1 2647 0 discriminator 2
 3798 0456 9A42     		cmp	r2, r3
 3799 0458 C1F0DF81 		bcc	.L564
 3800              	.LVL403:
 3801              		.loc 1 2649 0 is_stmt 1 discriminator 1
 3802 045c 0328     		cmp	r0, #3
 3803 045e 7FF681AE 		bls	.L743
 3804              		.loc 1 2064 0
 3805 0462 089C     		ldr	r4, [sp, #32]
 3806              	.LVL404:
 3807 0464 011F     		subs	r1, r0, #4
 3808 0466 21F00300 		bic	r0, r1, #3
 3809              	.LVL405:
 3810 046a 04EB0A02 		add	r2, r4, sl
 3811 046e 1218     		adds	r2, r2, r0
 3812 0470 06EB0A01 		add	r1, r6, sl
 3813              	.LVL406:
 3814 0474 531A     		subs	r3, r2, r1
 3815 0476 181F     		subs	r0, r3, #4
 3816              		.loc 1 2650 0
 3817 0478 0B9C     		ldr	r4, [sp, #44]
 3818 047a 0B1D     		adds	r3, r1, #4
 3819              	.LVL407:
 3820              		.loc 1 2649 0
 3821 047c 9342     		cmp	r3, r2
 3822              		.loc 1 2650 0
 3823 047e 46F80A40 		str	r4, [r6, sl]
 3824 0482 C0F38000 		ubfx	r0, r0, #2, #1
 3825              		.loc 1 2649 0
 3826 0486 3FF46DAE 		beq	.L743
 3827 048a 28B1     		cbz	r0, .L544
 3828              		.loc 1 2650 0
 3829 048c 0433     		adds	r3, r3, #4
 3830 048e 0B9C     		ldr	r4, [sp, #44]
 3831              		.loc 1 2649 0
 3832 0490 9342     		cmp	r3, r2
 3833              		.loc 1 2650 0
 3834 0492 4C60     		str	r4, [r1, #4]
 3835              		.loc 1 2649 0
 3836 0494 3FF466AE 		beq	.L743
 3837              	.L544:
 3838              		.loc 1 2650 0 discriminator 2
ARM GAS  /tmp/ccvHIMcj.s 			page 69


 3839 0498 0B9C     		ldr	r4, [sp, #44]
 3840 049a 1946     		mov	r1, r3
 3841 049c 41F8044B 		str	r4, [r1], #4
 3842 04a0 0B98     		ldr	r0, [sp, #44]
 3843 04a2 5860     		str	r0, [r3, #4]
 3844 04a4 0B1D     		adds	r3, r1, #4
 3845              		.loc 1 2649 0 discriminator 2
 3846 04a6 9342     		cmp	r3, r2
 3847 04a8 F6D1     		bne	.L544
 3848 04aa 5BE6     		b	.L743
 3849              	.LVL408:
 3850              	.L466:
 3851              		.loc 1 3333 0
 3852 04ac 0CEB2040 		add	r0, ip, r0, asr #16
 3853              	.LVL409:
 3854 04b0 3158     		ldr	r1, [r6, r0]
 3855              		.loc 1 2237 0
 3856 04b2 2546     		mov	r5, r4
 3857              	.LVL410:
 3858              		.loc 1 3333 0
 3859 04b4 4C1E     		subs	r4, r1, #1
 3860              	.LVL411:
 3861 04b6 3450     		str	r4, [r6, r0]
 3862              		.loc 1 3338 0
 3863 04b8 54E6     		b	.L743
 3864              	.LVL412:
 3865              	.L465:
 3866              		.loc 1 3322 0
 3867 04ba 0114     		asrs	r1, r0, #16
 3868              		.loc 1 3324 0
 3869 04bc 7258     		ldr	r2, [r6, r1]
 3870              		.loc 1 2237 0
 3871 04be 2546     		mov	r5, r4
 3872              		.loc 1 3324 0
 3873 04c0 531E     		subs	r3, r2, #1
 3874 04c2 7350     		str	r3, [r6, r1]
 3875              		.loc 1 3329 0
 3876 04c4 4EE6     		b	.L743
 3877              	.LVL413:
 3878              	.L464:
 3879              		.loc 1 3315 0
 3880 04c6 0CEB2042 		add	r2, ip, r0, asr #16
 3881 04ca B058     		ldr	r0, [r6, r2]
 3882              		.loc 1 2237 0
 3883 04cc 2546     		mov	r5, r4
 3884              		.loc 1 3315 0
 3885 04ce 441C     		adds	r4, r0, #1
 3886              	.LVL414:
 3887 04d0 B450     		str	r4, [r6, r2]
 3888              		.loc 1 3320 0
 3889 04d2 47E6     		b	.L743
 3890              	.LVL415:
 3891              	.L463:
 3892              		.loc 1 3304 0
 3893 04d4 0014     		asrs	r0, r0, #16
 3894              		.loc 1 3306 0
 3895 04d6 3158     		ldr	r1, [r6, r0]
ARM GAS  /tmp/ccvHIMcj.s 			page 70


 3896              		.loc 1 2237 0
 3897 04d8 2546     		mov	r5, r4
 3898              		.loc 1 3306 0
 3899 04da 4B1C     		adds	r3, r1, #1
 3900 04dc 3350     		str	r3, [r6, r0]
 3901              		.loc 1 3311 0
 3902 04de 41E6     		b	.L743
 3903              	.LVL416:
 3904              	.L462:
 3905              		.loc 1 3301 0
 3906 04e0 BAEB204F 		cmp	sl, r0, asr #16
 3907 04e4 14BF     		ite	ne
 3908 04e6 0022     		movne	r2, #0
 3909 04e8 0122     		moveq	r2, #1
 3910 04ea 0B92     		str	r2, [sp, #44]
 3911              		.loc 1 2237 0
 3912 04ec 2546     		mov	r5, r4
 3913              		.loc 1 3302 0
 3914 04ee 39E6     		b	.L743
 3915              	.LVL417:
 3916              	.L461:
 3917              		.loc 1 3297 0
 3918 04f0 0B99     		ldr	r1, [sp, #44]
 3919              		.loc 1 2237 0
 3920 04f2 2546     		mov	r5, r4
 3921              		.loc 1 3297 0
 3922 04f4 B1EB204F 		cmp	r1, r0, asr #16
 3923 04f8 14BF     		ite	ne
 3924 04fa 0024     		movne	r4, #0
 3925 04fc 0124     		moveq	r4, #1
 3926              	.LVL418:
 3927 04fe 0B94     		str	r4, [sp, #44]
 3928              		.loc 1 3298 0
 3929 0500 30E6     		b	.L743
 3930              	.LVL419:
 3931              	.L460:
 3932              		.loc 1 3293 0
 3933 0502 0025     		movs	r5, #0
 3934              		.loc 1 3292 0
 3935 0504 0014     		asrs	r0, r0, #16
 3936              		.loc 1 3293 0
 3937 0506 06EB0C03 		add	r3, r6, ip
 3938 050a 1D50     		str	r5, [r3, r0]
 3939              		.loc 1 2237 0
 3940 050c 2546     		mov	r5, r4
 3941              		.loc 1 3294 0
 3942 050e 29E6     		b	.L743
 3943              	.LVL420:
 3944              	.L459:
 3945              		.loc 1 3288 0
 3946 0510 0114     		asrs	r1, r0, #16
 3947              		.loc 1 3289 0
 3948 0512 0022     		movs	r2, #0
 3949 0514 7250     		str	r2, [r6, r1]
 3950              		.loc 1 2237 0
 3951 0516 2546     		mov	r5, r4
 3952              		.loc 1 3290 0
ARM GAS  /tmp/ccvHIMcj.s 			page 71


 3953 0518 24E6     		b	.L743
 3954              	.LVL421:
 3955              	.L458:
 3956              		.loc 1 3285 0
 3957 051a 0B9D     		ldr	r5, [sp, #44]
 3958              		.loc 1 3284 0
 3959 051c 0314     		asrs	r3, r0, #16
 3960              		.loc 1 3285 0
 3961 051e 03FB05F0 		mul	r0, r3, r5
 3962              		.loc 1 2237 0
 3963 0522 2546     		mov	r5, r4
 3964              		.loc 1 3285 0
 3965 0524 0B90     		str	r0, [sp, #44]
 3966              		.loc 1 3286 0
 3967 0526 1DE6     		b	.L743
 3968              	.LVL422:
 3969              	.L457:
 3970              		.loc 1 3281 0
 3971 0528 0B9A     		ldr	r2, [sp, #44]
 3972              		.loc 1 2237 0
 3973 052a 2546     		mov	r5, r4
 3974              		.loc 1 3281 0
 3975 052c 02EB2044 		add	r4, r2, r0, asr #16
 3976              	.LVL423:
 3977 0530 0B94     		str	r4, [sp, #44]
 3978              		.loc 1 3282 0
 3979 0532 17E6     		b	.L743
 3980              	.LVL424:
 3981              	.L456:
 3982              		.loc 1 3276 0
 3983 0534 0114     		asrs	r1, r0, #16
 3984              		.loc 1 3277 0
 3985 0536 0AFA01FA 		lsl	sl, sl, r1
 3986              	.LVL425:
 3987              		.loc 1 2237 0
 3988 053a 2546     		mov	r5, r4
 3989              		.loc 1 3278 0
 3990 053c 12E6     		b	.L743
 3991              	.LVL426:
 3992              	.L455:
 3993              		.loc 1 3273 0
 3994 053e 0B9D     		ldr	r5, [sp, #44]
 3995              		.loc 1 3272 0
 3996 0540 0314     		asrs	r3, r0, #16
 3997              		.loc 1 3273 0
 3998 0542 15FA03F0 		lsls	r0, r5, r3
 3999              		.loc 1 2237 0
 4000 0546 2546     		mov	r5, r4
 4001              		.loc 1 3273 0
 4002 0548 0B90     		str	r0, [sp, #44]
 4003              		.loc 1 3274 0
 4004 054a 0BE6     		b	.L743
 4005              	.LVL427:
 4006              	.L454:
 4007              		.loc 1 3267 0
 4008 054c 0BEB2040 		add	r0, fp, r0, asr #16
 4009              	.LVL428:
ARM GAS  /tmp/ccvHIMcj.s 			page 72


 4010              		.loc 1 3268 0
 4011 0550 00F13F01 		add	r1, r0, #63
 4012 0554 8945     		cmp	r9, r1
 4013 0556 7FF7E2AE 		ble	.L625
 4014              		.loc 1 3269 0
 4015 055a D8F82420 		ldr	r2, [r8, #36]	@ unaligned
 4016 055e 9042     		cmp	r0, r2
 4017 0560 FFF6DBAE 		blt	.L626
 4018 0564 DA46     		mov	sl, fp
 4019              		.loc 1 2237 0
 4020 0566 2546     		mov	r5, r4
 4021              		.loc 1 3269 0
 4022 0568 8346     		mov	fp, r0
 4023              	.LVL429:
 4024 056a FBE5     		b	.L743
 4025              	.LVL430:
 4026              	.L453:
 4027              		.loc 1 3260 0
 4028 056c 09EB2040 		add	r0, r9, r0, asr #16
 4029              	.LVL431:
 4030              		.loc 1 3261 0
 4031 0570 0BF13F02 		add	r2, fp, #63
 4032 0574 9042     		cmp	r0, r2
 4033 0576 7FF7D2AE 		ble	.L625
 4034              		.loc 1 3262 0
 4035 057a D8F82C30 		ldr	r3, [r8, #44]	@ unaligned
 4036 057e 9842     		cmp	r0, r3
 4037 0580 3FF7B3AE 		bgt	.L624
 4038 0584 CA46     		mov	sl, r9
 4039              		.loc 1 2237 0
 4040 0586 2546     		mov	r5, r4
 4041              		.loc 1 3262 0
 4042 0588 8146     		mov	r9, r0
 4043              	.LVL432:
 4044 058a EBE5     		b	.L743
 4045              	.LVL433:
 4046              	.L452:
 4047              		.loc 1 3252 0
 4048 058c 0014     		asrs	r0, r0, #16
 4049 058e 0290     		str	r0, [sp, #8]
 4050 0590 01F07E81 		beq	.L622
 4051 0594 0299     		ldr	r1, [sp, #8]
 4052              		.loc 1 3253 0
 4053 0596 55F8042F 		ldr	r2, [r5, #4]!
 4054              	.LVL434:
 4055 059a 4B1E     		subs	r3, r1, #1
 4056              		.loc 1 3252 0
 4057 059c 0CEB0600 		add	r0, ip, r6
 4058 05a0 0793     		str	r3, [sp, #28]
 4059              		.loc 1 3254 0
 4060 05a2 8118     		adds	r1, r0, r2
 4061 05a4 06EB0903 		add	r3, r6, r9
 4062 05a8 43F8041D 		str	r1, [r3, #-4]!
 4063              	.LVL435:
 4064 05ac 0799     		ldr	r1, [sp, #28]
 4065 05ae 0122     		movs	r2, #1
 4066 05b0 1140     		ands	r1, r1, r2
ARM GAS  /tmp/ccvHIMcj.s 			page 73


 4067 05b2 0791     		str	r1, [sp, #28]
 4068              		.loc 1 3252 0
 4069 05b4 0299     		ldr	r1, [sp, #8]
 4070 05b6 8A42     		cmp	r2, r1
 4071 05b8 13D0     		beq	.L760
 4072 05ba 0799     		ldr	r1, [sp, #28]
 4073 05bc 19B1     		cbz	r1, .L590
 4074              		.loc 1 3253 0
 4075 05be 55F8041F 		ldr	r1, [r5, #4]!
 4076              	.LVL436:
 4077              		.loc 1 3254 0
 4078 05c2 0222     		movs	r2, #2
 4079 05c4 07E0     		b	.L801
 4080              	.L590:
 4081              		.loc 1 3253 0
 4082 05c6 55F8041F 		ldr	r1, [r5, #4]!
 4083              		.loc 1 3254 0
 4084 05ca 0232     		adds	r2, r2, #2
 4085 05cc 4118     		adds	r1, r0, r1
 4086 05ce 43F8041D 		str	r1, [r3, #-4]!
 4087              		.loc 1 3253 0
 4088 05d2 55F8041F 		ldr	r1, [r5, #4]!
 4089              	.L801:
 4090              		.loc 1 3254 0
 4091 05d6 4118     		adds	r1, r0, r1
 4092 05d8 43F8041D 		str	r1, [r3, #-4]!
 4093              		.loc 1 3252 0
 4094 05dc 0299     		ldr	r1, [sp, #8]
 4095 05de 8A42     		cmp	r2, r1
 4096 05e0 F1D1     		bne	.L590
 4097              	.L760:
 4098 05e2 04EB8205 		add	r5, r4, r2, lsl #2
 4099 05e6 029C     		ldr	r4, [sp, #8]
 4100              	.LVL437:
 4101 05e8 A9EB8409 		sub	r9, r9, r4, lsl #2
 4102 05ec BAE5     		b	.L743
 4103              	.LVL438:
 4104              	.L451:
 4105              		.loc 1 3245 0
 4106 05ee 0014     		asrs	r0, r0, #16
 4107              	.LVL439:
 4108 05f0 0290     		str	r0, [sp, #8]
 4109 05f2 01F04481 		beq	.L621
 4110              		.loc 1 3246 0
 4111 05f6 55F8043F 		ldr	r3, [r5, #4]!
 4112              	.LVL440:
 4113 05fa 0299     		ldr	r1, [sp, #8]
 4114 05fc 06EB0C00 		add	r0, r6, ip
 4115              		.loc 1 3247 0
 4116 0600 C358     		ldr	r3, [r0, r3]
 4117 0602 4A1E     		subs	r2, r1, #1
 4118 0604 0792     		str	r2, [sp, #28]
 4119 0606 F118     		adds	r1, r6, r3
 4120 0608 06EB0903 		add	r3, r6, r9
 4121 060c 43F8041D 		str	r1, [r3, #-4]!
 4122              	.LVL441:
 4123 0610 0799     		ldr	r1, [sp, #28]
ARM GAS  /tmp/ccvHIMcj.s 			page 74


 4124 0612 0122     		movs	r2, #1
 4125 0614 1140     		ands	r1, r1, r2
 4126 0616 0791     		str	r1, [sp, #28]
 4127              		.loc 1 3245 0
 4128 0618 0299     		ldr	r1, [sp, #8]
 4129 061a 8A42     		cmp	r2, r1
 4130 061c 15D0     		beq	.L759
 4131              	.LVL442:
 4132 061e 0799     		ldr	r1, [sp, #28]
 4133 0620 19B1     		cbz	r1, .L589
 4134              		.loc 1 3246 0
 4135 0622 55F8041F 		ldr	r1, [r5, #4]!
 4136              	.LVL443:
 4137              		.loc 1 3247 0
 4138 0626 0222     		movs	r2, #2
 4139 0628 08E0     		b	.L800
 4140              	.L589:
 4141              		.loc 1 3246 0
 4142 062a 55F8041F 		ldr	r1, [r5, #4]!
 4143              		.loc 1 3247 0
 4144 062e 0232     		adds	r2, r2, #2
 4145 0630 4158     		ldr	r1, [r0, r1]
 4146 0632 7118     		adds	r1, r6, r1
 4147 0634 43F8041D 		str	r1, [r3, #-4]!
 4148              		.loc 1 3246 0
 4149 0638 55F8041F 		ldr	r1, [r5, #4]!
 4150              	.L800:
 4151              		.loc 1 3247 0
 4152 063c 4158     		ldr	r1, [r0, r1]
 4153 063e 7118     		adds	r1, r6, r1
 4154 0640 43F8041D 		str	r1, [r3, #-4]!
 4155              		.loc 1 3245 0
 4156 0644 0299     		ldr	r1, [sp, #8]
 4157 0646 8A42     		cmp	r2, r1
 4158 0648 EFD1     		bne	.L589
 4159              	.L759:
 4160 064a 04EB8205 		add	r5, r4, r2, lsl #2
 4161 064e 029C     		ldr	r4, [sp, #8]
 4162              	.LVL444:
 4163 0650 A9EB8409 		sub	r9, r9, r4, lsl #2
 4164 0654 86E5     		b	.L743
 4165              	.LVL445:
 4166              	.L450:
 4167              		.loc 1 3238 0
 4168 0656 0014     		asrs	r0, r0, #16
 4169              	.LVL446:
 4170 0658 01F01781 		beq	.L620
 4171              		.loc 1 3239 0
 4172 065c 55F8043F 		ldr	r3, [r5, #4]!
 4173              	.LVL447:
 4174 0660 421E     		subs	r2, r0, #1
 4175 0662 0292     		str	r2, [sp, #8]
 4176              		.loc 1 3240 0
 4177 0664 F118     		adds	r1, r6, r3
 4178 0666 06EB0903 		add	r3, r6, r9
 4179 066a 43F8041D 		str	r1, [r3, #-4]!
 4180              	.LVL448:
ARM GAS  /tmp/ccvHIMcj.s 			page 75


 4181 066e 0299     		ldr	r1, [sp, #8]
 4182 0670 0122     		movs	r2, #1
 4183 0672 1140     		ands	r1, r1, r2
 4184              		.loc 1 3238 0
 4185 0674 8242     		cmp	r2, r0
 4186 0676 0291     		str	r1, [sp, #8]
 4187 0678 16D0     		beq	.L758
 4188              	.LVL449:
 4189 067a 0299     		ldr	r1, [sp, #8]
 4190 067c 39B1     		cbz	r1, .L588
 4191              		.loc 1 3239 0
 4192 067e 55F8041F 		ldr	r1, [r5, #4]!
 4193              	.LVL450:
 4194              		.loc 1 3240 0
 4195 0682 0222     		movs	r2, #2
 4196 0684 7118     		adds	r1, r6, r1
 4197              		.loc 1 3238 0
 4198 0686 8242     		cmp	r2, r0
 4199              		.loc 1 3240 0
 4200 0688 43F8041D 		str	r1, [r3, #-4]!
 4201              		.loc 1 3238 0
 4202 068c 0CD0     		beq	.L758
 4203              	.L588:
 4204              		.loc 1 3239 0
 4205 068e 55F8041F 		ldr	r1, [r5, #4]!
 4206              		.loc 1 3240 0
 4207 0692 0232     		adds	r2, r2, #2
 4208 0694 7118     		adds	r1, r6, r1
 4209 0696 43F8041D 		str	r1, [r3, #-4]!
 4210              		.loc 1 3239 0
 4211 069a 55F8041F 		ldr	r1, [r5, #4]!
 4212              		.loc 1 3238 0
 4213 069e 8242     		cmp	r2, r0
 4214              		.loc 1 3240 0
 4215 06a0 3144     		add	r1, r6, r1
 4216 06a2 43F8041D 		str	r1, [r3, #-4]!
 4217              		.loc 1 3238 0
 4218 06a6 F2D1     		bne	.L588
 4219              	.L758:
 4220 06a8 04EB8205 		add	r5, r4, r2, lsl #2
 4221 06ac A9EB8009 		sub	r9, r9, r0, lsl #2
 4222 06b0 58E5     		b	.L743
 4223              	.LVL451:
 4224              	.L449:
 4225              		.loc 1 3231 0
 4226 06b2 0014     		asrs	r0, r0, #16
 4227 06b4 01F0EF80 		beq	.L619
 4228              		.loc 1 3232 0
 4229 06b8 55F8043F 		ldr	r3, [r5, #4]!
 4230              	.LVL452:
 4231 06bc 421E     		subs	r2, r0, #1
 4232 06be 0292     		str	r2, [sp, #8]
 4233              		.loc 1 3233 0
 4234 06c0 0CEB0301 		add	r1, ip, r3
 4235 06c4 06EB0903 		add	r3, r6, r9
 4236 06c8 43F8041D 		str	r1, [r3, #-4]!
 4237              	.LVL453:
ARM GAS  /tmp/ccvHIMcj.s 			page 76


 4238 06cc 0299     		ldr	r1, [sp, #8]
 4239 06ce 0122     		movs	r2, #1
 4240 06d0 1140     		ands	r1, r1, r2
 4241              		.loc 1 3231 0
 4242 06d2 8242     		cmp	r2, r0
 4243 06d4 0291     		str	r1, [sp, #8]
 4244 06d6 16D0     		beq	.L757
 4245 06d8 0299     		ldr	r1, [sp, #8]
 4246 06da 39B1     		cbz	r1, .L587
 4247              		.loc 1 3232 0
 4248 06dc 55F8041F 		ldr	r1, [r5, #4]!
 4249              	.LVL454:
 4250              		.loc 1 3233 0
 4251 06e0 0222     		movs	r2, #2
 4252 06e2 6144     		add	r1, ip, r1
 4253              		.loc 1 3231 0
 4254 06e4 8242     		cmp	r2, r0
 4255              		.loc 1 3233 0
 4256 06e6 43F8041D 		str	r1, [r3, #-4]!
 4257              		.loc 1 3231 0
 4258 06ea 0CD0     		beq	.L757
 4259              	.L587:
 4260              		.loc 1 3232 0
 4261 06ec 55F8041F 		ldr	r1, [r5, #4]!
 4262              		.loc 1 3233 0
 4263 06f0 0232     		adds	r2, r2, #2
 4264 06f2 6144     		add	r1, ip, r1
 4265 06f4 43F8041D 		str	r1, [r3, #-4]!
 4266              		.loc 1 3232 0
 4267 06f8 55F8041F 		ldr	r1, [r5, #4]!
 4268              		.loc 1 3231 0
 4269 06fc 8242     		cmp	r2, r0
 4270              		.loc 1 3233 0
 4271 06fe 6144     		add	r1, ip, r1
 4272 0700 43F8041D 		str	r1, [r3, #-4]!
 4273              		.loc 1 3231 0
 4274 0704 F2D1     		bne	.L587
 4275              	.L757:
 4276 0706 04EB8205 		add	r5, r4, r2, lsl #2
 4277 070a A9EB8009 		sub	r9, r9, r0, lsl #2
 4278 070e 29E5     		b	.L743
 4279              	.LVL455:
 4280              	.L448:
 4281              		.loc 1 3217 0
 4282 0710 0014     		asrs	r0, r0, #16
 4283 0712 0290     		str	r0, [sp, #8]
 4284 0714 01F0B680 		beq	.L617
 4285              		.loc 1 3218 0
 4286 0718 55F8041F 		ldr	r1, [r5, #4]!
 4287              	.LVL456:
 4288 071c 029A     		ldr	r2, [sp, #8]
 4289 071e 06EB0C00 		add	r0, r6, ip
 4290              		.loc 1 3219 0
 4291 0722 4158     		ldr	r1, [r0, r1]
 4292 0724 531E     		subs	r3, r2, #1
 4293 0726 0793     		str	r3, [sp, #28]
 4294 0728 06EB0903 		add	r3, r6, r9
ARM GAS  /tmp/ccvHIMcj.s 			page 77


 4295 072c 43F8041D 		str	r1, [r3, #-4]!
 4296              	.LVL457:
 4297 0730 0799     		ldr	r1, [sp, #28]
 4298 0732 0122     		movs	r2, #1
 4299 0734 1140     		ands	r1, r1, r2
 4300 0736 0791     		str	r1, [sp, #28]
 4301              		.loc 1 3217 0
 4302 0738 0299     		ldr	r1, [sp, #8]
 4303 073a 8A42     		cmp	r2, r1
 4304 073c 13D0     		beq	.L755
 4305 073e 0799     		ldr	r1, [sp, #28]
 4306 0740 19B1     		cbz	r1, .L585
 4307              		.loc 1 3218 0
 4308 0742 55F8041F 		ldr	r1, [r5, #4]!
 4309              	.LVL458:
 4310              		.loc 1 3219 0
 4311 0746 0222     		movs	r2, #2
 4312 0748 07E0     		b	.L799
 4313              	.L585:
 4314              		.loc 1 3218 0
 4315 074a 55F8041F 		ldr	r1, [r5, #4]!
 4316              		.loc 1 3219 0
 4317 074e 0232     		adds	r2, r2, #2
 4318 0750 4158     		ldr	r1, [r0, r1]
 4319 0752 43F8041D 		str	r1, [r3, #-4]!
 4320              		.loc 1 3218 0
 4321 0756 55F8041F 		ldr	r1, [r5, #4]!
 4322              	.L799:
 4323              		.loc 1 3219 0
 4324 075a 4158     		ldr	r1, [r0, r1]
 4325 075c 43F8041D 		str	r1, [r3, #-4]!
 4326              		.loc 1 3217 0
 4327 0760 0299     		ldr	r1, [sp, #8]
 4328 0762 8A42     		cmp	r2, r1
 4329 0764 F1D1     		bne	.L585
 4330              	.L755:
 4331 0766 04EB8205 		add	r5, r4, r2, lsl #2
 4332 076a 029C     		ldr	r4, [sp, #8]
 4333              	.LVL459:
 4334 076c A9EB8409 		sub	r9, r9, r4, lsl #2
 4335 0770 F8E4     		b	.L743
 4336              	.LVL460:
 4337              	.L447:
 4338              		.loc 1 3210 0
 4339 0772 0014     		asrs	r0, r0, #16
 4340              	.LVL461:
 4341 0774 01F08080 		beq	.L616
 4342              		.loc 1 3211 0
 4343 0778 55F8043F 		ldr	r3, [r5, #4]!
 4344              	.LVL462:
 4345 077c 421E     		subs	r2, r0, #1
 4346              		.loc 1 3212 0
 4347 077e F158     		ldr	r1, [r6, r3]
 4348 0780 0292     		str	r2, [sp, #8]
 4349 0782 06EB0903 		add	r3, r6, r9
 4350 0786 43F8041D 		str	r1, [r3, #-4]!
 4351              	.LVL463:
ARM GAS  /tmp/ccvHIMcj.s 			page 78


 4352 078a 0299     		ldr	r1, [sp, #8]
 4353 078c 0122     		movs	r2, #1
 4354 078e 1140     		ands	r1, r1, r2
 4355              		.loc 1 3210 0
 4356 0790 8242     		cmp	r2, r0
 4357 0792 0291     		str	r1, [sp, #8]
 4358 0794 16D0     		beq	.L754
 4359              	.LVL464:
 4360 0796 0299     		ldr	r1, [sp, #8]
 4361 0798 39B1     		cbz	r1, .L584
 4362              		.loc 1 3211 0
 4363 079a 55F8041F 		ldr	r1, [r5, #4]!
 4364              	.LVL465:
 4365              		.loc 1 3212 0
 4366 079e 0222     		movs	r2, #2
 4367 07a0 7158     		ldr	r1, [r6, r1]
 4368              		.loc 1 3210 0
 4369 07a2 8242     		cmp	r2, r0
 4370              		.loc 1 3212 0
 4371 07a4 43F8041D 		str	r1, [r3, #-4]!
 4372              		.loc 1 3210 0
 4373 07a8 0CD0     		beq	.L754
 4374              	.L584:
 4375              		.loc 1 3211 0
 4376 07aa 55F8041F 		ldr	r1, [r5, #4]!
 4377              		.loc 1 3212 0
 4378 07ae 0232     		adds	r2, r2, #2
 4379 07b0 7158     		ldr	r1, [r6, r1]
 4380              		.loc 1 3210 0
 4381 07b2 8242     		cmp	r2, r0
 4382              		.loc 1 3212 0
 4383 07b4 43F8041D 		str	r1, [r3, #-4]!
 4384              		.loc 1 3211 0
 4385 07b8 55F8041F 		ldr	r1, [r5, #4]!
 4386              		.loc 1 3212 0
 4387 07bc 7158     		ldr	r1, [r6, r1]
 4388 07be 43F8041D 		str	r1, [r3, #-4]!
 4389              		.loc 1 3210 0
 4390 07c2 F2D1     		bne	.L584
 4391              	.L754:
 4392 07c4 04EB8205 		add	r5, r4, r2, lsl #2
 4393 07c8 A9EB8009 		sub	r9, r9, r0, lsl #2
 4394 07cc CAE4     		b	.L743
 4395              	.LVL466:
 4396              	.L442:
 4397              		.loc 1 3194 0
 4398 07ce A9F10409 		sub	r9, r9, #4
 4399              	.LVL467:
 4400 07d2 0CEB2041 		add	r1, ip, r0, asr #16
 4401 07d6 46F80910 		str	r1, [r6, r9]
 4402              		.loc 1 2237 0
 4403 07da 2546     		mov	r5, r4
 4404              		.loc 1 3195 0
 4405 07dc C2E4     		b	.L743
 4406              	.LVL468:
 4407              	.L441:
 4408              		.loc 1 3190 0
ARM GAS  /tmp/ccvHIMcj.s 			page 79


 4409 07de 06EB2040 		add	r0, r6, r0, asr #16
 4410 07e2 50F80C50 		ldr	r5, [r0, ip]
 4411 07e6 A9F10409 		sub	r9, r9, #4
 4412              	.LVL469:
 4413 07ea 46F80950 		str	r5, [r6, r9]
 4414              		.loc 1 2237 0
 4415 07ee 2546     		mov	r5, r4
 4416              		.loc 1 3191 0
 4417 07f0 B8E4     		b	.L743
 4418              	.LVL470:
 4419              	.L440:
 4420              		.loc 1 3185 0
 4421 07f2 0214     		asrs	r2, r0, #16
 4422              		.loc 1 3186 0
 4423 07f4 B358     		ldr	r3, [r6, r2]
 4424 07f6 A9F10409 		sub	r9, r9, #4
 4425              	.LVL471:
 4426 07fa 46F80930 		str	r3, [r6, r9]
 4427              		.loc 1 2237 0
 4428 07fe 2546     		mov	r5, r4
 4429              		.loc 1 3187 0
 4430 0800 B0E4     		b	.L743
 4431              	.LVL472:
 4432              	.L439:
 4433              		.loc 1 3182 0
 4434 0802 A9F10409 		sub	r9, r9, #4
 4435              	.LVL473:
 4436              		.loc 1 3181 0
 4437 0806 0114     		asrs	r1, r0, #16
 4438              		.loc 1 3182 0
 4439 0808 46F80910 		str	r1, [r6, r9]
 4440              		.loc 1 2237 0
 4441 080c 2546     		mov	r5, r4
 4442              		.loc 1 3183 0
 4443 080e A9E4     		b	.L743
 4444              	.LVL474:
 4445              	.L438:
 4446              		.loc 1 3174 0
 4447 0810 0314     		asrs	r3, r0, #16
 4448              		.loc 1 3176 0
 4449 0812 032B     		cmp	r3, #3
 4450 0814 00F2CD87 		bhi	.L615
 4451              		.loc 1 3177 0
 4452 0818 0B98     		ldr	r0, [sp, #44]
 4453 081a C3F10405 		rsb	r5, r3, #4
 4454 081e 80EA0502 		eor	r2, r0, r5
 4455 0822 0B92     		str	r2, [sp, #44]
 4456              		.loc 1 2237 0
 4457 0824 2546     		mov	r5, r4
 4458 0826 9DE4     		b	.L743
 4459              	.LVL475:
 4460              	.L437:
 4461              		.loc 1 3171 0
 4462 0828 0B99     		ldr	r1, [sp, #44]
 4463              		.loc 1 3170 0
 4464 082a 0314     		asrs	r3, r0, #16
 4465              		.loc 1 3171 0
ARM GAS  /tmp/ccvHIMcj.s 			page 80


 4466 082c 11FA03F0 		lsls	r0, r1, r3
 4467 0830 00EB0A05 		add	r5, r0, sl
 4468 0834 0B95     		str	r5, [sp, #44]
 4469              		.loc 1 2237 0
 4470 0836 2546     		mov	r5, r4
 4471              		.loc 1 3172 0
 4472 0838 94E4     		b	.L743
 4473              	.LVL476:
 4474              	.L446:
 4475              		.loc 1 3224 0
 4476 083a 0014     		asrs	r0, r0, #16
 4477 083c 01F01980 		beq	.L618
 4478              		.loc 1 3225 0
 4479 0840 55F8041F 		ldr	r1, [r5, #4]!
 4480              	.LVL477:
 4481 0844 431E     		subs	r3, r0, #1
 4482 0846 0293     		str	r3, [sp, #8]
 4483              		.loc 1 3226 0
 4484 0848 06EB0903 		add	r3, r6, r9
 4485 084c 43F8041D 		str	r1, [r3, #-4]!
 4486              	.LVL478:
 4487 0850 0299     		ldr	r1, [sp, #8]
 4488 0852 0122     		movs	r2, #1
 4489 0854 1140     		ands	r1, r1, r2
 4490              		.loc 1 3224 0
 4491 0856 8242     		cmp	r2, r0
 4492 0858 0291     		str	r1, [sp, #8]
 4493 085a 13D0     		beq	.L756
 4494 085c 0299     		ldr	r1, [sp, #8]
 4495 085e 31B1     		cbz	r1, .L586
 4496              		.loc 1 3225 0
 4497 0860 55F8041F 		ldr	r1, [r5, #4]!
 4498              	.LVL479:
 4499              		.loc 1 3226 0
 4500 0864 0222     		movs	r2, #2
 4501              		.loc 1 3224 0
 4502 0866 8242     		cmp	r2, r0
 4503              		.loc 1 3226 0
 4504 0868 43F8041D 		str	r1, [r3, #-4]!
 4505              		.loc 1 3224 0
 4506 086c 0AD0     		beq	.L756
 4507              	.L586:
 4508              		.loc 1 3225 0
 4509 086e 55F8041F 		ldr	r1, [r5, #4]!
 4510              		.loc 1 3226 0
 4511 0872 0232     		adds	r2, r2, #2
 4512 0874 43F8041D 		str	r1, [r3, #-4]!
 4513              		.loc 1 3225 0
 4514 0878 55F8041F 		ldr	r1, [r5, #4]!
 4515              		.loc 1 3224 0
 4516 087c 8242     		cmp	r2, r0
 4517              		.loc 1 3226 0
 4518 087e 43F8041D 		str	r1, [r3, #-4]!
 4519              		.loc 1 3224 0
 4520 0882 F4D1     		bne	.L586
 4521              	.L756:
 4522 0884 04EB8205 		add	r5, r4, r2, lsl #2
ARM GAS  /tmp/ccvHIMcj.s 			page 81


 4523 0888 A9EB8009 		sub	r9, r9, r0, lsl #2
 4524 088c 6AE4     		b	.L743
 4525              	.LVL480:
 4526              	.L445:
 4527              		.loc 1 3206 0
 4528 088e 06EB0C03 		add	r3, r6, ip
 4529 0892 A9F10409 		sub	r9, r9, #4
 4530              	.LVL481:
 4531 0896 03EB2041 		add	r1, r3, r0, asr #16
 4532 089a 46F80910 		str	r1, [r6, r9]
 4533              		.loc 1 2237 0
 4534 089e 2546     		mov	r5, r4
 4535              		.loc 1 3207 0
 4536 08a0 60E4     		b	.L743
 4537              	.LVL482:
 4538              	.L444:
 4539              		.loc 1 3202 0
 4540 08a2 06EB2040 		add	r0, r6, r0, asr #16
 4541 08a6 50F80C50 		ldr	r5, [r0, ip]
 4542 08aa A9F10409 		sub	r9, r9, #4
 4543              	.LVL483:
 4544 08ae 7219     		adds	r2, r6, r5
 4545 08b0 46F80920 		str	r2, [r6, r9]
 4546              		.loc 1 2237 0
 4547 08b4 2546     		mov	r5, r4
 4548              		.loc 1 3203 0
 4549 08b6 55E4     		b	.L743
 4550              	.LVL484:
 4551              	.L443:
 4552              		.loc 1 3198 0
 4553 08b8 A9F10409 		sub	r9, r9, #4
 4554              	.LVL485:
 4555 08bc 06EB2043 		add	r3, r6, r0, asr #16
 4556 08c0 46F80930 		str	r3, [r6, r9]
 4557              		.loc 1 2237 0
 4558 08c4 2546     		mov	r5, r4
 4559              		.loc 1 3199 0
 4560 08c6 4DE4     		b	.L743
 4561              	.LVL486:
 4562              	.L434:
 4563              		.loc 1 3155 0
 4564 08c8 0CEB2040 		add	r0, ip, r0, asr #16
 4565              	.LVL487:
 4566              		.loc 1 3156 0
 4567 08cc 3258     		ldr	r2, [r6, r0]
 4568              		.loc 1 2237 0
 4569 08ce 2546     		mov	r5, r4
 4570              		.loc 1 3156 0
 4571 08d0 0B9C     		ldr	r4, [sp, #44]
 4572              	.LVL488:
 4573 08d2 B450     		str	r4, [r6, r2]
 4574              		.loc 1 3157 0
 4575 08d4 46E4     		b	.L743
 4576              	.LVL489:
 4577              	.L433:
 4578              		.loc 1 3151 0
 4579 08d6 0B9B     		ldr	r3, [sp, #44]
ARM GAS  /tmp/ccvHIMcj.s 			page 82


 4580 08d8 06EB2045 		add	r5, r6, r0, asr #16
 4581 08dc 45F80C30 		str	r3, [r5, ip]
 4582              		.loc 1 2237 0
 4583 08e0 2546     		mov	r5, r4
 4584              		.loc 1 3152 0
 4585 08e2 3FE4     		b	.L743
 4586              	.LVL490:
 4587              	.L432:
 4588              		.loc 1 3147 0
 4589 08e4 0B99     		ldr	r1, [sp, #44]
 4590              		.loc 1 3146 0
 4591 08e6 0014     		asrs	r0, r0, #16
 4592              		.loc 1 3147 0
 4593 08e8 3150     		str	r1, [r6, r0]
 4594              		.loc 1 2237 0
 4595 08ea 2546     		mov	r5, r4
 4596              		.loc 1 3148 0
 4597 08ec 3AE4     		b	.L743
 4598              	.LVL491:
 4599              	.L431:
 4600              		.loc 1 3143 0
 4601 08ee 0CEB204A 		add	sl, ip, r0, asr #16
 4602              	.LVL492:
 4603              		.loc 1 2237 0
 4604 08f2 2546     		mov	r5, r4
 4605              		.loc 1 3144 0
 4606 08f4 36E4     		b	.L743
 4607              	.L430:
 4608              		.loc 1 3139 0
 4609 08f6 0CEB2042 		add	r2, ip, r0, asr #16
 4610 08fa 0B92     		str	r2, [sp, #44]
 4611              		.loc 1 2237 0
 4612 08fc 2546     		mov	r5, r4
 4613              		.loc 1 3140 0
 4614 08fe 31E4     		b	.L743
 4615              	.L429:
 4616              		.loc 1 3135 0
 4617 0900 4FEA204A 		asr	sl, r0, #16
 4618              	.LVL493:
 4619              		.loc 1 2237 0
 4620 0904 2546     		mov	r5, r4
 4621              		.loc 1 3136 0
 4622 0906 2DE4     		b	.L743
 4623              	.L428:
 4624              		.loc 1 3132 0
 4625 0908 0514     		asrs	r5, r0, #16
 4626 090a 0B95     		str	r5, [sp, #44]
 4627              		.loc 1 2237 0
 4628 090c 2546     		mov	r5, r4
 4629              		.loc 1 3133 0
 4630 090e 29E4     		b	.L743
 4631              	.L427:
 4632              		.loc 1 3129 0
 4633 0910 0014     		asrs	r0, r0, #16
 4634              	.LVL494:
 4635              		.loc 1 2237 0
 4636 0912 2546     		mov	r5, r4
ARM GAS  /tmp/ccvHIMcj.s 			page 83


 4637              	.LVL495:
 4638              	.L476:
 4639              		.loc 1 2278 0
 4640 0914 0B9B     		ldr	r3, [sp, #44]
 4641 0916 9B45     		cmp	fp, r3
 4642 0918 02DC     		bgt	.L477
 4643              		.loc 1 2278 0 is_stmt 0 discriminator 1
 4644 091a 9945     		cmp	r9, r3
 4645 091c 00F37D87 		bgt	.L564
 4646              	.L477:
 4647              		.loc 1 2278 0 discriminator 2
 4648 0920 D8F82C20 		ldr	r2, [r8, #44]	@ unaligned
 4649 0924 9342     		cmp	r3, r2
 4650 0926 80F07887 		bcs	.L564
 4651              		.loc 1 2280 0 is_stmt 1
 4652 092a 0228     		cmp	r0, #2
 4653 092c 00F04887 		beq	.L481
 4654 0930 0428     		cmp	r0, #4
 4655 0932 00F04187 		beq	.L482
 4656 0936 0128     		cmp	r0, #1
 4657 0938 7FF414AC 		bne	.L743
 4658              		.loc 1 2282 0
 4659 093c F45C     		ldrb	r4, [r6, r3]	@ zero_extendqisi2
 4660              	.LVL496:
 4661 093e 0B94     		str	r4, [sp, #44]
 4662              		.loc 1 2283 0
 4663 0940 10E4     		b	.L743
 4664              	.LVL497:
 4665              	.L436:
 4666              		.loc 1 3163 0
 4667 0942 0B9B     		ldr	r3, [sp, #44]
 4668              		.loc 1 3162 0
 4669 0944 0214     		asrs	r2, r0, #16
 4670              		.loc 1 3163 0
 4671 0946 13FA02F1 		lsls	r1, r3, r2
 4672 094a 01EB0A03 		add	r3, r1, sl
 4673              	.LVL498:
 4674              		.loc 1 3165 0
 4675 094e 9B45     		cmp	fp, r3
 4676 0950 02DC     		bgt	.L581
 4677              		.loc 1 3165 0 is_stmt 0 discriminator 1
 4678 0952 9945     		cmp	r9, r3
 4679 0954 00F3A287 		bgt	.L582
 4680              	.L581:
 4681              		.loc 1 3165 0 discriminator 2
 4682 0958 D8F82C00 		ldr	r0, [r8, #44]	@ unaligned
 4683              	.LVL499:
 4684 095c 8342     		cmp	r3, r0
 4685 095e 80F09D87 		bcs	.L582
 4686              		.loc 1 3167 0 is_stmt 1
 4687 0962 F258     		ldr	r2, [r6, r3]
 4688              		.loc 1 2237 0
 4689 0964 2546     		mov	r5, r4
 4690              	.LVL500:
 4691              		.loc 1 3167 0
 4692 0966 0B92     		str	r2, [sp, #44]
 4693              		.loc 1 3168 0
ARM GAS  /tmp/ccvHIMcj.s 			page 84


 4694 0968 FFF7FCBB 		b	.L743
 4695              	.LVL501:
 4696              	.L435:
 4697              		.loc 1 3159 0
 4698 096c 0014     		asrs	r0, r0, #16
 4699              	.LVL502:
 4700              		.loc 1 2237 0
 4701 096e 2546     		mov	r5, r4
 4702              	.LVL503:
 4703              	.L486:
 4704              		.loc 1 2329 0
 4705 0970 DA45     		cmp	sl, fp
 4706 0972 02DB     		blt	.L487
 4707              		.loc 1 2329 0 is_stmt 0 discriminator 1
 4708 0974 CA45     		cmp	sl, r9
 4709 0976 C0F25087 		blt	.L564
 4710              	.L487:
 4711              		.loc 1 2329 0 discriminator 2
 4712 097a D8F82C20 		ldr	r2, [r8, #44]	@ unaligned
 4713 097e 9245     		cmp	sl, r2
 4714 0980 80F04B87 		bcs	.L564
 4715              		.loc 1 2331 0 is_stmt 1
 4716 0984 0228     		cmp	r0, #2
 4717 0986 00F02D87 		beq	.L491
 4718 098a 0428     		cmp	r0, #4
 4719 098c 00F02587 		beq	.L492
 4720 0990 0128     		cmp	r0, #1
 4721 0992 7FF4E7AB 		bne	.L743
 4722              		.loc 1 2333 0
 4723 0996 0B98     		ldr	r0, [sp, #44]
 4724              	.LVL504:
 4725 0998 06F80A00 		strb	r0, [r6, sl]
 4726              		.loc 1 2334 0
 4727 099c FFF7E2BB 		b	.L743
 4728              	.LVL505:
 4729              	.L426:
 4730              		.loc 1 3125 0
 4731 09a0 0CEB2043 		add	r3, ip, r0, asr #16
 4732              	.LVL506:
 4733              		.loc 1 3126 0
 4734 09a4 F158     		ldr	r1, [r6, r3]
 4735              		.loc 1 2237 0
 4736 09a6 2546     		mov	r5, r4
 4737              		.loc 1 3126 0
 4738 09a8 56F801A0 		ldr	sl, [r6, r1]
 4739              	.LVL507:
 4740              		.loc 1 3127 0
 4741 09ac FFF7DABB 		b	.L743
 4742              	.LVL508:
 4743              	.L425:
 4744              		.loc 1 3120 0
 4745 09b0 0CEB2040 		add	r0, ip, r0, asr #16
 4746              	.LVL509:
 4747              		.loc 1 3121 0
 4748 09b4 3258     		ldr	r2, [r6, r0]
 4749              		.loc 1 2237 0
 4750 09b6 2546     		mov	r5, r4
ARM GAS  /tmp/ccvHIMcj.s 			page 85


 4751              		.loc 1 3121 0
 4752 09b8 B458     		ldr	r4, [r6, r2]
 4753              	.LVL510:
 4754 09ba 0B94     		str	r4, [sp, #44]
 4755              		.loc 1 3122 0
 4756 09bc FFF7D2BB 		b	.L743
 4757              	.LVL511:
 4758              	.L363:
 4759              		.loc 1 2577 0
 4760 09c0 0B9A     		ldr	r2, [sp, #44]
 4761              		.loc 1 2237 0
 4762 09c2 2546     		mov	r5, r4
 4763              		.loc 1 2577 0
 4764 09c4 511E     		subs	r1, r2, #1
 4765 09c6 0B91     		str	r1, [sp, #44]
 4766              		.loc 1 2578 0
 4767 09c8 FFF7CCBB 		b	.L743
 4768              	.L362:
 4769              		.loc 1 2570 0
 4770 09cc 0B9B     		ldr	r3, [sp, #44]
 4771              		.loc 1 2237 0
 4772 09ce 2546     		mov	r5, r4
 4773              		.loc 1 2570 0
 4774 09d0 F458     		ldr	r4, [r6, r3]
 4775              	.LVL512:
 4776 09d2 601C     		adds	r0, r4, #1
 4777 09d4 F050     		str	r0, [r6, r3]
 4778              		.loc 1 2575 0
 4779 09d6 FFF7C5BB 		b	.L743
 4780              	.LVL513:
 4781              	.L361:
 4782              		.loc 1 2566 0
 4783 09da 0AF1010A 		add	sl, sl, #1
 4784              	.LVL514:
 4785              		.loc 1 2237 0
 4786 09de 2546     		mov	r5, r4
 4787              		.loc 1 2567 0
 4788 09e0 FFF7C0BB 		b	.L743
 4789              	.L360:
 4790              		.loc 1 2563 0
 4791 09e4 0B9A     		ldr	r2, [sp, #44]
 4792              		.loc 1 2237 0
 4793 09e6 2546     		mov	r5, r4
 4794              		.loc 1 2563 0
 4795 09e8 511C     		adds	r1, r2, #1
 4796 09ea 0B91     		str	r1, [sp, #44]
 4797              		.loc 1 2564 0
 4798 09ec FFF7BABB 		b	.L743
 4799              	.L359:
 4800              		.loc 1 2237 0
 4801 09f0 2546     		mov	r5, r4
 4802              		.loc 1 2560 0
 4803 09f2 0B9C     		ldr	r4, [sp, #44]
 4804              	.LVL515:
 4805 09f4 5445     		cmp	r4, sl
 4806 09f6 B4BF     		ite	lt
 4807 09f8 0024     		movlt	r4, #0
ARM GAS  /tmp/ccvHIMcj.s 			page 86


 4808 09fa 0124     		movge	r4, #1
 4809 09fc 0B94     		str	r4, [sp, #44]
 4810              		.loc 1 2561 0
 4811 09fe FFF7B1BB 		b	.L743
 4812              	.LVL516:
 4813              	.L358:
 4814              		.loc 1 2557 0
 4815 0a02 0B9B     		ldr	r3, [sp, #44]
 4816              		.loc 1 2237 0
 4817 0a04 2546     		mov	r5, r4
 4818              		.loc 1 2557 0
 4819 0a06 5345     		cmp	r3, sl
 4820 0a08 D4BF     		ite	le
 4821 0a0a 0023     		movle	r3, #0
 4822 0a0c 0123     		movgt	r3, #1
 4823 0a0e 0B93     		str	r3, [sp, #44]
 4824              		.loc 1 2558 0
 4825 0a10 FFF7A8BB 		b	.L743
 4826              	.L357:
 4827              		.loc 1 2554 0
 4828 0a14 0B98     		ldr	r0, [sp, #44]
 4829              		.loc 1 2237 0
 4830 0a16 2546     		mov	r5, r4
 4831              		.loc 1 2554 0
 4832 0a18 5045     		cmp	r0, sl
 4833 0a1a CCBF     		ite	gt
 4834 0a1c 0020     		movgt	r0, #0
 4835 0a1e 0120     		movle	r0, #1
 4836 0a20 0B90     		str	r0, [sp, #44]
 4837              		.loc 1 2555 0
 4838 0a22 FFF79FBB 		b	.L743
 4839              	.L356:
 4840              		.loc 1 2551 0
 4841 0a26 0B9A     		ldr	r2, [sp, #44]
 4842              		.loc 1 2237 0
 4843 0a28 2546     		mov	r5, r4
 4844              		.loc 1 2551 0
 4845 0a2a 5245     		cmp	r2, sl
 4846 0a2c ACBF     		ite	ge
 4847 0a2e 0022     		movge	r2, #0
 4848 0a30 0122     		movlt	r2, #1
 4849 0a32 0B92     		str	r2, [sp, #44]
 4850              		.loc 1 2552 0
 4851 0a34 FFF796BB 		b	.L743
 4852              	.L355:
 4853              		.loc 1 2548 0
 4854 0a38 0B99     		ldr	r1, [sp, #44]
 4855              		.loc 1 2237 0
 4856 0a3a 2546     		mov	r5, r4
 4857              		.loc 1 2548 0
 4858 0a3c B1EB0A04 		subs	r4, r1, sl
 4859              	.LVL517:
 4860 0a40 18BF     		it	ne
 4861 0a42 0124     		movne	r4, #1
 4862 0a44 0B94     		str	r4, [sp, #44]
 4863              		.loc 1 2549 0
 4864 0a46 FFF78DBB 		b	.L743
ARM GAS  /tmp/ccvHIMcj.s 			page 87


 4865              	.LVL518:
 4866              	.L354:
 4867              		.loc 1 2545 0
 4868 0a4a 0B9B     		ldr	r3, [sp, #44]
 4869              		.loc 1 2237 0
 4870 0a4c 2546     		mov	r5, r4
 4871              		.loc 1 2545 0
 4872 0a4e CAEB0300 		rsb	r0, sl, r3
 4873 0a52 4242     		rsbs	r2, r0, #0
 4874 0a54 42EB0001 		adc	r1, r2, r0
 4875 0a58 0B91     		str	r1, [sp, #44]
 4876              		.loc 1 2546 0
 4877 0a5a FFF783BB 		b	.L743
 4878              	.L353:
 4879              		.loc 1 2237 0
 4880 0a5e 2546     		mov	r5, r4
 4881              		.loc 1 2542 0
 4882 0a60 0B9C     		ldr	r4, [sp, #44]
 4883              	.LVL519:
 4884 0a62 E343     		mvns	r3, r4
 4885 0a64 0B93     		str	r3, [sp, #44]
 4886              		.loc 1 2543 0
 4887 0a66 FFF77DBB 		b	.L743
 4888              	.LVL520:
 4889              	.L352:
 4890              		.loc 1 2539 0
 4891 0a6a 0B98     		ldr	r0, [sp, #44]
 4892              		.loc 1 2237 0
 4893 0a6c 2546     		mov	r5, r4
 4894              		.loc 1 2539 0
 4895 0a6e 4242     		negs	r2, r0
 4896 0a70 0B92     		str	r2, [sp, #44]
 4897              		.loc 1 2540 0
 4898 0a72 FFF777BB 		b	.L743
 4899              	.L351:
 4900              		.loc 1 2536 0
 4901 0a76 0B99     		ldr	r1, [sp, #44]
 4902              		.loc 1 2237 0
 4903 0a78 2546     		mov	r5, r4
 4904              		.loc 1 2536 0
 4905 0a7a D1F10104 		rsbs	r4, r1, #1
 4906              	.LVL521:
 4907 0a7e 38BF     		it	cc
 4908 0a80 0024     		movcc	r4, #0
 4909 0a82 0B94     		str	r4, [sp, #44]
 4910              		.loc 1 2537 0
 4911 0a84 FFF76EBB 		b	.L743
 4912              	.LVL522:
 4913              	.L350:
 4914              		.loc 1 2533 0
 4915 0a88 0B9B     		ldr	r3, [sp, #44]
 4916              		.loc 1 2237 0
 4917 0a8a 2546     		mov	r5, r4
 4918              		.loc 1 2533 0
 4919 0a8c 83EA0A00 		eor	r0, r3, sl
 4920 0a90 0B90     		str	r0, [sp, #44]
 4921              		.loc 1 2534 0
ARM GAS  /tmp/ccvHIMcj.s 			page 88


 4922 0a92 FFF767BB 		b	.L743
 4923              	.L349:
 4924              		.loc 1 2530 0
 4925 0a96 0B9A     		ldr	r2, [sp, #44]
 4926              		.loc 1 2237 0
 4927 0a98 2546     		mov	r5, r4
 4928              		.loc 1 2530 0
 4929 0a9a 42EA0A01 		orr	r1, r2, sl
 4930 0a9e 0B91     		str	r1, [sp, #44]
 4931              		.loc 1 2531 0
 4932 0aa0 FFF760BB 		b	.L743
 4933              	.L348:
 4934              		.loc 1 2237 0
 4935 0aa4 2546     		mov	r5, r4
 4936              		.loc 1 2527 0
 4937 0aa6 0B9C     		ldr	r4, [sp, #44]
 4938              	.LVL523:
 4939 0aa8 04EA0A03 		and	r3, r4, sl
 4940 0aac 0B93     		str	r3, [sp, #44]
 4941              		.loc 1 2528 0
 4942 0aae FFF759BB 		b	.L743
 4943              	.LVL524:
 4944              	.L347:
 4945              		.loc 1 2524 0
 4946 0ab2 0B98     		ldr	r0, [sp, #44]
 4947              		.loc 1 2237 0
 4948 0ab4 2546     		mov	r5, r4
 4949              		.loc 1 2524 0
 4950 0ab6 C0EB0A02 		rsb	r2, r0, sl
 4951 0aba 0B92     		str	r2, [sp, #44]
 4952              		.loc 1 2525 0
 4953 0abc FFF752BB 		b	.L743
 4954              	.L346:
 4955              		.loc 1 2521 0
 4956 0ac0 0B99     		ldr	r1, [sp, #44]
 4957              		.loc 1 2237 0
 4958 0ac2 2546     		mov	r5, r4
 4959              		.loc 1 2521 0
 4960 0ac4 01EB0A04 		add	r4, r1, sl
 4961              	.LVL525:
 4962 0ac8 0B94     		str	r4, [sp, #44]
 4963              		.loc 1 2522 0
 4964 0aca FFF74BBB 		b	.L743
 4965              	.LVL526:
 4966              	.L345:
 4967              		.loc 1 2500 0
 4968 0ace 0B9B     		ldr	r3, [sp, #44]
 4969 0ad0 002B     		cmp	r3, #0
 4970 0ad2 00F00487 		beq	.L814
 4971              	.LVL527:
 4972              		.loc 1 2505 0
 4973 0ad6 9AFBF3F2 		sdiv	r2, sl, r3
 4974              	.LVL528:
 4975              		.loc 1 2506 0
 4976 0ada 03FB12AA 		mls	sl, r3, r2, sl
 4977              	.LVL529:
 4978              		.loc 1 2505 0
ARM GAS  /tmp/ccvHIMcj.s 			page 89


 4979 0ade 0B92     		str	r2, [sp, #44]
 4980              		.loc 1 2515 0
 4981 0ae0 BAF1000F 		cmp	sl, #0
 4982 0ae4 00F09686 		beq	.L609
 4983              		.loc 1 2515 0 is_stmt 0 discriminator 1
 4984 0ae8 9AEA030F 		teq	sl, r3
 4985 0aec 00F1BB86 		bmi	.L815
 4986              		.loc 1 2237 0 is_stmt 1
 4987 0af0 2546     		mov	r5, r4
 4988 0af2 FFF737BB 		b	.L743
 4989              	.LVL530:
 4990              	.L344:
 4991              		.loc 1 2497 0
 4992 0af6 0B9A     		ldr	r2, [sp, #44]
 4993              		.loc 1 2237 0
 4994 0af8 2546     		mov	r5, r4
 4995              		.loc 1 2497 0
 4996 0afa 0AFB02F1 		mul	r1, sl, r2
 4997 0afe 0B91     		str	r1, [sp, #44]
 4998              	.LVL531:
 4999              		.loc 1 2498 0
 5000 0b00 FFF730BB 		b	.L743
 5001              	.L395:
 5002              		.loc 1 2910 0
 5003 0b04 0B99     		ldr	r1, [sp, #44]
 5004 0b06 8A45     		cmp	sl, r1
 5005 0b08 00F37D86 		bgt	.L571
 5006              		.loc 1 2911 0
 5007 0b0c 2268     		ldr	r2, [r4, #0]
 5008 0b0e A018     		adds	r0, r4, r2
 5009 0b10 051F     		subs	r5, r0, #4
 5010              	.LVL532:
 5011 0b12 FFF727BB 		b	.L743
 5012              	.LVL533:
 5013              	.L394:
 5014              		.loc 1 2904 0
 5015 0b16 0B9B     		ldr	r3, [sp, #44]
 5016 0b18 9A45     		cmp	sl, r3
 5017 0b1a 80F25586 		bge	.L570
 5018              		.loc 1 2905 0
 5019 0b1e 2568     		ldr	r5, [r4, #0]
 5020 0b20 6419     		adds	r4, r4, r5
 5021              	.LVL534:
 5022 0b22 251F     		subs	r5, r4, #4
 5023              	.LVL535:
 5024 0b24 FFF71EBB 		b	.L743
 5025              	.LVL536:
 5026              	.L393:
 5027              		.loc 1 2898 0
 5028 0b28 0B99     		ldr	r1, [sp, #44]
 5029 0b2a 8A45     		cmp	sl, r1
 5030 0b2c C0F26086 		blt	.L569
 5031              		.loc 1 2899 0
 5032 0b30 2268     		ldr	r2, [r4, #0]
 5033 0b32 A018     		adds	r0, r4, r2
 5034              	.LVL537:
 5035 0b34 051F     		subs	r5, r0, #4
ARM GAS  /tmp/ccvHIMcj.s 			page 90


 5036              	.LVL538:
 5037 0b36 FFF715BB 		b	.L743
 5038              	.LVL539:
 5039              	.L331:
 5040              		.loc 1 2432 0
 5041 0b3a 6B68     		ldr	r3, [r5, #4]
 5042 0b3c 5B44     		add	r3, fp, r3
 5043              	.LVL540:
 5044              		.loc 1 2433 0
 5045 0b3e 03F13F00 		add	r0, r3, #63
 5046 0b42 8145     		cmp	r9, r0
 5047 0b44 7FF7EBAB 		ble	.L625
 5048              		.loc 1 2434 0
 5049 0b48 D8F82420 		ldr	r2, [r8, #36]	@ unaligned
 5050 0b4c 9342     		cmp	r3, r2
 5051 0b4e FFF6E4AB 		blt	.L626
 5052              		.loc 1 2430 0
 5053 0b52 DA46     		mov	sl, fp
 5054 0b54 251D     		adds	r5, r4, #4
 5055 0b56 9B46     		mov	fp, r3
 5056              	.LVL541:
 5057 0b58 FFF704BB 		b	.L743
 5058              	.LVL542:
 5059              	.L410:
 5060              		.loc 1 3029 0
 5061 0b5c 6D68     		ldr	r5, [r5, #4]
 5062 0b5e 0295     		str	r5, [sp, #8]
 5063              	.LVL543:
 5064              		.loc 1 3030 0
 5065 0b60 029B     		ldr	r3, [sp, #8]
 5066              		.loc 1 3029 0
 5067 0b62 251D     		adds	r5, r4, #4
 5068              	.LVL544:
 5069              		.loc 1 3030 0
 5070 0b64 002B     		cmp	r3, #0
 5071 0b66 3FF4FDAA 		beq	.L743
 5072              		.loc 1 3031 0
 5073 0b6a 6268     		ldr	r2, [r4, #4]
 5074              	.LVL545:
 5075              		.loc 1 3030 0
 5076 0b6c 029C     		ldr	r4, [sp, #8]
 5077              	.LVL546:
 5078 0b6e 581E     		subs	r0, r3, #1
 5079              		.loc 1 3032 0
 5080 0b70 0121     		movs	r1, #1
 5081 0b72 06EB0903 		add	r3, r6, r9
 5082              	.LVL547:
 5083 0b76 43F8042D 		str	r2, [r3, #-4]!
 5084 0b7a 00EA0102 		and	r2, r0, r1
 5085              		.loc 1 3031 0
 5086 0b7e 281D     		adds	r0, r5, #4
 5087              	.LVL548:
 5088              		.loc 1 3030 0
 5089 0b80 A142     		cmp	r1, r4
 5090 0b82 15D0     		beq	.L747
 5091 0b84 3AB1     		cbz	r2, .L574
 5092 0b86 029A     		ldr	r2, [sp, #8]
ARM GAS  /tmp/ccvHIMcj.s 			page 91


 5093              		.loc 1 3031 0
 5094 0b88 50F8044B 		ldr	r4, [r0], #4
 5095              	.LVL549:
 5096              		.loc 1 3032 0
 5097 0b8c 0221     		movs	r1, #2
 5098              		.loc 1 3030 0
 5099 0b8e 9142     		cmp	r1, r2
 5100              		.loc 1 3032 0
 5101 0b90 43F8044D 		str	r4, [r3, #-4]!
 5102              		.loc 1 3030 0
 5103 0b94 0CD0     		beq	.L747
 5104              	.L574:
 5105              		.loc 1 3031 0
 5106 0b96 0246     		mov	r2, r0
 5107 0b98 52F8044B 		ldr	r4, [r2], #4
 5108              		.loc 1 3032 0
 5109 0b9c 0231     		adds	r1, r1, #2
 5110 0b9e 43F8044D 		str	r4, [r3, #-4]!
 5111              		.loc 1 3031 0
 5112 0ba2 4468     		ldr	r4, [r0, #4]
 5113 0ba4 101D     		adds	r0, r2, #4
 5114              		.loc 1 3032 0
 5115 0ba6 43F8044D 		str	r4, [r3, #-4]!
 5116              		.loc 1 3030 0
 5117 0baa 029C     		ldr	r4, [sp, #8]
 5118 0bac A142     		cmp	r1, r4
 5119 0bae F2D1     		bne	.L574
 5120              	.L747:
 5121 0bb0 029B     		ldr	r3, [sp, #8]
 5122 0bb2 05EB8105 		add	r5, r5, r1, lsl #2
 5123              	.LVL550:
 5124 0bb6 A9EB8309 		sub	r9, r9, r3, lsl #2
 5125 0bba FFF7D3BA 		b	.L743
 5126              	.LVL551:
 5127              	.L409:
 5128              		.loc 1 3007 0
 5129 0bbe 6268     		ldr	r2, [r4, #4]
 5130              		.loc 1 3008 0
 5131 0bc0 A9F10409 		sub	r9, r9, #4
 5132              	.LVL552:
 5133              		.loc 1 3007 0
 5134 0bc4 0292     		str	r2, [sp, #8]
 5135              		.loc 1 3006 0
 5136 0bc6 6968     		ldr	r1, [r5, #4]
 5137              	.LVL553:
 5138              		.loc 1 3008 0
 5139 0bc8 46F80920 		str	r2, [r6, r9]
 5140              		.loc 1 3010 0
 5141 0bcc D8F80400 		ldr	r0, [r8, #4]	@ unaligned
 5142              	.LVL554:
 5143              		.loc 1 3007 0
 5144 0bd0 04F10805 		add	r5, r4, #8
 5145              	.LVL555:
 5146              		.loc 1 3010 0
 5147 0bd4 C0EB050E 		rsb	lr, r0, r5
 5148              		.loc 1 3012 0
 5149 0bd8 C8F81CC0 		str	ip, [r8, #28]	@ unaligned
ARM GAS  /tmp/ccvHIMcj.s 			page 92


 5150              		.loc 1 3013 0
 5151 0bdc C8F82890 		str	r9, [r8, #40]	@ unaligned
 5152              		.loc 1 3010 0
 5153 0be0 C8F818E0 		str	lr, [r8, #24]	@ unaligned
 5154              		.loc 1 3011 0
 5155 0be4 C8F820B0 		str	fp, [r8, #32]	@ unaligned
 5156              		.loc 1 3014 0
 5157 0be8 D8F80C40 		ldr	r4, [r8, #12]	@ unaligned
 5158              	.LVL556:
 5159 0bec 06EB0903 		add	r3, r6, r9
 5160 0bf0 CDF804C0 		str	ip, [sp, #4]
 5161 0bf4 4046     		mov	r0, r8
 5162 0bf6 069A     		ldr	r2, [sp, #24]
 5163 0bf8 A047     		blx	r4
 5164              	.LVL557:
 5165              		.loc 1 3015 0
 5166 0bfa 0299     		ldr	r1, [sp, #8]
 5167 0bfc 01EB090C 		add	ip, r1, r9
 5168 0c00 0CF10409 		add	r9, ip, #4
 5169              	.LVL558:
 5170              		.loc 1 3016 0
 5171 0c04 DDF804C0 		ldr	ip, [sp, #4]
 5172 0c08 0028     		cmp	r0, #0
 5173 0c0a 3FF4ABAA 		beq	.L743
 5174              		.loc 1 3017 0
 5175 0c0e 0C28     		cmp	r0, #12
 5176 0c10 00F06E86 		beq	.L816
 5177              	.LVL559:
 5178              	.L573:
 5179              		.loc 1 3025 0
 5180 0c14 0499     		ldr	r1, [sp, #16]
 5181 0c16 C8F82810 		str	r1, [r8, #40]	@ unaligned
 5182 0c1a 059B     		ldr	r3, [sp, #20]
 5183 0c1c C8F82030 		str	r3, [r8, #32]	@ unaligned
 5184 0c20 FFF759BB 		b	.L290
 5185              	.LVL560:
 5186              	.L408:
 5187              		.loc 1 2999 0
 5188 0c24 2368     		ldr	r3, [r4, #0]
 5189              		.loc 1 2997 0
 5190 0c26 251D     		adds	r5, r4, #4
 5191              	.LVL561:
 5192              		.loc 1 2999 0
 5193 0c28 0CEB0300 		add	r0, ip, r3
 5194              	.LVL562:
 5195 0c2c 3258     		ldr	r2, [r6, r0]
 5196 0c2e 541E     		subs	r4, r2, #1
 5197              	.LVL563:
 5198 0c30 3450     		str	r4, [r6, r0]
 5199              		.loc 1 3004 0
 5200 0c32 FFF797BA 		b	.L743
 5201              	.LVL564:
 5202              	.L339:
 5203              		.loc 1 2480 0
 5204 0c36 0B9A     		ldr	r2, [sp, #44]
 5205              		.loc 1 2237 0
 5206 0c38 2546     		mov	r5, r4
ARM GAS  /tmp/ccvHIMcj.s 			page 93


 5207              		.loc 1 2480 0
 5208 0c3a 02FA0AF1 		lsl	r1, r2, sl
 5209 0c3e 0B91     		str	r1, [sp, #44]
 5210              		.loc 1 2481 0
 5211 0c40 FFF790BA 		b	.L743
 5212              	.L338:
 5213              		.loc 1 2474 0
 5214 0c44 0B98     		ldr	r0, [sp, #44]
 5215 0c46 0028     		cmp	r0, #0
 5216 0c48 00F0C185 		beq	.L509
 5217              		.loc 1 2475 0
 5218 0c4c 2368     		ldr	r3, [r4, #0]
 5219 0c4e E418     		adds	r4, r4, r3
 5220              	.LVL565:
 5221 0c50 251F     		subs	r5, r4, #4
 5222              	.LVL566:
 5223 0c52 FFF787BA 		b	.L743
 5224              	.LVL567:
 5225              	.L337:
 5226              		.loc 1 2468 0
 5227 0c56 0B9D     		ldr	r5, [sp, #44]
 5228 0c58 002D     		cmp	r5, #0
 5229 0c5a 40F0BB85 		bne	.L508
 5230              		.loc 1 2469 0
 5231 0c5e 2268     		ldr	r2, [r4, #0]
 5232 0c60 A118     		adds	r1, r4, r2
 5233 0c62 0D1F     		subs	r5, r1, #4
 5234              	.LVL568:
 5235 0c64 FFF77EBA 		b	.L743
 5236              	.LVL569:
 5237              	.L336:
 5238              		.loc 1 2465 0
 5239 0c68 6B68     		ldr	r3, [r5, #4]
 5240 0c6a E418     		adds	r4, r4, r3
 5241              	.LVL570:
 5242 0c6c 251F     		subs	r5, r4, #4
 5243              	.LVL571:
 5244              		.loc 1 2466 0
 5245 0c6e FFF779BA 		b	.L743
 5246              	.LVL572:
 5247              	.L335:
 5248              		.loc 1 2459 0
 5249 0c72 D8F80400 		ldr	r0, [r8, #4]	@ unaligned
 5250              	.LVL573:
 5251 0c76 A9F10409 		sub	r9, r9, #4
 5252              	.LVL574:
 5253 0c7a 221A     		subs	r2, r4, r0
 5254 0c7c 111D     		adds	r1, r2, #4
 5255 0c7e 46F80910 		str	r1, [r6, r9]
 5256              		.loc 1 2460 0
 5257 0c82 6D68     		ldr	r5, [r5, #4]
 5258              	.LVL575:
 5259 0c84 6319     		adds	r3, r4, r5
 5260 0c86 1D1F     		subs	r5, r3, #4
 5261              	.LVL576:
 5262              		.loc 1 2461 0
 5263 0c88 FFF76CBA 		b	.L743
ARM GAS  /tmp/ccvHIMcj.s 			page 94


 5264              	.LVL577:
 5265              	.L334:
 5266              		.loc 1 2450 0
 5267 0c8c 09F10402 		add	r2, r9, #4
 5268              		.loc 1 2451 0
 5269 0c90 B358     		ldr	r3, [r6, r2]
 5270              		.loc 1 2453 0
 5271 0c92 D8F87410 		ldr	r1, [r8, #116]	@ unaligned
 5272              		.loc 1 2450 0
 5273 0c96 56F809C0 		ldr	ip, [r6, r9]
 5274              	.LVL578:
 5275              		.loc 1 2453 0
 5276 0c9a 8B42     		cmp	r3, r1
 5277 0c9c 80F2C685 		bge	.L561
 5278              		.loc 1 2451 0
 5279 0ca0 101D     		adds	r0, r2, #4
 5280              		.loc 1 2456 0
 5281 0ca2 3458     		ldr	r4, [r6, r0]
 5282              	.LVL579:
 5283              		.loc 1 2455 0
 5284 0ca4 D8F80420 		ldr	r2, [r8, #4]	@ unaligned
 5285              	.LVL580:
 5286              		.loc 1 2456 0
 5287 0ca8 00F10409 		add	r9, r0, #4
 5288              	.LVL581:
 5289              		.loc 1 2455 0
 5290 0cac D518     		adds	r5, r2, r3
 5291              	.LVL582:
 5292              		.loc 1 2456 0
 5293 0cae A144     		add	r9, r9, r4
 5294              	.LVL583:
 5295              		.loc 1 2457 0
 5296 0cb0 FFF758BA 		b	.L743
 5297              	.LVL584:
 5298              	.L333:
 5299              		.loc 1 2442 0
 5300 0cb4 09F10402 		add	r2, r9, #4
 5301              		.loc 1 2443 0
 5302 0cb8 B358     		ldr	r3, [r6, r2]
 5303              		.loc 1 2445 0
 5304 0cba D8F87400 		ldr	r0, [r8, #116]	@ unaligned
 5305              	.LVL585:
 5306              		.loc 1 2442 0
 5307 0cbe 56F809C0 		ldr	ip, [r6, r9]
 5308              	.LVL586:
 5309              		.loc 1 2445 0
 5310 0cc2 8342     		cmp	r3, r0
 5311 0cc4 80F2A985 		bge	.L564
 5312              		.loc 1 2447 0
 5313 0cc8 D8F80450 		ldr	r5, [r8, #4]	@ unaligned
 5314              	.LVL587:
 5315              		.loc 1 2443 0
 5316 0ccc 02F10409 		add	r9, r2, #4
 5317              	.LVL588:
 5318              		.loc 1 2447 0
 5319 0cd0 ED18     		adds	r5, r5, r3
 5320              	.LVL589:
ARM GAS  /tmp/ccvHIMcj.s 			page 95


 5321              		.loc 1 2448 0
 5322 0cd2 FFF747BA 		b	.L743
 5323              	.LVL590:
 5324              	.L332:
 5325              		.loc 1 2437 0
 5326 0cd6 A9F10409 		sub	r9, r9, #4
 5327              	.LVL591:
 5328              		.loc 1 2439 0
 5329 0cda 0BF13F01 		add	r1, fp, #63
 5330 0cde 8945     		cmp	r9, r1
 5331              		.loc 1 2437 0
 5332 0ce0 46F809C0 		str	ip, [r6, r9]
 5333              	.LVL592:
 5334              		.loc 1 2439 0
 5335 0ce4 7FF71BAB 		ble	.L625
 5336              		.loc 1 2237 0
 5337 0ce8 2546     		mov	r5, r4
 5338              		.loc 1 2439 0
 5339 0cea CC46     		mov	ip, r9
 5340 0cec FFF73ABA 		b	.L743
 5341              	.LVL593:
 5342              	.L343:
 5343              		.loc 1 2494 0
 5344 0cf0 2368     		ldr	r3, [r4, #0]
 5345              		.loc 1 2493 0
 5346 0cf2 251D     		adds	r5, r4, #4
 5347              	.LVL594:
 5348              		.loc 1 2494 0
 5349 0cf4 0AFA03FA 		lsl	sl, sl, r3
 5350              	.LVL595:
 5351              		.loc 1 2495 0
 5352 0cf8 FFF734BA 		b	.L743
 5353              	.LVL596:
 5354              	.L342:
 5355              		.loc 1 2490 0
 5356 0cfc 2068     		ldr	r0, [r4, #0]
 5357              		.loc 1 2489 0
 5358 0cfe 251D     		adds	r5, r4, #4
 5359              	.LVL597:
 5360              		.loc 1 2490 0
 5361 0d00 0B9C     		ldr	r4, [sp, #44]
 5362              	.LVL598:
 5363 0d02 14FA00F2 		lsls	r2, r4, r0
 5364 0d06 0B92     		str	r2, [sp, #44]
 5365              		.loc 1 2491 0
 5366 0d08 FFF72CBA 		b	.L743
 5367              	.LVL599:
 5368              	.L341:
 5369              		.loc 1 2486 0
 5370 0d0c 0B99     		ldr	r1, [sp, #44]
 5371              		.loc 1 2237 0
 5372 0d0e 2546     		mov	r5, r4
 5373              		.loc 1 2486 0
 5374 0d10 41FA0AF3 		asr	r3, r1, sl
 5375 0d14 0B93     		str	r3, [sp, #44]
 5376              		.loc 1 2487 0
 5377 0d16 FFF725BA 		b	.L743
ARM GAS  /tmp/ccvHIMcj.s 			page 96


 5378              	.L340:
 5379              		.loc 1 2237 0
 5380 0d1a 2546     		mov	r5, r4
 5381              		.loc 1 2483 0
 5382 0d1c 0B9C     		ldr	r4, [sp, #44]
 5383              	.LVL600:
 5384 0d1e 24FA0AF0 		lsr	r0, r4, sl
 5385 0d22 0B90     		str	r0, [sp, #44]
 5386              		.loc 1 2484 0
 5387 0d24 FFF71EBA 		b	.L743
 5388              	.LVL601:
 5389              	.L315:
 5390              		.loc 1 2308 0
 5391 0d28 2068     		ldr	r0, [r4, #0]
 5392              		.loc 1 2307 0
 5393 0d2a 251D     		adds	r5, r4, #4
 5394              	.LVL602:
 5395              		.loc 1 2308 0
 5396 0d2c 0B9C     		ldr	r4, [sp, #44]
 5397              	.LVL603:
 5398 0d2e 3450     		str	r4, [r6, r0]
 5399              		.loc 1 2309 0
 5400 0d30 FFF718BA 		b	.L743
 5401              	.LVL604:
 5402              	.L314:
 5403              		.loc 1 2303 0
 5404 0d34 6968     		ldr	r1, [r5, #4]
 5405              	.LVL605:
 5406 0d36 251D     		adds	r5, r4, #4
 5407              	.LVL606:
 5408              		.loc 1 2304 0
 5409 0d38 01EB0C0A 		add	sl, r1, ip
 5410              	.LVL607:
 5411              		.loc 1 2305 0
 5412 0d3c FFF712BA 		b	.L743
 5413              	.LVL608:
 5414              	.L313:
 5415              		.loc 1 2300 0
 5416 0d40 2368     		ldr	r3, [r4, #0]
 5417              		.loc 1 2299 0
 5418 0d42 251D     		adds	r5, r4, #4
 5419              	.LVL609:
 5420              		.loc 1 2300 0
 5421 0d44 03EB0C02 		add	r2, r3, ip
 5422 0d48 0B92     		str	r2, [sp, #44]
 5423              		.loc 1 2301 0
 5424 0d4a FFF70BBA 		b	.L743
 5425              	.LVL610:
 5426              	.L312:
 5427              		.loc 1 2296 0
 5428 0d4e D5F804A0 		ldr	sl, [r5, #4]
 5429              	.LVL611:
 5430 0d52 251D     		adds	r5, r4, #4
 5431              	.LVL612:
 5432              		.loc 1 2297 0
 5433 0d54 FFF706BA 		b	.L743
 5434              	.LVL613:
ARM GAS  /tmp/ccvHIMcj.s 			page 97


 5435              	.L311:
 5436              		.loc 1 2293 0
 5437 0d58 6868     		ldr	r0, [r5, #4]
 5438 0d5a 251D     		adds	r5, r4, #4
 5439              	.LVL614:
 5440 0d5c 0B90     		str	r0, [sp, #44]
 5441              		.loc 1 2294 0
 5442 0d5e FFF701BA 		b	.L743
 5443              	.LVL615:
 5444              	.L310:
 5445              		.loc 1 2275 0
 5446 0d62 6868     		ldr	r0, [r5, #4]
 5447              	.LVL616:
 5448 0d64 251D     		adds	r5, r4, #4
 5449              	.LVL617:
 5450 0d66 D5E5     		b	.L476
 5451              	.LVL618:
 5452              	.L309:
 5453              		.loc 1 2270 0
 5454 0d68 0B9B     		ldr	r3, [sp, #44]
 5455 0d6a 9B45     		cmp	fp, r3
 5456 0d6c 02DC     		bgt	.L473
 5457              		.loc 1 2270 0 is_stmt 0 discriminator 1
 5458 0d6e 9945     		cmp	r9, r3
 5459 0d70 00F35C85 		bgt	.L561
 5460              	.L473:
 5461              		.loc 1 2270 0 discriminator 2
 5462 0d74 D8F82C10 		ldr	r1, [r8, #44]	@ unaligned
 5463 0d78 8B42     		cmp	r3, r1
 5464 0d7a 80F05785 		bcs	.L561
 5465              		.loc 1 2272 0 is_stmt 1
 5466 0d7e F058     		ldr	r0, [r6, r3]
 5467              		.loc 1 2237 0
 5468 0d80 2546     		mov	r5, r4
 5469              		.loc 1 2272 0
 5470 0d82 0B90     		str	r0, [sp, #44]
 5471              		.loc 1 2273 0
 5472 0d84 FFF7EEB9 		b	.L743
 5473              	.L308:
 5474              		.loc 1 2265 0
 5475 0d88 2268     		ldr	r2, [r4, #0]
 5476              		.loc 1 2264 0
 5477 0d8a 251D     		adds	r5, r4, #4
 5478              	.LVL619:
 5479              		.loc 1 2265 0
 5480 0d8c 0CEB020A 		add	sl, ip, r2
 5481              	.LVL620:
 5482              		.loc 1 2266 0
 5483 0d90 56F80A30 		ldr	r3, [r6, sl]
 5484 0d94 56F803A0 		ldr	sl, [r6, r3]
 5485              	.LVL621:
 5486              		.loc 1 2267 0
 5487 0d98 FFF7E4B9 		b	.L743
 5488              	.LVL622:
 5489              	.L307:
 5490              		.loc 1 2260 0
 5491 0d9c 2068     		ldr	r0, [r4, #0]
ARM GAS  /tmp/ccvHIMcj.s 			page 98


 5492              		.loc 1 2259 0
 5493 0d9e 251D     		adds	r5, r4, #4
 5494              	.LVL623:
 5495              		.loc 1 2260 0
 5496 0da0 0CEB0001 		add	r1, ip, r0
 5497              	.LVL624:
 5498              		.loc 1 2261 0
 5499 0da4 7258     		ldr	r2, [r6, r1]
 5500 0da6 B458     		ldr	r4, [r6, r2]
 5501              	.LVL625:
 5502 0da8 0B94     		str	r4, [sp, #44]
 5503              		.loc 1 2262 0
 5504 0daa FFF7DBB9 		b	.L743
 5505              	.LVL626:
 5506              	.L306:
 5507              		.loc 1 2256 0
 5508 0dae 2368     		ldr	r3, [r4, #0]
 5509              		.loc 1 2255 0
 5510 0db0 251D     		adds	r5, r4, #4
 5511              	.LVL627:
 5512              		.loc 1 2256 0
 5513 0db2 06EB030A 		add	sl, r6, r3
 5514              	.LVL628:
 5515 0db6 5AF80CA0 		ldr	sl, [sl, ip]
 5516              	.LVL629:
 5517              		.loc 1 2257 0
 5518 0dba FFF7D3B9 		b	.L743
 5519              	.LVL630:
 5520              	.L305:
 5521              		.loc 1 2252 0
 5522 0dbe 2068     		ldr	r0, [r4, #0]
 5523              		.loc 1 2251 0
 5524 0dc0 251D     		adds	r5, r4, #4
 5525              	.LVL631:
 5526              		.loc 1 2252 0
 5527 0dc2 3118     		adds	r1, r6, r0
 5528 0dc4 51F80C20 		ldr	r2, [r1, ip]
 5529 0dc8 0B92     		str	r2, [sp, #44]
 5530              		.loc 1 2253 0
 5531 0dca FFF7CBB9 		b	.L743
 5532              	.LVL632:
 5533              	.L304:
 5534              		.loc 1 2248 0
 5535 0dce 2368     		ldr	r3, [r4, #0]
 5536              		.loc 1 2247 0
 5537 0dd0 251D     		adds	r5, r4, #4
 5538              	.LVL633:
 5539              		.loc 1 2248 0
 5540 0dd2 56F803A0 		ldr	sl, [r6, r3]
 5541              	.LVL634:
 5542              		.loc 1 2249 0
 5543 0dd6 FFF7C5B9 		b	.L743
 5544              	.LVL635:
 5545              	.L303:
 5546              		.loc 1 2244 0
 5547 0dda 2068     		ldr	r0, [r4, #0]
 5548              		.loc 1 2243 0
ARM GAS  /tmp/ccvHIMcj.s 			page 99


 5549 0ddc 251D     		adds	r5, r4, #4
 5550              	.LVL636:
 5551              		.loc 1 2244 0
 5552 0dde 3458     		ldr	r4, [r6, r0]
 5553              	.LVL637:
 5554 0de0 0B94     		str	r4, [sp, #44]
 5555              		.loc 1 2245 0
 5556 0de2 FFF7BFB9 		b	.L743
 5557              	.LVL638:
 5558              	.L300:
 5559              		.loc 1 2237 0
 5560 0de6 2546     		mov	r5, r4
 5561 0de8 FFF7BCB9 		b	.L743
 5562              	.L302:
 5563              		.loc 1 3361 0
 5564 0dec 049B     		ldr	r3, [sp, #16]
 5565 0dee 0620     		movs	r0, #6
 5566 0df0 C8F82830 		str	r3, [r8, #40]	@ unaligned
 5567 0df4 0599     		ldr	r1, [sp, #20]
 5568 0df6 C8F82010 		str	r1, [r8, #32]	@ unaligned
 5569 0dfa FFF76CBA 		b	.L290
 5570              	.L323:
 5571              		.loc 1 2399 0
 5572 0dfe 0B9A     		ldr	r2, [sp, #44]
 5573              	.LVL639:
 5574              		.loc 1 2237 0
 5575 0e00 2546     		mov	r5, r4
 5576              		.loc 1 2400 0
 5577 0e02 CDF82CA0 		str	sl, [sp, #44]
 5578              	.LVL640:
 5579              		.loc 1 2401 0
 5580 0e06 9246     		mov	sl, r2
 5581              		.loc 1 2402 0
 5582 0e08 FFF7ACB9 		b	.L743
 5583              	.LVL641:
 5584              	.L322:
 5585              		.loc 1 2378 0
 5586 0e0c 2068     		ldr	r0, [r4, #0]
 5587              		.loc 1 2377 0
 5588 0e0e 251D     		adds	r5, r4, #4
 5589              	.LVL642:
 5590              		.loc 1 2378 0
 5591 0e10 811E     		subs	r1, r0, #2
 5592 0e12 0429     		cmp	r1, #4
 5593 0e14 3FF6A6A9 		bhi	.L743
 5594 0e18 01A0     		adr	r0, .L505
 5595 0e1a 50F821F0 		ldr	pc, [r0, r1, lsl #2]
 5596 0e1e 00BF     		.align	2
 5597              	.L505:
 5598 0e20 13170000 		.word	.L501+1
 5599 0e24 65010000 		.word	.L743+1
 5600 0e28 0B170000 		.word	.L502+1
 5601 0e2c 03170000 		.word	.L503+1
 5602 0e30 1B170000 		.word	.L504+1
 5603              	.LVL643:
 5604              	.L321:
 5605              		.loc 1 2352 0
ARM GAS  /tmp/ccvHIMcj.s 			page 100


 5606 0e34 2368     		ldr	r3, [r4, #0]
 5607              		.loc 1 2351 0
 5608 0e36 251D     		adds	r5, r4, #4
 5609              	.LVL644:
 5610              		.loc 1 2352 0
 5611 0e38 062B     		cmp	r3, #6
 5612 0e3a 3FF693A9 		bhi	.L743
 5613 0e3e DFE813F0 		tbh	[pc, r3, lsl #1]
 5614              	.LVL645:
 5615              	.L500:
 5616 0e42 8D04     		.2byte	(.L493-.L500)/2
 5617 0e44 8904     		.2byte	(.L494-.L500)/2
 5618 0e46 8504     		.2byte	(.L495-.L500)/2
 5619 0e48 8004     		.2byte	(.L496-.L500)/2
 5620 0e4a 7C04     		.2byte	(.L497-.L500)/2
 5621 0e4c 7804     		.2byte	(.L498-.L500)/2
 5622 0e4e 7204     		.2byte	(.L499-.L500)/2
 5623              	.LVL646:
 5624              	.L320:
 5625              		.loc 1 2346 0
 5626 0e50 2368     		ldr	r3, [r4, #0]
 5627              		.loc 1 2344 0
 5628 0e52 251D     		adds	r5, r4, #4
 5629              	.LVL647:
 5630              		.loc 1 2346 0
 5631 0e54 032B     		cmp	r3, #3
 5632 0e56 3FF685A9 		bhi	.L743
 5633              		.loc 1 2347 0
 5634 0e5a 0B9A     		ldr	r2, [sp, #44]
 5635 0e5c C3F10400 		rsb	r0, r3, #4
 5636 0e60 82EA0004 		eor	r4, r2, r0
 5637              	.LVL648:
 5638 0e64 0B94     		str	r4, [sp, #44]
 5639 0e66 FFF77DB9 		b	.L743
 5640              	.LVL649:
 5641              	.L327:
 5642              		.loc 1 2413 0
 5643 0e6a 56F80920 		ldr	r2, [r6, r9]
 5644              		.loc 1 2237 0
 5645 0e6e 2546     		mov	r5, r4
 5646              		.loc 1 2413 0
 5647 0e70 0B92     		str	r2, [sp, #44]
 5648 0e72 09F10409 		add	r9, r9, #4
 5649              	.LVL650:
 5650              		.loc 1 2414 0
 5651 0e76 FFF775B9 		b	.L743
 5652              	.L326:
 5653              		.loc 1 2410 0
 5654 0e7a 0B98     		ldr	r0, [sp, #44]
 5655 0e7c A9F10409 		sub	r9, r9, #4
 5656              	.LVL651:
 5657 0e80 3118     		adds	r1, r6, r0
 5658 0e82 46F80910 		str	r1, [r6, r9]
 5659              		.loc 1 2237 0
 5660 0e86 2546     		mov	r5, r4
 5661              		.loc 1 2411 0
 5662 0e88 FFF76CB9 		b	.L743
ARM GAS  /tmp/ccvHIMcj.s 			page 101


 5663              	.L325:
 5664              		.loc 1 2407 0
 5665 0e8c A9F10409 		sub	r9, r9, #4
 5666              	.LVL652:
 5667 0e90 46F809A0 		str	sl, [r6, r9]
 5668              		.loc 1 2237 0
 5669 0e94 2546     		mov	r5, r4
 5670              		.loc 1 2408 0
 5671 0e96 FFF765B9 		b	.L743
 5672              	.L324:
 5673              		.loc 1 2404 0
 5674 0e9a 0B9B     		ldr	r3, [sp, #44]
 5675 0e9c A9F10409 		sub	r9, r9, #4
 5676              	.LVL653:
 5677 0ea0 46F80930 		str	r3, [r6, r9]
 5678              		.loc 1 2237 0
 5679 0ea4 2546     		mov	r5, r4
 5680              		.loc 1 2405 0
 5681 0ea6 FFF75DB9 		b	.L743
 5682              	.L329:
 5683              		.loc 1 2420 0
 5684 0eaa 2168     		ldr	r1, [r4, #0]
 5685              		.loc 1 2419 0
 5686 0eac 251D     		adds	r5, r4, #4
 5687              	.LVL654:
 5688              		.loc 1 2420 0
 5689 0eae 7318     		adds	r3, r6, r1
 5690 0eb0 53F80940 		ldr	r4, [r3, r9]
 5691              	.LVL655:
 5692 0eb4 0B94     		str	r4, [sp, #44]
 5693              		.loc 1 2421 0
 5694 0eb6 FFF755B9 		b	.L743
 5695              	.LVL656:
 5696              	.L328:
 5697              		.loc 1 2416 0
 5698 0eba 56F809A0 		ldr	sl, [r6, r9]
 5699              	.LVL657:
 5700              		.loc 1 2237 0
 5701 0ebe 2546     		mov	r5, r4
 5702              		.loc 1 2416 0
 5703 0ec0 09F10409 		add	r9, r9, #4
 5704              	.LVL658:
 5705              		.loc 1 2417 0
 5706 0ec4 FFF74EB9 		b	.L743
 5707              	.LVL659:
 5708              	.L330:
 5709              		.loc 1 2425 0
 5710 0ec8 6A68     		ldr	r2, [r5, #4]
 5711              		.loc 1 2426 0
 5712 0eca 0BF13F00 		add	r0, fp, #63
 5713              		.loc 1 2425 0
 5714 0ece 09EB0203 		add	r3, r9, r2
 5715              	.LVL660:
 5716              		.loc 1 2426 0
 5717 0ed2 8342     		cmp	r3, r0
 5718 0ed4 7FF723AA 		ble	.L625
 5719              		.loc 1 2427 0
ARM GAS  /tmp/ccvHIMcj.s 			page 102


 5720 0ed8 D8F82C10 		ldr	r1, [r8, #44]	@ unaligned
 5721 0edc 8B42     		cmp	r3, r1
 5722 0ede 3FF704AA 		bgt	.L624
 5723              		.loc 1 2423 0
 5724 0ee2 CA46     		mov	sl, r9
 5725 0ee4 251D     		adds	r5, r4, #4
 5726 0ee6 9946     		mov	r9, r3
 5727              	.LVL661:
 5728 0ee8 FFF73CB9 		b	.L743
 5729              	.LVL662:
 5730              	.L319:
 5731              		.loc 1 2326 0
 5732 0eec 6868     		ldr	r0, [r5, #4]
 5733              	.LVL663:
 5734 0eee 251D     		adds	r5, r4, #4
 5735              	.LVL664:
 5736 0ef0 3EE5     		b	.L486
 5737              	.LVL665:
 5738              	.L318:
 5739              		.loc 1 2321 0
 5740 0ef2 DA45     		cmp	sl, fp
 5741 0ef4 02DB     		blt	.L483
 5742              		.loc 1 2321 0 is_stmt 0 discriminator 1
 5743 0ef6 CA45     		cmp	sl, r9
 5744 0ef8 C0F29884 		blt	.L561
 5745              	.L483:
 5746              		.loc 1 2321 0 discriminator 2
 5747 0efc D8F82C10 		ldr	r1, [r8, #44]	@ unaligned
 5748 0f00 8A45     		cmp	sl, r1
 5749 0f02 80F09384 		bcs	.L561
 5750              		.loc 1 2237 0 is_stmt 1
 5751 0f06 2546     		mov	r5, r4
 5752              		.loc 1 2323 0
 5753 0f08 0B9C     		ldr	r4, [sp, #44]
 5754              	.LVL666:
 5755 0f0a 46F80A40 		str	r4, [r6, sl]
 5756              		.loc 1 2324 0
 5757 0f0e FFF729B9 		b	.L743
 5758              	.LVL667:
 5759              	.L317:
 5760              		.loc 1 2316 0
 5761 0f12 2368     		ldr	r3, [r4, #0]
 5762              		.loc 1 2317 0
 5763 0f14 0B99     		ldr	r1, [sp, #44]
 5764              		.loc 1 2316 0
 5765 0f16 0CEB0302 		add	r2, ip, r3
 5766              		.loc 1 2317 0
 5767 0f1a B058     		ldr	r0, [r6, r2]
 5768              		.loc 1 2315 0
 5769 0f1c 251D     		adds	r5, r4, #4
 5770              	.LVL668:
 5771              		.loc 1 2317 0
 5772 0f1e 3150     		str	r1, [r6, r0]
 5773              		.loc 1 2318 0
 5774 0f20 FFF720B9 		b	.L743
 5775              	.LVL669:
 5776              	.L316:
ARM GAS  /tmp/ccvHIMcj.s 			page 103


 5777              		.loc 1 2312 0
 5778 0f24 2568     		ldr	r5, [r4, #0]
 5779 0f26 0B9A     		ldr	r2, [sp, #44]
 5780 0f28 7319     		adds	r3, r6, r5
 5781 0f2a 43F80C20 		str	r2, [r3, ip]
 5782              		.loc 1 2311 0
 5783 0f2e 251D     		adds	r5, r4, #4
 5784              	.LVL670:
 5785              		.loc 1 2313 0
 5786 0f30 FFF718B9 		b	.L743
 5787              	.LVL671:
 5788              	.L379:
 5789              		.loc 1 2830 0
 5790 0f34 0B99     		ldr	r1, [sp, #44]
 5791 0f36 0AEB8103 		add	r3, sl, r1, lsl #2
 5792              	.LVL672:
 5793              		.loc 1 2832 0
 5794 0f3a 9B45     		cmp	fp, r3
 5795 0f3c 02DC     		bgt	.L560
 5796              		.loc 1 2832 0 is_stmt 0 discriminator 1
 5797 0f3e 9945     		cmp	r9, r3
 5798 0f40 00F37484 		bgt	.L561
 5799              	.L560:
 5800              		.loc 1 2832 0 discriminator 2
 5801 0f44 D8F82C00 		ldr	r0, [r8, #44]	@ unaligned
 5802 0f48 8342     		cmp	r3, r0
 5803 0f4a 80F06F84 		bcs	.L561
 5804              		.loc 1 2834 0 is_stmt 1
 5805 0f4e F158     		ldr	r1, [r6, r3]
 5806              		.loc 1 2237 0
 5807 0f50 2546     		mov	r5, r4
 5808              		.loc 1 2834 0
 5809 0f52 0B91     		str	r1, [sp, #44]
 5810              		.loc 1 2835 0
 5811 0f54 FFF706B9 		b	.L743
 5812              	.LVL673:
 5813              	.L378:
 5814              	.LBB72:
 5815              		.loc 1 2811 0
 5816 0f58 6A68     		ldr	r2, [r5, #4]
 5817 0f5a A318     		adds	r3, r4, r2
 5818              	.LVL674:
 5819              		.loc 1 2813 0
 5820 0f5c 5968     		ldr	r1, [r3, #4]
 5821 0f5e C8F87010 		str	r1, [r8, #112]	@ unaligned
 5822              		.loc 1 2814 0
 5823 0f62 A258     		ldr	r2, [r4, r2]
 5824              	.LVL675:
 5825              		.loc 1 2815 0
 5826 0f64 002A     		cmp	r2, #0
 5827 0f66 1EDD     		ble	.L556
 5828 0f68 9C68     		ldr	r4, [r3, #8]
 5829              	.LVL676:
 5830 0f6a 0B98     		ldr	r0, [sp, #44]
 5831 0f6c 0833     		adds	r3, r3, #8
 5832              	.LVL677:
 5833 0f6e 8442     		cmp	r4, r0
ARM GAS  /tmp/ccvHIMcj.s 			page 104


 5834 0f70 00F04484 		beq	.L557
 5835 0f74 541E     		subs	r4, r2, #1
 5836 0f76 14F0010F 		tst	r4, #1
 5837 0f7a 10D0     		beq	.L630
 5838 0f7c 53F8085F 		ldr	r5, [r3, #8]!
 5839              	.LVL678:
 5840 0f80 2246     		mov	r2, r4
 5841              	.LVL679:
 5842 0f82 8542     		cmp	r5, r0
 5843 0f84 0BD1     		bne	.L630
 5844 0f86 00F039BC 		b	.L557
 5845              	.LVL680:
 5846              	.L817:
 5847              		.loc 1 2815 0 is_stmt 0 discriminator 2
 5848 0f8a 53F8084F 		ldr	r4, [r3, #8]!
 5849              	.LVL681:
 5850 0f8e 8442     		cmp	r4, r0
 5851 0f90 00F03484 		beq	.L557
 5852              	.LVL682:
 5853              		.loc 1 2815 0
 5854 0f94 53F8084F 		ldr	r4, [r3, #8]!
 5855              	.LVL683:
 5856 0f98 8442     		cmp	r4, r0
 5857 0f9a 00F02F84 		beq	.L557
 5858              	.LVL684:
 5859              	.L630:
 5860              		.loc 1 2815 0 discriminator 1
 5861 0f9e 013A     		subs	r2, r2, #1
 5862 0fa0 02F1FF32 		add	r2, r2, #-1
 5863 0fa4 F1D1     		bne	.L817
 5864              	.LVL685:
 5865              	.L556:
 5866              		.loc 1 2820 0 is_stmt 1
 5867 0fa6 D8F81430 		ldr	r3, [r8, #20]	@ unaligned
 5868 0faa 4046     		mov	r0, r8
 5869 0fac CDF804C0 		str	ip, [sp, #4]
 5870 0fb0 9847     		blx	r3
 5871              	.LVL686:
 5872 0fb2 DDF804C0 		ldr	ip, [sp, #4]
 5873 0fb6 0028     		cmp	r0, #0
 5874 0fb8 7FF42CAE 		bne	.L573
 5875              		.loc 1 2822 0
 5876 0fbc D8F80450 		ldr	r5, [r8, #4]	@ unaligned
 5877              	.LVL687:
 5878              		.loc 1 2823 0
 5879 0fc0 FFF7D0B8 		b	.L743
 5880              	.LVL688:
 5881              	.L377:
 5882              	.LBE72:
 5883              		.loc 1 2799 0
 5884 0fc4 09F10405 		add	r5, r9, #4
 5885              		.loc 1 2800 0
 5886 0fc8 7459     		ldr	r4, [r6, r5]
 5887              	.LVL689:
 5888              		.loc 1 2799 0
 5889 0fca 56F809C0 		ldr	ip, [r6, r9]
 5890              	.LVL690:
ARM GAS  /tmp/ccvHIMcj.s 			page 105


 5891              		.loc 1 2801 0
 5892 0fce A1B2     		uxth	r1, r4
 5893 0fd0 C8F87010 		str	r1, [r8, #112]	@ unaligned
 5894              		.loc 1 2800 0
 5895 0fd4 09F10809 		add	r9, r9, #8
 5896              	.LVL691:
 5897              		.loc 1 2805 0
 5898 0fd8 D8F81420 		ldr	r2, [r8, #20]	@ unaligned
 5899              		.loc 1 2804 0
 5900 0fdc 56F80950 		ldr	r5, [r6, r9]
 5901              	.LVL692:
 5902              		.loc 1 2805 0
 5903 0fe0 4046     		mov	r0, r8
 5904              	.LVL693:
 5905 0fe2 CDF804C0 		str	ip, [sp, #4]
 5906 0fe6 9047     		blx	r2
 5907              	.LVL694:
 5908              		.loc 1 2806 0
 5909 0fe8 DDF804C0 		ldr	ip, [sp, #4]
 5910 0fec 0028     		cmp	r0, #0
 5911 0fee 40F01D84 		bne	.L561
 5912              		.loc 1 2806 0 is_stmt 0 discriminator 1
 5913 0ff2 D8F87400 		ldr	r0, [r8, #116]	@ unaligned
 5914              	.LVL695:
 5915              		.loc 1 2802 0 is_stmt 1 discriminator 1
 5916 0ff6 240C     		lsrs	r4, r4, #16
 5917              	.LVL696:
 5918              		.loc 1 2806 0 discriminator 1
 5919 0ff8 8442     		cmp	r4, r0
 5920 0ffa 80F21784 		bge	.L561
 5921              		.loc 1 2808 0
 5922 0ffe D8F804E0 		ldr	lr, [r8, #4]	@ unaligned
 5923              		.loc 1 2804 0
 5924 1002 09F10409 		add	r9, r9, #4
 5925              	.LVL697:
 5926 1006 A944     		add	r9, r9, r5
 5927              	.LVL698:
 5928              		.loc 1 2808 0
 5929 1008 0EEB0405 		add	r5, lr, r4
 5930              	.LVL699:
 5931              		.loc 1 2809 0
 5932 100c FFF7AAB8 		b	.L743
 5933              	.LVL700:
 5934              	.L376:
 5935              		.loc 1 2788 0
 5936 1010 D8F80430 		ldr	r3, [r8, #4]	@ unaligned
 5937              		.loc 1 2790 0
 5938 1014 D8F870E0 		ldr	lr, [r8, #112]	@ unaligned
 5939              		.loc 1 2788 0
 5940 1018 E21A     		subs	r2, r4, r3
 5941 101a 111D     		adds	r1, r2, #4
 5942              		.loc 1 2790 0
 5943 101c 4EEA0140 		orr	r0, lr, r1, lsl #16
 5944              	.LVL701:
 5945 1020 A9F10409 		sub	r9, r9, #4
 5946              	.LVL702:
 5947 1024 46F80900 		str	r0, [r6, r9]
ARM GAS  /tmp/ccvHIMcj.s 			page 106


 5948              		.loc 1 2791 0
 5949 1028 6968     		ldr	r1, [r5, #4]
 5950              		.loc 1 2793 0
 5951 102a D8F81430 		ldr	r3, [r8, #20]	@ unaligned
 5952              		.loc 1 2791 0
 5953 102e C8F87010 		str	r1, [r8, #112]	@ unaligned
 5954              		.loc 1 2793 0
 5955 1032 4046     		mov	r0, r8
 5956 1034 CDF804C0 		str	ip, [sp, #4]
 5957 1038 9847     		blx	r3
 5958              	.LVL703:
 5959 103a DDF804C0 		ldr	ip, [sp, #4]
 5960 103e 0028     		cmp	r0, #0
 5961 1040 7FF4E8AD 		bne	.L573
 5962              		.loc 1 2795 0
 5963 1044 D8F80450 		ldr	r5, [r8, #4]	@ unaligned
 5964              	.LVL704:
 5965              		.loc 1 2796 0
 5966 1048 FFF78CB8 		b	.L743
 5967              	.LVL705:
 5968              	.L375:
 5969              		.loc 1 2719 0
 5970 104c D8F81030 		ldr	r3, [r8, #16]	@ unaligned
 5971 1050 002B     		cmp	r3, #0
 5972 1052 00F0F483 		beq	.L611
 5973              		.loc 1 2724 0
 5974 1056 D8F80400 		ldr	r0, [r8, #4]	@ unaligned
 5975              	.LVL706:
 5976              		.loc 1 2721 0
 5977 105a C8F81CC0 		str	ip, [r8, #28]	@ unaligned
 5978              		.loc 1 2724 0
 5979 105e C0EB040E 		rsb	lr, r0, r4
 5980              		.loc 1 2722 0
 5981 1062 C8F82890 		str	r9, [r8, #40]	@ unaligned
 5982              		.loc 1 2723 0
 5983 1066 C8F820B0 		str	fp, [r8, #32]	@ unaligned
 5984              		.loc 1 2724 0
 5985 106a C8F818E0 		str	lr, [r8, #24]	@ unaligned
 5986              		.loc 1 2725 0
 5987 106e 4046     		mov	r0, r8
 5988 1070 CDF804C0 		str	ip, [sp, #4]
 5989 1074 9847     		blx	r3
 5990              	.LVL707:
 5991              		.loc 1 2726 0
 5992 1076 DDF804C0 		ldr	ip, [sp, #4]
 5993 107a 0028     		cmp	r0, #0
 5994 107c 40F04784 		bne	.L818
 5995              		.loc 1 2237 0
 5996 1080 2546     		mov	r5, r4
 5997 1082 FFF76FB8 		b	.L743
 5998              	.LVL708:
 5999              	.L374:
 6000              		.loc 1 2713 0
 6001 1086 56F80930 		ldr	r3, [r6, r9]
 6002              	.LVL709:
 6003              		.loc 1 2237 0
 6004 108a 2546     		mov	r5, r4
ARM GAS  /tmp/ccvHIMcj.s 			page 107


 6005              		.loc 1 2714 0
 6006 108c 46F809A0 		str	sl, [r6, r9]
 6007              	.LVL710:
 6008              		.loc 1 2715 0
 6009 1090 9A46     		mov	sl, r3
 6010              		.loc 1 2716 0
 6011 1092 FFF767B8 		b	.L743
 6012              	.LVL711:
 6013              	.L418:
 6014              		.loc 1 3085 0
 6015 1096 6968     		ldr	r1, [r5, #4]
 6016              		.loc 1 3086 0
 6017 1098 04F10805 		add	r5, r4, #8
 6018              		.loc 1 3085 0
 6019 109c 7318     		adds	r3, r6, r1
 6020 109e 53F80C00 		ldr	r0, [r3, ip]
 6021              	.LVL712:
 6022 10a2 0B90     		str	r0, [sp, #44]
 6023              	.LVL713:
 6024              		.loc 1 3087 0
 6025 10a4 6268     		ldr	r2, [r4, #4]
 6026 10a6 06EB020A 		add	sl, r6, r2
 6027              	.LVL714:
 6028 10aa 5AF80CA0 		ldr	sl, [sl, ip]
 6029              	.LVL715:
 6030              		.loc 1 3088 0
 6031 10ae FFF759B8 		b	.L743
 6032              	.LVL716:
 6033              	.L417:
 6034              		.loc 1 3079 0
 6035 10b2 6968     		ldr	r1, [r5, #4]
 6036              		.loc 1 3080 0
 6037 10b4 04F10805 		add	r5, r4, #8
 6038              		.loc 1 3079 0
 6039 10b8 7358     		ldr	r3, [r6, r1]
 6040 10ba 0B93     		str	r3, [sp, #44]
 6041              	.LVL717:
 6042              		.loc 1 3081 0
 6043 10bc 6468     		ldr	r4, [r4, #4]
 6044              	.LVL718:
 6045 10be 56F804A0 		ldr	sl, [r6, r4]
 6046              	.LVL719:
 6047              		.loc 1 3082 0
 6048 10c2 FFF74FB8 		b	.L743
 6049              	.LVL720:
 6050              	.L416:
 6051              		.loc 1 3071 0
 6052 10c6 6B68     		ldr	r3, [r5, #4]
 6053 10c8 251D     		adds	r5, r4, #4
 6054 10ca 0293     		str	r3, [sp, #8]
 6055              	.LVL721:
 6056              		.loc 1 3072 0
 6057 10cc 0298     		ldr	r0, [sp, #8]
 6058 10ce 0028     		cmp	r0, #0
 6059 10d0 3FF448A8 		beq	.L743
 6060              		.loc 1 3073 0
 6061 10d4 6368     		ldr	r3, [r4, #4]
ARM GAS  /tmp/ccvHIMcj.s 			page 108


 6062              	.LVL722:
 6063              		.loc 1 3072 0
 6064 10d6 0CEB0601 		add	r1, ip, r6
 6065 10da 029A     		ldr	r2, [sp, #8]
 6066              		.loc 1 3074 0
 6067 10dc CC18     		adds	r4, r1, r3
 6068              	.LVL723:
 6069              		.loc 1 3072 0
 6070 10de 0791     		str	r1, [sp, #28]
 6071              		.loc 1 3074 0
 6072 10e0 06EB0903 		add	r3, r6, r9
 6073 10e4 0121     		movs	r1, #1
 6074 10e6 0138     		subs	r0, r0, #1
 6075              	.LVL724:
 6076 10e8 43F8044D 		str	r4, [r3, #-4]!
 6077              		.loc 1 3073 0
 6078 10ec 2C1D     		adds	r4, r5, #4
 6079              	.LVL725:
 6080              		.loc 1 3072 0
 6081 10ee 9142     		cmp	r1, r2
 6082 10f0 00EA0100 		and	r0, r0, r1
 6083 10f4 22D0     		beq	.L753
 6084 10f6 48B1     		cbz	r0, .L782
 6085              		.loc 1 3073 0
 6086 10f8 54F8042B 		ldr	r2, [r4], #4
 6087              	.LVL726:
 6088              		.loc 1 3074 0
 6089 10fc 0798     		ldr	r0, [sp, #28]
 6090 10fe 0221     		movs	r1, #2
 6091 1100 8018     		adds	r0, r0, r2
 6092              		.loc 1 3072 0
 6093 1102 029A     		ldr	r2, [sp, #8]
 6094              		.loc 1 3074 0
 6095 1104 43F8040D 		str	r0, [r3, #-4]!
 6096              		.loc 1 3072 0
 6097 1108 9142     		cmp	r1, r2
 6098 110a 17D0     		beq	.L753
 6099              	.L782:
 6100 110c 0798     		ldr	r0, [sp, #28]
 6101 110e CDF824A0 		str	sl, [sp, #36]
 6102 1112 CA46     		mov	sl, r9
 6103              	.LVL727:
 6104 1114 A946     		mov	r9, r5
 6105              	.LVL728:
 6106              	.L580:
 6107              		.loc 1 3073 0
 6108 1116 2246     		mov	r2, r4
 6109 1118 52F8045B 		ldr	r5, [r2], #4
 6110              		.loc 1 3074 0
 6111 111c 0231     		adds	r1, r1, #2
 6112 111e 4519     		adds	r5, r0, r5
 6113 1120 43F8045D 		str	r5, [r3, #-4]!
 6114              		.loc 1 3073 0
 6115 1124 6568     		ldr	r5, [r4, #4]
 6116 1126 141D     		adds	r4, r2, #4
 6117              		.loc 1 3074 0
 6118 1128 4219     		adds	r2, r0, r5
ARM GAS  /tmp/ccvHIMcj.s 			page 109


 6119              		.loc 1 3072 0
 6120 112a 029D     		ldr	r5, [sp, #8]
 6121              		.loc 1 3074 0
 6122 112c 43F8042D 		str	r2, [r3, #-4]!
 6123              		.loc 1 3072 0
 6124 1130 A942     		cmp	r1, r5
 6125 1132 F0D1     		bne	.L580
 6126 1134 4D46     		mov	r5, r9
 6127 1136 D146     		mov	r9, sl
 6128              	.LVL729:
 6129 1138 DDF824A0 		ldr	sl, [sp, #36]
 6130              	.LVL730:
 6131              	.L753:
 6132 113c 0298     		ldr	r0, [sp, #8]
 6133 113e 05EB8105 		add	r5, r5, r1, lsl #2
 6134              	.LVL731:
 6135 1142 A9EB8009 		sub	r9, r9, r0, lsl #2
 6136 1146 FFF70DB8 		b	.L743
 6137              	.LVL732:
 6138              	.L415:
 6139              		.loc 1 3064 0
 6140 114a 6D68     		ldr	r5, [r5, #4]
 6141 114c 0295     		str	r5, [sp, #8]
 6142              	.LVL733:
 6143              		.loc 1 3065 0
 6144 114e 0299     		ldr	r1, [sp, #8]
 6145              		.loc 1 3064 0
 6146 1150 251D     		adds	r5, r4, #4
 6147              	.LVL734:
 6148              		.loc 1 3065 0
 6149 1152 0029     		cmp	r1, #0
 6150 1154 3FF406A8 		beq	.L743
 6151              		.loc 1 3066 0
 6152 1158 6268     		ldr	r2, [r4, #4]
 6153              	.LVL735:
 6154 115a 06EB0C00 		add	r0, r6, ip
 6155              	.LVL736:
 6156              		.loc 1 3067 0
 6157 115e 8358     		ldr	r3, [r0, r2]
 6158 1160 0299     		ldr	r1, [sp, #8]
 6159              		.loc 1 3065 0
 6160 1162 029A     		ldr	r2, [sp, #8]
 6161              		.loc 1 3067 0
 6162 1164 F418     		adds	r4, r6, r3
 6163              	.LVL737:
 6164 1166 0790     		str	r0, [sp, #28]
 6165 1168 06EB0903 		add	r3, r6, r9
 6166 116c 481E     		subs	r0, r1, #1
 6167 116e 0121     		movs	r1, #1
 6168              	.LVL738:
 6169 1170 43F8044D 		str	r4, [r3, #-4]!
 6170              		.loc 1 3066 0
 6171 1174 2C1D     		adds	r4, r5, #4
 6172              	.LVL739:
 6173              		.loc 1 3065 0
 6174 1176 9142     		cmp	r1, r2
 6175 1178 00EA0100 		and	r0, r0, r1
ARM GAS  /tmp/ccvHIMcj.s 			page 110


 6176 117c 25D0     		beq	.L752
 6177 117e 50B1     		cbz	r0, .L780
 6178              		.loc 1 3067 0
 6179 1180 0798     		ldr	r0, [sp, #28]
 6180              		.loc 1 3066 0
 6181 1182 54F8042B 		ldr	r2, [r4], #4
 6182              	.LVL740:
 6183              		.loc 1 3067 0
 6184 1186 0221     		movs	r1, #2
 6185 1188 8258     		ldr	r2, [r0, r2]
 6186 118a B018     		adds	r0, r6, r2
 6187              		.loc 1 3065 0
 6188 118c 029A     		ldr	r2, [sp, #8]
 6189              		.loc 1 3067 0
 6190 118e 43F8040D 		str	r0, [r3, #-4]!
 6191              		.loc 1 3065 0
 6192 1192 9142     		cmp	r1, r2
 6193 1194 19D0     		beq	.L752
 6194              	.L780:
 6195 1196 0798     		ldr	r0, [sp, #28]
 6196 1198 CDF824A0 		str	sl, [sp, #36]
 6197 119c CA46     		mov	sl, r9
 6198              	.LVL741:
 6199 119e A946     		mov	r9, r5
 6200              	.LVL742:
 6201              	.L579:
 6202              		.loc 1 3066 0
 6203 11a0 2246     		mov	r2, r4
 6204 11a2 52F8045B 		ldr	r5, [r2], #4
 6205              		.loc 1 3067 0
 6206 11a6 0231     		adds	r1, r1, #2
 6207 11a8 4559     		ldr	r5, [r0, r5]
 6208 11aa 7519     		adds	r5, r6, r5
 6209 11ac 43F8045D 		str	r5, [r3, #-4]!
 6210              		.loc 1 3066 0
 6211 11b0 6568     		ldr	r5, [r4, #4]
 6212 11b2 141D     		adds	r4, r2, #4
 6213              		.loc 1 3067 0
 6214 11b4 4559     		ldr	r5, [r0, r5]
 6215 11b6 7219     		adds	r2, r6, r5
 6216              		.loc 1 3065 0
 6217 11b8 029D     		ldr	r5, [sp, #8]
 6218              		.loc 1 3067 0
 6219 11ba 43F8042D 		str	r2, [r3, #-4]!
 6220              		.loc 1 3065 0
 6221 11be A942     		cmp	r1, r5
 6222 11c0 EED1     		bne	.L579
 6223 11c2 4D46     		mov	r5, r9
 6224 11c4 D146     		mov	r9, sl
 6225              	.LVL743:
 6226 11c6 DDF824A0 		ldr	sl, [sp, #36]
 6227              	.LVL744:
 6228              	.L752:
 6229 11ca 029C     		ldr	r4, [sp, #8]
 6230 11cc 05EB8105 		add	r5, r5, r1, lsl #2
 6231              	.LVL745:
 6232 11d0 A9EB8409 		sub	r9, r9, r4, lsl #2
ARM GAS  /tmp/ccvHIMcj.s 			page 111


 6233 11d4 FEF7C6BF 		b	.L743
 6234              	.LVL746:
 6235              	.L414:
 6236              		.loc 1 3057 0
 6237 11d8 6D68     		ldr	r5, [r5, #4]
 6238 11da 0295     		str	r5, [sp, #8]
 6239              	.LVL747:
 6240              		.loc 1 3058 0
 6241 11dc 0299     		ldr	r1, [sp, #8]
 6242              		.loc 1 3057 0
 6243 11de 251D     		adds	r5, r4, #4
 6244              	.LVL748:
 6245              		.loc 1 3058 0
 6246 11e0 0029     		cmp	r1, #0
 6247 11e2 3EF4BFAF 		beq	.L743
 6248              		.loc 1 3059 0
 6249 11e6 6168     		ldr	r1, [r4, #4]
 6250              	.LVL749:
 6251 11e8 029B     		ldr	r3, [sp, #8]
 6252              		.loc 1 3058 0
 6253 11ea 029A     		ldr	r2, [sp, #8]
 6254 11ec 5C1E     		subs	r4, r3, #1
 6255              		.loc 1 3060 0
 6256 11ee 7018     		adds	r0, r6, r1
 6257              	.LVL750:
 6258 11f0 06EB0903 		add	r3, r6, r9
 6259 11f4 0121     		movs	r1, #1
 6260 11f6 43F8040D 		str	r0, [r3, #-4]!
 6261 11fa 04EA0100 		and	r0, r4, r1
 6262              		.loc 1 3059 0
 6263 11fe 2C1D     		adds	r4, r5, #4
 6264              	.LVL751:
 6265              		.loc 1 3058 0
 6266 1200 9142     		cmp	r1, r2
 6267 1202 18D0     		beq	.L751
 6268 1204 40B1     		cbz	r0, .L578
 6269              		.loc 1 3059 0
 6270 1206 54F8040B 		ldr	r0, [r4], #4
 6271              	.LVL752:
 6272              		.loc 1 3060 0
 6273 120a 0221     		movs	r1, #2
 6274 120c 3218     		adds	r2, r6, r0
 6275              		.loc 1 3058 0
 6276 120e 0298     		ldr	r0, [sp, #8]
 6277              		.loc 1 3060 0
 6278 1210 43F8042D 		str	r2, [r3, #-4]!
 6279              		.loc 1 3058 0
 6280 1214 8142     		cmp	r1, r0
 6281 1216 0ED0     		beq	.L751
 6282              	.L578:
 6283              		.loc 1 3059 0
 6284 1218 2246     		mov	r2, r4
 6285 121a 52F8040B 		ldr	r0, [r2], #4
 6286              		.loc 1 3060 0
 6287 121e 0231     		adds	r1, r1, #2
 6288 1220 3018     		adds	r0, r6, r0
 6289 1222 43F8040D 		str	r0, [r3, #-4]!
ARM GAS  /tmp/ccvHIMcj.s 			page 112


 6290              		.loc 1 3059 0
 6291 1226 6068     		ldr	r0, [r4, #4]
 6292 1228 141D     		adds	r4, r2, #4
 6293              		.loc 1 3058 0
 6294 122a 029A     		ldr	r2, [sp, #8]
 6295              		.loc 1 3060 0
 6296 122c 3018     		adds	r0, r6, r0
 6297              		.loc 1 3058 0
 6298 122e 9142     		cmp	r1, r2
 6299              		.loc 1 3060 0
 6300 1230 43F8040D 		str	r0, [r3, #-4]!
 6301              		.loc 1 3058 0
 6302 1234 F0D1     		bne	.L578
 6303              	.L751:
 6304 1236 029C     		ldr	r4, [sp, #8]
 6305 1238 05EB8105 		add	r5, r5, r1, lsl #2
 6306              	.LVL753:
 6307 123c A9EB8409 		sub	r9, r9, r4, lsl #2
 6308 1240 FEF790BF 		b	.L743
 6309              	.LVL754:
 6310              	.L387:
 6311              		.loc 1 2869 0
 6312 1244 2268     		ldr	r2, [r4, #0]
 6313 1246 A9F10409 		sub	r9, r9, #4
 6314              	.LVL755:
 6315 124a B118     		adds	r1, r6, r2
 6316              		.loc 1 2868 0
 6317 124c 251D     		adds	r5, r4, #4
 6318              	.LVL756:
 6319              		.loc 1 2869 0
 6320 124e 46F80910 		str	r1, [r6, r9]
 6321              		.loc 1 2870 0
 6322 1252 FEF787BF 		b	.L743
 6323              	.LVL757:
 6324              	.L386:
 6325              		.loc 1 2865 0
 6326 1256 2568     		ldr	r5, [r4, #0]
 6327 1258 A9F10409 		sub	r9, r9, #4
 6328              	.LVL758:
 6329 125c 05EB0C03 		add	r3, r5, ip
 6330 1260 46F80930 		str	r3, [r6, r9]
 6331              		.loc 1 2864 0
 6332 1264 251D     		adds	r5, r4, #4
 6333              	.LVL759:
 6334              		.loc 1 2866 0
 6335 1266 FEF77DBF 		b	.L743
 6336              	.LVL760:
 6337              	.L385:
 6338              		.loc 1 2861 0
 6339 126a 2068     		ldr	r0, [r4, #0]
 6340              	.LVL761:
 6341 126c A9F10409 		sub	r9, r9, #4
 6342              	.LVL762:
 6343 1270 3218     		adds	r2, r6, r0
 6344 1272 52F80C10 		ldr	r1, [r2, ip]
 6345              		.loc 1 2860 0
 6346 1276 251D     		adds	r5, r4, #4
ARM GAS  /tmp/ccvHIMcj.s 			page 113


 6347              	.LVL763:
 6348              		.loc 1 2861 0
 6349 1278 46F80910 		str	r1, [r6, r9]
 6350              		.loc 1 2862 0
 6351 127c FEF772BF 		b	.L743
 6352              	.LVL764:
 6353              	.L384:
 6354              		.loc 1 2857 0
 6355 1280 2568     		ldr	r5, [r4, #0]
 6356 1282 A9F10409 		sub	r9, r9, #4
 6357              	.LVL765:
 6358 1286 7359     		ldr	r3, [r6, r5]
 6359              		.loc 1 2856 0
 6360 1288 251D     		adds	r5, r4, #4
 6361              	.LVL766:
 6362              		.loc 1 2857 0
 6363 128a 46F80930 		str	r3, [r6, r9]
 6364              		.loc 1 2858 0
 6365 128e FEF769BF 		b	.L743
 6366              	.LVL767:
 6367              	.L383:
 6368              		.loc 1 2853 0
 6369 1292 2068     		ldr	r0, [r4, #0]
 6370 1294 A9F10409 		sub	r9, r9, #4
 6371              	.LVL768:
 6372              		.loc 1 2852 0
 6373 1298 251D     		adds	r5, r4, #4
 6374              	.LVL769:
 6375              		.loc 1 2853 0
 6376 129a 46F80900 		str	r0, [r6, r9]
 6377              		.loc 1 2854 0
 6378 129e FEF761BF 		b	.L743
 6379              	.LVL770:
 6380              	.L382:
 6381              		.loc 1 2849 0
 6382 12a2 2168     		ldr	r1, [r4, #0]
 6383 12a4 0B9A     		ldr	r2, [sp, #44]
 6384              		.loc 1 2848 0
 6385 12a6 251D     		adds	r5, r4, #4
 6386              	.LVL771:
 6387              		.loc 1 2849 0
 6388 12a8 12FA01F3 		lsls	r3, r2, r1
 6389 12ac 03EB0A00 		add	r0, r3, sl
 6390 12b0 0B90     		str	r0, [sp, #44]
 6391              		.loc 1 2850 0
 6392 12b2 FEF757BF 		b	.L743
 6393              	.LVL772:
 6394              	.L381:
 6395              		.loc 1 2845 0
 6396 12b6 0B99     		ldr	r1, [sp, #44]
 6397              		.loc 1 2237 0
 6398 12b8 2546     		mov	r5, r4
 6399              		.loc 1 2845 0
 6400 12ba 0AEB8104 		add	r4, sl, r1, lsl #2
 6401              	.LVL773:
 6402 12be 0B94     		str	r4, [sp, #44]
 6403              		.loc 1 2846 0
ARM GAS  /tmp/ccvHIMcj.s 			page 114


 6404 12c0 FEF750BF 		b	.L743
 6405              	.LVL774:
 6406              	.L380:
 6407              		.loc 1 2838 0
 6408 12c4 6B68     		ldr	r3, [r5, #4]
 6409 12c6 0B9A     		ldr	r2, [sp, #44]
 6410 12c8 12FA03F0 		lsls	r0, r2, r3
 6411 12cc 00EB0A03 		add	r3, r0, sl
 6412              	.LVL775:
 6413              		.loc 1 2840 0
 6414 12d0 9B45     		cmp	fp, r3
 6415 12d2 02DC     		bgt	.L563
 6416              		.loc 1 2840 0 is_stmt 0 discriminator 1
 6417 12d4 9945     		cmp	r9, r3
 6418 12d6 00F3A082 		bgt	.L564
 6419              	.L563:
 6420              		.loc 1 2840 0 discriminator 2
 6421 12da D8F82C10 		ldr	r1, [r8, #44]	@ unaligned
 6422 12de 8B42     		cmp	r3, r1
 6423 12e0 80F09B82 		bcs	.L564
 6424              		.loc 1 2842 0 is_stmt 1
 6425 12e4 F258     		ldr	r2, [r6, r3]
 6426              		.loc 1 2837 0
 6427 12e6 251D     		adds	r5, r4, #4
 6428              		.loc 1 2842 0
 6429 12e8 0B92     		str	r2, [sp, #44]
 6430              		.loc 1 2843 0
 6431 12ea FEF73BBF 		b	.L743
 6432              	.LVL776:
 6433              	.L391:
 6434              		.loc 1 2886 0
 6435 12ee 0B99     		ldr	r1, [sp, #44]
 6436 12f0 5145     		cmp	r1, sl
 6437 12f2 00F0AF82 		beq	.L567
 6438              		.loc 1 2887 0
 6439 12f6 2268     		ldr	r2, [r4, #0]
 6440 12f8 A018     		adds	r0, r4, r2
 6441 12fa 051F     		subs	r5, r0, #4
 6442              	.LVL777:
 6443 12fc FEF732BF 		b	.L743
 6444              	.LVL778:
 6445              	.L390:
 6446              		.loc 1 2880 0
 6447 1300 0B9B     		ldr	r3, [sp, #44]
 6448 1302 5345     		cmp	r3, sl
 6449 1304 00F0A182 		beq	.L819
 6450              		.loc 1 2883 0
 6451 1308 251D     		adds	r5, r4, #4
 6452              	.LVL779:
 6453 130a FEF72BBF 		b	.L743
 6454              	.LVL780:
 6455              	.L392:
 6456              		.loc 1 2892 0
 6457 130e 0B9B     		ldr	r3, [sp, #44]
 6458 1310 9A45     		cmp	sl, r3
 6459 1312 40F37082 		ble	.L568
 6460              		.loc 1 2893 0
ARM GAS  /tmp/ccvHIMcj.s 			page 115


 6461 1316 2568     		ldr	r5, [r4, #0]
 6462 1318 6419     		adds	r4, r4, r5
 6463              	.LVL781:
 6464 131a 251F     		subs	r5, r4, #4
 6465              	.LVL782:
 6466 131c FEF722BF 		b	.L743
 6467              	.LVL783:
 6468              	.L389:
 6469              		.loc 1 2877 0
 6470 1320 2068     		ldr	r0, [r4, #0]
 6471              	.LVL784:
 6472 1322 06EB0C02 		add	r2, r6, ip
 6473 1326 A9F10409 		sub	r9, r9, #4
 6474              	.LVL785:
 6475 132a 1118     		adds	r1, r2, r0
 6476              		.loc 1 2876 0
 6477 132c 251D     		adds	r5, r4, #4
 6478              	.LVL786:
 6479              		.loc 1 2877 0
 6480 132e 46F80910 		str	r1, [r6, r9]
 6481              		.loc 1 2878 0
 6482 1332 FEF717BF 		b	.L743
 6483              	.LVL787:
 6484              	.L388:
 6485              		.loc 1 2873 0
 6486 1336 2568     		ldr	r5, [r4, #0]
 6487 1338 A9F10409 		sub	r9, r9, #4
 6488              	.LVL788:
 6489 133c 7319     		adds	r3, r6, r5
 6490 133e 53F80C00 		ldr	r0, [r3, ip]
 6491              		.loc 1 2872 0
 6492 1342 251D     		adds	r5, r4, #4
 6493              	.LVL789:
 6494              		.loc 1 2873 0
 6495 1344 3418     		adds	r4, r6, r0
 6496              	.LVL790:
 6497 1346 46F80940 		str	r4, [r6, r9]
 6498              		.loc 1 2874 0
 6499 134a FEF70BBF 		b	.L743
 6500              	.LVL791:
 6501              	.L371:
 6502              		.loc 1 2680 0
 6503 134e D8F80400 		ldr	r0, [r8, #4]	@ unaligned
 6504              		.loc 1 2678 0
 6505 1352 6968     		ldr	r1, [r5, #4]
 6506              	.LVL792:
 6507 1354 251D     		adds	r5, r4, #4
 6508              	.LVL793:
 6509              		.loc 1 2680 0
 6510 1356 C0EB050E 		rsb	lr, r0, r5
 6511              		.loc 1 2682 0
 6512 135a C8F81CC0 		str	ip, [r8, #28]	@ unaligned
 6513              		.loc 1 2680 0
 6514 135e C8F818E0 		str	lr, [r8, #24]	@ unaligned
 6515              		.loc 1 2681 0
 6516 1362 C8F820B0 		str	fp, [r8, #32]	@ unaligned
 6517              		.loc 1 2683 0
ARM GAS  /tmp/ccvHIMcj.s 			page 116


 6518 1366 C8F82890 		str	r9, [r8, #40]	@ unaligned
 6519              		.loc 1 2684 0
 6520 136a D8F80C40 		ldr	r4, [r8, #12]	@ unaligned
 6521              	.LVL794:
 6522 136e 4046     		mov	r0, r8
 6523 1370 CDF804C0 		str	ip, [sp, #4]
 6524 1374 069A     		ldr	r2, [sp, #24]
 6525 1376 06EB0903 		add	r3, r6, r9
 6526 137a A047     		blx	r4
 6527              	.LVL795:
 6528              		.loc 1 2685 0
 6529 137c DDF804C0 		ldr	ip, [sp, #4]
 6530 1380 0028     		cmp	r0, #0
 6531 1382 3EF4EFAE 		beq	.L743
 6532              		.loc 1 2686 0
 6533 1386 0C28     		cmp	r0, #12
 6534 1388 7FF444AC 		bne	.L573
 6535              		.loc 1 2687 0
 6536 138c 0B9B     		ldr	r3, [sp, #44]
 6537              		.loc 1 2688 0
 6538 138e C8F860A0 		str	sl, [r8, #96]	@ unaligned
 6539              		.loc 1 2687 0
 6540 1392 C8F85C30 		str	r3, [r8, #92]	@ unaligned
 6541              		.loc 1 2689 0
 6542 1396 0499     		ldr	r1, [sp, #16]
 6543 1398 C8F86410 		str	r1, [r8, #100]	@ unaligned
 6544              		.loc 1 2690 0
 6545 139c 059A     		ldr	r2, [sp, #20]
 6546 139e C8F86820 		str	r2, [r8, #104]	@ unaligned
 6547              		.loc 1 2691 0
 6548 13a2 FEF798BF 		b	.L290
 6549              	.LVL796:
 6550              	.L370:
 6551              		.loc 1 2672 0
 6552 13a6 2268     		ldr	r2, [r4, #0]
 6553 13a8 0B98     		ldr	r0, [sp, #44]
 6554              	.LVL797:
 6555              		.loc 1 2671 0
 6556 13aa 251D     		adds	r5, r4, #4
 6557              	.LVL798:
 6558              		.loc 1 2672 0
 6559 13ac 9042     		cmp	r0, r2
 6560 13ae 7EF6D9AE 		bls	.L743
 6561              		.loc 1 2673 0
 6562 13b2 D8F804C0 		ldr	ip, [r8, #4]	@ unaligned
 6563              	.LVL799:
 6564              		.loc 1 2674 0
 6565 13b6 049B     		ldr	r3, [sp, #16]
 6566              		.loc 1 2673 0
 6567 13b8 CCEB0505 		rsb	r5, ip, r5
 6568              	.LVL800:
 6569              		.loc 1 2674 0
 6570 13bc C8F82830 		str	r3, [r8, #40]	@ unaligned
 6571              		.loc 1 2673 0
 6572 13c0 C8F81850 		str	r5, [r8, #24]	@ unaligned
 6573              		.loc 1 2674 0
 6574 13c4 0599     		ldr	r1, [sp, #20]
ARM GAS  /tmp/ccvHIMcj.s 			page 117


 6575 13c6 0420     		movs	r0, #4
 6576 13c8 C8F82010 		str	r1, [r8, #32]	@ unaligned
 6577 13cc FEF783BF 		b	.L290
 6578              	.LVL801:
 6579              	.L369:
 6580 13d0 2746     		mov	r7, r4
 6581              	.LVL802:
 6582              		.loc 1 2653 0
 6583 13d2 57F8040B 		ldr	r0, [r7], #4
 6584              	.LVL803:
 6585 13d6 4446     		mov	r4, r8
 6586              	.LVL804:
 6587 13d8 FEF7ADBF 		b	.L545
 6588              	.LVL805:
 6589              	.L368:
 6590              		.loc 1 2642 0
 6591 13dc 6868     		ldr	r0, [r5, #4]
 6592              	.LVL806:
 6593 13de 251D     		adds	r5, r4, #4
 6594              	.LVL807:
 6595 13e0 FFF728B8 		b	.L537
 6596              	.LVL808:
 6597              	.L367:
 6598              		.loc 1 2618 0
 6599 13e4 6A68     		ldr	r2, [r5, #4]
 6600              	.LVL809:
 6601 13e6 251D     		adds	r5, r4, #4
 6602              	.LVL810:
 6603 13e8 FEF7BFBF 		b	.L524
 6604              	.LVL811:
 6605              	.L366:
 6606              		.loc 1 2591 0
 6607 13ec 6A68     		ldr	r2, [r5, #4]
 6608              	.LVL812:
 6609 13ee 251D     		adds	r5, r4, #4
 6610              	.LVL813:
 6611 13f0 FEF7EEBF 		b	.L511
 6612              	.LVL814:
 6613              	.L365:
 6614              		.loc 1 2584 0
 6615 13f4 0B9B     		ldr	r3, [sp, #44]
 6616              		.loc 1 2237 0
 6617 13f6 2546     		mov	r5, r4
 6618              		.loc 1 2584 0
 6619 13f8 F458     		ldr	r4, [r6, r3]
 6620              	.LVL815:
 6621 13fa 601E     		subs	r0, r4, #1
 6622 13fc F050     		str	r0, [r6, r3]
 6623              		.loc 1 2589 0
 6624 13fe FEF7B1BE 		b	.L743
 6625              	.LVL816:
 6626              	.L364:
 6627              		.loc 1 2580 0
 6628 1402 0AF1FF3A 		add	sl, sl, #-1
 6629              	.LVL817:
 6630              		.loc 1 2237 0
 6631 1406 2546     		mov	r5, r4
ARM GAS  /tmp/ccvHIMcj.s 			page 118


 6632              		.loc 1 2581 0
 6633 1408 FEF7ACBE 		b	.L743
 6634              	.L373:
 6635              		.loc 1 2708 0
 6636 140c 56F80910 		ldr	r1, [r6, r9]
 6637              	.LVL818:
 6638              		.loc 1 2709 0
 6639 1410 0B9A     		ldr	r2, [sp, #44]
 6640              		.loc 1 2237 0
 6641 1412 2546     		mov	r5, r4
 6642              		.loc 1 2709 0
 6643 1414 46F80920 		str	r2, [r6, r9]
 6644              		.loc 1 2710 0
 6645 1418 0B91     		str	r1, [sp, #44]
 6646              		.loc 1 2711 0
 6647 141a FEF7A3BE 		b	.L743
 6648              	.LVL819:
 6649              	.L372:
 6650              	.LBB73:
 6651              		.loc 1 2697 0
 6652 141e 6868     		ldr	r0, [r5, #4]
 6653 1420 2118     		adds	r1, r4, r0
 6654              	.LVL820:
 6655              		.loc 1 2700 0
 6656 1422 2358     		ldr	r3, [r4, r0]
 6657              		.loc 1 2699 0
 6658 1424 4D68     		ldr	r5, [r1, #4]
 6659              		.loc 1 2701 0
 6660 1426 002B     		cmp	r3, #0
 6661              		.loc 1 2699 0
 6662 1428 0D44     		add	r5, r1, r5
 6663              	.LVL821:
 6664              		.loc 1 2701 0
 6665 142a 7EF79BAE 		ble	.L743
 6666 142e 8C68     		ldr	r4, [r1, #8]
 6667              	.LVL822:
 6668 1430 0B9A     		ldr	r2, [sp, #44]
 6669 1432 0831     		adds	r1, r1, #8
 6670              	.LVL823:
 6671 1434 9442     		cmp	r4, r2
 6672 1436 16D0     		beq	.L550
 6673 1438 581E     		subs	r0, r3, #1
 6674 143a 10F0010F 		tst	r0, #1
 6675 143e 09D0     		beq	.L629
 6676 1440 51F8084F 		ldr	r4, [r1, #8]!
 6677              	.LVL824:
 6678 1444 0346     		mov	r3, r0
 6679              	.LVL825:
 6680 1446 A242     		cmp	r2, r4
 6681 1448 04D1     		bne	.L629
 6682 144a 0CE0     		b	.L550
 6683              	.LVL826:
 6684              	.L727:
 6685 144c 51F8080F 		ldr	r0, [r1, #8]!
 6686              	.LVL827:
 6687 1450 8242     		cmp	r2, r0
 6688 1452 08D0     		beq	.L550
ARM GAS  /tmp/ccvHIMcj.s 			page 119


 6689              	.LVL828:
 6690              	.L629:
 6691              		.loc 1 2701 0 is_stmt 0 discriminator 1
 6692 1454 013B     		subs	r3, r3, #1
 6693 1456 03F1FF33 		add	r3, r3, #-1
 6694 145a 3EF483AE 		beq	.L743
 6695              		.loc 1 2701 0 discriminator 2
 6696 145e 51F8080F 		ldr	r0, [r1, #8]!
 6697              	.LVL829:
 6698 1462 8242     		cmp	r2, r0
 6699 1464 F2D1     		bne	.L727
 6700              	.LVL830:
 6701              	.L550:
 6702              		.loc 1 2704 0 is_stmt 1
 6703 1466 4D68     		ldr	r5, [r1, #4]
 6704              	.LVL831:
 6705 1468 4D19     		adds	r5, r1, r5
 6706              	.LVL832:
 6707 146a FEF77BBE 		b	.L743
 6708              	.LVL833:
 6709              	.L402:
 6710              	.LBE73:
 6711              		.loc 1 2959 0
 6712 146e 2168     		ldr	r1, [r4, #0]
 6713              		.loc 1 2958 0
 6714 1470 251D     		adds	r5, r4, #4
 6715              	.LVL834:
 6716              		.loc 1 2959 0
 6717 1472 7318     		adds	r3, r6, r1
 6718 1474 0024     		movs	r4, #0
 6719 1476 43F80C40 		str	r4, [r3, ip]
 6720              		.loc 1 2960 0
 6721 147a FEF773BE 		b	.L743
 6722              	.LVL835:
 6723              	.L401:
 6724              		.loc 1 2955 0
 6725 147e 2268     		ldr	r2, [r4, #0]
 6726 1480 0020     		movs	r0, #0
 6727              	.LVL836:
 6728              		.loc 1 2954 0
 6729 1482 251D     		adds	r5, r4, #4
 6730              	.LVL837:
 6731              		.loc 1 2955 0
 6732 1484 B050     		str	r0, [r6, r2]
 6733              		.loc 1 2956 0
 6734 1486 FEF76DBE 		b	.L743
 6735              	.LVL838:
 6736              	.L603:
 6737              		.loc 1 2237 0
 6738 148a 2546     		mov	r5, r4
 6739              		.loc 1 2951 0
 6740 148c 4FF0000A 		mov	sl, #0
 6741              	.LVL839:
 6742 1490 FEF768BE 		b	.L743
 6743              	.LVL840:
 6744              	.L400:
 6745              		.loc 1 2948 0
ARM GAS  /tmp/ccvHIMcj.s 			page 120


 6746 1494 0025     		movs	r5, #0
 6747 1496 0B95     		str	r5, [sp, #44]
 6748              		.loc 1 2237 0
 6749 1498 2546     		mov	r5, r4
 6750              		.loc 1 2949 0
 6751 149a FEF763BE 		b	.L743
 6752              	.L399:
 6753              		.loc 1 2945 0
 6754 149e 2368     		ldr	r3, [r4, #0]
 6755 14a0 0B99     		ldr	r1, [sp, #44]
 6756              		.loc 1 2944 0
 6757 14a2 251D     		adds	r5, r4, #4
 6758              	.LVL841:
 6759              		.loc 1 2945 0
 6760 14a4 03FB01F4 		mul	r4, r3, r1
 6761              	.LVL842:
 6762 14a8 0B94     		str	r4, [sp, #44]
 6763              		.loc 1 2946 0
 6764 14aa FEF75BBE 		b	.L743
 6765              	.LVL843:
 6766              	.L398:
 6767              		.loc 1 2941 0
 6768 14ae 2068     		ldr	r0, [r4, #0]
 6769 14b0 0B9A     		ldr	r2, [sp, #44]
 6770              		.loc 1 2940 0
 6771 14b2 251D     		adds	r5, r4, #4
 6772              	.LVL844:
 6773              		.loc 1 2941 0
 6774 14b4 1118     		adds	r1, r2, r0
 6775 14b6 0B91     		str	r1, [sp, #44]
 6776              		.loc 1 2942 0
 6777 14b8 FEF754BE 		b	.L743
 6778              	.LVL845:
 6779              	.L397:
 6780              		.loc 1 2937 0
 6781 14bc 0B9B     		ldr	r3, [sp, #44]
 6782              		.loc 1 2237 0
 6783 14be 2546     		mov	r5, r4
 6784              		.loc 1 2937 0
 6785 14c0 CAEB0304 		rsb	r4, sl, r3
 6786              	.LVL846:
 6787 14c4 0B94     		str	r4, [sp, #44]
 6788              		.loc 1 2938 0
 6789 14c6 FEF74DBE 		b	.L743
 6790              	.LVL847:
 6791              	.L396:
 6792              		.loc 1 2916 0
 6793 14ca BAF1000F 		cmp	sl, #0
 6794 14ce 00F0EE81 		beq	.L820
 6795              	.LVL848:
 6796              		.loc 1 2921 0
 6797 14d2 0B98     		ldr	r0, [sp, #44]
 6798 14d4 90FBFAF2 		sdiv	r2, r0, sl
 6799              	.LVL849:
 6800              		.loc 1 2922 0
 6801 14d8 92FBFAF5 		sdiv	r5, r2, sl
 6802              	.LVL850:
ARM GAS  /tmp/ccvHIMcj.s 			page 121


 6803 14dc 0AFB1523 		mls	r3, sl, r5, r2
 6804              	.LVL851:
 6805              		.loc 1 2921 0
 6806 14e0 0B92     		str	r2, [sp, #44]
 6807              		.loc 1 2931 0
 6808 14e2 002B     		cmp	r3, #0
 6809 14e4 00F09281 		beq	.L613
 6810              		.loc 1 2931 0 is_stmt 0 discriminator 1
 6811 14e8 93EA0A0F 		teq	r3, sl
 6812 14ec 00F1B581 		bmi	.L821
 6813              		.loc 1 2237 0 is_stmt 1
 6814 14f0 2546     		mov	r5, r4
