ARM GAS  /tmp/ccvHIMcj.s 			page 1


   1              		.syntax unified
   2              		.cpu cortex-m3
   3              		.fpu softvfp
   4              		.eabi_attribute 20, 1
   5              		.eabi_attribute 21, 1
   6              		.eabi_attribute 23, 3
   7              		.eabi_attribute 24, 1
   8              		.eabi_attribute 25, 1
   9              		.eabi_attribute 26, 1
  10              		.eabi_attribute 30, 2
  11              		.eabi_attribute 18, 4
  12              		.thumb
  13              		.file	"amx.c"
  14              		.section	.debug_abbrev,"",%progbits
  15              	.Ldebug_abbrev0:
  16              		.section	.debug_info,"",%progbits
  17              	.Ldebug_info0:
  18              		.section	.debug_line,"",%progbits
  19              	.Ldebug_line0:
  20 0000 AF140000 		.text
  20      02000A01 
  20      00000201 
  20      FB0E0D00 
  20      01010101 
  21              	.Ltext0:
  22              		.cfi_sections	.debug_frame
  23              		.section	.text.amx_Callback,"ax",%progbits
  24              		.align	2
  25              		.p2align 4,,15
  26              		.global	amx_Callback
  27              		.thumb
  28              		.thumb_func
  29              		.type	amx_Callback, %function
  30              	amx_Callback:
  31              	.LFB4:
  32              		.file 1 "pawn/amx.c"
  33              		.loc 1 522 0
  34              		.cfi_startproc
  35              		@ args = 0, pretend = 0, frame = 0
  36              		@ frame_needed = 0, uses_anonymous_args = 0
  37              	.LVL0:
  38 0000 F8B5     		push	{r3, r4, r5, r6, r7, lr}
  39              	.LCFI0:
  40              		.cfi_def_cfa_offset 24
  41              		.loc 1 536 0
  42 0002 0029     		cmp	r1, #0
  43              		.loc 1 522 0
  44 0004 1546     		mov	r5, r2
  45              		.cfi_offset 14, -4
  46              		.cfi_offset 7, -8
  47              		.cfi_offset 6, -12
  48              		.cfi_offset 5, -16
  49              		.cfi_offset 4, -20
  50              		.cfi_offset 3, -24
  51 0006 0446     		mov	r4, r0
  52              		.loc 1 531 0
  53 0008 0268     		ldr	r2, [r0, #0]	@ unaligned
ARM GAS  /tmp/ccvHIMcj.s 			page 2


  54              	.LVL1:
  55              		.loc 1 536 0
  56 000a 24DB     		blt	.L7
  57              		.loc 1 542 0
  58 000c B2F90A60 		ldrsh	r6, [r2, #10]	@ unaligned
  59 0010 D2F824C0 		ldr	ip, [r2, #36]	@ unaligned
  60              		.loc 1 543 0
  61 0014 06FB0122 		mla	r2, r6, r1, r2
  62              	.LVL2:
  63 0018 52F80C20 		ldr	r2, [r2, ip]	@ unaligned
  64              	.LVL3:
  65              	.L3:
  66              		.loc 1 556 0
  67 001c E16E     		ldr	r1, [r4, #108]	@ unaligned
  68 001e 59B1     		cbz	r1, .L4
  69              	.LBB25:
  70              		.loc 1 560 0
  71 0020 A069     		ldr	r0, [r4, #24]	@ unaligned
  72 0022 6768     		ldr	r7, [r4, #4]	@ unaligned
  73              		.loc 1 561 0
  74 0024 266B     		ldr	r6, [r4, #48]	@ unaligned
  75              		.loc 1 560 0
  76 0026 0438     		subs	r0, r0, #4
  77 0028 3818     		adds	r0, r7, r0
  78              	.LVL4:
  79              		.loc 1 561 0
  80 002a 16F4006F 		tst	r6, #2048
  81              		.loc 1 562 0
  82 002e 18BF     		it	ne
  83 0030 0438     		subne	r0, r0, #4
  84              	.LVL5:
  85              		.loc 1 571 0
  86 0032 40F8041C 		str	r1, [r0, #-4]
  87              		.loc 1 572 0
  88 0036 0260     		str	r2, [r0, #0]
  89              	.LVL6:
  90              	.L4:
  91              	.LBE25:
  92              		.loc 1 581 0
  93 0038 0021     		movs	r1, #0
  94 003a 84F85410 		strb	r1, [r4, #84]
  95 003e 84F85510 		strb	r1, [r4, #85]
  96 0042 84F85610 		strb	r1, [r4, #86]
  97 0046 84F85710 		strb	r1, [r4, #87]
  98              		.loc 1 582 0
  99 004a 2046     		mov	r0, r4
 100 004c 1946     		mov	r1, r3
 101 004e 9047     		blx	r2
 102              	.LVL7:
 103 0050 2860     		str	r0, [r5, #0]
 104              		.loc 1 584 0
 105 0052 606D     		ldr	r0, [r4, #84]	@ unaligned
 106 0054 F8BD     		pop	{r3, r4, r5, r6, r7, pc}
 107              	.LVL8:
 108              	.L7:
 109              		.loc 1 538 0
 110 0056 0248     		ldr	r0, .L8
ARM GAS  /tmp/ccvHIMcj.s 			page 3


 111 0058 C943     		mvns	r1, r1
 112              	.LVL9:
 113 005a 50F82120 		ldr	r2, [r0, r1, lsl #2]
 114              	.LVL10:
 115 005e DDE7     		b	.L3
 116              	.L9:
 117              		.align	2
 118              	.L8:
 119 0060 00000000 		.word	g_nativetable
 120              		.cfi_endproc
 121              	.LFE4:
 122              		.size	amx_Callback, .-amx_Callback
 123 0064 AFF30080 		.section	.text.VerifyPcode,"ax",%progbits
 123      AFF30080 
 123      AFF30080 
 124              		.align	2
 125              		.p2align 4,,15
 126              		.thumb
 127              		.thumb_func
 128              		.type	VerifyPcode, %function
 129              	VerifyPcode:
 130              	.LFB5:
 131              		.loc 1 616 0
 132              		.cfi_startproc
 133              		@ args = 0, pretend = 0, frame = 8
 134              		@ frame_needed = 0, uses_anonymous_args = 0
 135              		@ link register save eliminated.
 136              	.LVL11:
 137 0000 2DE9F00F 		push	{r4, r5, r6, r7, r8, r9, sl, fp}
 138              	.LCFI1:
 139              		.cfi_def_cfa_offset 32
 140              		.loc 1 632 0
 141 0004 D0F830C0 		ldr	ip, [r0, #48]	@ unaligned
 142              		.loc 1 629 0
 143 0008 0368     		ldr	r3, [r0, #0]	@ unaligned
 144              	.LVL12:
 145              		.loc 1 632 0
 146 000a 4CF4804C 		orr	ip, ip, #16384
 147 000e C0F830C0 		str	ip, [r0, #48]	@ unaligned
 148              		.loc 1 677 0
 149 0012 D0F86CB0 		ldr	fp, [r0, #108]	@ unaligned
 150              		.cfi_offset 11, -4
 151              		.cfi_offset 10, -8
 152              		.cfi_offset 9, -12
 153              		.cfi_offset 8, -16
 154              		.cfi_offset 7, -20
 155              		.cfi_offset 6, -24
 156              		.cfi_offset 5, -28
 157              		.cfi_offset 4, -32
 158              		.loc 1 633 0
 159 0016 5A69     		ldr	r2, [r3, #20]	@ unaligned
 160 0018 D3F81090 		ldr	r9, [r3, #16]	@ unaligned
 161              		.loc 1 634 0
 162 001c 9E69     		ldr	r6, [r3, #24]	@ unaligned
 163              		.loc 1 677 0
 164 001e BBF14B0F 		cmp	fp, #75
 165              		.loc 1 616 0
ARM GAS  /tmp/ccvHIMcj.s 			page 4


 166 0022 82B0     		sub	sp, sp, #8
 167              	.LCFI2:
 168              		.cfi_def_cfa_offset 40
 169              		.loc 1 633 0
 170 0024 C9EB0209 		rsb	r9, r9, r2
 171              	.LVL13:
 172              		.loc 1 634 0
 173 0028 C2EB0606 		rsb	r6, r2, r6
 174              	.LVL14:
 175              		.loc 1 677 0
 176 002c 00F04882 		beq	.L64
 177              		.loc 1 670 0
 178 0030 BBF14C0F 		cmp	fp, #76
 179 0034 0CBF     		ite	eq
 180 0036 4FF0020B 		moveq	fp, #2
 181 003a 4FF0000B 		movne	fp, #0
 182              	.L11:
 183              	.LVL15:
 184              		.loc 1 682 0
 185 003e 0024     		movs	r4, #0
 186 0040 426F     		ldr	r2, [r0, #116]	@ unaligned
 187 0042 80F86C40 		strb	r4, [r0, #108]
 188 0046 80F86D40 		strb	r4, [r0, #109]
 189 004a 80F86E40 		strb	r4, [r0, #110]
 190 004e 80F86F40 		strb	r4, [r0, #111]
 191              	.LVL16:
 192              		.loc 1 908 0
 193 0052 C6F10008 		rsb	r8, r6, #0
 194              	.LVL17:
 195              	.L78:
 196              		.loc 1 686 0 discriminator 1
 197 0056 9442     		cmp	r4, r2
 198 0058 80F28A81 		bge	.L97
 199              	.L63:
 200              		.loc 1 687 0
 201 005c 4368     		ldr	r3, [r0, #4]	@ unaligned
 202 005e 2146     		mov	r1, r4
 203 0060 1F59     		ldr	r7, [r3, r4]
 204              	.LVL18:
 205              		.loc 1 688 0
 206 0062 BDB2     		uxth	r5, r7
 207 0064 AE2D     		cmp	r5, #174
 208 0066 00F39E81 		bgt	.L15
 209              	.LVL19:
 210              		.loc 1 709 0
 211 006a 0434     		adds	r4, r4, #4
 212              	.LVL20:
 213              		.loc 1 710 0
 214 006c AE2D     		cmp	r5, #174
 215 006e 00F29A81 		bhi	.L15
 216 0072 0FF2080A 		adr	sl, .L36
 217 0076 5AF825F0 		ldr	pc, [sl, r5, lsl #2]
 218 007a 00BF     		.align	2
 219              	.L36:
 220 007c 57000000 		.word	.L78+1
 221 0080 51040000 		.word	.L17+1
 222 0084 51040000 		.word	.L17+1
ARM GAS  /tmp/ccvHIMcj.s 			page 5


 223 0088 43040000 		.word	.L18+1
 224 008c 43040000 		.word	.L18+1
 225 0090 43040000 		.word	.L18+1
 226 0094 43040000 		.word	.L18+1
 227 0098 57000000 		.word	.L78+1
 228 009c 69030000 		.word	.L87+1
 229 00a0 69030000 		.word	.L87+1
 230 00a4 69030000 		.word	.L87+1
 231 00a8 69030000 		.word	.L87+1
 232 00ac 69030000 		.word	.L87+1
 233 00b0 51040000 		.word	.L17+1
 234 00b4 43040000 		.word	.L18+1
 235 00b8 43040000 		.word	.L18+1
 236 00bc 57000000 		.word	.L78+1
 237 00c0 69030000 		.word	.L87+1
 238 00c4 69030000 		.word	.L87+1
 239 00c8 69030000 		.word	.L87+1
 240 00cc 69030000 		.word	.L87+1
 241 00d0 57000000 		.word	.L78+1
 242 00d4 57000000 		.word	.L78+1
 243 00d8 57000000 		.word	.L78+1
 244 00dc 57000000 		.word	.L78+1
 245 00e0 57000000 		.word	.L78+1
 246 00e4 57000000 		.word	.L78+1
 247 00e8 69030000 		.word	.L87+1
 248 00ec 69030000 		.word	.L87+1
 249 00f0 69030000 		.word	.L87+1
 250 00f4 57000000 		.word	.L78+1
 251 00f8 57000000 		.word	.L78+1
 252 00fc 57000000 		.word	.L78+1
 253 0100 33040000 		.word	.L20+1
 254 0104 33040000 		.word	.L20+1
 255 0108 33040000 		.word	.L20+1
 256 010c 33040000 		.word	.L20+1
 257 0110 57000000 		.word	.L78+1
 258 0114 57000000 		.word	.L78+1
 259 0118 57000000 		.word	.L78+1
 260 011c 69030000 		.word	.L87+1
 261 0120 69030000 		.word	.L87+1
 262 0124 57000000 		.word	.L78+1
 263 0128 57000000 		.word	.L78+1
 264 012c 57000000 		.word	.L78+1
 265 0130 57000000 		.word	.L78+1
 266 0134 57000000 		.word	.L78+1
 267 0138 57000000 		.word	.L78+1
 268 013c 57000000 		.word	.L78+1
 269 0140 57000000 		.word	.L78+1
 270 0144 57000000 		.word	.L78+1
 271 0148 57000000 		.word	.L78+1
 272 014c 57000000 		.word	.L78+1
 273 0150 57000000 		.word	.L78+1
 274 0154 57000000 		.word	.L78+1
 275 0158 57000000 		.word	.L78+1
 276 015c 57000000 		.word	.L78+1
 277 0160 57000000 		.word	.L78+1
 278 0164 57000000 		.word	.L78+1
 279 0168 57000000 		.word	.L78+1
ARM GAS  /tmp/ccvHIMcj.s 			page 6


 280 016c 57000000 		.word	.L78+1
 281 0170 57000000 		.word	.L78+1
 282 0174 57000000 		.word	.L78+1
 283 0178 57000000 		.word	.L78+1
 284 017c 69030000 		.word	.L87+1
 285 0180 69030000 		.word	.L87+1
 286 0184 69030000 		.word	.L87+1
 287 0188 69030000 		.word	.L87+1
 288 018c 69030000 		.word	.L87+1
 289 0190 2B040000 		.word	.L21+1
 290 0194 33040000 		.word	.L20+1
 291 0198 57000000 		.word	.L78+1
 292 019c 57000000 		.word	.L78+1
 293 01a0 57000000 		.word	.L78+1
 294 01a4 EB030000 		.word	.L22+1
 295 01a8 A7030000 		.word	.L15+1
 296 01ac A7030000 		.word	.L15+1
 297 01b0 99030000 		.word	.L23+1
 298 01b4 9B030000 		.word	.L24+1
 299 01b8 8D030000 		.word	.L25+1
 300 01bc DB030000 		.word	.L26+1
 301 01c0 57000000 		.word	.L78+1
 302 01c4 69030000 		.word	.L87+1
 303 01c8 57000000 		.word	.L78+1
 304 01cc 69030000 		.word	.L87+1
 305 01d0 69030000 		.word	.L87+1
 306 01d4 51040000 		.word	.L17+1
 307 01d8 43040000 		.word	.L18+1
 308 01dc 69030000 		.word	.L87+1
 309 01e0 69030000 		.word	.L87+1
 310 01e4 43040000 		.word	.L18+1
 311 01e8 69030000 		.word	.L87+1
 312 01ec 33040000 		.word	.L20+1
 313 01f0 33040000 		.word	.L20+1
 314 01f4 33040000 		.word	.L20+1
 315 01f8 33040000 		.word	.L20+1
 316 01fc 33040000 		.word	.L20+1
 317 0200 33040000 		.word	.L20+1
 318 0204 57000000 		.word	.L78+1
 319 0208 57000000 		.word	.L78+1
 320 020c 69030000 		.word	.L87+1
 321 0210 69030000 		.word	.L87+1
 322 0214 57000000 		.word	.L78+1
 323 0218 57000000 		.word	.L78+1
 324 021c 69030000 		.word	.L87+1
 325 0220 69030000 		.word	.L87+1
 326 0224 69030000 		.word	.L87+1
 327 0228 69030000 		.word	.L87+1
 328 022c 51040000 		.word	.L17+1
 329 0230 43040000 		.word	.L18+1
 330 0234 51040000 		.word	.L17+1
 331 0238 43040000 		.word	.L18+1
 332 023c A9040000 		.word	.L27+1
 333 0240 9F040000 		.word	.L28+1
 334 0244 9F040000 		.word	.L28+1
 335 0248 9F040000 		.word	.L28+1
 336 024c 9F040000 		.word	.L28+1
ARM GAS  /tmp/ccvHIMcj.s 			page 7


 337 0250 9F040000 		.word	.L28+1
 338 0254 9F040000 		.word	.L28+1
 339 0258 9F040000 		.word	.L28+1
 340 025c 81040000 		.word	.L29+1
 341 0260 67040000 		.word	.L30+1
 342 0264 B9040000 		.word	.L31+1
 343 0268 B1040000 		.word	.L32+1
 344 026c CF030000 		.word	.L33+1
 345 0270 CF030000 		.word	.L33+1
 346 0274 B9030000 		.word	.L34+1
 347 0278 B9030000 		.word	.L34+1
 348 027c B9030000 		.word	.L34+1
 349 0280 B9030000 		.word	.L34+1
 350 0284 57000000 		.word	.L78+1
 351 0288 57000000 		.word	.L78+1
 352 028c 57000000 		.word	.L78+1
 353 0290 57000000 		.word	.L78+1
 354 0294 57000000 		.word	.L78+1
 355 0298 CF030000 		.word	.L33+1
 356 029c B9030000 		.word	.L34+1
 357 02a0 B9030000 		.word	.L34+1
 358 02a4 57000000 		.word	.L78+1
 359 02a8 57000000 		.word	.L78+1
 360 02ac 57000000 		.word	.L78+1
 361 02b0 57000000 		.word	.L78+1
 362 02b4 57000000 		.word	.L78+1
 363 02b8 57000000 		.word	.L78+1
 364 02bc 57000000 		.word	.L78+1
 365 02c0 57000000 		.word	.L78+1
 366 02c4 57000000 		.word	.L78+1
 367 02c8 57000000 		.word	.L78+1
 368 02cc 57000000 		.word	.L78+1
 369 02d0 5F040000 		.word	.L35+1
 370 02d4 5F040000 		.word	.L35+1
 371 02d8 5F040000 		.word	.L35+1
 372 02dc 5F040000 		.word	.L35+1
 373 02e0 5F040000 		.word	.L35+1
 374 02e4 5F040000 		.word	.L35+1
 375 02e8 5F040000 		.word	.L35+1
 376 02ec 57000000 		.word	.L78+1
 377 02f0 57000000 		.word	.L78+1
 378 02f4 57000000 		.word	.L78+1
 379 02f8 57000000 		.word	.L78+1
 380 02fc 57000000 		.word	.L78+1
 381 0300 57000000 		.word	.L78+1
 382 0304 57000000 		.word	.L78+1
 383 0308 57000000 		.word	.L78+1
 384 030c 57000000 		.word	.L78+1
 385 0310 57000000 		.word	.L78+1
 386 0314 CF030000 		.word	.L33+1
 387 0318 B9030000 		.word	.L34+1
 388 031c CF030000 		.word	.L33+1
 389 0320 B9030000 		.word	.L34+1
 390 0324 57000000 		.word	.L78+1
 391 0328 57000000 		.word	.L78+1
 392 032c 57000000 		.word	.L78+1
 393 0330 57000000 		.word	.L78+1
ARM GAS  /tmp/ccvHIMcj.s 			page 8


 394 0334 57000000 		.word	.L78+1
 395              	.LVL21:
 396              	.L62:
 397              	.LBB26:
 398              		.loc 1 1039 0
 399 0338 1F59     		ldr	r7, [r3, r4]
 400 033a E719     		adds	r7, r4, r7
 401              	.LVL22:
 402              		.loc 1 1040 0
 403 033c 043F     		subs	r7, r7, #4
 404              	.LVL23:
 405 033e 01F10804 		add	r4, r1, #8
 406              	.LVL24:
 407 0342 3FD4     		bmi	.L59
 408              		.loc 1 1040 0 is_stmt 0 discriminator 1
 409 0344 9742     		cmp	r7, r2
 410 0346 3DDC     		bgt	.L59
 411              	.LVL25:
 412              		.loc 1 1039 0 is_stmt 1
 413 0348 5F58     		ldr	r7, [r3, r1]
 414 034a C919     		adds	r1, r1, r7
 415              		.loc 1 1040 0
 416 034c 0439     		subs	r1, r1, #4
 417 034e 39D4     		bmi	.L59
 418 0350 9142     		cmp	r1, r2
 419 0352 37DC     		bgt	.L59
 420              	.LVL26:
 421              	.L61:
 422              		.loc 1 1037 0
 423 0354 0135     		adds	r5, r5, #1
 424 0356 AA45     		cmp	sl, r5
 425              		.loc 1 1040 0
 426 0358 04F10801 		add	r1, r4, #8
 427              		.loc 1 1037 0
 428 035c 05F10105 		add	r5, r5, #1
 429 0360 EADA     		bge	.L62
 430              	.L58:
 431              		.loc 1 1049 0
 432 0362 019B     		ldr	r3, [sp, #4]
 433 0364 03EBCA04 		add	r4, r3, sl, lsl #3
 434              	.LVL27:
 435              	.L87:
 436 0368 0434     		adds	r4, r4, #4
 437              	.LVL28:
 438              	.L98:
 439              	.LBE26:
 440              		.loc 1 686 0
 441 036a 9442     		cmp	r4, r2
 442 036c FFF676AE 		blt	.L63
 443              	.L97:
 444              		.loc 1 1085 0
 445 0370 2CF4804C 		bic	ip, ip, #16384
 446              		.loc 1 1086 0
 447 0374 4CF40041 		orr	r1, ip, #32768
 448              		.loc 1 1087 0
 449 0378 1BF0020B 		ands	fp, fp, #2
 450              	.LVL29:
ARM GAS  /tmp/ccvHIMcj.s 			page 9


 451              		.loc 1 1086 0
 452 037c 0163     		str	r1, [r0, #48]	@ unaligned
 453              		.loc 1 1087 0
 454 037e 00F0A280 		beq	.L68
 455              		.loc 1 1088 0
 456 0382 4CF40842 		orr	r2, ip, #34816
 457 0386 0263     		str	r2, [r0, #48]	@ unaligned
 458              		.loc 1 1090 0
 459 0388 0020     		movs	r0, #0
 460              	.LVL30:
 461 038a 11E0     		b	.L14
 462              	.LVL31:
 463              	.L25:
 464              		.loc 1 994 0
 465 038c 1959     		ldr	r1, [r3, r4]
 466 038e 6318     		adds	r3, r4, r1
 467              	.LVL32:
 468              		.loc 1 995 0
 469 0390 043B     		subs	r3, r3, #4
 470              	.LVL33:
 471 0392 17D4     		bmi	.L59
 472              		.loc 1 995 0 is_stmt 0 discriminator 1
 473 0394 9342     		cmp	r3, r2
 474 0396 15DC     		bgt	.L59
 475              	.LVL34:
 476              	.L23:
 477              		.loc 1 1001 0 is_stmt 1
 478 0398 0434     		adds	r4, r4, #4
 479              	.LVL35:
 480              	.L24:
 481              		.loc 1 1009 0
 482 039a 4369     		ldr	r3, [r0, #20]	@ unaligned
 483 039c 002B     		cmp	r3, #0
 484 039e 7FF45AAE 		bne	.L78
 485              	.LVL36:
 486              	.L67:
 487              	.LBB27:
 488              		.loc 1 1017 0
 489 03a2 1C20     		movs	r0, #28
 490              	.LVL37:
 491 03a4 04E0     		b	.L14
 492              	.LVL38:
 493              	.L15:
 494              	.LBE27:
 495              		.loc 1 1054 0
 496 03a6 2CF4804C 		bic	ip, ip, #16384
 497 03aa C0F830C0 		str	ip, [r0, #48]	@ unaligned
 498              		.loc 1 1055 0
 499 03ae 0620     		movs	r0, #6
 500              	.LVL39:
 501              	.L14:
 502              		.loc 1 1091 0
 503 03b0 02B0     		add	sp, sp, #8
 504 03b2 BDE8F00F 		pop	{r4, r5, r6, r7, r8, r9, sl, fp}
 505 03b6 7047     		bx	lr
 506              	.LVL40:
 507              	.L34:
ARM GAS  /tmp/ccvHIMcj.s 			page 10


 508              		.loc 1 824 0
 509 03b8 3F14     		asrs	r7, r7, #16
 510              	.LVL41:
 511              		.loc 1 825 0
 512 03ba 4745     		cmp	r7, r8
 513 03bc 02DB     		blt	.L59
 514              		.loc 1 825 0 is_stmt 0 discriminator 1
 515 03be BE42     		cmp	r6, r7
 516 03c0 BFF649AE 		bge	.L78
 517              	.LVL42:
 518              	.L59:
 519              	.LBB28:
 520              		.loc 1 1041 0 is_stmt 1
 521 03c4 2CF48042 		bic	r2, ip, #16384
 522 03c8 0263     		str	r2, [r0, #48]	@ unaligned
 523              		.loc 1 1042 0
 524 03ca 0420     		movs	r0, #4
 525              	.LVL43:
 526 03cc F0E7     		b	.L14
 527              	.LVL44:
 528              	.L33:
 529              	.LBE28:
 530              		.loc 1 810 0
 531 03ce 3F14     		asrs	r7, r7, #16
 532              	.LVL45:
 533 03d0 F8D4     		bmi	.L59
 534              		.loc 1 810 0 is_stmt 0 discriminator 1
 535 03d2 B945     		cmp	r9, r7
 536 03d4 3FF73FAE 		bgt	.L78
 537 03d8 F4E7     		b	.L59
 538              	.LVL46:
 539              	.L26:
 540              	.LBB29:
 541              		.loc 1 1016 0 is_stmt 1
 542 03da 4169     		ldr	r1, [r0, #20]	@ unaligned
 543              	.LVL47:
 544              		.loc 1 1014 0
 545 03dc 1B59     		ldr	r3, [r3, r4]
 546              	.LVL48:
 547              		.loc 1 1016 0
 548 03de 0029     		cmp	r1, #0
 549 03e0 DFD0     		beq	.L67
 550              		.loc 1 1015 0
 551 03e2 04EBC304 		add	r4, r4, r3, lsl #3
 552              	.LVL49:
 553 03e6 0834     		adds	r4, r4, #8
 554 03e8 35E6     		b	.L78
 555              	.LVL50:
 556              	.L22:
 557              	.LBE29:
 558              	.LBB30:
 559              		.loc 1 1036 0
 560 03ea 53F804A0 		ldr	sl, [r3, r4]
 561              	.LVL51:
 562 03ee 0434     		adds	r4, r4, #4
 563              	.LVL52:
 564              		.loc 1 1037 0
ARM GAS  /tmp/ccvHIMcj.s 			page 11


 565 03f0 BAF1000F 		cmp	sl, #0
 566              		.loc 1 1036 0
 567 03f4 0194     		str	r4, [sp, #4]
 568              	.LVL53:
 569              		.loc 1 1037 0
 570 03f6 B4DB     		blt	.L58
 571              	.LVL54:
 572              		.loc 1 1039 0
 573 03f8 1C59     		ldr	r4, [r3, r4]
 574              	.LVL55:
 575 03fa 019D     		ldr	r5, [sp, #4]
 576              	.LVL56:
 577 03fc 2C19     		adds	r4, r5, r4
 578              	.LVL57:
 579              		.loc 1 1040 0
 580 03fe 043C     		subs	r4, r4, #4
 581              	.LVL58:
 582 0400 E0D4     		bmi	.L59
 583 0402 9442     		cmp	r4, r2
 584 0404 DEDC     		bgt	.L59
 585              		.loc 1 1037 0
 586 0406 0025     		movs	r5, #0
 587              	.LVL59:
 588 0408 1AF0010F 		tst	sl, #1
 589              		.loc 1 1042 0
 590 040c 01F11004 		add	r4, r1, #16
 591              	.LVL60:
 592 0410 A0D0     		beq	.L61
 593              		.loc 1 1037 0
 594 0412 0125     		movs	r5, #1
 595              	.LVL61:
 596 0414 AA45     		cmp	sl, r5
 597 0416 A4DB     		blt	.L58
 598              	.LVL62:
 599              		.loc 1 1039 0
 600 0418 1F59     		ldr	r7, [r3, r4]
 601              	.LVL63:
 602 041a E419     		adds	r4, r4, r7
 603              	.LVL64:
 604              		.loc 1 1040 0
 605 041c 271F     		subs	r7, r4, #4
 606 041e D1D4     		bmi	.L59
 607 0420 9742     		cmp	r7, r2
 608 0422 01F11804 		add	r4, r1, #24
 609 0426 95DD     		ble	.L61
 610 0428 CCE7     		b	.L59
 611              	.LVL65:
 612              	.L21:
 613              	.LBE30:
 614              		.loc 1 1023 0
 615 042a 0434     		adds	r4, r4, #4
 616              	.LVL66:
 617              		.loc 1 1024 0
 618 042c 4BF0010B 		orr	fp, fp, #1
 619              	.LVL67:
 620              		.loc 1 1025 0
 621 0430 11E6     		b	.L78
ARM GAS  /tmp/ccvHIMcj.s 			page 12


 622              	.L20:
 623              		.loc 1 978 0
 624 0432 1959     		ldr	r1, [r3, r4]
 625              	.LVL68:
 626 0434 6318     		adds	r3, r4, r1
 627              	.LVL69:
 628              		.loc 1 979 0
 629 0436 043B     		subs	r3, r3, #4
 630              	.LVL70:
 631 0438 C4D4     		bmi	.L59
 632              		.loc 1 979 0 is_stmt 0 discriminator 1
 633 043a 9342     		cmp	r3, r2
 634 043c C2DC     		bgt	.L59
 635              	.LBB31:
 636              		.loc 1 1049 0 is_stmt 1
 637 043e 0434     		adds	r4, r4, #4
 638              	.LVL71:
 639 0440 93E7     		b	.L98
 640              	.LVL72:
 641              	.L18:
 642              	.LBE31:
 643              		.loc 1 907 0
 644 0442 1B59     		ldr	r3, [r3, r4]
 645              	.LVL73:
 646              		.loc 1 908 0
 647 0444 4345     		cmp	r3, r8
 648 0446 BDDB     		blt	.L59
 649              		.loc 1 908 0 is_stmt 0 discriminator 1
 650 0448 9E42     		cmp	r6, r3
 651 044a BBDB     		blt	.L59
 652              	.LBB32:
 653              		.loc 1 1049 0 is_stmt 1
 654 044c 0434     		adds	r4, r4, #4
 655              	.LVL74:
 656 044e 8CE7     		b	.L98
 657              	.LVL75:
 658              	.L17:
 659              	.LBE32:
 660              		.loc 1 887 0
 661 0450 1B59     		ldr	r3, [r3, r4]
 662              	.LVL76:
 663              		.loc 1 888 0
 664 0452 002B     		cmp	r3, #0
 665 0454 B6DB     		blt	.L59
 666              		.loc 1 888 0 is_stmt 0 discriminator 1
 667 0456 9945     		cmp	r9, r3
 668 0458 B4DD     		ble	.L59
 669              	.LBB33:
 670              		.loc 1 1049 0 is_stmt 1
 671 045a 0434     		adds	r4, r4, #4
 672              	.LVL77:
 673 045c 85E7     		b	.L98
 674              	.LVL78:
 675              	.L35:
 676              	.LBE33:
 677              		.loc 1 838 0
 678 045e 3F14     		asrs	r7, r7, #16
ARM GAS  /tmp/ccvHIMcj.s 			page 13


 679              	.LVL79:
 680              		.loc 1 839 0
 681 0460 04EB8704 		add	r4, r4, r7, lsl #2
 682              	.LVL80:
 683              		.loc 1 840 0
 684 0464 F7E5     		b	.L78
 685              	.LVL81:
 686              	.L30:
 687              		.loc 1 738 0
 688 0466 1959     		ldr	r1, [r3, r4]
 689              	.LVL82:
 690              		.loc 1 739 0
 691 0468 4145     		cmp	r1, r8
 692 046a ABDB     		blt	.L59
 693              		.loc 1 739 0 is_stmt 0 discriminator 1
 694 046c 8E42     		cmp	r6, r1
 695 046e A9DB     		blt	.L59
 696              		.loc 1 743 0 is_stmt 1
 697 0470 1919     		adds	r1, r3, r4
 698 0472 4B68     		ldr	r3, [r1, #4]
 699              	.LVL83:
 700              		.loc 1 744 0
 701 0474 9845     		cmp	r8, r3
 702 0476 A5DC     		bgt	.L59
 703              	.LVL84:
 704              	.L91:
 705              		.loc 1 762 0 discriminator 1
 706 0478 9E42     		cmp	r6, r3
 707 047a A3DB     		blt	.L59
 708              	.LBB34:
 709              		.loc 1 1015 0
 710 047c 0834     		adds	r4, r4, #8
 711              	.LVL85:
 712 047e EAE5     		b	.L78
 713              	.LVL86:
 714              	.L29:
 715              	.LBE34:
 716              		.loc 1 724 0
 717 0480 1959     		ldr	r1, [r3, r4]
 718              	.LVL87:
 719              		.loc 1 725 0
 720 0482 0029     		cmp	r1, #0
 721 0484 9EDB     		blt	.L59
 722              		.loc 1 725 0 is_stmt 0 discriminator 1
 723 0486 8945     		cmp	r9, r1
 724 0488 9CDD     		ble	.L59
 725              		.loc 1 729 0 is_stmt 1
 726 048a 03EB040A 		add	sl, r3, r4
 727 048e DAF80430 		ldr	r3, [sl, #4]
 728              	.LVL88:
 729              		.loc 1 730 0
 730 0492 002B     		cmp	r3, #0
 731 0494 96DB     		blt	.L59
 732              	.LVL89:
 733              	.L89:
 734              		.loc 1 753 0 discriminator 1
 735 0496 9945     		cmp	r9, r3
ARM GAS  /tmp/ccvHIMcj.s 			page 14


 736 0498 94DD     		ble	.L59
 737              	.LBB35:
 738              		.loc 1 1015 0
 739 049a 0834     		adds	r4, r4, #8
 740              	.LVL90:
 741 049c DBE5     		b	.L78
 742              	.LVL91:
 743              	.L28:
 744              	.LBE35:
 745              		.loc 1 720 0
 746 049e 1B59     		ldr	r3, [r3, r4]
 747              	.LVL92:
 748 04a0 591C     		adds	r1, r3, #1
 749 04a2 04EB8104 		add	r4, r4, r1, lsl #2
 750              	.LVL93:
 751              		.loc 1 721 0
 752 04a6 D6E5     		b	.L78
 753              	.LVL94:
 754              	.L27:
 755              		.loc 1 1028 0
 756 04a8 0834     		adds	r4, r4, #8
 757              	.LVL95:
 758              		.loc 1 1029 0
 759 04aa 4BF0020B 		orr	fp, fp, #2
 760              	.LVL96:
 761              		.loc 1 1030 0
 762 04ae D2E5     		b	.L78
 763              	.L32:
 764              		.loc 1 761 0
 765 04b0 1B59     		ldr	r3, [r3, r4]
 766              	.LVL97:
 767              		.loc 1 762 0
 768 04b2 4345     		cmp	r3, r8
 769 04b4 E0DA     		bge	.L91
 770 04b6 85E7     		b	.L59
 771              	.LVL98:
 772              	.L31:
 773              		.loc 1 752 0
 774 04b8 1B59     		ldr	r3, [r3, r4]
 775              	.LVL99:
 776              		.loc 1 753 0
 777 04ba 002B     		cmp	r3, #0
 778 04bc EBDA     		bge	.L89
 779 04be 81E7     		b	.L59
 780              	.LVL100:
 781              	.L64:
 782              		.loc 1 678 0
 783 04c0 4FF0010B 		mov	fp, #1
 784 04c4 BBE5     		b	.L11
 785              	.LVL101:
 786              	.L68:
 787              		.loc 1 1090 0
 788 04c6 5846     		mov	r0, fp
 789              	.LVL102:
 790 04c8 72E7     		b	.L14
 791              		.cfi_endproc
 792              	.LFE5:
ARM GAS  /tmp/ccvHIMcj.s 			page 15


 793              		.size	VerifyPcode, .-VerifyPcode
 794 04ca 00BFAFF3 		.section	.text.amx_Swap32,"ax",%progbits
 794      0080
 795              		.align	2
 796              		.p2align 4,,15
 797              		.global	amx_Swap32
 798              		.thumb
 799              		.thumb_func
 800              		.type	amx_Swap32, %function
 801              	amx_Swap32:
 802              	.LFB0:
 803              		.loc 1 426 0
 804              		.cfi_startproc
 805              		@ args = 0, pretend = 0, frame = 0
 806              		@ frame_needed = 0, uses_anonymous_args = 0
 807              		@ link register save eliminated.
 808              	.LVL103:
 809              		.loc 1 432 0
 810 0000 0178     		ldrb	r1, [r0, #0]	@ zero_extendqisi2
 811              	.LVL104:
 812              		.loc 1 436 0
 813 0002 4378     		ldrb	r3, [r0, #1]	@ zero_extendqisi2
 814              	.LVL105:
 815              		.loc 1 437 0
 816 0004 8278     		ldrb	r2, [r0, #2]	@ zero_extendqisi2
 817              		.loc 1 426 0
 818 0006 10B4     		push	{r4}
 819              	.LCFI3:
 820              		.cfi_def_cfa_offset 4
 821              		.loc 1 433 0
 822 0008 C478     		ldrb	r4, [r0, #3]	@ zero_extendqisi2
 823              		.cfi_offset 4, -4
 824              		.loc 1 437 0
 825 000a 4270     		strb	r2, [r0, #1]
 826              		.loc 1 433 0
 827 000c 0470     		strb	r4, [r0, #0]
 828              		.loc 1 434 0
 829 000e C170     		strb	r1, [r0, #3]
 830              		.loc 1 438 0
 831 0010 8370     		strb	r3, [r0, #2]
 832              		.loc 1 439 0
 833 0012 10BC     		pop	{r4}
 834 0014 7047     		bx	lr
 835              		.cfi_endproc
 836              	.LFE0:
 837              		.size	amx_Swap32, .-amx_Swap32
 838 0016 00BFAFF3 		.section	.text.amx_Align16,"ax",%progbits
 838      0080AFF3 
 838      0080
 839              		.align	2
 840              		.p2align 4,,15
 841              		.global	amx_Align16
 842              		.thumb
 843              		.thumb_func
 844              		.type	amx_Align16, %function
 845              	amx_Align16:
 846              	.LFB1:
ARM GAS  /tmp/ccvHIMcj.s 			page 16


 847              		.loc 1 470 0
 848              		.cfi_startproc
 849              		@ args = 0, pretend = 0, frame = 0
 850              		@ frame_needed = 0, uses_anonymous_args = 0
 851              		@ link register save eliminated.
 852              	.LVL106:
 853              		.loc 1 477 0
 854 0000 7047     		bx	lr
 855              		.cfi_endproc
 856              	.LFE1:
 857              		.size	amx_Align16, .-amx_Align16
 858 0002 00BFAFF3 		.section	.text.amx_Align32,"ax",%progbits
 858      0080AFF3 
 858      0080AFF3 
 858      0080
 859              		.align	2
 860              		.p2align 4,,15
 861              		.global	amx_Align32
 862              		.thumb
 863              		.thumb_func
 864              		.type	amx_Align32, %function
 865              	amx_Align32:
 866              	.LFB2:
 867              		.loc 1 480 0
 868              		.cfi_startproc
 869              		@ args = 0, pretend = 0, frame = 0
 870              		@ frame_needed = 0, uses_anonymous_args = 0
 871              		@ link register save eliminated.
 872              	.LVL107:
 873              		.loc 1 487 0
 874 0000 7047     		bx	lr
 875              		.cfi_endproc
 876              	.LFE2:
 877              		.size	amx_Align32, .-amx_Align32
 878 0002 00BFAFF3 		.section	.text.amx_Flags,"ax",%progbits
 878      0080AFF3 
 878      0080AFF3 
 878      0080
 879              		.align	2
 880              		.p2align 4,,15
 881              		.global	amx_Flags
 882              		.thumb
 883              		.thumb_func
 884              		.type	amx_Flags, %function
 885              	amx_Flags:
 886              	.LFB3:
 887              		.loc 1 504 0
 888              		.cfi_startproc
 889              		@ args = 0, pretend = 0, frame = 0
 890              		@ frame_needed = 0, uses_anonymous_args = 0
 891              		@ link register save eliminated.
 892              	.LVL108:
 893              		.loc 1 507 0
 894 0000 0023     		movs	r3, #0
 895 0002 0B80     		strh	r3, [r1, #0]	@ movhi
 896              		.loc 1 508 0
 897 0004 28B1     		cbz	r0, .L105
ARM GAS  /tmp/ccvHIMcj.s 			page 17


 898              		.loc 1 510 0
 899 0006 0368     		ldr	r3, [r0, #0]	@ unaligned
 900              	.LVL109:
 901              		.loc 1 511 0
 902 0008 4FF2E012 		movw	r2, #61920
 903 000c 9888     		ldrh	r0, [r3, #4]	@ unaligned
 904              	.LVL110:
 905 000e 9042     		cmp	r0, r2
 906 0010 01D0     		beq	.L108
 907              	.LVL111:
 908              	.L105:
 909              		.loc 1 512 0
 910 0012 1120     		movs	r0, #17
 911 0014 7047     		bx	lr
 912              	.LVL112:
 913              	.L108:
 914              		.loc 1 513 0
 915 0016 93F806C0 		ldrb	ip, [r3, #6]	@ zero_extendqisi2
 916 001a BCF10B0F 		cmp	ip, #11
 917 001e 0CD8     		bhi	.L106
 918              		.loc 1 513 0 is_stmt 0 discriminator 1
 919 0020 D879     		ldrb	r0, [r3, #7]	@ zero_extendqisi2
 920 0022 0A28     		cmp	r0, #10
 921 0024 07D9     		bls	.L107
 922              		.loc 1 515 0 is_stmt 1
 923 0026 1A7A     		ldrb	r2, [r3, #8]	@ zero_extendqisi2
 924 0028 93F809C0 		ldrb	ip, [r3, #9]	@ zero_extendqisi2
 925              		.loc 1 516 0
 926 002c 0020     		movs	r0, #0
 927              		.loc 1 515 0
 928 002e 42EA0C23 		orr	r3, r2, ip, lsl #8
 929              	.LVL113:
 930 0032 0B80     		strh	r3, [r1, #0]	@ movhi
 931              		.loc 1 516 0
 932 0034 7047     		bx	lr
 933              	.LVL114:
 934              	.L107:
 935              		.loc 1 514 0
 936 0036 1220     		movs	r0, #18
 937              		.loc 1 517 0
 938 0038 7047     		bx	lr
 939              	.L106:
 940              		.loc 1 514 0
 941 003a 1220     		movs	r0, #18
 942 003c 7047     		bx	lr
 943              		.cfi_endproc
 944              	.LFE3:
 945              		.size	amx_Flags, .-amx_Flags
 946 003e 00BF     		.section	.text.amx_Init,"ax",%progbits
 947              		.align	2
 948              		.p2align 4,,15
 949              		.global	amx_Init
 950              		.thumb
 951              		.thumb_func
 952              		.type	amx_Init, %function
 953              	amx_Init:
 954              	.LFB6:
ARM GAS  /tmp/ccvHIMcj.s 			page 18


 955              		.loc 1 1099 0
 956              		.cfi_startproc
 957              		@ args = 0, pretend = 0, frame = 0
 958              		@ frame_needed = 0, uses_anonymous_args = 0
 959              	.LVL115:
 960 0000 70B5     		push	{r4, r5, r6, lr}
 961              	.LCFI4:
 962              		.cfi_def_cfa_offset 16
 963              		.loc 1 1121 0
 964 0002 036B     		ldr	r3, [r0, #48]	@ unaligned
 965              		.loc 1 1099 0
 966 0004 0546     		mov	r5, r0
 967              		.cfi_offset 14, -4
 968              		.cfi_offset 6, -8
 969              		.cfi_offset 5, -12
 970              		.cfi_offset 4, -16
 971              		.loc 1 1121 0
 972 0006 13F4004F 		tst	r3, #32768
 973              		.loc 1 1099 0
 974 000a 0C46     		mov	r4, r1
 975              		.loc 1 1121 0
 976 000c 58D1     		bne	.L119
 977              	.LVL116:
 978              		.loc 1 1148 0
 979 000e 8988     		ldrh	r1, [r1, #4]	@ unaligned
 980              	.LVL117:
 981 0010 4FF2E012 		movw	r2, #61920
 982 0014 9142     		cmp	r1, r2
 983 0016 01D0     		beq	.L128
 984              	.LVL118:
 985              	.L124:
 986              		.loc 1 1159 0
 987 0018 1120     		movs	r0, #17
 988 001a 70BD     		pop	{r4, r5, r6, pc}
 989              	.L128:
 990              		.loc 1 1150 0
 991 001c A079     		ldrb	r0, [r4, #6]	@ zero_extendqisi2
 992 001e 0B28     		cmp	r0, #11
 993 0020 50D8     		bhi	.L122
 994              		.loc 1 1150 0 is_stmt 0 discriminator 1
 995 0022 94F807C0 		ldrb	ip, [r4, #7]	@ zero_extendqisi2
 996 0026 BCF10A0F 		cmp	ip, #10
 997 002a 4BD9     		bls	.L122
 998              		.loc 1 1152 0 is_stmt 1
 999 002c B4F90A10 		ldrsh	r1, [r4, #10]	@ unaligned
 1000 0030 0829     		cmp	r1, #8
 1001 0032 F1D1     		bne	.L124
 1002              	.LVL119:
 1003              		.loc 1 1156 0
 1004 0034 606B     		ldr	r0, [r4, #52]	@ unaligned
 1005              		.loc 1 1158 0
 1006 0036 225A     		ldrh	r2, [r4, r0]
 1007 0038 1F2A     		cmp	r2, #31
 1008 003a EDD8     		bhi	.L124
 1009              		.loc 1 1160 0
 1010 003c A069     		ldr	r0, [r4, #24]	@ unaligned
 1011 003e 0028     		cmp	r0, #0
ARM GAS  /tmp/ccvHIMcj.s 			page 19


 1012 0040 56DD     		ble	.L125
 1013              		.loc 1 1171 0
 1014 0042 2C60     		str	r4, [r5, #0]	@ unaligned
 1015              		.loc 1 1174 0
 1016 0044 2169     		ldr	r1, [r4, #16]	@ unaligned
 1017 0046 D4F814C0 		ldr	ip, [r4, #20]	@ unaligned
 1018              		.loc 1 1175 0
 1019 004a 401A     		subs	r0, r0, r1
 1020              		.loc 1 1179 0
 1021 004c EE68     		ldr	r6, [r5, #12]	@ unaligned
 1022              		.loc 1 1174 0
 1023 004e C1EB0C02 		rsb	r2, r1, ip
 1024              		.loc 1 1175 0
 1025 0052 0438     		subs	r0, r0, #4
 1026              		.loc 1 1174 0
 1027 0054 6A62     		str	r2, [r5, #36]	@ unaligned
 1028              		.loc 1 1175 0
 1029 0056 E862     		str	r0, [r5, #44]	@ unaligned
 1030              		.loc 1 1176 0
 1031 0058 2A62     		str	r2, [r5, #32]	@ unaligned
 1032              		.loc 1 1177 0
 1033 005a A862     		str	r0, [r5, #40]	@ unaligned
 1034              		.loc 1 1179 0
 1035 005c 002E     		cmp	r6, #0
 1036 005e 49D0     		beq	.L129
 1037              	.L111:
 1038              		.loc 1 1188 0
 1039 0060 6868     		ldr	r0, [r5, #4]	@ unaligned
 1040 0062 0028     		cmp	r0, #0
 1041 0064 4BD0     		beq	.L130
 1042              	.L112:
 1043              		.loc 1 1190 0
 1044 0066 686F     		ldr	r0, [r5, #116]	@ unaligned
 1045 0068 20B9     		cbnz	r0, .L113
 1046              		.loc 1 1191 0
 1047 006a E668     		ldr	r6, [r4, #12]	@ unaligned
 1048 006c C6EB010C 		rsb	ip, r6, r1
 1049 0070 C5F874C0 		str	ip, [r5, #116]	@ unaligned
 1050              	.L113:
 1051              		.loc 1 1198 0
 1052 0074 AE68     		ldr	r6, [r5, #8]	@ unaligned
 1053 0076 002E     		cmp	r6, #0
 1054 0078 3FD0     		beq	.L114
 1055              	.LVL120:
 1056              		.loc 1 1200 0
 1057 007a 13F0200F 		tst	r3, #32
 1058 007e 02D1     		bne	.L115
 1059              		.loc 1 1200 0 is_stmt 0 discriminator 1
 1060 0080 6B69     		ldr	r3, [r5, #20]	@ unaligned
 1061 0082 002B     		cmp	r3, #0
 1062 0084 43D0     		beq	.L131
 1063              	.LVL121:
 1064              	.L115:
 1065              		.loc 1 1209 0 is_stmt 1
 1066 0086 A369     		ldr	r3, [r4, #24]	@ unaligned
 1067 0088 D4F810C0 		ldr	ip, [r4, #16]	@ unaligned
 1068 008c 0022     		movs	r2, #0
ARM GAS  /tmp/ccvHIMcj.s 			page 20


 1069 008e CCEB0300 		rsb	r0, ip, r3
 1070 0092 3618     		adds	r6, r6, r0
 1071              	.LVL122:
 1072 0094 46F8042C 		str	r2, [r6, #-4]
 1073              		.loc 1 1263 0
 1074 0098 2189     		ldrh	r1, [r4, #8]	@ unaligned
 1075 009a 11F0010F 		tst	r1, #1
 1076 009e 22D0     		beq	.L132
 1077              	.LBB36:
 1078              		.loc 1 1267 0
 1079 00a0 6B69     		ldr	r3, [r5, #20]	@ unaligned
 1080 00a2 002B     		cmp	r3, #0
 1081 00a4 31D0     		beq	.L126
 1082              	.LVL123:
 1083              		.loc 1 1271 0 discriminator 1
 1084 00a6 606B     		ldr	r0, [r4, #52]	@ unaligned
 1085 00a8 D4F838C0 		ldr	ip, [r4, #56]	@ unaligned
 1086 00ac CCEB0001 		rsb	r1, ip, r0
 1087 00b0 C808     		lsrs	r0, r1, #3
 1088 00b2 04D0     		beq	.L110
 1089              		.loc 1 1271 0 is_stmt 0
 1090 00b4 1646     		mov	r6, r2
 1091              	.LVL124:
 1092              	.L118:
 1093              		.loc 1 1272 0 is_stmt 1
 1094 00b6 3146     		mov	r1, r6
 1095 00b8 2846     		mov	r0, r5
 1096 00ba 9847     		blx	r3
 1097              	.LVL125:
 1098              		.loc 1 1273 0
 1099 00bc 20B1     		cbz	r0, .L133
 1100              	.LVL126:
 1101              	.L110:
 1102              	.LBE36:
 1103              		.loc 1 1336 0
 1104 00be 70BD     		pop	{r4, r5, r6, pc}
 1105              	.LVL127:
 1106              	.L119:
 1107              		.loc 1 1122 0
 1108 00c0 1620     		movs	r0, #22
 1109 00c2 70BD     		pop	{r4, r5, r6, pc}
 1110              	.LVL128:
 1111              	.L122:
 1112              		.loc 1 1151 0
 1113 00c4 1220     		movs	r0, #18
 1114 00c6 70BD     		pop	{r4, r5, r6, pc}
 1115              	.LVL129:
 1116              	.L133:
 1117              	.LBB37:
 1118              		.loc 1 1274 0
 1119 00c8 2846     		mov	r0, r5
 1120              	.LVL130:
 1121              		.loc 1 1271 0
 1122 00ca 0136     		adds	r6, r6, #1
 1123              		.loc 1 1274 0
 1124 00cc FFF7FEFF 		bl	VerifyPcode
 1125              	.LVL131:
ARM GAS  /tmp/ccvHIMcj.s 			page 21


 1126              		.loc 1 1271 0
 1127 00d0 0028     		cmp	r0, #0
 1128 00d2 F4D1     		bne	.L110
 1129              		.loc 1 1271 0 is_stmt 0 discriminator 2
 1130 00d4 626B     		ldr	r2, [r4, #52]	@ unaligned
 1131 00d6 A36B     		ldr	r3, [r4, #56]	@ unaligned
 1132 00d8 C3EB020E 		rsb	lr, r3, r2
 1133 00dc B6EBDE0F 		cmp	r6, lr, lsr #3
 1134 00e0 EDDA     		bge	.L110
 1135              		.loc 1 1271 0
 1136 00e2 6B69     		ldr	r3, [r5, #20]	@ unaligned
 1137 00e4 E7E7     		b	.L118
 1138              	.LVL132:
 1139              	.L132:
 1140              	.LBE37:
 1141              		.loc 1 1264 0 is_stmt 1
 1142 00e6 2846     		mov	r0, r5
 1143              		.loc 1 1336 0
 1144 00e8 BDE87040 		pop	{r4, r5, r6, lr}
 1145              		.loc 1 1264 0
 1146 00ec FFF7FEBF 		b	VerifyPcode
 1147              	.LVL133:
 1148              	.L125:
 1149              		.loc 1 1161 0
 1150 00f0 1120     		movs	r0, #17
 1151 00f2 E4E7     		b	.L110
 1152              	.L129:
 1153              		.loc 1 1180 0
 1154 00f4 084E     		ldr	r6, .L134
 1155 00f6 EE60     		str	r6, [r5, #12]	@ unaligned
 1156 00f8 B2E7     		b	.L111
 1157              	.L114:
 1158              		.loc 1 1203 0
 1159 00fa 6618     		adds	r6, r4, r1
 1160              	.LVL134:
 1161 00fc C3E7     		b	.L115
 1162              	.LVL135:
 1163              	.L130:
 1164              		.loc 1 1189 0
 1165 00fe E668     		ldr	r6, [r4, #12]	@ unaligned
 1166 0100 04EB060C 		add	ip, r4, r6
 1167 0104 C5F804C0 		str	ip, [r5, #4]	@ unaligned
 1168 0108 ADE7     		b	.L112
 1169              	.LVL136:
 1170              	.L126:
 1171              	.LBB38:
 1172              		.loc 1 1267 0
 1173 010a 1C20     		movs	r0, #28
 1174              	.LVL137:
 1175 010c 70BD     		pop	{r4, r5, r6, pc}
 1176              	.LVL138:
 1177              	.L131:
 1178              	.LBE38:
 1179              		.loc 1 1201 0
 1180 010e 3046     		mov	r0, r6
 1181 0110 6118     		adds	r1, r4, r1
 1182 0112 FFF7FEFF 		bl	memcpy
ARM GAS  /tmp/ccvHIMcj.s 			page 22


 1183              	.LVL139:
 1184 0116 B6E7     		b	.L115
 1185              	.L135:
 1186              		.align	2
 1187              	.L134:
 1188 0118 00000000 		.word	amx_Callback
 1189              		.cfi_endproc
 1190              	.LFE6:
 1191              		.size	amx_Init, .-amx_Init
 1192 011c AFF30080 		.section	.text.amx_InitJIT,"ax",%progbits
 1193              		.align	2
 1194              		.p2align 4,,15
 1195              		.global	amx_InitJIT
 1196              		.thumb
 1197              		.thumb_func
 1198              		.type	amx_InitJIT, %function
 1199              	amx_InitJIT:
 1200              	.LFB7:
 1201              		.loc 1 1427 0
 1202              		.cfi_startproc
 1203              		@ args = 0, pretend = 0, frame = 0
 1204              		@ frame_needed = 0, uses_anonymous_args = 0
 1205              		@ link register save eliminated.
 1206              	.LVL140:
 1207              		.loc 1 1432 0
 1208 0000 1820     		movs	r0, #24
 1209              	.LVL141:
 1210 0002 7047     		bx	lr
 1211              		.cfi_endproc
 1212              	.LFE7:
 1213              		.size	amx_InitJIT, .-amx_InitJIT
 1214 0004 AFF30080 		.section	.text.amx_Cleanup,"ax",%progbits
 1214      AFF30080 
 1214      AFF30080 
 1215              		.align	2
 1216              		.p2align 4,,15
 1217              		.global	amx_Cleanup
 1218              		.thumb
 1219              		.thumb_func
 1220              		.type	amx_Cleanup, %function
 1221              	amx_Cleanup:
 1222              	.LFB8:
 1223              		.loc 1 1440 0
 1224              		.cfi_startproc
 1225              		@ args = 0, pretend = 0, frame = 0
 1226              		@ frame_needed = 0, uses_anonymous_args = 0
 1227              		@ link register save eliminated.
 1228              	.LVL142:
 1229              		.loc 1 1478 0
 1230 0000 0020     		movs	r0, #0
 1231              	.LVL143:
 1232 0002 7047     		bx	lr
 1233              		.cfi_endproc
 1234              	.LFE8:
 1235              		.size	amx_Cleanup, .-amx_Cleanup
 1236 0004 AFF30080 		.section	.text.amx_Clone,"ax",%progbits
 1236      AFF30080 
ARM GAS  /tmp/ccvHIMcj.s 			page 23


 1236      AFF30080 
 1237              		.align	2
 1238              		.p2align 4,,15
 1239              		.global	amx_Clone
 1240              		.thumb
 1241              		.thumb_func
 1242              		.type	amx_Clone, %function
 1243              	amx_Clone:
 1244              	.LFB9:
 1245              		.loc 1 1483 0
 1246              		.cfi_startproc
 1247              		@ args = 0, pretend = 0, frame = 0
 1248              		@ frame_needed = 0, uses_anonymous_args = 0
 1249              	.LVL144:
 1250 0000 F8B5     		push	{r3, r4, r5, r6, r7, lr}
 1251              	.LCFI5:
 1252              		.cfi_def_cfa_offset 24
 1253              		.loc 1 1483 0
 1254 0002 0446     		mov	r4, r0
 1255              		.cfi_offset 14, -4
 1256              		.cfi_offset 7, -8
 1257              		.cfi_offset 6, -12
 1258              		.cfi_offset 5, -16
 1259              		.cfi_offset 4, -20
 1260              		.cfi_offset 3, -24
 1261              		.loc 1 1487 0
 1262 0004 59B1     		cbz	r1, .L146
 1263              		.loc 1 1489 0
 1264 0006 0028     		cmp	r0, #0
 1265 0008 3DD0     		beq	.L144
 1266              		.loc 1 1491 0
 1267 000a 0E6B     		ldr	r6, [r1, #48]	@ unaligned
 1268 000c 16F4004F 		tst	r6, #32768
 1269 0010 35D0     		beq	.L145
 1270              		.loc 1 1493 0
 1271 0012 0D68     		ldr	r5, [r1, #0]	@ unaligned
 1272              	.LVL145:
 1273              		.loc 1 1494 0
 1274 0014 4FF2E013 		movw	r3, #61920
 1275 0018 A888     		ldrh	r0, [r5, #4]	@ unaligned
 1276              	.LVL146:
 1277 001a 9842     		cmp	r0, r3
 1278 001c 01D0     		beq	.L149
 1279              	.LVL147:
 1280              	.L146:
 1281              		.loc 1 1495 0
 1282 001e 1120     		movs	r0, #17
 1283 0020 F8BD     		pop	{r3, r4, r5, r6, r7, pc}
 1284              	.LVL148:
 1285              	.L149:
 1286              		.loc 1 1496 0
 1287 0022 95F806C0 		ldrb	ip, [r5, #6]	@ zero_extendqisi2
 1288 0026 BCF10B0F 		cmp	ip, #11
 1289 002a 2AD8     		bhi	.L147
 1290              		.loc 1 1496 0 is_stmt 0 discriminator 1
 1291 002c E879     		ldrb	r0, [r5, #7]	@ zero_extendqisi2
 1292 002e 0A28     		cmp	r0, #10
ARM GAS  /tmp/ccvHIMcj.s 			page 24


 1293 0030 2BD9     		bls	.L148
 1294              		.loc 1 1500 0 is_stmt 1
 1295 0032 2560     		str	r5, [r4, #0]	@ unaligned
 1296              		.loc 1 1501 0
 1297 0034 4868     		ldr	r0, [r1, #4]	@ unaligned
 1298              		.loc 1 1507 0
 1299 0036 E768     		ldr	r7, [r4, #12]	@ unaligned
 1300              		.loc 1 1501 0
 1301 0038 6060     		str	r0, [r4, #4]	@ unaligned
 1302              		.loc 1 1502 0
 1303 003a D1F874C0 		ldr	ip, [r1, #116]	@ unaligned
 1304 003e C4F874C0 		str	ip, [r4, #116]	@ unaligned
 1305              		.loc 1 1503 0
 1306 0042 2869     		ldr	r0, [r5, #16]	@ unaligned
 1307 0044 6B69     		ldr	r3, [r5, #20]	@ unaligned
 1308 0046 1B1A     		subs	r3, r3, r0
 1309 0048 6362     		str	r3, [r4, #36]	@ unaligned
 1310              		.loc 1 1504 0
 1311 004a D5F818E0 		ldr	lr, [r5, #24]	@ unaligned
 1312              		.loc 1 1505 0
 1313 004e 2362     		str	r3, [r4, #32]	@ unaligned
 1314              		.loc 1 1504 0
 1315 0050 C0EB0E05 		rsb	r5, r0, lr
 1316              	.LVL149:
 1317 0054 043D     		subs	r5, r5, #4
 1318 0056 E562     		str	r5, [r4, #44]	@ unaligned
 1319              		.loc 1 1506 0
 1320 0058 A562     		str	r5, [r4, #40]	@ unaligned
 1321              		.loc 1 1507 0
 1322 005a C7B1     		cbz	r7, .L150
 1323              	.L140:
 1324              		.loc 1 1509 0
 1325 005c 2569     		ldr	r5, [r4, #16]	@ unaligned
 1326 005e 002D     		cmp	r5, #0
 1327 0060 1BD0     		beq	.L151
 1328              	.L141:
 1329              		.loc 1 1511 0
 1330 0062 2663     		str	r6, [r4, #48]	@ unaligned
 1331              		.loc 1 1515 0
 1332 0064 A260     		str	r2, [r4, #8]	@ unaligned
 1333              		.loc 1 1516 0
 1334 0066 8D68     		ldr	r5, [r1, #8]	@ unaligned
 1335 0068 A5B1     		cbz	r5, .L152
 1336              	.LVL150:
 1337              	.L142:
 1338              		.loc 1 1517 0 discriminator 3
 1339 006a 1046     		mov	r0, r2
 1340 006c 2946     		mov	r1, r5
 1341 006e 1A46     		mov	r2, r3
 1342              	.LVL151:
 1343 0070 FFF7FEFF 		bl	memcpy
 1344              	.LVL152:
 1345              		.loc 1 1522 0 discriminator 3
 1346 0074 A268     		ldr	r2, [r4, #8]	@ unaligned
 1347 0076 E36A     		ldr	r3, [r4, #44]	@ unaligned
 1348 0078 0020     		movs	r0, #0
 1349 007a D050     		str	r0, [r2, r3]
ARM GAS  /tmp/ccvHIMcj.s 			page 25


 1350              		.loc 1 1524 0 discriminator 3
 1351 007c F8BD     		pop	{r3, r4, r5, r6, r7, pc}
 1352              	.LVL153:
 1353              	.L145:
 1354              		.loc 1 1492 0
 1355 007e 1620     		movs	r0, #22
 1356 0080 F8BD     		pop	{r3, r4, r5, r6, r7, pc}
 1357              	.LVL154:
 1358              	.L147:
 1359              		.loc 1 1497 0
 1360 0082 1220     		movs	r0, #18
 1361 0084 F8BD     		pop	{r3, r4, r5, r6, r7, pc}
 1362              	.LVL155:
 1363              	.L144:
 1364              		.loc 1 1490 0
 1365 0086 1920     		movs	r0, #25
 1366 0088 F8BD     		pop	{r3, r4, r5, r6, r7, pc}
 1367              	.LVL156:
 1368              	.L148:
 1369              		.loc 1 1497 0
 1370 008a 1220     		movs	r0, #18
 1371              		.loc 1 1525 0
 1372 008c F8BD     		pop	{r3, r4, r5, r6, r7, pc}
 1373              	.LVL157:
 1374              	.L150:
 1375              		.loc 1 1508 0
 1376 008e CD68     		ldr	r5, [r1, #12]	@ unaligned
 1377 0090 E560     		str	r5, [r4, #12]	@ unaligned
 1378 0092 E3E7     		b	.L140
 1379              	.L152:
 1380              		.loc 1 1516 0 discriminator 2
 1381 0094 0968     		ldr	r1, [r1, #0]	@ unaligned
 1382              	.LVL158:
 1383 0096 0D18     		adds	r5, r1, r0
 1384 0098 E7E7     		b	.L142
 1385              	.LVL159:
 1386              	.L151:
 1387              		.loc 1 1510 0
 1388 009a D1F810E0 		ldr	lr, [r1, #16]	@ unaligned
 1389 009e C4F810E0 		str	lr, [r4, #16]	@ unaligned
 1390 00a2 DEE7     		b	.L141
 1391              		.cfi_endproc
 1392              	.LFE9:
 1393              		.size	amx_Clone, .-amx_Clone
 1394 00a4 AFF30080 		.section	.text.amx_MemInfo,"ax",%progbits
 1394      AFF30080 
 1394      AFF30080 
 1395              		.align	2
 1396              		.p2align 4,,15
 1397              		.global	amx_MemInfo
 1398              		.thumb
 1399              		.thumb_func
 1400              		.type	amx_MemInfo, %function
 1401              	amx_MemInfo:
 1402              	.LFB10:
 1403              		.loc 1 1530 0
 1404              		.cfi_startproc
ARM GAS  /tmp/ccvHIMcj.s 			page 26


 1405              		@ args = 0, pretend = 0, frame = 0
 1406              		@ frame_needed = 0, uses_anonymous_args = 0
 1407              		@ link register save eliminated.
 1408              	.LVL160:
 1409 0000 70B4     		push	{r4, r5, r6}
 1410              	.LCFI6:
 1411              		.cfi_def_cfa_offset 12
 1412              		.loc 1 1533 0
 1413 0002 28B1     		cbz	r0, .L158
 1414              		.cfi_offset 6, -4
 1415              		.cfi_offset 5, -8
 1416              		.cfi_offset 4, -12
 1417              		.loc 1 1535 0
 1418 0004 0468     		ldr	r4, [r0, #0]	@ unaligned
 1419              	.LVL161:
 1420              		.loc 1 1536 0
 1421 0006 4FF2E015 		movw	r5, #61920
 1422 000a A688     		ldrh	r6, [r4, #4]	@ unaligned
 1423 000c AE42     		cmp	r6, r5
 1424 000e 02D0     		beq	.L162
 1425              	.LVL162:
 1426              	.L158:
 1427              		.loc 1 1537 0
 1428 0010 1120     		movs	r0, #17
 1429              	.LVL163:
 1430              	.L154:
 1431              		.loc 1 1549 0
 1432 0012 70BC     		pop	{r4, r5, r6}
 1433 0014 7047     		bx	lr
 1434              	.LVL164:
 1435              	.L162:
 1436              		.loc 1 1538 0
 1437 0016 A579     		ldrb	r5, [r4, #6]	@ zero_extendqisi2
 1438 0018 0B2D     		cmp	r5, #11
 1439 001a 15D8     		bhi	.L160
 1440              		.loc 1 1538 0 is_stmt 0 discriminator 1
 1441 001c E579     		ldrb	r5, [r4, #7]	@ zero_extendqisi2
 1442 001e 0A2D     		cmp	r5, #10
 1443 0020 12D9     		bls	.L160
 1444              		.loc 1 1541 0 is_stmt 1
 1445 0022 09B1     		cbz	r1, .L155
 1446              		.loc 1 1542 0
 1447 0024 406F     		ldr	r0, [r0, #116]	@ unaligned
 1448              	.LVL165:
 1449 0026 0860     		str	r0, [r1, #0]
 1450              	.L155:
 1451              		.loc 1 1543 0
 1452 0028 2AB1     		cbz	r2, .L156
 1453              		.loc 1 1544 0
 1454 002a 6069     		ldr	r0, [r4, #20]	@ unaligned
 1455 002c D4F810C0 		ldr	ip, [r4, #16]	@ unaligned
 1456 0030 CCEB0001 		rsb	r1, ip, r0
 1457              	.LVL166:
 1458 0034 1160     		str	r1, [r2, #0]
 1459              	.L156:
 1460              		.loc 1 1545 0
 1461 0036 4BB1     		cbz	r3, .L161
ARM GAS  /tmp/ccvHIMcj.s 			page 27


 1462              		.loc 1 1546 0
 1463 0038 A169     		ldr	r1, [r4, #24]	@ unaligned
 1464 003a D4F814C0 		ldr	ip, [r4, #20]	@ unaligned
 1465              		.loc 1 1548 0
 1466 003e 0020     		movs	r0, #0
 1467              		.loc 1 1546 0
 1468 0040 CCEB0102 		rsb	r2, ip, r1
 1469              	.LVL167:
 1470 0044 1A60     		str	r2, [r3, #0]
 1471 0046 E4E7     		b	.L154
 1472              	.LVL168:
 1473              	.L160:
 1474              		.loc 1 1539 0
 1475 0048 1220     		movs	r0, #18
 1476              	.LVL169:
 1477 004a E2E7     		b	.L154
 1478              	.LVL170:
 1479              	.L161:
 1480              		.loc 1 1548 0
 1481 004c 1846     		mov	r0, r3
 1482 004e E0E7     		b	.L154
 1483              		.cfi_endproc
 1484              	.LFE10:
 1485              		.size	amx_MemInfo, .-amx_MemInfo
 1486              		.section	.text.amx_NameLength,"ax",%progbits
 1487              		.align	2
 1488              		.p2align 4,,15
 1489              		.global	amx_NameLength
 1490              		.thumb
 1491              		.thumb_func
 1492              		.type	amx_NameLength, %function
 1493              	amx_NameLength:
 1494              	.LFB11:
 1495              		.loc 1 1554 0
 1496              		.cfi_startproc
 1497              		@ args = 0, pretend = 0, frame = 0
 1498              		@ frame_needed = 0, uses_anonymous_args = 0
 1499              		@ link register save eliminated.
 1500              	.LVL171:
 1501              		.loc 1 1559 0
 1502 0000 D0F800C0 		ldr	ip, [r0, #0]	@ unaligned
 1503              	.LVL172:
 1504              		.loc 1 1565 0
 1505 0004 0020     		movs	r0, #0
 1506              	.LVL173:
 1507              		.loc 1 1562 0
 1508 0006 DCF83420 		ldr	r2, [ip, #52]	@ unaligned
 1509              		.loc 1 1563 0
 1510 000a 3CF80230 		ldrh	r3, [ip, r2]
 1511 000e 0B60     		str	r3, [r1, #0]
 1512              		.loc 1 1565 0
 1513 0010 7047     		bx	lr
 1514              		.cfi_endproc
 1515              	.LFE11:
 1516              		.size	amx_NameLength, .-amx_NameLength
 1517 0012 00BFAFF3 		.section	.text.amx_NumNatives,"ax",%progbits
 1517      0080AFF3 
ARM GAS  /tmp/ccvHIMcj.s 			page 28


 1517      0080AFF3 
 1517      0080
 1518              		.align	2
 1519              		.p2align 4,,15
 1520              		.global	amx_NumNatives
 1521              		.thumb
 1522              		.thumb_func
 1523              		.type	amx_NumNatives, %function
 1524              	amx_NumNatives:
 1525              	.LFB12:
 1526              		.loc 1 1570 0
 1527              		.cfi_startproc
 1528              		@ args = 0, pretend = 0, frame = 0
 1529              		@ frame_needed = 0, uses_anonymous_args = 0
 1530              		@ link register save eliminated.
 1531              	.LVL174:
 1532 0000 30B4     		push	{r4, r5}
 1533              	.LCFI7:
 1534              		.cfi_def_cfa_offset 8
 1535              		.loc 1 1571 0
 1536 0002 0368     		ldr	r3, [r0, #0]	@ unaligned
 1537              	.LVL175:
 1538              		.loc 1 1577 0
 1539 0004 0020     		movs	r0, #0
 1540              	.LVL176:
 1541              		.loc 1 1575 0
 1542 0006 9D6A     		ldr	r5, [r3, #40]	@ unaligned
 1543              		.cfi_offset 5, -4
 1544              		.cfi_offset 4, -8
 1545 0008 5C6A     		ldr	r4, [r3, #36]	@ unaligned
 1546 000a B3F90A20 		ldrsh	r2, [r3, #10]	@ unaligned
 1547 000e C4EB050C 		rsb	ip, r4, r5
 1548 0012 9CFBF2F3 		sdiv	r3, ip, r2
 1549              	.LVL177:
 1550 0016 0B60     		str	r3, [r1, #0]
 1551              		.loc 1 1577 0
 1552 0018 30BC     		pop	{r4, r5}
 1553 001a 7047     		bx	lr
 1554              		.cfi_endproc
 1555              	.LFE12:
 1556              		.size	amx_NumNatives, .-amx_NumNatives
 1557 001c AFF30080 		.section	.text.amx_GetNative,"ax",%progbits
 1558              		.align	2
 1559              		.p2align 4,,15
 1560              		.global	amx_GetNative
 1561              		.thumb
 1562              		.thumb_func
 1563              		.type	amx_GetNative, %function
 1564              	amx_GetNative:
 1565              	.LFB13:
 1566              		.loc 1 1580 0
 1567              		.cfi_startproc
 1568              		@ args = 0, pretend = 0, frame = 0
 1569              		@ frame_needed = 0, uses_anonymous_args = 0
 1570              	.LVL178:
 1571 0000 70B5     		push	{r4, r5, r6, lr}
 1572              	.LCFI8:
ARM GAS  /tmp/ccvHIMcj.s 			page 29


 1573              		.cfi_def_cfa_offset 16
 1574              		.loc 1 1584 0
 1575 0002 0368     		ldr	r3, [r0, #0]	@ unaligned
 1576              	.LVL179:
 1577              		.loc 1 1588 0
 1578 0004 5D6A     		ldr	r5, [r3, #36]	@ unaligned
 1579              		.cfi_offset 14, -4
 1580              		.cfi_offset 6, -8
 1581              		.cfi_offset 5, -12
 1582              		.cfi_offset 4, -16
 1583 0006 986A     		ldr	r0, [r3, #40]	@ unaligned
 1584              	.LVL180:
 1585 0008 B3F90A40 		ldrsh	r4, [r3, #10]	@ unaligned
 1586 000c 461B     		subs	r6, r0, r5
 1587 000e 96FBF4F6 		sdiv	r6, r6, r4
 1588 0012 8E42     		cmp	r6, r1
 1589 0014 01DC     		bgt	.L168
 1590              		.loc 1 1589 0
 1591 0016 1420     		movs	r0, #20
 1592              		.loc 1 1594 0
 1593 0018 70BD     		pop	{r4, r5, r6, pc}
 1594              	.L168:
 1595              		.loc 1 1592 0
 1596 001a 5D19     		adds	r5, r3, r5
 1597 001c 04FB015C 		mla	ip, r4, r1, r5
 1598 0020 DCF80410 		ldr	r1, [ip, #4]	@ unaligned
 1599              	.LVL181:
 1600 0024 1046     		mov	r0, r2
 1601 0026 5918     		adds	r1, r3, r1
 1602 0028 FFF7FEFF 		bl	strcpy
 1603              	.LVL182:
 1604              		.loc 1 1593 0
 1605 002c 0020     		movs	r0, #0
 1606 002e 70BD     		pop	{r4, r5, r6, pc}
 1607              		.cfi_endproc
 1608              	.LFE13:
 1609              		.size	amx_GetNative, .-amx_GetNative
 1610              		.section	.text.amx_FindNative,"ax",%progbits
 1611              		.align	2
 1612              		.p2align 4,,15
 1613              		.global	amx_FindNative
 1614              		.thumb
 1615              		.thumb_func
 1616              		.type	amx_FindNative, %function
 1617              	amx_FindNative:
 1618              	.LFB14:
 1619              		.loc 1 1597 0
 1620              		.cfi_startproc
 1621              		@ args = 0, pretend = 0, frame = 32
 1622              		@ frame_needed = 0, uses_anonymous_args = 0
 1623              	.LVL183:
 1624 0000 2DE9F043 		push	{r4, r5, r6, r7, r8, r9, lr}
 1625              	.LCFI9:
 1626              		.cfi_def_cfa_offset 28
 1627              	.LBB39:
 1628              	.LBB40:
 1629              		.loc 1 1571 0
ARM GAS  /tmp/ccvHIMcj.s 			page 30


 1630 0004 D0F800C0 		ldr	ip, [r0, #0]	@ unaligned
 1631              	.LBE40:
 1632              	.LBE39:
 1633              		.loc 1 1597 0
 1634 0008 0E46     		mov	r6, r1
 1635              		.cfi_offset 14, -4
 1636              		.cfi_offset 9, -8
 1637              		.cfi_offset 8, -12
 1638              		.cfi_offset 7, -16
 1639              		.cfi_offset 6, -20
 1640              		.cfi_offset 5, -24
 1641              		.cfi_offset 4, -28
 1642              	.LBB42:
 1643              	.LBB41:
 1644              		.loc 1 1575 0
 1645 000a DCF82880 		ldr	r8, [ip, #40]	@ unaligned
 1646 000e DCF82410 		ldr	r1, [ip, #36]	@ unaligned
 1647              	.LVL184:
 1648 0012 BCF90A30 		ldrsh	r3, [ip, #10]	@ unaligned
 1649 0016 C1EB0807 		rsb	r7, r1, r8
 1650 001a 97FBF3F7 		sdiv	r7, r7, r3
 1651              	.LBE41:
 1652              	.LBE42:
 1653              		.loc 1 1603 0
 1654 001e 002F     		cmp	r7, #0
 1655              		.loc 1 1597 0
 1656 0020 89B0     		sub	sp, sp, #36
 1657              	.LCFI10:
 1658              		.cfi_def_cfa_offset 64
 1659              		.loc 1 1597 0
 1660 0022 0546     		mov	r5, r0
 1661              	.LVL185:
 1662 0024 9046     		mov	r8, r2
 1663              		.loc 1 1603 0
 1664 0026 43DD     		ble	.L170
 1665              	.LVL186:
 1666 0028 0024     		movs	r4, #0
 1667              		.loc 1 1604 0
 1668 002a 6A46     		mov	r2, sp
 1669              	.LVL187:
 1670 002c 2146     		mov	r1, r4
 1671 002e FFF7FEFF 		bl	amx_GetNative
 1672              	.LVL188:
 1673              		.loc 1 1605 0
 1674 0032 6846     		mov	r0, sp
 1675 0034 3146     		mov	r1, r6
 1676 0036 FFF7FEFF 		bl	strcmp
 1677 003a 07F1FF39 		add	r9, r7, #-1
 1678 003e 09F00109 		and	r9, r9, #1
 1679 0042 0346     		mov	r3, r0
 1680 0044 0028     		cmp	r0, #0
 1681 0046 2FD0     		beq	.L183
 1682              		.loc 1 1603 0
 1683 0048 0124     		movs	r4, #1
 1684              	.LVL189:
 1685 004a BC42     		cmp	r4, r7
 1686 004c 30D0     		beq	.L170
ARM GAS  /tmp/ccvHIMcj.s 			page 31


 1687 004e B9F1000F 		cmp	r9, #0
 1688 0052 1BD0     		beq	.L173
 1689              		.loc 1 1604 0
 1690 0054 6A46     		mov	r2, sp
 1691 0056 2146     		mov	r1, r4
 1692 0058 2846     		mov	r0, r5
 1693 005a FFF7FEFF 		bl	amx_GetNative
 1694              		.loc 1 1605 0
 1695 005e 6846     		mov	r0, sp
 1696 0060 3146     		mov	r1, r6
 1697 0062 FFF7FEFF 		bl	strcmp
 1698 0066 0346     		mov	r3, r0
 1699 0068 F0B1     		cbz	r0, .L183
 1700              		.loc 1 1603 0
 1701 006a 0224     		movs	r4, #2
 1702              	.LVL190:
 1703 006c BC42     		cmp	r4, r7
 1704 006e 0DD1     		bne	.L173
 1705 0070 1EE0     		b	.L170
 1706              	.L171:
 1707 0072 0134     		adds	r4, r4, #1
 1708              	.LVL191:
 1709              		.loc 1 1604 0
 1710 0074 2146     		mov	r1, r4
 1711 0076 FFF7FEFF 		bl	amx_GetNative
 1712              		.loc 1 1605 0
 1713 007a 6846     		mov	r0, sp
 1714 007c 3146     		mov	r1, r6
 1715 007e FFF7FEFF 		bl	strcmp
 1716 0082 0346     		mov	r3, r0
 1717 0084 80B1     		cbz	r0, .L183
 1718              		.loc 1 1603 0
 1719 0086 0134     		adds	r4, r4, #1
 1720              	.LVL192:
 1721 0088 BC42     		cmp	r4, r7
 1722 008a 11D0     		beq	.L170
 1723              	.L173:
 1724              		.loc 1 1604 0
 1725 008c 6A46     		mov	r2, sp
 1726 008e 2146     		mov	r1, r4
 1727 0090 2846     		mov	r0, r5
 1728 0092 FFF7FEFF 		bl	amx_GetNative
 1729              		.loc 1 1605 0
 1730 0096 6846     		mov	r0, sp
 1731 0098 3146     		mov	r1, r6
 1732 009a FFF7FEFF 		bl	strcmp
 1733 009e 0346     		mov	r3, r0
 1734              		.loc 1 1604 0
 1735 00a0 6A46     		mov	r2, sp
 1736 00a2 2846     		mov	r0, r5
 1737              		.loc 1 1605 0
 1738 00a4 002B     		cmp	r3, #0
 1739 00a6 E4D1     		bne	.L171
 1740              	.LVL193:
 1741              	.L183:
 1742              		.loc 1 1606 0
 1743 00a8 C8F80040 		str	r4, [r8, #0]
ARM GAS  /tmp/ccvHIMcj.s 			page 32


 1744              		.loc 1 1607 0
 1745 00ac 1846     		mov	r0, r3
 1746 00ae 04E0     		b	.L172
 1747              	.L170:
 1748              		.loc 1 1610 0
 1749 00b0 6FF00040 		mvn	r0, #-2147483648
 1750 00b4 C8F80000 		str	r0, [r8, #0]
 1751              		.loc 1 1611 0
 1752 00b8 1320     		movs	r0, #19
 1753              	.L172:
 1754              		.loc 1 1612 0
 1755 00ba 09B0     		add	sp, sp, #36
 1756 00bc BDE8F083 		pop	{r4, r5, r6, r7, r8, r9, pc}
 1757              		.cfi_endproc
 1758              	.LFE14:
 1759              		.size	amx_FindNative, .-amx_FindNative
 1760              		.section	.text.amx_NumPublics,"ax",%progbits
 1761              		.align	2
 1762              		.p2align 4,,15
 1763              		.global	amx_NumPublics
 1764              		.thumb
 1765              		.thumb_func
 1766              		.type	amx_NumPublics, %function
 1767              	amx_NumPublics:
 1768              	.LFB15:
 1769              		.loc 1 1617 0
 1770              		.cfi_startproc
 1771              		@ args = 0, pretend = 0, frame = 0
 1772              		@ frame_needed = 0, uses_anonymous_args = 0
 1773              		@ link register save eliminated.
 1774              	.LVL194:
 1775 0000 30B4     		push	{r4, r5}
 1776              	.LCFI11:
 1777              		.cfi_def_cfa_offset 8
 1778              		.loc 1 1618 0
 1779 0002 0368     		ldr	r3, [r0, #0]	@ unaligned
 1780              	.LVL195:
 1781              		.loc 1 1624 0
 1782 0004 0020     		movs	r0, #0
 1783              	.LVL196:
 1784              		.loc 1 1622 0
 1785 0006 5D6A     		ldr	r5, [r3, #36]	@ unaligned
 1786              		.cfi_offset 5, -4
 1787              		.cfi_offset 4, -8
 1788 0008 1C6A     		ldr	r4, [r3, #32]	@ unaligned
 1789 000a B3F90A20 		ldrsh	r2, [r3, #10]	@ unaligned
 1790 000e C4EB050C 		rsb	ip, r4, r5
 1791 0012 9CFBF2F3 		sdiv	r3, ip, r2
 1792              	.LVL197:
 1793 0016 0B60     		str	r3, [r1, #0]
 1794              		.loc 1 1624 0
 1795 0018 30BC     		pop	{r4, r5}
 1796 001a 7047     		bx	lr
 1797              		.cfi_endproc
 1798              	.LFE15:
 1799              		.size	amx_NumPublics, .-amx_NumPublics
 1800 001c AFF30080 		.section	.text.amx_GetPublic,"ax",%progbits
ARM GAS  /tmp/ccvHIMcj.s 			page 33


 1801              		.align	2
 1802              		.p2align 4,,15
 1803              		.global	amx_GetPublic
 1804              		.thumb
 1805              		.thumb_func
 1806              		.type	amx_GetPublic, %function
 1807              	amx_GetPublic:
 1808              	.LFB16:
 1809              		.loc 1 1627 0
 1810              		.cfi_startproc
 1811              		@ args = 0, pretend = 0, frame = 0
 1812              		@ frame_needed = 0, uses_anonymous_args = 0
 1813              	.LVL198:
 1814 0000 F8B5     		push	{r3, r4, r5, r6, r7, lr}
 1815              	.LCFI12:
 1816              		.cfi_def_cfa_offset 24
 1817              		.loc 1 1631 0
 1818 0002 0468     		ldr	r4, [r0, #0]	@ unaligned
 1819              		.cfi_offset 14, -4
 1820              		.cfi_offset 7, -8
 1821              		.cfi_offset 6, -12
 1822              		.cfi_offset 5, -16
 1823              		.cfi_offset 4, -20
 1824              		.cfi_offset 3, -24
 1825              	.LVL199:
 1826              		.loc 1 1635 0
 1827 0004 676A     		ldr	r7, [r4, #36]	@ unaligned
 1828 0006 256A     		ldr	r5, [r4, #32]	@ unaligned
 1829 0008 B4F90A60 		ldrsh	r6, [r4, #10]	@ unaligned
 1830 000c 781B     		subs	r0, r7, r5
 1831              	.LVL200:
 1832 000e 90FBF6FC 		sdiv	ip, r0, r6
 1833 0012 8C45     		cmp	ip, r1
 1834              		.loc 1 1627 0
 1835 0014 1F46     		mov	r7, r3
 1836              		.loc 1 1635 0
 1837 0016 0DDD     		ble	.L188
 1838              		.loc 1 1638 0
 1839 0018 06FB0155 		mla	r5, r6, r1, r5
 1840 001c 6519     		adds	r5, r4, r5
 1841              	.LVL201:
 1842              		.loc 1 1639 0
 1843 001e 22B1     		cbz	r2, .L187
 1844              		.loc 1 1640 0
 1845 0020 6968     		ldr	r1, [r5, #4]	@ unaligned
 1846              	.LVL202:
 1847 0022 1046     		mov	r0, r2
 1848 0024 6118     		adds	r1, r4, r1
 1849 0026 FFF7FEFF 		bl	strcpy
 1850              	.LVL203:
 1851              	.L187:
 1852              		.loc 1 1641 0
 1853 002a 2FB1     		cbz	r7, .L189
 1854              		.loc 1 1642 0
 1855 002c 2B68     		ldr	r3, [r5, #0]	@ unaligned
 1856              		.loc 1 1643 0
 1857 002e 0020     		movs	r0, #0
ARM GAS  /tmp/ccvHIMcj.s 			page 34


 1858              		.loc 1 1642 0
 1859 0030 3B60     		str	r3, [r7, #0]
 1860 0032 F8BD     		pop	{r3, r4, r5, r6, r7, pc}
 1861              	.LVL204:
 1862              	.L188:
 1863              		.loc 1 1636 0
 1864 0034 1420     		movs	r0, #20
 1865 0036 F8BD     		pop	{r3, r4, r5, r6, r7, pc}
 1866              	.LVL205:
 1867              	.L189:
 1868              		.loc 1 1643 0
 1869 0038 3846     		mov	r0, r7
 1870              		.loc 1 1644 0
 1871 003a F8BD     		pop	{r3, r4, r5, r6, r7, pc}
 1872              		.cfi_endproc
 1873              	.LFE16:
 1874              		.size	amx_GetPublic, .-amx_GetPublic
 1875 003c AFF30080 		.section	.text.amx_FindPublic,"ax",%progbits
 1876              		.align	2
 1877              		.p2align 4,,15
 1878              		.global	amx_FindPublic
 1879              		.thumb
 1880              		.thumb_func
 1881              		.type	amx_FindPublic, %function
 1882              	amx_FindPublic:
 1883              	.LFB17:
 1884              		.loc 1 1647 0
 1885              		.cfi_startproc
 1886              		@ args = 0, pretend = 0, frame = 32
 1887              		@ frame_needed = 0, uses_anonymous_args = 0
 1888              	.LVL206:
 1889 0000 2DE9F043 		push	{r4, r5, r6, r7, r8, r9, lr}
 1890              	.LCFI13:
 1891              		.cfi_def_cfa_offset 28
 1892              	.LBB43:
 1893              	.LBB45:
 1894              		.loc 1 1618 0
 1895 0004 D0F800C0 		ldr	ip, [r0, #0]	@ unaligned
 1896              	.LBE45:
 1897              	.LBE43:
 1898              		.loc 1 1647 0
 1899 0008 8846     		mov	r8, r1
 1900              		.cfi_offset 14, -4
 1901              		.cfi_offset 9, -8
 1902              		.cfi_offset 8, -12
 1903              		.cfi_offset 7, -16
 1904              		.cfi_offset 6, -20
 1905              		.cfi_offset 5, -24
 1906              		.cfi_offset 4, -28
 1907              	.LBB47:
 1908              	.LBB44:
 1909              		.loc 1 1622 0
 1910 000a DCF82490 		ldr	r9, [ip, #36]	@ unaligned
 1911 000e DCF82010 		ldr	r1, [ip, #32]	@ unaligned
 1912              	.LVL207:
 1913 0012 BCF90A30 		ldrsh	r3, [ip, #10]	@ unaligned
 1914              	.LBE44:
ARM GAS  /tmp/ccvHIMcj.s 			page 35


 1915              	.LBE47:
 1916              		.loc 1 1647 0
 1917 0016 0746     		mov	r7, r0
 1918              	.LVL208:
 1919              	.LBB48:
 1920              	.LBB46:
 1921              		.loc 1 1622 0
 1922 0018 C1EB0900 		rsb	r0, r1, r9
 1923              	.LVL209:
 1924 001c 90FBF3F5 		sdiv	r5, r0, r3
 1925              	.LVL210:
 1926              	.LBE46:
 1927              	.LBE48:
 1928              		.loc 1 1655 0
 1929 0020 013D     		subs	r5, r5, #1
 1930              	.LVL211:
 1931              		.loc 1 1647 0
 1932 0022 89B0     		sub	sp, sp, #36
 1933              	.LCFI14:
 1934              		.cfi_def_cfa_offset 64
 1935              		.loc 1 1647 0
 1936 0024 9146     		mov	r9, r2
 1937              		.loc 1 1655 0
 1938 0026 18D4     		bmi	.L191
 1939 0028 0026     		movs	r6, #0
 1940 002a 02E0     		b	.L196
 1941              	.LVL212:
 1942              	.L198:
 1943              		.loc 1 1660 0
 1944 002c 651E     		subs	r5, r4, #1
 1945              	.LVL213:
 1946              		.loc 1 1655 0
 1947 002e AE42     		cmp	r6, r5
 1948 0030 13DC     		bgt	.L191
 1949              	.LVL214:
 1950              	.L196:
 1951              		.loc 1 1656 0
 1952 0032 AA19     		adds	r2, r5, r6
 1953 0034 02EBD274 		add	r4, r2, r2, lsr #31
 1954 0038 6410     		asrs	r4, r4, #1
 1955              	.LVL215:
 1956              		.loc 1 1657 0
 1957 003a 0023     		movs	r3, #0
 1958 003c 2146     		mov	r1, r4
 1959 003e 6A46     		mov	r2, sp
 1960 0040 3846     		mov	r0, r7
 1961 0042 FFF7FEFF 		bl	amx_GetPublic
 1962              		.loc 1 1658 0
 1963 0046 6846     		mov	r0, sp
 1964 0048 4146     		mov	r1, r8
 1965 004a FFF7FEFF 		bl	strcmp
 1966              	.LVL216:
 1967              		.loc 1 1659 0
 1968 004e 0028     		cmp	r0, #0
 1969 0050 ECDC     		bgt	.L198
 1970              		.loc 1 1661 0
 1971 0052 0AD0     		beq	.L194
ARM GAS  /tmp/ccvHIMcj.s 			page 36


 1972              		.loc 1 1662 0
 1973 0054 661C     		adds	r6, r4, #1
 1974              	.LVL217:
 1975              		.loc 1 1655 0
 1976 0056 AE42     		cmp	r6, r5
 1977 0058 EBDD     		ble	.L196
 1978              	.LVL218:
 1979              	.L191:
 1980              		.loc 1 1671 0
 1981 005a 6FF00040 		mvn	r0, #-2147483648
 1982 005e C9F80000 		str	r0, [r9, #0]
 1983              		.loc 1 1672 0
 1984 0062 1320     		movs	r0, #19
 1985              	.L195:
 1986              		.loc 1 1673 0
 1987 0064 09B0     		add	sp, sp, #36
 1988 0066 BDE8F083 		pop	{r4, r5, r6, r7, r8, r9, pc}
 1989              	.LVL219:
 1990              	.L194:
 1991              		.loc 1 1664 0
 1992 006a C9F80040 		str	r4, [r9, #0]
 1993              		.loc 1 1665 0
 1994 006e F9E7     		b	.L195
 1995              		.cfi_endproc
 1996              	.LFE17:
 1997              		.size	amx_FindPublic, .-amx_FindPublic
 1998              		.section	.text.amx_NumPubVars,"ax",%progbits
 1999              		.align	2
 2000              		.p2align 4,,15
 2001              		.global	amx_NumPubVars
 2002              		.thumb
 2003              		.thumb_func
 2004              		.type	amx_NumPubVars, %function
 2005              	amx_NumPubVars:
 2006              	.LFB18:
 2007              		.loc 1 1678 0
 2008              		.cfi_startproc
 2009              		@ args = 0, pretend = 0, frame = 0
 2010              		@ frame_needed = 0, uses_anonymous_args = 0
 2011              		@ link register save eliminated.
 2012              	.LVL220:
 2013 0000 30B4     		push	{r4, r5}
 2014              	.LCFI15:
 2015              		.cfi_def_cfa_offset 8
 2016              		.loc 1 1682 0
 2017 0002 0368     		ldr	r3, [r0, #0]	@ unaligned
 2018              	.LVL221:
 2019              		.loc 1 1688 0
 2020 0004 0020     		movs	r0, #0
 2021              	.LVL222:
 2022              		.loc 1 1686 0
 2023 0006 1D6B     		ldr	r5, [r3, #48]	@ unaligned
 2024              		.cfi_offset 5, -4
 2025              		.cfi_offset 4, -8
 2026 0008 DC6A     		ldr	r4, [r3, #44]	@ unaligned
 2027 000a B3F90A20 		ldrsh	r2, [r3, #10]	@ unaligned
 2028 000e C4EB050C 		rsb	ip, r4, r5
ARM GAS  /tmp/ccvHIMcj.s 			page 37


 2029 0012 9CFBF2F3 		sdiv	r3, ip, r2
 2030              	.LVL223:
 2031 0016 0B60     		str	r3, [r1, #0]
 2032              		.loc 1 1688 0
 2033 0018 30BC     		pop	{r4, r5}
 2034 001a 7047     		bx	lr
 2035              		.cfi_endproc
 2036              	.LFE18:
 2037              		.size	amx_NumPubVars, .-amx_NumPubVars
 2038 001c AFF30080 		.section	.text.amx_GetPubVar,"ax",%progbits
 2039              		.align	2
 2040              		.p2align 4,,15
 2041              		.global	amx_GetPubVar
 2042              		.thumb
 2043              		.thumb_func
 2044              		.type	amx_GetPubVar, %function
 2045              	amx_GetPubVar:
 2046              	.LFB19:
 2047              		.loc 1 1691 0
 2048              		.cfi_startproc
 2049              		@ args = 0, pretend = 0, frame = 0
 2050              		@ frame_needed = 0, uses_anonymous_args = 0
 2051              	.LVL224:
 2052 0000 2DE9F041 		push	{r4, r5, r6, r7, r8, lr}
 2053              	.LCFI16:
 2054              		.cfi_def_cfa_offset 24
 2055              		.loc 1 1697 0
 2056 0004 0468     		ldr	r4, [r0, #0]	@ unaligned
 2057              		.cfi_offset 14, -4
 2058              		.cfi_offset 8, -8
 2059              		.cfi_offset 7, -12
 2060              		.cfi_offset 6, -16
 2061              		.cfi_offset 5, -20
 2062              		.cfi_offset 4, -24
 2063              	.LVL225:
 2064              		.loc 1 1691 0
 2065 0006 0546     		mov	r5, r0
 2066              		.loc 1 1701 0
 2067 0008 D4F83080 		ldr	r8, [r4, #48]	@ unaligned
 2068 000c E66A     		ldr	r6, [r4, #44]	@ unaligned
 2069 000e B4F90A70 		ldrsh	r7, [r4, #10]	@ unaligned
 2070 0012 C6EB0800 		rsb	r0, r6, r8
 2071              	.LVL226:
 2072 0016 90FBF7FC 		sdiv	ip, r0, r7
 2073 001a 8C45     		cmp	ip, r1
 2074              		.loc 1 1691 0
 2075 001c 9846     		mov	r8, r3
 2076              		.loc 1 1701 0
 2077 001e 02DC     		bgt	.L204
 2078              		.loc 1 1702 0
 2079 0020 1420     		movs	r0, #20
 2080              		.loc 1 1710 0
 2081 0022 BDE8F081 		pop	{r4, r5, r6, r7, r8, pc}
 2082              	.L204:
 2083              		.loc 1 1704 0
 2084 0026 07FB0166 		mla	r6, r7, r1, r6
 2085 002a A619     		adds	r6, r4, r6
ARM GAS  /tmp/ccvHIMcj.s 			page 38


 2086              	.LVL227:
 2087              		.loc 1 1705 0
 2088 002c 7168     		ldr	r1, [r6, #4]	@ unaligned
 2089              	.LVL228:
 2090 002e 1046     		mov	r0, r2
 2091 0030 6118     		adds	r1, r4, r1
 2092 0032 FFF7FEFF 		bl	strcpy
 2093              	.LVL229:
 2094              		.loc 1 1706 0
 2095 0036 AB68     		ldr	r3, [r5, #8]	@ unaligned
 2096 0038 43B1     		cbz	r3, .L205
 2097              	.L202:
 2098              	.LVL230:
 2099              		.loc 1 1708 0 discriminator 3
 2100 003a D6F800E0 		ldr	lr, [r6, #0]	@ unaligned
 2101              		.loc 1 1709 0 discriminator 3
 2102 003e 0020     		movs	r0, #0
 2103              		.loc 1 1708 0 discriminator 3
 2104 0040 03EB0E01 		add	r1, r3, lr
 2105 0044 C8F80010 		str	r1, [r8, #0]
 2106              		.loc 1 1709 0 discriminator 3
 2107 0048 BDE8F081 		pop	{r4, r5, r6, r7, r8, pc}
 2108              	.LVL231:
 2109              	.L205:
 2110              		.loc 1 1706 0 discriminator 2
 2111 004c 2A68     		ldr	r2, [r5, #0]	@ unaligned
 2112 004e 2369     		ldr	r3, [r4, #16]	@ unaligned
 2113 0050 D318     		adds	r3, r2, r3
 2114 0052 F2E7     		b	.L202
 2115              		.cfi_endproc
 2116              	.LFE19:
 2117              		.size	amx_GetPubVar, .-amx_GetPubVar
 2118 0054 AFF30080 		.section	.text.amx_FindPubVar,"ax",%progbits
 2118      AFF30080 
 2118      AFF30080 
 2119              		.align	2
 2120              		.p2align 4,,15
 2121              		.global	amx_FindPubVar
 2122              		.thumb
 2123              		.thumb_func
 2124              		.type	amx_FindPubVar, %function
 2125              	amx_FindPubVar:
 2126              	.LFB20:
 2127              		.loc 1 1713 0
 2128              		.cfi_startproc
 2129              		@ args = 0, pretend = 0, frame = 32
 2130              		@ frame_needed = 0, uses_anonymous_args = 0
 2131              	.LVL232:
 2132 0000 2DE9F043 		push	{r4, r5, r6, r7, r8, r9, lr}
 2133              	.LCFI17:
 2134              		.cfi_def_cfa_offset 28
 2135              	.LBB49:
 2136              	.LBB51:
 2137              		.loc 1 1682 0
 2138 0004 D0F800C0 		ldr	ip, [r0, #0]	@ unaligned
 2139              	.LBE51:
 2140              	.LBE49:
ARM GAS  /tmp/ccvHIMcj.s 			page 39


 2141              		.loc 1 1713 0
 2142 0008 8946     		mov	r9, r1
 2143              		.cfi_offset 14, -4
 2144              		.cfi_offset 9, -8
 2145              		.cfi_offset 8, -12
 2146              		.cfi_offset 7, -16
 2147              		.cfi_offset 6, -20
 2148              		.cfi_offset 5, -24
 2149              		.cfi_offset 4, -28
 2150              	.LBB53:
 2151              	.LBB50:
 2152              		.loc 1 1686 0
 2153 000a DCF83080 		ldr	r8, [ip, #48]	@ unaligned
 2154 000e DCF82C10 		ldr	r1, [ip, #44]	@ unaligned
 2155              	.LVL233:
 2156 0012 BCF90A30 		ldrsh	r3, [ip, #10]	@ unaligned
 2157              	.LBE50:
 2158              	.LBE53:
 2159              		.loc 1 1713 0
 2160 0016 0746     		mov	r7, r0
 2161              	.LVL234:
 2162              	.LBB54:
 2163              	.LBB52:
 2164              		.loc 1 1686 0
 2165 0018 C1EB0800 		rsb	r0, r1, r8
 2166              	.LVL235:
 2167 001c 90FBF3F5 		sdiv	r5, r0, r3
 2168              	.LVL236:
 2169              	.LBE52:
 2170              	.LBE54:
 2171              		.loc 1 1721 0
 2172 0020 013D     		subs	r5, r5, #1
 2173              	.LVL237:
 2174              		.loc 1 1713 0
 2175 0022 89B0     		sub	sp, sp, #36
 2176              	.LCFI18:
 2177              		.cfi_def_cfa_offset 64
 2178              		.loc 1 1713 0
 2179 0024 9046     		mov	r8, r2
 2180              		.loc 1 1721 0
 2181 0026 18D4     		bmi	.L207
 2182 0028 0026     		movs	r6, #0
 2183 002a 02E0     		b	.L211
 2184              	.LVL238:
 2185              	.L214:
 2186              		.loc 1 1726 0
 2187 002c 651E     		subs	r5, r4, #1
 2188              	.LVL239:
 2189              		.loc 1 1721 0
 2190 002e AE42     		cmp	r6, r5
 2191 0030 13DC     		bgt	.L207
 2192              	.LVL240:
 2193              	.L211:
 2194              		.loc 1 1722 0
 2195 0032 7219     		adds	r2, r6, r5
 2196 0034 02EBD274 		add	r4, r2, r2, lsr #31
 2197 0038 6410     		asrs	r4, r4, #1
ARM GAS  /tmp/ccvHIMcj.s 			page 40


 2198              	.LVL241:
 2199              		.loc 1 1723 0
 2200 003a 2146     		mov	r1, r4
 2201 003c 6A46     		mov	r2, sp
 2202 003e 4346     		mov	r3, r8
 2203 0040 3846     		mov	r0, r7
 2204 0042 FFF7FEFF 		bl	amx_GetPubVar
 2205              		.loc 1 1724 0
 2206 0046 6846     		mov	r0, sp
 2207 0048 4946     		mov	r1, r9
 2208 004a FFF7FEFF 		bl	strcmp
 2209              	.LVL242:
 2210              		.loc 1 1725 0
 2211 004e 0028     		cmp	r0, #0
 2212 0050 ECDC     		bgt	.L214
 2213              		.loc 1 1727 0
 2214 0052 06D0     		beq	.L210
 2215              		.loc 1 1728 0
 2216 0054 661C     		adds	r6, r4, #1
 2217              	.LVL243:
 2218              		.loc 1 1721 0
 2219 0056 AE42     		cmp	r6, r5
 2220 0058 EBDD     		ble	.L211
 2221              	.LVL244:
 2222              	.L207:
 2223              		.loc 1 1734 0
 2224 005a 0020     		movs	r0, #0
 2225 005c C8F80000 		str	r0, [r8, #0]
 2226              		.loc 1 1735 0
 2227 0060 1320     		movs	r0, #19
 2228              	.L210:
 2229              		.loc 1 1736 0
 2230 0062 09B0     		add	sp, sp, #36
 2231 0064 BDE8F083 		pop	{r4, r5, r6, r7, r8, r9, pc}
 2232              		.cfi_endproc
 2233              	.LFE20:
 2234              		.size	amx_FindPubVar, .-amx_FindPubVar
 2235 0068 AFF30080 		.section	.text.amx_NumTags,"ax",%progbits
 2235      AFF30080 
 2236              		.align	2
 2237              		.p2align 4,,15
 2238              		.global	amx_NumTags
 2239              		.thumb
 2240              		.thumb_func
 2241              		.type	amx_NumTags, %function
 2242              	amx_NumTags:
 2243              	.LFB21:
 2244              		.loc 1 1741 0
 2245              		.cfi_startproc
 2246              		@ args = 0, pretend = 0, frame = 0
 2247              		@ frame_needed = 0, uses_anonymous_args = 0
 2248              		@ link register save eliminated.
 2249              	.LVL245:
 2250 0000 10B4     		push	{r4}
 2251              	.LCFI19:
 2252              		.cfi_def_cfa_offset 4
 2253              		.loc 1 1742 0
ARM GAS  /tmp/ccvHIMcj.s 			page 41


 2254 0002 0368     		ldr	r3, [r0, #0]	@ unaligned
 2255              	.LVL246:
 2256              		.loc 1 1745 0
 2257 0004 9A79     		ldrb	r2, [r3, #6]	@ zero_extendqisi2
 2258 0006 042A     		cmp	r2, #4
 2259 0008 04D8     		bhi	.L216
 2260              		.cfi_offset 4, -4
 2261              		.loc 1 1746 0
 2262 000a 0023     		movs	r3, #0
 2263              	.LVL247:
 2264 000c 0B60     		str	r3, [r1, #0]
 2265              		.loc 1 1747 0
 2266 000e 1220     		movs	r0, #18
 2267              	.LVL248:
 2268              	.L217:
 2269              		.loc 1 1757 0
 2270 0010 10BC     		pop	{r4}
 2271 0012 7047     		bx	lr
 2272              	.LVL249:
 2273              	.L216:
 2274              		.loc 1 1749 0
 2275 0014 062A     		cmp	r2, #6
 2276              		.loc 1 1751 0
 2277 0016 94BF     		ite	ls
 2278 0018 DC68     		ldrls	r4, [r3, #12]	@ unaligned
 2279              		.loc 1 1754 0
 2280 001a 5C6B     		ldrhi	r4, [r3, #52]	@ unaligned
 2281 001c 186B     		ldr	r0, [r3, #48]	@ unaligned
 2282              	.LVL250:
 2283 001e B3F90A20 		ldrsh	r2, [r3, #10]	@ unaligned
 2284 0022 C0EB040C 		rsb	ip, r0, r4
 2285 0026 9CFBF2F0 		sdiv	r0, ip, r2
 2286 002a 0860     		str	r0, [r1, #0]
 2287              		.loc 1 1756 0
 2288 002c 0020     		movs	r0, #0
 2289 002e EFE7     		b	.L217
 2290              		.cfi_endproc
 2291              	.LFE21:
 2292              		.size	amx_NumTags, .-amx_NumTags
 2293              		.section	.text.amx_GetTag,"ax",%progbits
 2294              		.align	2
 2295              		.p2align 4,,15
 2296              		.global	amx_GetTag
 2297              		.thumb
 2298              		.thumb_func
 2299              		.type	amx_GetTag, %function
 2300              	amx_GetTag:
 2301              	.LFB22:
 2302              		.loc 1 1760 0
 2303              		.cfi_startproc
 2304              		@ args = 0, pretend = 0, frame = 0
 2305              		@ frame_needed = 0, uses_anonymous_args = 0
 2306              	.LVL251:
 2307 0000 F8B5     		push	{r3, r4, r5, r6, r7, lr}
 2308              	.LCFI20:
 2309              		.cfi_def_cfa_offset 24
 2310              		.loc 1 1764 0
ARM GAS  /tmp/ccvHIMcj.s 			page 42


 2311 0002 0468     		ldr	r4, [r0, #0]	@ unaligned
 2312              		.cfi_offset 14, -4
 2313              		.cfi_offset 7, -8
 2314              		.cfi_offset 6, -12
 2315              		.cfi_offset 5, -16
 2316              		.cfi_offset 4, -20
 2317              		.cfi_offset 3, -24
 2318              	.LVL252:
 2319              		.loc 1 1760 0
 2320 0004 1E46     		mov	r6, r3
 2321              		.loc 1 1767 0
 2322 0006 A579     		ldrb	r5, [r4, #6]	@ zero_extendqisi2
 2323 0008 042D     		cmp	r5, #4
 2324 000a 04D8     		bhi	.L221
 2325              		.loc 1 1768 0
 2326 000c 0023     		movs	r3, #0
 2327              	.LVL253:
 2328 000e 1370     		strb	r3, [r2, #0]
 2329              		.loc 1 1770 0
 2330 0010 1220     		movs	r0, #18
 2331              	.LVL254:
 2332              		.loc 1 1769 0
 2333 0012 3360     		str	r3, [r6, #0]
 2334              		.loc 1 1770 0
 2335 0014 F8BD     		pop	{r3, r4, r5, r6, r7, pc}
 2336              	.LVL255:
 2337              	.L221:
 2338              		.loc 1 1773 0
 2339 0016 062D     		cmp	r5, #6
 2340 0018 0CD8     		bhi	.L223
 2341              		.loc 1 1775 0
 2342 001a E068     		ldr	r0, [r4, #12]	@ unaligned
 2343              	.LVL256:
 2344 001c B4F90A50 		ldrsh	r5, [r4, #10]	@ unaligned
 2345 0020 236B     		ldr	r3, [r4, #48]	@ unaligned
 2346 0022 2FB2     		sxth	r7, r5
 2347 0024 C3EB000C 		rsb	ip, r3, r0
 2348 0028 9CFBF7F0 		sdiv	r0, ip, r7
 2349 002c 8842     		cmp	r0, r1
 2350 002e 0DDC     		bgt	.L224
 2351              		.loc 1 1776 0
 2352 0030 1420     		movs	r0, #20
 2353 0032 F8BD     		pop	{r3, r4, r5, r6, r7, pc}
 2354              	.LVL257:
 2355              	.L223:
 2356              		.loc 1 1779 0
 2357 0034 D4F834C0 		ldr	ip, [r4, #52]	@ unaligned
 2358 0038 B4F90A50 		ldrsh	r5, [r4, #10]	@ unaligned
 2359 003c 236B     		ldr	r3, [r4, #48]	@ unaligned
 2360 003e 2FB2     		sxth	r7, r5
 2361 0040 C3EB0C00 		rsb	r0, r3, ip
 2362              	.LVL258:
 2363 0044 90FBF7FC 		sdiv	ip, r0, r7
 2364 0048 6145     		cmp	r1, ip
 2365 004a 0EDA     		bge	.L226
 2366              	.L224:
 2367              		.loc 1 1783 0
ARM GAS  /tmp/ccvHIMcj.s 			page 43


 2368 004c 28B2     		sxth	r0, r5
 2369 004e 01FB0035 		mla	r5, r1, r0, r3
 2370 0052 6519     		adds	r5, r4, r5
 2371              	.LVL259:
 2372              		.loc 1 1784 0
 2373 0054 D5F804E0 		ldr	lr, [r5, #4]	@ unaligned
 2374 0058 1046     		mov	r0, r2
 2375 005a 04EB0E01 		add	r1, r4, lr
 2376              	.LVL260:
 2377 005e FFF7FEFF 		bl	strcpy
 2378              	.LVL261:
 2379              		.loc 1 1785 0
 2380 0062 2968     		ldr	r1, [r5, #0]	@ unaligned
 2381              		.loc 1 1787 0
 2382 0064 0020     		movs	r0, #0
 2383              		.loc 1 1785 0
 2384 0066 3160     		str	r1, [r6, #0]
 2385              		.loc 1 1787 0
 2386 0068 F8BD     		pop	{r3, r4, r5, r6, r7, pc}
 2387              	.LVL262:
 2388              	.L226:
 2389              		.loc 1 1780 0
 2390 006a 1420     		movs	r0, #20
 2391              		.loc 1 1788 0
 2392 006c F8BD     		pop	{r3, r4, r5, r6, r7, pc}
 2393              		.cfi_endproc
 2394              	.LFE22:
 2395              		.size	amx_GetTag, .-amx_GetTag
 2396 006e 00BF     		.section	.text.amx_FindTagId,"ax",%progbits
 2397              		.align	2
 2398              		.p2align 4,,15
 2399              		.global	amx_FindTagId
 2400              		.thumb
 2401              		.thumb_func
 2402              		.type	amx_FindTagId, %function
 2403              	amx_FindTagId:
 2404              	.LFB23:
 2405              		.loc 1 1791 0
 2406              		.cfi_startproc
 2407              		@ args = 0, pretend = 0, frame = 8
 2408              		@ frame_needed = 0, uses_anonymous_args = 0
 2409              	.LVL263:
 2410 0000 2DE9F043 		push	{r4, r5, r6, r7, r8, r9, lr}
 2411              	.LCFI21:
 2412              		.cfi_def_cfa_offset 28
 2413 0004 83B0     		sub	sp, sp, #12
 2414              	.LCFI22:
 2415              		.cfi_def_cfa_offset 40
 2416              		.loc 1 1791 0
 2417 0006 8946     		mov	r9, r1
 2418              		.cfi_offset 14, -4
 2419              		.cfi_offset 9, -8
 2420              		.cfi_offset 8, -12
 2421              		.cfi_offset 7, -16
 2422              		.cfi_offset 6, -20
 2423              		.cfi_offset 5, -24
 2424              		.cfi_offset 4, -28
ARM GAS  /tmp/ccvHIMcj.s 			page 44


 2425              		.loc 1 1809 0
 2426 0008 01A9     		add	r1, sp, #4
 2427              	.LVL264:
 2428              		.loc 1 1791 0
 2429 000a 8046     		mov	r8, r0
 2430 000c 1746     		mov	r7, r2
 2431              		.loc 1 1809 0
 2432 000e FFF7FEFF 		bl	amx_NumTags
 2433              	.LVL265:
 2434              		.loc 1 1810 0
 2435 0012 019D     		ldr	r5, [sp, #4]
 2436              		.loc 1 1811 0
 2437 0014 0026     		movs	r6, #0
 2438              		.loc 1 1810 0
 2439 0016 013D     		subs	r5, r5, #1
 2440 0018 0195     		str	r5, [sp, #4]
 2441              	.LVL266:
 2442              	.L228:
 2443              		.loc 1 1814 0 discriminator 1
 2444 001a A819     		adds	r0, r5, r6
 2445 001c 00EBD074 		add	r4, r0, r0, lsr #31
 2446 0020 6410     		asrs	r4, r4, #1
 2447              		.loc 1 1813 0 discriminator 1
 2448 0022 AE42     		cmp	r6, r5
 2449              		.loc 1 1815 0 discriminator 1
 2450 0024 4046     		mov	r0, r8
 2451 0026 2146     		mov	r1, r4
 2452 0028 3A46     		mov	r2, r7
 2453 002a 6B46     		mov	r3, sp
 2454              		.loc 1 1813 0 discriminator 1
 2455 002c 0CDC     		bgt	.L234
 2456              	.LVL267:
 2457              		.loc 1 1815 0
 2458 002e FFF7FEFF 		bl	amx_GetTag
 2459              		.loc 1 1816 0
 2460 0032 009B     		ldr	r3, [sp, #0]
 2461              		.loc 1 1817 0
 2462 0034 621E     		subs	r2, r4, #1
 2463              		.loc 1 1816 0
 2464 0036 4B45     		cmp	r3, r9
 2465 0038 02DD     		ble	.L229
 2466              		.loc 1 1817 0
 2467 003a 0192     		str	r2, [sp, #4]
 2468              		.loc 1 1819 0
 2469 003c 019D     		ldr	r5, [sp, #4]
 2470 003e ECE7     		b	.L228
 2471              	.L229:
 2472              		.loc 1 1818 0
 2473 0040 08DA     		bge	.L233
 2474              		.loc 1 1819 0
 2475 0042 661C     		adds	r6, r4, #1
 2476              	.LVL268:
 2477 0044 019D     		ldr	r5, [sp, #4]
 2478 0046 E8E7     		b	.L228
 2479              	.LVL269:
 2480              	.L234:
 2481              		.loc 1 1824 0
ARM GAS  /tmp/ccvHIMcj.s 			page 45


 2482 0048 0021     		movs	r1, #0
 2483 004a 3970     		strb	r1, [r7, #0]
 2484              		.loc 1 1825 0
 2485 004c 1320     		movs	r0, #19
 2486              	.L231:
 2487              		.loc 1 1826 0
 2488 004e 03B0     		add	sp, sp, #12
 2489 0050 BDE8F083 		pop	{r4, r5, r6, r7, r8, r9, pc}
 2490              	.LVL270:
 2491              	.L233:
 2492              		.loc 1 1821 0
 2493 0054 0020     		movs	r0, #0
 2494 0056 FAE7     		b	.L231
 2495              		.cfi_endproc
 2496              	.LFE23:
 2497              		.size	amx_FindTagId, .-amx_FindTagId
 2498 0058 AFF30080 		.section	.text.amx_GetUserData,"ax",%progbits
 2498      AFF30080 
 2499              		.align	2
 2500              		.p2align 4,,15
 2501              		.global	amx_GetUserData
 2502              		.thumb
 2503              		.thumb_func
 2504              		.type	amx_GetUserData, %function
 2505              	amx_GetUserData:
 2506              	.LFB24:
 2507              		.loc 1 1831 0
 2508              		.cfi_startproc
 2509              		@ args = 0, pretend = 0, frame = 0
 2510              		@ frame_needed = 0, uses_anonymous_args = 0
 2511              		@ link register save eliminated.
 2512              	.LVL271:
 2513              		.loc 1 1836 0
 2514 0000 436B     		ldr	r3, [r0, #52]	@ unaligned
 2515 0002 8B42     		cmp	r3, r1
 2516 0004 0CD0     		beq	.L238
 2517              	.LVL272:
 2518 0006 D0F838C0 		ldr	ip, [r0, #56]	@ unaligned
 2519 000a 8C45     		cmp	ip, r1
 2520 000c 10D0     		beq	.L239
 2521              	.LVL273:
 2522 000e C36B     		ldr	r3, [r0, #60]	@ unaligned
 2523 0010 8B42     		cmp	r3, r1
 2524 0012 0FD0     		beq	.L240
 2525              	.LVL274:
 2526 0014 D0F840C0 		ldr	ip, [r0, #64]	@ unaligned
 2527 0018 8C45     		cmp	ip, r1
 2528 001a 0DD0     		beq	.L241
 2529              		.loc 1 1839 0
 2530 001c 1720     		movs	r0, #23
 2531              	.LVL275:
 2532              		.loc 1 1842 0
 2533 001e 7047     		bx	lr
 2534              	.LVL276:
 2535              	.L238:
 2536              		.loc 1 1836 0
 2537 0020 0023     		movs	r3, #0
ARM GAS  /tmp/ccvHIMcj.s 			page 46


 2538              	.LVL277:
 2539              	.L236:
 2540              		.loc 1 1840 0
 2541 0022 1033     		adds	r3, r3, #16
 2542 0024 00EB8300 		add	r0, r0, r3, lsl #2
 2543              	.LVL278:
 2544 0028 4168     		ldr	r1, [r0, #4]	@ unaligned
 2545              	.LVL279:
 2546              		.loc 1 1841 0
 2547 002a 0020     		movs	r0, #0
 2548              		.loc 1 1840 0
 2549 002c 1160     		str	r1, [r2, #0]
 2550              		.loc 1 1841 0
 2551 002e 7047     		bx	lr
 2552              	.LVL280:
 2553              	.L239:
 2554              		.loc 1 1836 0
 2555 0030 0123     		movs	r3, #1
 2556 0032 F6E7     		b	.L236
 2557              	.LVL281:
 2558              	.L240:
 2559 0034 0223     		movs	r3, #2
 2560 0036 F4E7     		b	.L236
 2561              	.LVL282:
 2562              	.L241:
 2563 0038 0323     		movs	r3, #3
 2564 003a F2E7     		b	.L236
 2565              		.cfi_endproc
 2566              	.LFE24:
 2567              		.size	amx_GetUserData, .-amx_GetUserData
 2568 003c AFF30080 		.section	.text.amx_SetUserData,"ax",%progbits
 2569              		.align	2
 2570              		.p2align 4,,15
 2571              		.global	amx_SetUserData
 2572              		.thumb
 2573              		.thumb_func
 2574              		.type	amx_SetUserData, %function
 2575              	amx_SetUserData:
 2576              	.LFB25:
 2577              		.loc 1 1845 0
 2578              		.cfi_startproc
 2579              		@ args = 0, pretend = 0, frame = 0
 2580              		@ frame_needed = 0, uses_anonymous_args = 0
 2581              		@ link register save eliminated.
 2582              	.LVL283:
 2583 0000 70B4     		push	{r4, r5, r6}
 2584              	.LCFI23:
 2585              		.cfi_def_cfa_offset 12
 2586              		.loc 1 1851 0
 2587 0002 436B     		ldr	r3, [r0, #52]	@ unaligned
 2588 0004 8B42     		cmp	r3, r1
 2589 0006 1AD0     		beq	.L247
 2590              		.cfi_offset 6, -4
 2591              		.cfi_offset 5, -8
 2592              		.cfi_offset 4, -12
 2593              	.LVL284:
 2594 0008 846B     		ldr	r4, [r0, #56]	@ unaligned
ARM GAS  /tmp/ccvHIMcj.s 			page 47


 2595 000a 8C42     		cmp	r4, r1
 2596 000c 0CD0     		beq	.L252
 2597              	.LVL285:
 2598 000e C56B     		ldr	r5, [r0, #60]	@ unaligned
 2599 0010 8D42     		cmp	r5, r1
 2600 0012 10D0     		beq	.L253
 2601              	.LVL286:
 2602 0014 066C     		ldr	r6, [r0, #64]	@ unaligned
 2603 0016 8E42     		cmp	r6, r1
 2604 0018 0FD0     		beq	.L250
 2605              	.LVL287:
 2606              		.loc 1 1855 0 discriminator 1
 2607 001a 33B1     		cbz	r3, .L246
 2608              	.LVL288:
 2609              		.loc 1 1855 0 is_stmt 0
 2610 001c 24B1     		cbz	r4, .L252
 2611              	.LVL289:
 2612 001e 55B1     		cbz	r5, .L253
 2613              	.LVL290:
 2614 0020 5EB1     		cbz	r6, .L250
 2615              		.loc 1 1859 0 is_stmt 1
 2616 0022 1420     		movs	r0, #20
 2617              	.LVL291:
 2618              	.L245:
 2619              		.loc 1 1864 0
 2620 0024 70BC     		pop	{r4, r5, r6}
 2621 0026 7047     		bx	lr
 2622              	.LVL292:
 2623              	.L252:
 2624              		.loc 1 1855 0
 2625 0028 0123     		movs	r3, #1
 2626              	.LVL293:
 2627              	.L246:
 2628              		.loc 1 1861 0
 2629 002a 00EB8304 		add	r4, r0, r3, lsl #2
 2630 002e 6163     		str	r1, [r4, #52]	@ unaligned
 2631              		.loc 1 1863 0
 2632 0030 0020     		movs	r0, #0
 2633              	.LVL294:
 2634              		.loc 1 1862 0
 2635 0032 6264     		str	r2, [r4, #68]	@ unaligned
 2636              		.loc 1 1863 0
 2637 0034 F6E7     		b	.L245
 2638              	.LVL295:
 2639              	.L253:
 2640              		.loc 1 1855 0
 2641 0036 0223     		movs	r3, #2
 2642 0038 F7E7     		b	.L246
 2643              	.LVL296:
 2644              	.L250:
 2645              		.loc 1 1851 0
 2646 003a 0323     		movs	r3, #3
 2647 003c F5E7     		b	.L246
 2648              	.LVL297:
 2649              	.L247:
 2650 003e 0023     		movs	r3, #0
 2651 0040 F3E7     		b	.L246
ARM GAS  /tmp/ccvHIMcj.s 			page 48


 2652              		.cfi_endproc
 2653              	.LFE25:
 2654              		.size	amx_SetUserData, .-amx_SetUserData
 2655 0042 00BFAFF3 		.section	.text.amx_Register,"ax",%progbits
 2655      0080AFF3 
 2655      0080AFF3 
 2655      0080
 2656              		.align	2
 2657              		.p2align 4,,15
 2658              		.global	amx_Register
 2659              		.thumb
 2660              		.thumb_func
 2661              		.type	amx_Register, %function
 2662              	amx_Register:
 2663              	.LFB27:
 2664              		.loc 1 1880 0
 2665              		.cfi_startproc
 2666              		@ args = 0, pretend = 0, frame = 24
 2667              		@ frame_needed = 0, uses_anonymous_args = 0
 2668              	.LVL298:
 2669 0000 2DE9F04F 		push	{r4, r5, r6, r7, r8, r9, sl, fp, lr}
 2670              	.LCFI24:
 2671              		.cfi_def_cfa_offset 36
 2672 0004 87B0     		sub	sp, sp, #28
 2673              	.LCFI25:
 2674              		.cfi_def_cfa_offset 64
 2675              		.loc 1 1880 0
 2676 0006 0590     		str	r0, [sp, #20]
 2677              		.loc 1 1887 0
 2678 0008 0768     		ldr	r7, [r0, #0]	@ unaligned
 2679              		.cfi_offset 14, -4
 2680              		.cfi_offset 11, -8
 2681              		.cfi_offset 10, -12
 2682              		.cfi_offset 9, -16
 2683              		.cfi_offset 8, -20
 2684              		.cfi_offset 7, -24
 2685              		.cfi_offset 6, -28
 2686              		.cfi_offset 5, -32
 2687              		.cfi_offset 4, -36
 2688              		.loc 1 1880 0
 2689 000a 0C46     		mov	r4, r1
 2690              		.loc 1 1887 0
 2691 000c 0297     		str	r7, [sp, #8]
 2692              	.LVL299:
 2693              		.loc 1 1891 0
 2694 000e B7F90A10 		ldrsh	r1, [r7, #10]	@ unaligned
 2695              	.LVL300:
 2696 0012 029B     		ldr	r3, [sp, #8]
 2697 0014 0191     		str	r1, [sp, #4]
 2698 0016 D3F824A0 		ldr	sl, [r3, #36]	@ unaligned
 2699 001a D3F828C0 		ldr	ip, [r3, #40]	@ unaligned
 2700 001e 019B     		ldr	r3, [sp, #4]
 2701 0020 CAEB0C00 		rsb	r0, sl, ip
 2702              	.LVL301:
 2703 0024 1FB2     		sxth	r7, r3
 2704              	.LVL302:
 2705 0026 90FBF7F1 		sdiv	r1, r0, r7
ARM GAS  /tmp/ccvHIMcj.s 			page 49


 2706              		.loc 1 1895 0
 2707 002a 0029     		cmp	r1, #0
 2708              		.loc 1 1891 0
 2709 002c 0391     		str	r1, [sp, #12]
 2710              	.LVL303:
 2711              		.loc 1 1880 0
 2712 002e 1746     		mov	r7, r2
 2713              		.loc 1 1895 0
 2714 0030 3EDD     		ble	.L256
 2715              		.loc 1 1894 0
 2716 0032 029A     		ldr	r2, [sp, #8]
 2717              	.LVL304:
 2718              		.loc 1 1893 0
 2719 0034 0025     		movs	r5, #0
 2720 0036 0495     		str	r5, [sp, #16]
 2721              		.loc 1 1894 0
 2722 0038 9244     		add	sl, r2, sl
 2723              	.LVL305:
 2724              		.loc 1 1895 0
 2725 003a 4FF0000B 		mov	fp, #0
 2726              	.LVL306:
 2727              	.L265:
 2728              		.loc 1 1896 0
 2729 003e DAF80050 		ldr	r5, [sl, #0]	@ unaligned
 2730 0042 15BB     		cbnz	r5, .L257
 2731              		.loc 1 1898 0
 2732 0044 54B3     		cbz	r4, .L269
 2733              		.loc 1 1898 0 is_stmt 0 discriminator 1
 2734 0046 DAF80480 		ldr	r8, [sl, #4]	@ unaligned
 2735 004a 0298     		ldr	r0, [sp, #8]
 2736              	.LBB55:
 2737              	.LBB58:
 2738              		.loc 1 1873 0 is_stmt 1 discriminator 1
 2739 004c 2168     		ldr	r1, [r4, #0]	@ unaligned
 2740              	.LBE58:
 2741              	.LBE55:
 2742              		.loc 1 1898 0 discriminator 1
 2743 004e 8044     		add	r8, r0, r8
 2744              	.LVL307:
 2745              	.LBB61:
 2746              	.LBB57:
 2747              		.loc 1 1873 0 discriminator 1
 2748 0050 21B3     		cbz	r1, .L269
 2749              		.loc 1 1879 0
 2750 0052 04F10806 		add	r6, r4, #8
 2751              	.LBE57:
 2752              	.LBE61:
 2753 0056 A146     		mov	r9, r4
 2754 0058 04E0     		b	.L260
 2755              	.LVL308:
 2756              	.L261:
 2757              	.LBB62:
 2758              	.LBB59:
 2759              		.loc 1 1873 0
 2760 005a B146     		mov	r9, r6
 2761 005c 56F8081B 		ldr	r1, [r6], #8	@ unaligned
 2762 0060 0135     		adds	r5, r5, #1
ARM GAS  /tmp/ccvHIMcj.s 			page 50


 2763              	.LVL309:
 2764 0062 D9B1     		cbz	r1, .L269
 2765              	.LVL310:
 2766              	.L260:
 2767 0064 AF42     		cmp	r7, r5
 2768              		.loc 1 1874 0
 2769 0066 4046     		mov	r0, r8
 2770              		.loc 1 1873 0
 2771 0068 02DC     		bgt	.L263
 2772 006a B7F1FF3F 		cmp	r7, #-1
 2773 006e 15D1     		bne	.L269
 2774              	.L263:
 2775              		.loc 1 1874 0
 2776 0070 FFF7FEFF 		bl	strcmp
 2777 0074 0028     		cmp	r0, #0
 2778 0076 F0D1     		bne	.L261
 2779              		.loc 1 1875 0
 2780 0078 D9F80430 		ldr	r3, [r9, #4]	@ unaligned
 2781              	.LVL311:
 2782              	.LBE59:
 2783              	.LBE62:
 2784              		.loc 1 1899 0
 2785 007c 73B1     		cbz	r3, .L269
 2786              		.loc 1 1900 0
 2787 007e CAF80030 		str	r3, [sl, #0]	@ unaligned
 2788 0082 029B     		ldr	r3, [sp, #8]
 2789              	.LVL312:
 2790 0084 B3F90A30 		ldrsh	r3, [r3, #10]	@ unaligned
 2791 0088 0193     		str	r3, [sp, #4]
 2792              	.LVL313:
 2793              	.L257:
 2794              		.loc 1 1895 0
 2795 008a 039A     		ldr	r2, [sp, #12]
 2796 008c 0BF1010B 		add	fp, fp, #1
 2797              	.LVL314:
 2798 0090 9345     		cmp	fp, r2
 2799 0092 0BD0     		beq	.L264
 2800              	.LVL315:
 2801              	.L270:
 2802              		.loc 1 1904 0
 2803 0094 0FFA83FC 		sxth	ip, r3
 2804 0098 E244     		add	sl, sl, ip
 2805 009a D0E7     		b	.L265
 2806              	.LVL316:
 2807              	.L269:
 2808              		.loc 1 1895 0
 2809 009c 039A     		ldr	r2, [sp, #12]
 2810 009e 0BF1010B 		add	fp, fp, #1
 2811              	.LBB63:
 2812              	.LBB56:
 2813              		.loc 1 1902 0
 2814 00a2 1321     		movs	r1, #19
 2815              	.LBE56:
 2816              	.LBE63:
 2817              		.loc 1 1895 0
 2818 00a4 9345     		cmp	fp, r2
 2819              	.LBB64:
ARM GAS  /tmp/ccvHIMcj.s 			page 51


 2820              	.LBB60:
 2821              		.loc 1 1873 0
 2822 00a6 019B     		ldr	r3, [sp, #4]
 2823              		.loc 1 1902 0
 2824 00a8 0491     		str	r1, [sp, #16]
 2825              	.LVL317:
 2826              	.LBE60:
 2827              	.LBE64:
 2828              		.loc 1 1895 0
 2829 00aa F3D1     		bne	.L270
 2830              	.L264:
 2831              		.loc 1 1906 0
 2832 00ac 0498     		ldr	r0, [sp, #16]
 2833 00ae 40B9     		cbnz	r0, .L266
 2834              	.LVL318:
 2835              	.L256:
 2836              		.loc 1 1907 0
 2837 00b0 0598     		ldr	r0, [sp, #20]
 2838 00b2 0599     		ldr	r1, [sp, #20]
 2839 00b4 D0F830C0 		ldr	ip, [r0, #48]	@ unaligned
 2840 00b8 0022     		movs	r2, #0
 2841 00ba 4CF48053 		orr	r3, ip, #4096
 2842 00be 0492     		str	r2, [sp, #16]
 2843 00c0 0B63     		str	r3, [r1, #48]	@ unaligned
 2844              	.L266:
 2845              		.loc 1 1909 0
 2846 00c2 0498     		ldr	r0, [sp, #16]
 2847 00c4 07B0     		add	sp, sp, #28
 2848 00c6 BDE8F08F 		pop	{r4, r5, r6, r7, r8, r9, sl, fp, pc}
 2849              		.cfi_endproc
 2850              	.LFE27:
 2851              		.size	amx_Register, .-amx_Register
 2852 00ca 00BFAFF3 		.section	.text.amx_NativeInfo,"ax",%progbits
 2852      0080
 2853              		.align	2
 2854              		.p2align 4,,15
 2855              		.global	amx_NativeInfo
 2856              		.thumb
 2857              		.thumb_func
 2858              		.type	amx_NativeInfo, %function
 2859              	amx_NativeInfo:
 2860              	.LFB28:
 2861              		.loc 1 1914 0
 2862              		.cfi_startproc
 2863              		@ args = 0, pretend = 0, frame = 0
 2864              		@ frame_needed = 0, uses_anonymous_args = 0
 2865              		@ link register save eliminated.
 2866              	.LVL319:
 2867              		.loc 1 1916 0
 2868 0000 024B     		ldr	r3, .L272
 2869 0002 1860     		str	r0, [r3, #0]
 2870              		.loc 1 1917 0
 2871 0004 5960     		str	r1, [r3, #4]
 2872              		.loc 1 1919 0
 2873 0006 1846     		mov	r0, r3
 2874              	.LVL320:
 2875 0008 7047     		bx	lr
ARM GAS  /tmp/ccvHIMcj.s 			page 52


 2876              	.L273:
 2877 000a 00BF     		.align	2
 2878              	.L272:
 2879 000c 00000000 		.word	.LANCHOR0
 2880              		.cfi_endproc
 2881              	.LFE28:
 2882              		.size	amx_NativeInfo, .-amx_NativeInfo
 2883              		.section	.text.amx_Push,"ax",%progbits
 2884              		.align	2
 2885              		.p2align 4,,15
 2886              		.global	amx_Push
 2887              		.thumb
 2888              		.thumb_func
 2889              		.type	amx_Push, %function
 2890              	amx_Push:
 2891              	.LFB29:
 2892              		.loc 1 1928 0
 2893              		.cfi_startproc
 2894              		@ args = 0, pretend = 0, frame = 0
 2895              		@ frame_needed = 0, uses_anonymous_args = 0
 2896              		@ link register save eliminated.
 2897              	.LVL321:
 2898 0000 10B4     		push	{r4}
 2899              	.LCFI26:
 2900              		.cfi_def_cfa_offset 4
 2901              		.loc 1 1932 0
 2902 0002 026A     		ldr	r2, [r0, #32]	@ unaligned
 2903 0004 836A     		ldr	r3, [r0, #40]	@ unaligned
 2904 0006 3F32     		adds	r2, r2, #63
 2905 0008 9A42     		cmp	r2, r3
 2906 000a 0BDA     		bge	.L277
 2907              		.cfi_offset 4, -4
 2908              		.loc 1 1935 0
 2909 000c 8268     		ldr	r2, [r0, #8]	@ unaligned
 2910              		.loc 1 1934 0
 2911 000e 0468     		ldr	r4, [r0, #0]	@ unaligned
 2912              	.LVL322:
 2913              		.loc 1 1935 0
 2914 0010 52B1     		cbz	r2, .L278
 2915              	.L276:
 2916              	.LVL323:
 2917              		.loc 1 1937 0 discriminator 3
 2918 0012 846D     		ldr	r4, [r0, #88]	@ unaligned
 2919              	.LVL324:
 2920              		.loc 1 1936 0 discriminator 3
 2921 0014 043B     		subs	r3, r3, #4
 2922              		.loc 1 1937 0 discriminator 3
 2923 0016 0134     		adds	r4, r4, #1
 2924              		.loc 1 1936 0 discriminator 3
 2925 0018 8362     		str	r3, [r0, #40]	@ unaligned
 2926              		.loc 1 1937 0 discriminator 3
 2927 001a 8465     		str	r4, [r0, #88]	@ unaligned
 2928              		.loc 1 1939 0 discriminator 3
 2929 001c 0020     		movs	r0, #0
 2930              	.LVL325:
 2931              		.loc 1 1938 0 discriminator 3
 2932 001e D150     		str	r1, [r2, r3]
ARM GAS  /tmp/ccvHIMcj.s 			page 53


 2933              	.LVL326:
 2934              	.L275:
 2935              		.loc 1 1940 0
 2936 0020 10BC     		pop	{r4}
 2937 0022 7047     		bx	lr
 2938              	.LVL327:
 2939              	.L277:
 2940              		.loc 1 1933 0
 2941 0024 0320     		movs	r0, #3
 2942              	.LVL328:
 2943 0026 FBE7     		b	.L275
 2944              	.LVL329:
 2945              	.L278:
 2946              		.loc 1 1935 0 discriminator 2
 2947 0028 D4F810C0 		ldr	ip, [r4, #16]	@ unaligned
 2948 002c 04EB0C02 		add	r2, r4, ip
 2949 0030 EFE7     		b	.L276
 2950              		.cfi_endproc
 2951              	.LFE29:
 2952              		.size	amx_Push, .-amx_Push
 2953 0032 00BFAFF3 		.section	.text.amx_PushAddress,"ax",%progbits
 2953      0080AFF3 
 2953      0080AFF3 
 2953      0080
 2954              		.align	2
 2955              		.p2align 4,,15
 2956              		.global	amx_PushAddress
 2957              		.thumb
 2958              		.thumb_func
 2959              		.type	amx_PushAddress, %function
 2960              	amx_PushAddress:
 2961              	.LFB30:
 2962              		.loc 1 1943 0
 2963              		.cfi_startproc
 2964              		@ args = 0, pretend = 0, frame = 0
 2965              		@ frame_needed = 0, uses_anonymous_args = 0
 2966              		@ link register save eliminated.
 2967              	.LVL330:
 2968 0000 30B4     		push	{r4, r5}
 2969              	.LCFI27:
 2970              		.cfi_def_cfa_offset 8
 2971              		.loc 1 1953 0
 2972 0002 8368     		ldr	r3, [r0, #8]	@ unaligned
 2973              		.loc 1 1950 0
 2974 0004 0568     		ldr	r5, [r0, #0]	@ unaligned
 2975              		.cfi_offset 5, -4
 2976              		.cfi_offset 4, -8
 2977              	.LVL331:
 2978              		.loc 1 1953 0
 2979 0006 BBB1     		cbz	r3, .L286
 2980 0008 1C46     		mov	r4, r3
 2981              	.L280:
 2982              	.LVL332:
 2983              		.loc 1 1955 0 discriminator 3
 2984 000a C26A     		ldr	r2, [r0, #44]	@ unaligned
 2985              		.loc 1 1954 0 discriminator 3
 2986 000c 091B     		subs	r1, r1, r4
ARM GAS  /tmp/ccvHIMcj.s 			page 54


 2987              	.LVL333:
 2988              		.loc 1 1955 0 discriminator 3
 2989 000e 9142     		cmp	r1, r2
 2990 0010 10D2     		bcs	.L284
 2991              	.LVL334:
 2992              	.LBB65:
 2993              	.LBB67:
 2994              		.loc 1 1932 0
 2995 0012 046A     		ldr	r4, [r0, #32]	@ unaligned
 2996              	.LVL335:
 2997 0014 826A     		ldr	r2, [r0, #40]	@ unaligned
 2998 0016 3F34     		adds	r4, r4, #63
 2999 0018 9442     		cmp	r4, r2
 3000 001a 09DA     		bge	.L285
 3001              	.LVL336:
 3002              		.loc 1 1935 0
 3003 001c 7BB1     		cbz	r3, .L287
 3004              	.L282:
 3005              	.LVL337:
 3006              		.loc 1 1937 0
 3007 001e 846D     		ldr	r4, [r0, #88]	@ unaligned
 3008              		.loc 1 1936 0
 3009 0020 043A     		subs	r2, r2, #4
 3010              		.loc 1 1937 0
 3011 0022 0134     		adds	r4, r4, #1
 3012              		.loc 1 1936 0
 3013 0024 8262     		str	r2, [r0, #40]	@ unaligned
 3014              		.loc 1 1937 0
 3015 0026 8465     		str	r4, [r0, #88]	@ unaligned
 3016              		.loc 1 1939 0
 3017 0028 0020     		movs	r0, #0
 3018              	.LVL338:
 3019              		.loc 1 1938 0
 3020 002a 9950     		str	r1, [r3, r2]
 3021              	.LVL339:
 3022              	.L281:
 3023              	.LBE67:
 3024              	.LBE65:
 3025              		.loc 1 1958 0
 3026 002c 30BC     		pop	{r4, r5}
 3027 002e 7047     		bx	lr
 3028              	.LVL340:
 3029              	.L285:
 3030              	.LBB69:
 3031              	.LBB66:
 3032              		.loc 1 1933 0
 3033 0030 0320     		movs	r0, #3
 3034              	.LVL341:
 3035 0032 FBE7     		b	.L281
 3036              	.LVL342:
 3037              	.L284:
 3038              	.LBE66:
 3039              	.LBE69:
 3040              		.loc 1 1956 0
 3041 0034 0520     		movs	r0, #5
 3042              	.LVL343:
 3043 0036 F9E7     		b	.L281
ARM GAS  /tmp/ccvHIMcj.s 			page 55


 3044              	.LVL344:
 3045              	.L286:
 3046              		.loc 1 1953 0 discriminator 2
 3047 0038 2C69     		ldr	r4, [r5, #16]	@ unaligned
 3048 003a 2C19     		adds	r4, r5, r4
 3049 003c E5E7     		b	.L280
 3050              	.LVL345:
 3051              	.L287:
 3052              	.LBB70:
 3053              	.LBB68:
 3054              		.loc 1 1935 0
 3055 003e 2B69     		ldr	r3, [r5, #16]	@ unaligned
 3056 0040 EB18     		adds	r3, r5, r3
 3057 0042 ECE7     		b	.L282
 3058              	.LBE68:
 3059              	.LBE70:
 3060              		.cfi_endproc
 3061              	.LFE30:
 3062              		.size	amx_PushAddress, .-amx_PushAddress
 3063 0044 AFF30080 		.section	.text.amx_exec_list,"ax",%progbits
 3063      AFF30080 
 3063      AFF30080 
 3064              		.align	2
 3065              		.p2align 4,,15
 3066              		.global	amx_exec_list
 3067              		.thumb
 3068              		.thumb_func
 3069              		.type	amx_exec_list, %function
 3070              	amx_exec_list:
 3071              	.LFB33:
 3072              		.loc 1 2054 0
 3073              		.cfi_startproc
 3074              		@ args = 0, pretend = 0, frame = 0
 3075              		@ frame_needed = 0, uses_anonymous_args = 0
 3076              		@ link register save eliminated.
 3077              	.LVL346:
 3078              		.loc 1 2057 0
 3079 0000 0020     		movs	r0, #0
 3080              	.LVL347:
 3081              		.loc 1 2059 0
 3082 0002 AF23     		movs	r3, #175
 3083              		.loc 1 2057 0
 3084 0004 0860     		str	r0, [r1, #0]
 3085              		.loc 1 2059 0
 3086 0006 1360     		str	r3, [r2, #0]
 3087              		.loc 1 2061 0
 3088 0008 7047     		bx	lr
 3089              		.cfi_endproc
 3090              	.LFE33:
 3091              		.size	amx_exec_list, .-amx_exec_list
 3092 000a 00BFAFF3 		.section	.text.amx_Exec,"ax",%progbits
 3092      0080
 3093              		.align	2
 3094              		.p2align 4,,15
 3095              		.global	amx_Exec
 3096              		.thumb
 3097              		.thumb_func
ARM GAS  /tmp/ccvHIMcj.s 			page 56


 3098              		.type	amx_Exec, %function
 3099              	amx_Exec:
 3100              	.LFB34:
 3101              		.loc 1 2065 0
 3102              		.cfi_startproc
 3103              		@ args = 0, pretend = 0, frame = 48
 3104              		@ frame_needed = 0, uses_anonymous_args = 0
 3105              	.LVL348:
 3106 0000 2DE9F04F 		push	{r4, r5, r6, r7, r8, r9, sl, fp, lr}
 3107              	.LCFI28:
 3108              		.cfi_def_cfa_offset 36
 3109              		.loc 1 2077 0
 3110 0004 036B     		ldr	r3, [r0, #48]	@ unaligned
 3111              		.loc 1 2065 0
 3112 0006 8DB0     		sub	sp, sp, #52
 3113              	.LCFI29:
 3114              		.cfi_def_cfa_offset 88
 3115              		.loc 1 2077 0
 3116 0008 13F4004F 		tst	r3, #32768
 3117              		.loc 1 2065 0
 3118 000c 0446     		mov	r4, r0
 3119              		.cfi_offset 14, -4
 3120              		.cfi_offset 11, -8
 3121              		.cfi_offset 10, -12
 3122              		.cfi_offset 9, -16
 3123              		.cfi_offset 8, -20
 3124              		.cfi_offset 7, -24
 3125              		.cfi_offset 6, -28
 3126              		.cfi_offset 5, -32
 3127              		.cfi_offset 4, -36
 3128 000e 0391     		str	r1, [sp, #12]
 3129              		.loc 1 2077 0
 3130 0010 00F06081 		beq	.L591
 3131              		.loc 1 2079 0
 3132 0014 C168     		ldr	r1, [r0, #12]	@ unaligned
 3133              	.LVL349:
 3134 0016 0029     		cmp	r1, #0
 3135 0018 00F07981 		beq	.L592
 3136              		.loc 1 2082 0
 3137 001c D0F80080 		ldr	r8, [r0, #0]	@ unaligned
 3138              	.LVL350:
 3139              		.loc 1 2086 0
 3140 0020 13F48050 		ands	r0, r3, #4096
 3141              	.LVL351:
 3142 0024 28D1     		bne	.L291
 3143              	.LBB71:
 3144              		.loc 1 2092 0
 3145 0026 B8F90A60 		ldrsh	r6, [r8, #10]	@ unaligned
 3146 002a D8F82410 		ldr	r1, [r8, #36]	@ unaligned
 3147 002e D8F828C0 		ldr	ip, [r8, #40]	@ unaligned
 3148 0032 35B2     		sxth	r5, r6
 3149 0034 C1EB0C07 		rsb	r7, r1, ip
 3150 0038 97FBF5F7 		sdiv	r7, r7, r5
 3151              	.LVL352:
 3152              		.loc 1 2094 0
 3153 003c 002F     		cmp	r7, #0
 3154 003e 18DD     		ble	.L292
ARM GAS  /tmp/ccvHIMcj.s 			page 57


 3155              		.loc 1 2093 0
 3156 0040 4144     		add	r1, r8, r1
 3157              	.LVL353:
 3158              		.loc 1 2094 0
 3159 0042 0D68     		ldr	r5, [r1, #0]	@ unaligned
 3160 0044 3DB1     		cbz	r5, .L593
 3161 0046 17F0010F 		tst	r7, #1
 3162              		.loc 1 2095 0 discriminator 1
 3163 004a 36B2     		sxth	r6, r6
 3164 004c 0ED1     		bne	.L293
 3165              		.loc 1 2064 0
 3166 004e 8919     		adds	r1, r1, r6
 3167              		.loc 1 2094 0
 3168 0050 0D68     		ldr	r5, [r1, #0]	@ unaligned
 3169 0052 0120     		movs	r0, #1
 3170              	.LVL354:
 3171 0054 55B9     		cbnz	r5, .L293
 3172              	.LVL355:
 3173              	.L593:
 3174              		.loc 1 2097 0
 3175 0056 1320     		movs	r0, #19
 3176 0058 3DE1     		b	.L290
 3177              	.L806:
 3178              		.loc 1 2064 0 discriminator 2
 3179 005a 8D19     		adds	r5, r1, r6
 3180 005c A919     		adds	r1, r5, r6
 3181              		.loc 1 2094 0 discriminator 2
 3182 005e 2D68     		ldr	r5, [r5, #0]	@ unaligned
 3183 0060 0130     		adds	r0, r0, #1
 3184 0062 002D     		cmp	r5, #0
 3185 0064 F7D0     		beq	.L593
 3186              	.LVL356:
 3187              		.loc 1 2094 0 is_stmt 0
 3188 0066 0D68     		ldr	r5, [r1, #0]	@ unaligned
 3189 0068 002D     		cmp	r5, #0
 3190 006a F4D0     		beq	.L593
 3191              	.LVL357:
 3192              	.L293:
 3193              		.loc 1 2094 0 discriminator 1
 3194 006c 0130     		adds	r0, r0, #1
 3195 006e B842     		cmp	r0, r7
 3196 0070 F3D1     		bne	.L806
 3197              	.L292:
 3198              		.loc 1 2098 0 is_stmt 1
 3199 0072 43F48053 		orr	r3, r3, #4096
 3200 0076 2363     		str	r3, [r4, #48]	@ unaligned
 3201              	.LVL358:
 3202              	.L291:
 3203              	.LBE71:
 3204              		.loc 1 2105 0
 3205 0078 A668     		ldr	r6, [r4, #8]	@ unaligned
 3206 007a 002E     		cmp	r6, #0
 3207 007c 00F04981 		beq	.L807
 3208              	.L294:
 3209              	.LVL359:
 3210              		.loc 1 2106 0 discriminator 3
 3211 0080 A16A     		ldr	r1, [r4, #40]	@ unaligned
ARM GAS  /tmp/ccvHIMcj.s 			page 58


 3212              		.loc 1 2108 0 discriminator 3
 3213 0082 0023     		movs	r3, #0
 3214 0084 84F85430 		strb	r3, [r4, #84]
 3215 0088 84F85530 		strb	r3, [r4, #85]
 3216 008c 84F85630 		strb	r3, [r4, #86]
 3217 0090 84F85730 		strb	r3, [r4, #87]
 3218              		.loc 1 2106 0 discriminator 3
 3219 0094 0491     		str	r1, [sp, #16]
 3220              	.LVL360:
 3221              		.loc 1 2107 0 discriminator 3
 3222 0096 206A     		ldr	r0, [r4, #32]	@ unaligned
 3223              		.loc 1 2111 0 discriminator 3
 3224 0098 B2F1FF3F 		cmp	r2, #-1
 3225              		.loc 1 2107 0 discriminator 3
 3226 009c 0590     		str	r0, [sp, #20]
 3227              	.LVL361:
 3228              		.loc 1 2111 0 discriminator 3
 3229 009e 00F01D81 		beq	.L808
 3230              		.loc 1 2123 0
 3231 00a2 12F1020F 		cmn	r2, #2
 3232 00a6 01F05D83 		beq	.L809
 3233              		.loc 1 2133 0
 3234 00aa 002A     		cmp	r2, #0
 3235 00ac C0F21B81 		blt	.L598
 3236              		.loc 1 2136 0
 3237 00b0 D8F82400 		ldr	r0, [r8, #36]	@ unaligned
 3238              	.LVL362:
 3239 00b4 D8F82010 		ldr	r1, [r8, #32]	@ unaligned
 3240              	.LVL363:
 3241 00b8 B8F90A30 		ldrsh	r3, [r8, #10]	@ unaligned
 3242 00bc C1EB000C 		rsb	ip, r1, r0
 3243 00c0 9CFBF3F0 		sdiv	r0, ip, r3
 3244 00c4 8242     		cmp	r2, r0
 3245 00c6 80F20E81 		bge	.L598
 3246              		.loc 1 2139 0
 3247 00ca 08EB010C 		add	ip, r8, r1
 3248 00ce 03FB02C1 		mla	r1, r3, r2, ip
 3249 00d2 0968     		ldr	r1, [r1, #0]	@ unaligned
 3250              	.L805:
 3251 00d4 A161     		str	r1, [r4, #24]	@ unaligned
 3252              		.loc 1 2140 0
 3253 00d6 D8F83800 		ldr	r0, [r8, #56]	@ unaligned
 3254 00da D8F83430 		ldr	r3, [r8, #52]	@ unaligned
 3255 00de 9842     		cmp	r0, r3
 3256 00e0 40F00581 		bne	.L810
 3257 00e4 DDF81090 		ldr	r9, [sp, #16]
 3258              	.LVL364:
 3259              	.L296:
 3260              		.loc 1 2150 0
 3261 00e8 E16A     		ldr	r1, [r4, #44]	@ unaligned
 3262 00ea 4945     		cmp	r1, r9
 3263 00ec C0F2FD80 		blt	.L624
 3264              		.loc 1 2152 0
 3265 00f0 D4F820B0 		ldr	fp, [r4, #32]	@ unaligned
 3266 00f4 606A     		ldr	r0, [r4, #36]	@ unaligned
 3267 00f6 8345     		cmp	fp, r0
 3268 00f8 C0F20F81 		blt	.L626
ARM GAS  /tmp/ccvHIMcj.s 			page 59


 3269              		.loc 1 2180 0
 3270 00fc 12F1020F 		cmn	r2, #2
 3271 0100 1BD0     		beq	.L298
 3272              		.loc 1 2181 0
 3273 0102 A06D     		ldr	r0, [r4, #88]	@ unaligned
 3274              		.loc 1 2182 0
 3275 0104 A9F10409 		sub	r9, r9, #4
 3276              		.loc 1 2181 0
 3277 0108 8000     		lsls	r0, r0, #2
 3278              		.loc 1 2182 0
 3279 010a C4F82890 		str	r9, [r4, #40]	@ unaligned
 3280 010e 46F80900 		str	r0, [r6, r9]
 3281              		.loc 1 2184 0
 3282 0112 A36A     		ldr	r3, [r4, #40]	@ unaligned
 3283              		.loc 1 2183 0
 3284 0114 0022     		movs	r2, #0
 3285              		.loc 1 2184 0
 3286 0116 191F     		subs	r1, r3, #4
 3287 0118 A162     		str	r1, [r4, #40]	@ unaligned
 3288              		.loc 1 2183 0
 3289 011a 84F85820 		strb	r2, [r4, #88]
 3290 011e 84F85920 		strb	r2, [r4, #89]
 3291 0122 84F85A20 		strb	r2, [r4, #90]
 3292 0126 84F85B20 		strb	r2, [r4, #91]
 3293              		.loc 1 2181 0
 3294 012a 049B     		ldr	r3, [sp, #16]
 3295              		.loc 1 2184 0
 3296 012c 7250     		str	r2, [r6, r1]
 3297              		.loc 1 2181 0
 3298 012e 1A18     		adds	r2, r3, r0
 3299              		.loc 1 2184 0
 3300 0130 D4F820B0 		ldr	fp, [r4, #32]	@ unaligned
 3301 0134 D4F82890 		ldr	r9, [r4, #40]	@ unaligned
 3302              		.loc 1 2181 0
 3303 0138 0492     		str	r2, [sp, #16]
 3304              	.LVL365:
 3305              	.L298:
 3306              		.loc 1 2187 0
 3307 013a 0BF13F0C 		add	ip, fp, #63
 3308 013e CC45     		cmp	ip, r9
 3309 0140 80F2ED80 		bge	.L625
 3310              		.loc 1 2228 0
 3311 0144 E26D     		ldr	r2, [r4, #92]	@ unaligned
 3312 0146 0CAB     		add	r3, sp, #48
 3313              		.loc 1 2231 0
 3314 0148 6568     		ldr	r5, [r4, #4]	@ unaligned
 3315 014a A169     		ldr	r1, [r4, #24]	@ unaligned
 3316              		.loc 1 2228 0
 3317 014c 43F8042D 		str	r2, [r3, #-4]!
 3318              	.LVL366:
 3319 0150 0693     		str	r3, [sp, #24]
 3320              		.loc 1 2064 0
 3321 0152 371D     		adds	r7, r6, #4
 3322              		.loc 1 2229 0
 3323 0154 D4F860A0 		ldr	sl, [r4, #96]	@ unaligned
 3324              	.LVL367:
 3325              		.loc 1 2230 0
ARM GAS  /tmp/ccvHIMcj.s 			page 60


 3326 0158 D4F81CC0 		ldr	ip, [r4, #28]	@ unaligned
 3327              	.LVL368:
 3328              		.loc 1 2231 0
 3329 015c 6D18     		adds	r5, r5, r1
 3330              	.LVL369:
 3331              		.loc 1 2064 0
 3332 015e 0897     		str	r7, [sp, #32]
 3333 0160 4746     		mov	r7, r8
 3334 0162 A046     		mov	r8, r4
 3335              	.LVL370:
 3336              	.L743:
 3337              		.loc 1 2237 0
 3338 0164 2C46     		mov	r4, r5
 3339 0166 54F8040B 		ldr	r0, [r4], #4
 3340              	.LVL371:
 3341              		.loc 1 2238 0
 3342 016a C1B2     		uxtb	r1, r0
 3343 016c AE29     		cmp	r1, #174
 3344 016e 00F23D86 		bhi	.L302
 3345 0172 DFE811F0 		tbh	[pc, r1, lsl #1]
 3346              	.L472:
 3347 0176 3806     		.2byte	(.L300-.L472)/2
 3348 0178 3206     		.2byte	(.L303-.L472)/2
 3349 017a 2C06     		.2byte	(.L304-.L472)/2
 3350 017c 2406     		.2byte	(.L305-.L472)/2
 3351 017e 1C06     		.2byte	(.L306-.L472)/2
 3352 0180 1306     		.2byte	(.L307-.L472)/2
 3353 0182 0906     		.2byte	(.L308-.L472)/2
 3354 0184 F905     		.2byte	(.L309-.L472)/2
 3355 0186 F605     		.2byte	(.L310-.L472)/2
 3356 0188 F105     		.2byte	(.L311-.L472)/2
 3357 018a EC05     		.2byte	(.L312-.L472)/2
 3358 018c E505     		.2byte	(.L313-.L472)/2
 3359 018e DF05     		.2byte	(.L314-.L472)/2
 3360 0190 D905     		.2byte	(.L315-.L472)/2
 3361 0192 D706     		.2byte	(.L316-.L472)/2
 3362 0194 CE06     		.2byte	(.L317-.L472)/2
 3363 0196 BE06     		.2byte	(.L318-.L472)/2
 3364 0198 BB06     		.2byte	(.L319-.L472)/2
 3365 019a 6D06     		.2byte	(.L320-.L472)/2
 3366 019c 5F06     		.2byte	(.L321-.L472)/2
 3367 019e 4B06     		.2byte	(.L322-.L472)/2
 3368 01a0 4406     		.2byte	(.L323-.L472)/2
 3369 01a2 9206     		.2byte	(.L324-.L472)/2
 3370 01a4 8B06     		.2byte	(.L325-.L472)/2
 3371 01a6 8206     		.2byte	(.L326-.L472)/2
 3372 01a8 7A06     		.2byte	(.L327-.L472)/2
 3373 01aa A206     		.2byte	(.L328-.L472)/2
 3374 01ac 9A06     		.2byte	(.L329-.L472)/2
 3375 01ae A906     		.2byte	(.L330-.L472)/2
 3376 01b0 E204     		.2byte	(.L331-.L472)/2
 3377 01b2 B005     		.2byte	(.L332-.L472)/2
 3378 01b4 9F05     		.2byte	(.L333-.L472)/2
 3379 01b6 8B05     		.2byte	(.L334-.L472)/2
 3380 01b8 7E05     		.2byte	(.L335-.L472)/2
 3381 01ba 7905     		.2byte	(.L336-.L472)/2
 3382 01bc 7005     		.2byte	(.L337-.L472)/2
ARM GAS  /tmp/ccvHIMcj.s 			page 61


 3383 01be 6705     		.2byte	(.L338-.L472)/2
 3384 01c0 6005     		.2byte	(.L339-.L472)/2
 3385 01c2 D205     		.2byte	(.L340-.L472)/2
 3386 01c4 CB05     		.2byte	(.L341-.L472)/2
 3387 01c6 C305     		.2byte	(.L342-.L472)/2
 3388 01c8 BD05     		.2byte	(.L343-.L472)/2
 3389 01ca C004     		.2byte	(.L344-.L472)/2
 3390 01cc AC04     		.2byte	(.L345-.L472)/2
 3391 01ce A504     		.2byte	(.L346-.L472)/2
 3392 01d0 9E04     		.2byte	(.L347-.L472)/2
 3393 01d2 9704     		.2byte	(.L348-.L472)/2
 3394 01d4 9004     		.2byte	(.L349-.L472)/2
 3395 01d6 8904     		.2byte	(.L350-.L472)/2
 3396 01d8 8004     		.2byte	(.L351-.L472)/2
 3397 01da 7A04     		.2byte	(.L352-.L472)/2
 3398 01dc 7404     		.2byte	(.L353-.L472)/2
 3399 01de 6A04     		.2byte	(.L354-.L472)/2
 3400 01e0 6104     		.2byte	(.L355-.L472)/2
 3401 01e2 5804     		.2byte	(.L356-.L472)/2
 3402 01e4 4F04     		.2byte	(.L357-.L472)/2
 3403 01e6 4604     		.2byte	(.L358-.L472)/2
 3404 01e8 3D04     		.2byte	(.L359-.L472)/2
 3405 01ea 3704     		.2byte	(.L360-.L472)/2
 3406 01ec 3204     		.2byte	(.L361-.L472)/2
 3407 01ee 2B04     		.2byte	(.L362-.L472)/2
 3408 01f0 2504     		.2byte	(.L363-.L472)/2
 3409 01f2 4609     		.2byte	(.L364-.L472)/2
 3410 01f4 3F09     		.2byte	(.L365-.L472)/2
 3411 01f6 3B09     		.2byte	(.L366-.L472)/2
 3412 01f8 3709     		.2byte	(.L367-.L472)/2
 3413 01fa 3309     		.2byte	(.L368-.L472)/2
 3414 01fc 2D09     		.2byte	(.L369-.L472)/2
 3415 01fe 1809     		.2byte	(.L370-.L472)/2
 3416 0200 EC08     		.2byte	(.L371-.L472)/2
 3417 0202 5409     		.2byte	(.L372-.L472)/2
 3418 0204 4B09     		.2byte	(.L373-.L472)/2
 3419 0206 8807     		.2byte	(.L374-.L472)/2
 3420 0208 6B07     		.2byte	(.L375-.L472)/2
 3421 020a 3B06     		.2byte	(.L302-.L472)/2
 3422 020c 3B06     		.2byte	(.L302-.L472)/2
 3423 020e 3B06     		.2byte	(.L302-.L472)/2
 3424 0210 4D07     		.2byte	(.L376-.L472)/2
 3425 0212 2707     		.2byte	(.L377-.L472)/2
 3426 0214 F106     		.2byte	(.L378-.L472)/2
 3427 0216 3B06     		.2byte	(.L302-.L472)/2
 3428 0218 DF06     		.2byte	(.L379-.L472)/2
 3429 021a A708     		.2byte	(.L380-.L472)/2
 3430 021c A008     		.2byte	(.L381-.L472)/2
 3431 021e 9608     		.2byte	(.L382-.L472)/2
 3432 0220 8E08     		.2byte	(.L383-.L472)/2
 3433 0222 8508     		.2byte	(.L384-.L472)/2
 3434 0224 7A08     		.2byte	(.L385-.L472)/2
 3435 0226 7008     		.2byte	(.L386-.L472)/2
 3436 0228 6708     		.2byte	(.L387-.L472)/2
 3437 022a E008     		.2byte	(.L388-.L472)/2
 3438 022c D508     		.2byte	(.L389-.L472)/2
 3439 022e C508     		.2byte	(.L390-.L472)/2
ARM GAS  /tmp/ccvHIMcj.s 			page 62


 3440 0230 BC08     		.2byte	(.L391-.L472)/2
 3441 0232 CC08     		.2byte	(.L392-.L472)/2
 3442 0234 D904     		.2byte	(.L393-.L472)/2
 3443 0236 D004     		.2byte	(.L394-.L472)/2
 3444 0238 C704     		.2byte	(.L395-.L472)/2
 3445 023a AA09     		.2byte	(.L396-.L472)/2
 3446 023c A309     		.2byte	(.L397-.L472)/2
 3447 023e 9C09     		.2byte	(.L398-.L472)/2
 3448 0240 9409     		.2byte	(.L399-.L472)/2
 3449 0242 8F09     		.2byte	(.L400-.L472)/2
 3450 0244 8A09     		.2byte	(.L603-.L472)/2
 3451 0246 8409     		.2byte	(.L401-.L472)/2
 3452 0248 7C09     		.2byte	(.L402-.L472)/2
 3453 024a D409     		.2byte	(.L403-.L472)/2
 3454 024c CA09     		.2byte	(.L404-.L472)/2
 3455 024e E509     		.2byte	(.L405-.L472)/2
 3456 0250 C109     		.2byte	(.L406-.L472)/2
 3457 0252 DE09     		.2byte	(.L407-.L472)/2
 3458 0254 5705     		.2byte	(.L408-.L472)/2
 3459 0256 2405     		.2byte	(.L409-.L472)/2
 3460 0258 F304     		.2byte	(.L410-.L472)/2
 3461 025a 5A0A     		.2byte	(.L411-.L472)/2
 3462 025c 170A     		.2byte	(.L412-.L472)/2
 3463 025e 8F0A     		.2byte	(.L413-.L472)/2
 3464 0260 3108     		.2byte	(.L414-.L472)/2
 3465 0262 EA07     		.2byte	(.L415-.L472)/2
 3466 0264 A807     		.2byte	(.L416-.L472)/2
 3467 0266 9E07     		.2byte	(.L417-.L472)/2
 3468 0268 9007     		.2byte	(.L418-.L472)/2
 3469 026a 010A     		.2byte	(.L419-.L472)/2
 3470 026c F809     		.2byte	(.L420-.L472)/2
 3471 026e F209     		.2byte	(.L421-.L472)/2
 3472 0270 EC09     		.2byte	(.L422-.L472)/2
 3473 0272 0F0A     		.2byte	(.L423-.L472)/2
 3474 0274 080A     		.2byte	(.L424-.L472)/2
 3475 0276 1D04     		.2byte	(.L425-.L472)/2
 3476 0278 1504     		.2byte	(.L426-.L472)/2
 3477 027a CD03     		.2byte	(.L427-.L472)/2
 3478 027c C903     		.2byte	(.L428-.L472)/2
 3479 027e C503     		.2byte	(.L429-.L472)/2
 3480 0280 C003     		.2byte	(.L430-.L472)/2
 3481 0282 BC03     		.2byte	(.L431-.L472)/2
 3482 0284 B703     		.2byte	(.L432-.L472)/2
 3483 0286 B003     		.2byte	(.L433-.L472)/2
 3484 0288 A903     		.2byte	(.L434-.L472)/2
 3485 028a FB03     		.2byte	(.L435-.L472)/2
 3486 028c E603     		.2byte	(.L436-.L472)/2
 3487 028e 5903     		.2byte	(.L437-.L472)/2
 3488 0290 4D03     		.2byte	(.L438-.L472)/2
 3489 0292 4603     		.2byte	(.L439-.L472)/2
 3490 0294 3E03     		.2byte	(.L440-.L472)/2
 3491 0296 3403     		.2byte	(.L441-.L472)/2
 3492 0298 2C03     		.2byte	(.L442-.L472)/2
 3493 029a A103     		.2byte	(.L443-.L472)/2
 3494 029c 9603     		.2byte	(.L444-.L472)/2
 3495 029e 8C03     		.2byte	(.L445-.L472)/2
 3496 02a0 6203     		.2byte	(.L446-.L472)/2
ARM GAS  /tmp/ccvHIMcj.s 			page 63


 3497 02a2 FE02     		.2byte	(.L447-.L472)/2
 3498 02a4 CD02     		.2byte	(.L448-.L472)/2
 3499 02a6 9E02     		.2byte	(.L449-.L472)/2
 3500 02a8 7002     		.2byte	(.L450-.L472)/2
 3501 02aa 3C02     		.2byte	(.L451-.L472)/2
 3502 02ac 0B02     		.2byte	(.L452-.L472)/2
 3503 02ae FB01     		.2byte	(.L453-.L472)/2
 3504 02b0 EB01     		.2byte	(.L454-.L472)/2
 3505 02b2 E401     		.2byte	(.L455-.L472)/2
 3506 02b4 DF01     		.2byte	(.L456-.L472)/2
 3507 02b6 D901     		.2byte	(.L457-.L472)/2
 3508 02b8 D201     		.2byte	(.L458-.L472)/2
 3509 02ba CD01     		.2byte	(.L459-.L472)/2
 3510 02bc C601     		.2byte	(.L460-.L472)/2
 3511 02be BD01     		.2byte	(.L461-.L472)/2
 3512 02c0 B501     		.2byte	(.L462-.L472)/2
 3513 02c2 AF01     		.2byte	(.L463-.L472)/2
 3514 02c4 A801     		.2byte	(.L464-.L472)/2
 3515 02c6 A201     		.2byte	(.L465-.L472)/2
 3516 02c8 9B01     		.2byte	(.L466-.L472)/2
 3517 02ca 2B01     		.2byte	(.L467-.L472)/2
 3518 02cc F800     		.2byte	(.L468-.L472)/2
 3519 02ce 5D01     		.2byte	(.L469-.L472)/2
 3520 02d0 DD00     		.2byte	(.L470-.L472)/2
 3521 02d2 D600     		.2byte	(.L471-.L472)/2
 3522              	.LVL372:
 3523              	.L591:
 3524              		.loc 1 2078 0
 3525 02d4 1620     		movs	r0, #22
 3526              	.LVL373:
 3527              	.L290:
 3528              		.loc 1 3365 0
 3529 02d6 0DB0     		add	sp, sp, #52
 3530 02d8 BDE8F08F 		pop	{r4, r5, r6, r7, r8, r9, sl, fp, pc}
 3531              	.LVL374:
 3532              	.L808:
 3533              		.loc 1 2112 0
 3534 02dc D8F81C10 		ldr	r1, [r8, #28]	@ unaligned
 3535              	.LVL375:
 3536 02e0 9942     		cmp	r1, r3
 3537 02e2 BFF6F7AE 		bge	.L805
 3538              	.LVL376:
 3539              	.L598:
 3540              		.loc 1 2137 0
 3541 02e6 1420     		movs	r0, #20
 3542 02e8 F5E7     		b	.L290
 3543              	.LVL377:
 3544              	.L624:
 3545              		.loc 1 3262 0
 3546 02ea 0720     		movs	r0, #7
 3547 02ec F3E7     		b	.L290
 3548              	.LVL378:
 3549              	.L810:
 3550              		.loc 1 2143 0
 3551 02ee 2167     		str	r1, [r4, #112]	@ unaligned
 3552              		.loc 1 2144 0
 3553 02f0 D4F814C0 		ldr	ip, [r4, #20]	@ unaligned
ARM GAS  /tmp/ccvHIMcj.s 			page 64


 3554 02f4 2046     		mov	r0, r4
 3555 02f6 0192     		str	r2, [sp, #4]
 3556 02f8 E047     		blx	ip
 3557              	.LVL379:
 3558 02fa 019A     		ldr	r2, [sp, #4]
 3559 02fc 0028     		cmp	r0, #0
 3560 02fe EAD1     		bne	.L290
 3561              		.loc 1 2146 0
 3562 0300 2076     		strb	r0, [r4, #24]
 3563 0302 6076     		strb	r0, [r4, #25]
 3564 0304 A076     		strb	r0, [r4, #26]
 3565 0306 E076     		strb	r0, [r4, #27]
 3566 0308 D4F82890 		ldr	r9, [r4, #40]	@ unaligned
 3567 030c ECE6     		b	.L296
 3568              	.LVL380:
 3569              	.L592:
 3570              		.loc 1 2080 0
 3571 030e 0920     		movs	r0, #9
 3572 0310 E1E7     		b	.L290
 3573              	.LVL381:
 3574              	.L807:
 3575              		.loc 1 2105 0 discriminator 2
 3576 0312 D8F81060 		ldr	r6, [r8, #16]	@ unaligned
 3577 0316 4644     		add	r6, r8, r6
 3578 0318 B2E6     		b	.L294
 3579              	.LVL382:
 3580              	.L626:
 3581              		.loc 1 3269 0
 3582 031a 0820     		movs	r0, #8
 3583 031c DBE7     		b	.L290
 3584              	.L625:
 3585              		.loc 1 3268 0
 3586 031e 0320     		movs	r0, #3
 3587 0320 D9E7     		b	.L290
 3588              	.LVL383:
 3589              	.L471:
 3590              		.loc 1 3353 0
 3591 0322 0B9B     		ldr	r3, [sp, #44]
 3592 0324 B3EB204F 		cmp	r3, r0, asr #16
 3593 0328 01F2CA82 		bhi	.L811
 3594              		.loc 1 2237 0
 3595 032c 2546     		mov	r5, r4
 3596 032e 19E7     		b	.L743
 3597              	.LVL384:
 3598              	.L470:
 3599 0330 2746     		mov	r7, r4
 3600              	.LVL385:
 3601              		.loc 1 3349 0
 3602 0332 0014     		asrs	r0, r0, #16
 3603              	.LVL386:
 3604 0334 4446     		mov	r4, r8
 3605              	.LVL387:
 3606              	.L545:
 3607              		.loc 1 2655 0
 3608 0336 039B     		ldr	r3, [sp, #12]
 3609 0338 002B     		cmp	r3, #0
 3610 033a 01F08382 		beq	.L812
ARM GAS  /tmp/ccvHIMcj.s 			page 65


 3611              		.loc 1 2656 0
 3612 033e 0B9B     		ldr	r3, [sp, #44]
 3613 0340 039A     		ldr	r2, [sp, #12]
 3614 0342 1360     		str	r3, [r2, #0]
 3615              	.L547:
 3616              		.loc 1 2661 0
 3617 0344 6168     		ldr	r1, [r4, #4]	@ unaligned
 3618              		.loc 1 2662 0
 3619 0346 0C28     		cmp	r0, #12
 3620              		.loc 1 2661 0
 3621 0348 C1EB0707 		rsb	r7, r1, r7
 3622              	.LVL388:
 3623              		.loc 1 2658 0
 3624 034c C4F81CC0 		str	ip, [r4, #28]	@ unaligned
 3625              		.loc 1 2659 0
 3626 0350 E365     		str	r3, [r4, #92]	@ unaligned
 3627              		.loc 1 2660 0
 3628 0352 C4F860A0 		str	sl, [r4, #96]	@ unaligned
 3629              		.loc 1 2661 0
 3630 0356 A761     		str	r7, [r4, #24]	@ unaligned
 3631              		.loc 1 2662 0
 3632 0358 01F02182 		beq	.L813
 3633              		.loc 1 2669 0
 3634 035c 049B     		ldr	r3, [sp, #16]
 3635 035e A362     		str	r3, [r4, #40]	@ unaligned
 3636 0360 0599     		ldr	r1, [sp, #20]
 3637 0362 2162     		str	r1, [r4, #32]	@ unaligned
 3638 0364 B7E7     		b	.L290
 3639              	.LVL389:
 3640              	.L468:
 3641              		.loc 1 3343 0
 3642 0366 0214     		asrs	r2, r0, #16
 3643              	.LVL390:
 3644              		.loc 1 2237 0
 3645 0368 2546     		mov	r5, r4
 3646              	.LVL391:
 3647              	.L524:
 3648              		.loc 1 2623 0
 3649 036a 0B99     		ldr	r1, [sp, #44]
 3650 036c 8B45     		cmp	fp, r1
 3651 036e 02DC     		bgt	.L525
 3652              		.loc 1 2623 0 is_stmt 0 discriminator 1
 3653 0370 8945     		cmp	r9, r1
 3654 0372 01F35B82 		bgt	.L561
 3655              	.L525:
 3656              		.loc 1 2623 0 discriminator 2
 3657 0376 D8F82C30 		ldr	r3, [r8, #44]	@ unaligned
 3658 037a 9942     		cmp	r1, r3
 3659 037c 81F05682 		bcs	.L561
 3660              		.loc 1 2625 0 is_stmt 1
 3661 0380 5018     		adds	r0, r2, r1
 3662 0382 8345     		cmp	fp, r0
 3663 0384 02DA     		bge	.L528
 3664              		.loc 1 2625 0 is_stmt 0 discriminator 1
 3665 0386 8145     		cmp	r9, r0
 3666 0388 01F34782 		bgt	.L564
 3667              	.L528:
ARM GAS  /tmp/ccvHIMcj.s 			page 66


 3668              		.loc 1 2625 0 discriminator 2
 3669 038c 8342     		cmp	r3, r0
 3670 038e C1F04482 		bcc	.L564
 3671              		.loc 1 2627 0 is_stmt 1
 3672 0392 DA45     		cmp	sl, fp
 3673 0394 02DB     		blt	.L531
 3674              		.loc 1 2627 0 is_stmt 0 discriminator 1
 3675 0396 CA45     		cmp	sl, r9
 3676 0398 C1F24882 		blt	.L561
 3677              	.L531:
 3678              		.loc 1 2627 0 discriminator 2
 3679 039c 5345     		cmp	r3, sl
 3680 039e 41F24582 		bls	.L561
 3681              		.loc 1 2629 0 is_stmt 1
 3682 03a2 02EB0A00 		add	r0, r2, sl
 3683 03a6 8345     		cmp	fp, r0
 3684 03a8 02DA     		bge	.L534
 3685              		.loc 1 2629 0 is_stmt 0 discriminator 1
 3686 03aa 8145     		cmp	r9, r0
 3687 03ac 01F33582 		bgt	.L564
 3688              	.L534:
 3689              		.loc 1 2629 0 discriminator 2
 3690 03b0 8342     		cmp	r3, r0
 3691 03b2 C1F03282 		bcc	.L564
 3692              		.loc 1 2632 0 is_stmt 1
 3693 03b6 06EB0A00 		add	r0, r6, sl
 3694 03ba 7118     		adds	r1, r6, r1
 3695 03bc CDF804C0 		str	ip, [sp, #4]
 3696 03c0 FFF7FEFF 		bl	memcmp
 3697              	.LVL392:
 3698              		.loc 1 2640 0
 3699 03c4 DDF804C0 		ldr	ip, [sp, #4]
 3700              	.LVL393:
 3701              		.loc 1 2632 0
 3702 03c8 0B90     		str	r0, [sp, #44]
 3703              	.LVL394:
 3704              		.loc 1 2640 0
 3705 03ca CBE6     		b	.L743
 3706              	.LVL395:
 3707              	.L467:
 3708              		.loc 1 3340 0
 3709 03cc 0214     		asrs	r2, r0, #16
 3710              	.LVL396:
 3711              		.loc 1 2237 0
 3712 03ce 2546     		mov	r5, r4
 3713              	.LVL397:
 3714              	.L511:
 3715              		.loc 1 2596 0
 3716 03d0 0B99     		ldr	r1, [sp, #44]
 3717 03d2 8B45     		cmp	fp, r1
 3718 03d4 02DC     		bgt	.L512
 3719              		.loc 1 2596 0 is_stmt 0 discriminator 1
 3720 03d6 8945     		cmp	r9, r1
 3721 03d8 01F32882 		bgt	.L561
 3722              	.L512:
 3723              		.loc 1 2596 0 discriminator 2
 3724 03dc D8F82C30 		ldr	r3, [r8, #44]	@ unaligned
ARM GAS  /tmp/ccvHIMcj.s 			page 67


 3725 03e0 9942     		cmp	r1, r3
 3726 03e2 81F02382 		bcs	.L561
 3727              		.loc 1 2598 0 is_stmt 1
 3728 03e6 5018     		adds	r0, r2, r1
 3729              	.LVL398:
 3730 03e8 8345     		cmp	fp, r0
 3731 03ea 02DA     		bge	.L515
 3732              		.loc 1 2598 0 is_stmt 0 discriminator 1
 3733 03ec 8145     		cmp	r9, r0
 3734 03ee 01F31482 		bgt	.L564
 3735              	.L515:
 3736              		.loc 1 2598 0 discriminator 2
 3737 03f2 8342     		cmp	r3, r0
 3738 03f4 C1F01182 		bcc	.L564
 3739              		.loc 1 2600 0 is_stmt 1
 3740 03f8 DA45     		cmp	sl, fp
 3741 03fa 02DB     		blt	.L518
 3742              		.loc 1 2600 0 is_stmt 0 discriminator 1
 3743 03fc CA45     		cmp	sl, r9
 3744 03fe C1F21582 		blt	.L561
 3745              	.L518:
 3746              		.loc 1 2600 0 discriminator 2
 3747 0402 5345     		cmp	r3, sl
 3748 0404 41F21282 		bls	.L561
 3749              		.loc 1 2602 0 is_stmt 1
 3750 0408 02EB0A00 		add	r0, r2, sl
 3751 040c 8345     		cmp	fp, r0
 3752 040e 02DA     		bge	.L521
 3753              		.loc 1 2602 0 is_stmt 0 discriminator 1
 3754 0410 8145     		cmp	r9, r0
 3755 0412 01F30282 		bgt	.L564
 3756              	.L521:
 3757              		.loc 1 2602 0 discriminator 2
 3758 0416 8342     		cmp	r3, r0
 3759 0418 C1F0FF81 		bcc	.L564
 3760              		.loc 1 2605 0 is_stmt 1
 3761 041c 06EB0A00 		add	r0, r6, sl
 3762 0420 7118     		adds	r1, r6, r1
 3763 0422 CDF804C0 		str	ip, [sp, #4]
 3764 0426 FFF7FEFF 		bl	memcpy
 3765              	.LVL399:
 3766              		.loc 1 2616 0
 3767 042a DDF804C0 		ldr	ip, [sp, #4]
 3768 042e 99E6     		b	.L743
 3769              	.LVL400:
 3770              	.L469:
 3771              		.loc 1 3346 0
 3772 0430 0014     		asrs	r0, r0, #16
 3773              	.LVL401:
 3774              		.loc 1 2237 0
 3775 0432 2546     		mov	r5, r4
 3776              	.LVL402:
 3777              	.L537:
 3778              		.loc 1 2645 0
 3779 0434 DA45     		cmp	sl, fp
 3780 0436 02DB     		blt	.L538
 3781              		.loc 1 2645 0 is_stmt 0 discriminator 1
ARM GAS  /tmp/ccvHIMcj.s 			page 68


 3782 0438 CA45     		cmp	sl, r9
 3783 043a C1F2F781 		blt	.L561
 3784              	.L538:
 3785              		.loc 1 2645 0 discriminator 2
 3786 043e D8F82C20 		ldr	r2, [r8, #44]	@ unaligned
 3787 0442 9245     		cmp	sl, r2
 3788 0444 81F0F281 		bcs	.L561
 3789              		.loc 1 2647 0 is_stmt 1
 3790 0448 00EB0A03 		add	r3, r0, sl
 3791 044c 9B45     		cmp	fp, r3
 3792 044e 02DA     		bge	.L541
 3793              		.loc 1 2647 0 is_stmt 0 discriminator 1
 3794 0450 9945     		cmp	r9, r3
 3795 0452 01F3E281 		bgt	.L564
 3796              	.L541:
 3797              		.loc 1 2647 0 discriminator 2
 3798 0456 9A42     		cmp	r2, r3
 3799 0458 C1F0DF81 		bcc	.L564
 3800              	.LVL403:
 3801              		.loc 1 2649 0 is_stmt 1 discriminator 1
 3802 045c 0328     		cmp	r0, #3
 3803 045e 7FF681AE 		bls	.L743
 3804              		.loc 1 2064 0
 3805 0462 089C     		ldr	r4, [sp, #32]
 3806              	.LVL404:
 3807 0464 011F     		subs	r1, r0, #4
 3808 0466 21F00300 		bic	r0, r1, #3
 3809              	.LVL405:
 3810 046a 04EB0A02 		add	r2, r4, sl
 3811 046e 1218     		adds	r2, r2, r0
 3812 0470 06EB0A01 		add	r1, r6, sl
 3813              	.LVL406:
 3814 0474 531A     		subs	r3, r2, r1
 3815 0476 181F     		subs	r0, r3, #4
 3816              		.loc 1 2650 0
 3817 0478 0B9C     		ldr	r4, [sp, #44]
 3818 047a 0B1D     		adds	r3, r1, #4
 3819              	.LVL407:
 3820              		.loc 1 2649 0
 3821 047c 9342     		cmp	r3, r2
 3822              		.loc 1 2650 0
 3823 047e 46F80A40 		str	r4, [r6, sl]
 3824 0482 C0F38000 		ubfx	r0, r0, #2, #1
 3825              		.loc 1 2649 0
 3826 0486 3FF46DAE 		beq	.L743
 3827 048a 28B1     		cbz	r0, .L544
 3828              		.loc 1 2650 0
 3829 048c 0433     		adds	r3, r3, #4
 3830 048e 0B9C     		ldr	r4, [sp, #44]
 3831              		.loc 1 2649 0
 3832 0490 9342     		cmp	r3, r2
 3833              		.loc 1 2650 0
 3834 0492 4C60     		str	r4, [r1, #4]
 3835              		.loc 1 2649 0
 3836 0494 3FF466AE 		beq	.L743
 3837              	.L544:
 3838              		.loc 1 2650 0 discriminator 2
ARM GAS  /tmp/ccvHIMcj.s 			page 69


 3839 0498 0B9C     		ldr	r4, [sp, #44]
 3840 049a 1946     		mov	r1, r3
 3841 049c 41F8044B 		str	r4, [r1], #4
 3842 04a0 0B98     		ldr	r0, [sp, #44]
 3843 04a2 5860     		str	r0, [r3, #4]
 3844 04a4 0B1D     		adds	r3, r1, #4
 3845              		.loc 1 2649 0 discriminator 2
 3846 04a6 9342     		cmp	r3, r2
 3847 04a8 F6D1     		bne	.L544
 3848 04aa 5BE6     		b	.L743
 3849              	.LVL408:
 3850              	.L466:
 3851              		.loc 1 3333 0
 3852 04ac 0CEB2040 		add	r0, ip, r0, asr #16
 3853              	.LVL409:
 3854 04b0 3158     		ldr	r1, [r6, r0]
 3855              		.loc 1 2237 0
 3856 04b2 2546     		mov	r5, r4
 3857              	.LVL410:
 3858              		.loc 1 3333 0
 3859 04b4 4C1E     		subs	r4, r1, #1
 3860              	.LVL411:
 3861 04b6 3450     		str	r4, [r6, r0]
 3862              		.loc 1 3338 0
 3863 04b8 54E6     		b	.L743
 3864              	.LVL412:
 3865              	.L465:
 3866              		.loc 1 3322 0
 3867 04ba 0114     		asrs	r1, r0, #16
 3868              		.loc 1 3324 0
 3869 04bc 7258     		ldr	r2, [r6, r1]
 3870              		.loc 1 2237 0
 3871 04be 2546     		mov	r5, r4
 3872              		.loc 1 3324 0
 3873 04c0 531E     		subs	r3, r2, #1
 3874 04c2 7350     		str	r3, [r6, r1]
 3875              		.loc 1 3329 0
 3876 04c4 4EE6     		b	.L743
 3877              	.LVL413:
 3878              	.L464:
 3879              		.loc 1 3315 0
 3880 04c6 0CEB2042 		add	r2, ip, r0, asr #16
 3881 04ca B058     		ldr	r0, [r6, r2]
 3882              		.loc 1 2237 0
 3883 04cc 2546     		mov	r5, r4
 3884              		.loc 1 3315 0
 3885 04ce 441C     		adds	r4, r0, #1
 3886              	.LVL414:
 3887 04d0 B450     		str	r4, [r6, r2]
 3888              		.loc 1 3320 0
 3889 04d2 47E6     		b	.L743
 3890              	.LVL415:
 3891              	.L463:
 3892              		.loc 1 3304 0
 3893 04d4 0014     		asrs	r0, r0, #16
 3894              		.loc 1 3306 0
 3895 04d6 3158     		ldr	r1, [r6, r0]
ARM GAS  /tmp/ccvHIMcj.s 			page 70


 3896              		.loc 1 2237 0
 3897 04d8 2546     		mov	r5, r4
 3898              		.loc 1 3306 0
 3899 04da 4B1C     		adds	r3, r1, #1
 3900 04dc 3350     		str	r3, [r6, r0]
 3901              		.loc 1 3311 0
 3902 04de 41E6     		b	.L743
 3903              	.LVL416:
 3904              	.L462:
 3905              		.loc 1 3301 0
 3906 04e0 BAEB204F 		cmp	sl, r0, asr #16
 3907 04e4 14BF     		ite	ne
 3908 04e6 0022     		movne	r2, #0
 3909 04e8 0122     		moveq	r2, #1
 3910 04ea 0B92     		str	r2, [sp, #44]
 3911              		.loc 1 2237 0
 3912 04ec 2546     		mov	r5, r4
 3913              		.loc 1 3302 0
 3914 04ee 39E6     		b	.L743
 3915              	.LVL417:
 3916              	.L461:
 3917              		.loc 1 3297 0
 3918 04f0 0B99     		ldr	r1, [sp, #44]
 3919              		.loc 1 2237 0
 3920 04f2 2546     		mov	r5, r4
 3921              		.loc 1 3297 0
 3922 04f4 B1EB204F 		cmp	r1, r0, asr #16
 3923 04f8 14BF     		ite	ne
 3924 04fa 0024     		movne	r4, #0
 3925 04fc 0124     		moveq	r4, #1
 3926              	.LVL418:
 3927 04fe 0B94     		str	r4, [sp, #44]
 3928              		.loc 1 3298 0
 3929 0500 30E6     		b	.L743
 3930              	.LVL419:
 3931              	.L460:
 3932              		.loc 1 3293 0
 3933 0502 0025     		movs	r5, #0
 3934              		.loc 1 3292 0
 3935 0504 0014     		asrs	r0, r0, #16
 3936              		.loc 1 3293 0
 3937 0506 06EB0C03 		add	r3, r6, ip
 3938 050a 1D50     		str	r5, [r3, r0]
 3939              		.loc 1 2237 0
 3940 050c 2546     		mov	r5, r4
 3941              		.loc 1 3294 0
 3942 050e 29E6     		b	.L743
 3943              	.LVL420:
 3944              	.L459:
 3945              		.loc 1 3288 0
 3946 0510 0114     		asrs	r1, r0, #16
 3947              		.loc 1 3289 0
 3948 0512 0022     		movs	r2, #0
 3949 0514 7250     		str	r2, [r6, r1]
 3950              		.loc 1 2237 0
 3951 0516 2546     		mov	r5, r4
 3952              		.loc 1 3290 0
ARM GAS  /tmp/ccvHIMcj.s 			page 71


 3953 0518 24E6     		b	.L743
 3954              	.LVL421:
 3955              	.L458:
 3956              		.loc 1 3285 0
 3957 051a 0B9D     		ldr	r5, [sp, #44]
 3958              		.loc 1 3284 0
 3959 051c 0314     		asrs	r3, r0, #16
 3960              		.loc 1 3285 0
 3961 051e 03FB05F0 		mul	r0, r3, r5
 3962              		.loc 1 2237 0
 3963 0522 2546     		mov	r5, r4
 3964              		.loc 1 3285 0
 3965 0524 0B90     		str	r0, [sp, #44]
 3966              		.loc 1 3286 0
 3967 0526 1DE6     		b	.L743
 3968              	.LVL422:
 3969              	.L457:
 3970              		.loc 1 3281 0
 3971 0528 0B9A     		ldr	r2, [sp, #44]
 3972              		.loc 1 2237 0
 3973 052a 2546     		mov	r5, r4
 3974              		.loc 1 3281 0
 3975 052c 02EB2044 		add	r4, r2, r0, asr #16
 3976              	.LVL423:
 3977 0530 0B94     		str	r4, [sp, #44]
 3978              		.loc 1 3282 0
 3979 0532 17E6     		b	.L743
 3980              	.LVL424:
 3981              	.L456:
 3982              		.loc 1 3276 0
 3983 0534 0114     		asrs	r1, r0, #16
 3984              		.loc 1 3277 0
 3985 0536 0AFA01FA 		lsl	sl, sl, r1
 3986              	.LVL425:
 3987              		.loc 1 2237 0
 3988 053a 2546     		mov	r5, r4
 3989              		.loc 1 3278 0
 3990 053c 12E6     		b	.L743
 3991              	.LVL426:
 3992              	.L455:
 3993              		.loc 1 3273 0
 3994 053e 0B9D     		ldr	r5, [sp, #44]
 3995              		.loc 1 3272 0
 3996 0540 0314     		asrs	r3, r0, #16
 3997              		.loc 1 3273 0
 3998 0542 15FA03F0 		lsls	r0, r5, r3
 3999              		.loc 1 2237 0
 4000 0546 2546     		mov	r5, r4
 4001              		.loc 1 3273 0
 4002 0548 0B90     		str	r0, [sp, #44]
 4003              		.loc 1 3274 0
 4004 054a 0BE6     		b	.L743
 4005              	.LVL427:
 4006              	.L454:
 4007              		.loc 1 3267 0
 4008 054c 0BEB2040 		add	r0, fp, r0, asr #16
 4009              	.LVL428:
ARM GAS  /tmp/ccvHIMcj.s 			page 72


 4010              		.loc 1 3268 0
 4011 0550 00F13F01 		add	r1, r0, #63
 4012 0554 8945     		cmp	r9, r1
 4013 0556 7FF7E2AE 		ble	.L625
 4014              		.loc 1 3269 0
 4015 055a D8F82420 		ldr	r2, [r8, #36]	@ unaligned
 4016 055e 9042     		cmp	r0, r2
 4017 0560 FFF6DBAE 		blt	.L626
 4018 0564 DA46     		mov	sl, fp
 4019              		.loc 1 2237 0
 4020 0566 2546     		mov	r5, r4
 4021              		.loc 1 3269 0
 4022 0568 8346     		mov	fp, r0
 4023              	.LVL429:
 4024 056a FBE5     		b	.L743
 4025              	.LVL430:
 4026              	.L453:
 4027              		.loc 1 3260 0
 4028 056c 09EB2040 		add	r0, r9, r0, asr #16
 4029              	.LVL431:
 4030              		.loc 1 3261 0
 4031 0570 0BF13F02 		add	r2, fp, #63
 4032 0574 9042     		cmp	r0, r2
 4033 0576 7FF7D2AE 		ble	.L625
 4034              		.loc 1 3262 0
 4035 057a D8F82C30 		ldr	r3, [r8, #44]	@ unaligned
 4036 057e 9842     		cmp	r0, r3
 4037 0580 3FF7B3AE 		bgt	.L624
 4038 0584 CA46     		mov	sl, r9
 4039              		.loc 1 2237 0
 4040 0586 2546     		mov	r5, r4
 4041              		.loc 1 3262 0
 4042 0588 8146     		mov	r9, r0
 4043              	.LVL432:
 4044 058a EBE5     		b	.L743
 4045              	.LVL433:
 4046              	.L452:
 4047              		.loc 1 3252 0
 4048 058c 0014     		asrs	r0, r0, #16
 4049 058e 0290     		str	r0, [sp, #8]
 4050 0590 01F07E81 		beq	.L622
 4051 0594 0299     		ldr	r1, [sp, #8]
 4052              		.loc 1 3253 0
 4053 0596 55F8042F 		ldr	r2, [r5, #4]!
 4054              	.LVL434:
 4055 059a 4B1E     		subs	r3, r1, #1
 4056              		.loc 1 3252 0
 4057 059c 0CEB0600 		add	r0, ip, r6
 4058 05a0 0793     		str	r3, [sp, #28]
 4059              		.loc 1 3254 0
 4060 05a2 8118     		adds	r1, r0, r2
 4061 05a4 06EB0903 		add	r3, r6, r9
 4062 05a8 43F8041D 		str	r1, [r3, #-4]!
 4063              	.LVL435:
 4064 05ac 0799     		ldr	r1, [sp, #28]
 4065 05ae 0122     		movs	r2, #1
 4066 05b0 1140     		ands	r1, r1, r2
ARM GAS  /tmp/ccvHIMcj.s 			page 73


 4067 05b2 0791     		str	r1, [sp, #28]
 4068              		.loc 1 3252 0
 4069 05b4 0299     		ldr	r1, [sp, #8]
 4070 05b6 8A42     		cmp	r2, r1
 4071 05b8 13D0     		beq	.L760
 4072 05ba 0799     		ldr	r1, [sp, #28]
 4073 05bc 19B1     		cbz	r1, .L590
 4074              		.loc 1 3253 0
 4075 05be 55F8041F 		ldr	r1, [r5, #4]!
 4076              	.LVL436:
 4077              		.loc 1 3254 0
 4078 05c2 0222     		movs	r2, #2
 4079 05c4 07E0     		b	.L801
 4080              	.L590:
 4081              		.loc 1 3253 0
 4082 05c6 55F8041F 		ldr	r1, [r5, #4]!
 4083              		.loc 1 3254 0
 4084 05ca 0232     		adds	r2, r2, #2
 4085 05cc 4118     		adds	r1, r0, r1
 4086 05ce 43F8041D 		str	r1, [r3, #-4]!
 4087              		.loc 1 3253 0
 4088 05d2 55F8041F 		ldr	r1, [r5, #4]!
 4089              	.L801:
 4090              		.loc 1 3254 0
 4091 05d6 4118     		adds	r1, r0, r1
 4092 05d8 43F8041D 		str	r1, [r3, #-4]!
 4093              		.loc 1 3252 0
 4094 05dc 0299     		ldr	r1, [sp, #8]
 4095 05de 8A42     		cmp	r2, r1
 4096 05e0 F1D1     		bne	.L590
 4097              	.L760:
 4098 05e2 04EB8205 		add	r5, r4, r2, lsl #2
 4099 05e6 029C     		ldr	r4, [sp, #8]
 4100              	.LVL437:
 4101 05e8 A9EB8409 		sub	r9, r9, r4, lsl #2
 4102 05ec BAE5     		b	.L743
 4103              	.LVL438:
 4104              	.L451:
 4105              		.loc 1 3245 0
 4106 05ee 0014     		asrs	r0, r0, #16
 4107              	.LVL439:
 4108 05f0 0290     		str	r0, [sp, #8]
 4109 05f2 01F04481 		beq	.L621
 4110              		.loc 1 3246 0
 4111 05f6 55F8043F 		ldr	r3, [r5, #4]!
 4112              	.LVL440:
 4113 05fa 0299     		ldr	r1, [sp, #8]
 4114 05fc 06EB0C00 		add	r0, r6, ip
 4115              		.loc 1 3247 0
 4116 0600 C358     		ldr	r3, [r0, r3]
 4117 0602 4A1E     		subs	r2, r1, #1
 4118 0604 0792     		str	r2, [sp, #28]
 4119 0606 F118     		adds	r1, r6, r3
 4120 0608 06EB0903 		add	r3, r6, r9
 4121 060c 43F8041D 		str	r1, [r3, #-4]!
 4122              	.LVL441:
 4123 0610 0799     		ldr	r1, [sp, #28]
ARM GAS  /tmp/ccvHIMcj.s 			page 74


 4124 0612 0122     		movs	r2, #1
 4125 0614 1140     		ands	r1, r1, r2
 4126 0616 0791     		str	r1, [sp, #28]
 4127              		.loc 1 3245 0
 4128 0618 0299     		ldr	r1, [sp, #8]
 4129 061a 8A42     		cmp	r2, r1
 4130 061c 15D0     		beq	.L759
 4131              	.LVL442:
 4132 061e 0799     		ldr	r1, [sp, #28]
 4133 0620 19B1     		cbz	r1, .L589
 4134              		.loc 1 3246 0
 4135 0622 55F8041F 		ldr	r1, [r5, #4]!
 4136              	.LVL443:
 4137              		.loc 1 3247 0
 4138 0626 0222     		movs	r2, #2
 4139 0628 08E0     		b	.L800
 4140              	.L589:
 4141              		.loc 1 3246 0
 4142 062a 55F8041F 		ldr	r1, [r5, #4]!
 4143              		.loc 1 3247 0
 4144 062e 0232     		adds	r2, r2, #2
 4145 0630 4158     		ldr	r1, [r0, r1]
 4146 0632 7118     		adds	r1, r6, r1
 4147 0634 43F8041D 		str	r1, [r3, #-4]!
 4148              		.loc 1 3246 0
 4149 0638 55F8041F 		ldr	r1, [r5, #4]!
 4150              	.L800:
 4151              		.loc 1 3247 0
 4152 063c 4158     		ldr	r1, [r0, r1]
 4153 063e 7118     		adds	r1, r6, r1
 4154 0640 43F8041D 		str	r1, [r3, #-4]!
 4155              		.loc 1 3245 0
 4156 0644 0299     		ldr	r1, [sp, #8]
 4157 0646 8A42     		cmp	r2, r1
 4158 0648 EFD1     		bne	.L589
 4159              	.L759:
 4160 064a 04EB8205 		add	r5, r4, r2, lsl #2
 4161 064e 029C     		ldr	r4, [sp, #8]
 4162              	.LVL444:
 4163 0650 A9EB8409 		sub	r9, r9, r4, lsl #2
 4164 0654 86E5     		b	.L743
 4165              	.LVL445:
 4166              	.L450:
 4167              		.loc 1 3238 0
 4168 0656 0014     		asrs	r0, r0, #16
 4169              	.LVL446:
 4170 0658 01F01781 		beq	.L620
 4171              		.loc 1 3239 0
 4172 065c 55F8043F 		ldr	r3, [r5, #4]!
 4173              	.LVL447:
 4174 0660 421E     		subs	r2, r0, #1
 4175 0662 0292     		str	r2, [sp, #8]
 4176              		.loc 1 3240 0
 4177 0664 F118     		adds	r1, r6, r3
 4178 0666 06EB0903 		add	r3, r6, r9
 4179 066a 43F8041D 		str	r1, [r3, #-4]!
 4180              	.LVL448:
ARM GAS  /tmp/ccvHIMcj.s 			page 75


 4181 066e 0299     		ldr	r1, [sp, #8]
 4182 0670 0122     		movs	r2, #1
 4183 0672 1140     		ands	r1, r1, r2
 4184              		.loc 1 3238 0
 4185 0674 8242     		cmp	r2, r0
 4186 0676 0291     		str	r1, [sp, #8]
 4187 0678 16D0     		beq	.L758
 4188              	.LVL449:
 4189 067a 0299     		ldr	r1, [sp, #8]
 4190 067c 39B1     		cbz	r1, .L588
 4191              		.loc 1 3239 0
 4192 067e 55F8041F 		ldr	r1, [r5, #4]!
 4193              	.LVL450:
 4194              		.loc 1 3240 0
 4195 0682 0222     		movs	r2, #2
 4196 0684 7118     		adds	r1, r6, r1
 4197              		.loc 1 3238 0
 4198 0686 8242     		cmp	r2, r0
 4199              		.loc 1 3240 0
 4200 0688 43F8041D 		str	r1, [r3, #-4]!
 4201              		.loc 1 3238 0
 4202 068c 0CD0     		beq	.L758
 4203              	.L588:
 4204              		.loc 1 3239 0
 4205 068e 55F8041F 		ldr	r1, [r5, #4]!
 4206              		.loc 1 3240 0
 4207 0692 0232     		adds	r2, r2, #2
 4208 0694 7118     		adds	r1, r6, r1
 4209 0696 43F8041D 		str	r1, [r3, #-4]!
 4210              		.loc 1 3239 0
 4211 069a 55F8041F 		ldr	r1, [r5, #4]!
 4212              		.loc 1 3238 0
 4213 069e 8242     		cmp	r2, r0
 4214              		.loc 1 3240 0
 4215 06a0 3144     		add	r1, r6, r1
 4216 06a2 43F8041D 		str	r1, [r3, #-4]!
 4217              		.loc 1 3238 0
 4218 06a6 F2D1     		bne	.L588
 4219              	.L758:
 4220 06a8 04EB8205 		add	r5, r4, r2, lsl #2
 4221 06ac A9EB8009 		sub	r9, r9, r0, lsl #2
 4222 06b0 58E5     		b	.L743
 4223              	.LVL451:
 4224              	.L449:
 4225              		.loc 1 3231 0
 4226 06b2 0014     		asrs	r0, r0, #16
 4227 06b4 01F0EF80 		beq	.L619
 4228              		.loc 1 3232 0
 4229 06b8 55F8043F 		ldr	r3, [r5, #4]!
 4230              	.LVL452:
 4231 06bc 421E     		subs	r2, r0, #1
 4232 06be 0292     		str	r2, [sp, #8]
 4233              		.loc 1 3233 0
 4234 06c0 0CEB0301 		add	r1, ip, r3
 4235 06c4 06EB0903 		add	r3, r6, r9
 4236 06c8 43F8041D 		str	r1, [r3, #-4]!
 4237              	.LVL453:
ARM GAS  /tmp/ccvHIMcj.s 			page 76


 4238 06cc 0299     		ldr	r1, [sp, #8]
 4239 06ce 0122     		movs	r2, #1
 4240 06d0 1140     		ands	r1, r1, r2
 4241              		.loc 1 3231 0
 4242 06d2 8242     		cmp	r2, r0
 4243 06d4 0291     		str	r1, [sp, #8]
 4244 06d6 16D0     		beq	.L757
 4245 06d8 0299     		ldr	r1, [sp, #8]
 4246 06da 39B1     		cbz	r1, .L587
 4247              		.loc 1 3232 0
 4248 06dc 55F8041F 		ldr	r1, [r5, #4]!
 4249              	.LVL454:
 4250              		.loc 1 3233 0
 4251 06e0 0222     		movs	r2, #2
 4252 06e2 6144     		add	r1, ip, r1
 4253              		.loc 1 3231 0
 4254 06e4 8242     		cmp	r2, r0
 4255              		.loc 1 3233 0
 4256 06e6 43F8041D 		str	r1, [r3, #-4]!
 4257              		.loc 1 3231 0
 4258 06ea 0CD0     		beq	.L757
 4259              	.L587:
 4260              		.loc 1 3232 0
 4261 06ec 55F8041F 		ldr	r1, [r5, #4]!
 4262              		.loc 1 3233 0
 4263 06f0 0232     		adds	r2, r2, #2
 4264 06f2 6144     		add	r1, ip, r1
 4265 06f4 43F8041D 		str	r1, [r3, #-4]!
 4266              		.loc 1 3232 0
 4267 06f8 55F8041F 		ldr	r1, [r5, #4]!
 4268              		.loc 1 3231 0
 4269 06fc 8242     		cmp	r2, r0
 4270              		.loc 1 3233 0
 4271 06fe 6144     		add	r1, ip, r1
 4272 0700 43F8041D 		str	r1, [r3, #-4]!
 4273              		.loc 1 3231 0
 4274 0704 F2D1     		bne	.L587
 4275              	.L757:
 4276 0706 04EB8205 		add	r5, r4, r2, lsl #2
 4277 070a A9EB8009 		sub	r9, r9, r0, lsl #2
 4278 070e 29E5     		b	.L743
 4279              	.LVL455:
 4280              	.L448:
 4281              		.loc 1 3217 0
 4282 0710 0014     		asrs	r0, r0, #16
 4283 0712 0290     		str	r0, [sp, #8]
 4284 0714 01F0B680 		beq	.L617
 4285              		.loc 1 3218 0
 4286 0718 55F8041F 		ldr	r1, [r5, #4]!
 4287              	.LVL456:
 4288 071c 029A     		ldr	r2, [sp, #8]
 4289 071e 06EB0C00 		add	r0, r6, ip
 4290              		.loc 1 3219 0
 4291 0722 4158     		ldr	r1, [r0, r1]
 4292 0724 531E     		subs	r3, r2, #1
 4293 0726 0793     		str	r3, [sp, #28]
 4294 0728 06EB0903 		add	r3, r6, r9
ARM GAS  /tmp/ccvHIMcj.s 			page 77


 4295 072c 43F8041D 		str	r1, [r3, #-4]!
 4296              	.LVL457:
 4297 0730 0799     		ldr	r1, [sp, #28]
 4298 0732 0122     		movs	r2, #1
 4299 0734 1140     		ands	r1, r1, r2
 4300 0736 0791     		str	r1, [sp, #28]
 4301              		.loc 1 3217 0
 4302 0738 0299     		ldr	r1, [sp, #8]
 4303 073a 8A42     		cmp	r2, r1
 4304 073c 13D0     		beq	.L755
 4305 073e 0799     		ldr	r1, [sp, #28]
 4306 0740 19B1     		cbz	r1, .L585
 4307              		.loc 1 3218 0
 4308 0742 55F8041F 		ldr	r1, [r5, #4]!
 4309              	.LVL458:
 4310              		.loc 1 3219 0
 4311 0746 0222     		movs	r2, #2
 4312 0748 07E0     		b	.L799
 4313              	.L585:
 4314              		.loc 1 3218 0
 4315 074a 55F8041F 		ldr	r1, [r5, #4]!
 4316              		.loc 1 3219 0
 4317 074e 0232     		adds	r2, r2, #2
 4318 0750 4158     		ldr	r1, [r0, r1]
 4319 0752 43F8041D 		str	r1, [r3, #-4]!
 4320              		.loc 1 3218 0
 4321 0756 55F8041F 		ldr	r1, [r5, #4]!
 4322              	.L799:
 4323              		.loc 1 3219 0
 4324 075a 4158     		ldr	r1, [r0, r1]
 4325 075c 43F8041D 		str	r1, [r3, #-4]!
 4326              		.loc 1 3217 0
 4327 0760 0299     		ldr	r1, [sp, #8]
 4328 0762 8A42     		cmp	r2, r1
 4329 0764 F1D1     		bne	.L585
 4330              	.L755:
 4331 0766 04EB8205 		add	r5, r4, r2, lsl #2
 4332 076a 029C     		ldr	r4, [sp, #8]
 4333              	.LVL459:
 4334 076c A9EB8409 		sub	r9, r9, r4, lsl #2
 4335 0770 F8E4     		b	.L743
 4336              	.LVL460:
 4337              	.L447:
 4338              		.loc 1 3210 0
 4339 0772 0014     		asrs	r0, r0, #16
 4340              	.LVL461:
 4341 0774 01F08080 		beq	.L616
 4342              		.loc 1 3211 0
 4343 0778 55F8043F 		ldr	r3, [r5, #4]!
 4344              	.LVL462:
 4345 077c 421E     		subs	r2, r0, #1
 4346              		.loc 1 3212 0
 4347 077e F158     		ldr	r1, [r6, r3]
 4348 0780 0292     		str	r2, [sp, #8]
 4349 0782 06EB0903 		add	r3, r6, r9
 4350 0786 43F8041D 		str	r1, [r3, #-4]!
 4351              	.LVL463:
ARM GAS  /tmp/ccvHIMcj.s 			page 78


 4352 078a 0299     		ldr	r1, [sp, #8]
 4353 078c 0122     		movs	r2, #1
 4354 078e 1140     		ands	r1, r1, r2
 4355              		.loc 1 3210 0
 4356 0790 8242     		cmp	r2, r0
 4357 0792 0291     		str	r1, [sp, #8]
 4358 0794 16D0     		beq	.L754
 4359              	.LVL464:
 4360 0796 0299     		ldr	r1, [sp, #8]
 4361 0798 39B1     		cbz	r1, .L584
 4362              		.loc 1 3211 0
 4363 079a 55F8041F 		ldr	r1, [r5, #4]!
 4364              	.LVL465:
 4365              		.loc 1 3212 0
 4366 079e 0222     		movs	r2, #2
 4367 07a0 7158     		ldr	r1, [r6, r1]
 4368              		.loc 1 3210 0
 4369 07a2 8242     		cmp	r2, r0
 4370              		.loc 1 3212 0
 4371 07a4 43F8041D 		str	r1, [r3, #-4]!
 4372              		.loc 1 3210 0
 4373 07a8 0CD0     		beq	.L754
 4374              	.L584:
 4375              		.loc 1 3211 0
 4376 07aa 55F8041F 		ldr	r1, [r5, #4]!
 4377              		.loc 1 3212 0
 4378 07ae 0232     		adds	r2, r2, #2
 4379 07b0 7158     		ldr	r1, [r6, r1]
 4380              		.loc 1 3210 0
 4381 07b2 8242     		cmp	r2, r0
 4382              		.loc 1 3212 0
 4383 07b4 43F8041D 		str	r1, [r3, #-4]!
 4384              		.loc 1 3211 0
 4385 07b8 55F8041F 		ldr	r1, [r5, #4]!
 4386              		.loc 1 3212 0
 4387 07bc 7158     		ldr	r1, [r6, r1]
 4388 07be 43F8041D 		str	r1, [r3, #-4]!
 4389              		.loc 1 3210 0
 4390 07c2 F2D1     		bne	.L584
 4391              	.L754:
 4392 07c4 04EB8205 		add	r5, r4, r2, lsl #2
 4393 07c8 A9EB8009 		sub	r9, r9, r0, lsl #2
 4394 07cc CAE4     		b	.L743
 4395              	.LVL466:
 4396              	.L442:
 4397              		.loc 1 3194 0
 4398 07ce A9F10409 		sub	r9, r9, #4
 4399              	.LVL467:
 4400 07d2 0CEB2041 		add	r1, ip, r0, asr #16
 4401 07d6 46F80910 		str	r1, [r6, r9]
 4402              		.loc 1 2237 0
 4403 07da 2546     		mov	r5, r4
 4404              		.loc 1 3195 0
 4405 07dc C2E4     		b	.L743
 4406              	.LVL468:
 4407              	.L441:
 4408              		.loc 1 3190 0
ARM GAS  /tmp/ccvHIMcj.s 			page 79


 4409 07de 06EB2040 		add	r0, r6, r0, asr #16
 4410 07e2 50F80C50 		ldr	r5, [r0, ip]
 4411 07e6 A9F10409 		sub	r9, r9, #4
 4412              	.LVL469:
 4413 07ea 46F80950 		str	r5, [r6, r9]
 4414              		.loc 1 2237 0
 4415 07ee 2546     		mov	r5, r4
 4416              		.loc 1 3191 0
 4417 07f0 B8E4     		b	.L743
 4418              	.LVL470:
 4419              	.L440:
 4420              		.loc 1 3185 0
 4421 07f2 0214     		asrs	r2, r0, #16
 4422              		.loc 1 3186 0
 4423 07f4 B358     		ldr	r3, [r6, r2]
 4424 07f6 A9F10409 		sub	r9, r9, #4
 4425              	.LVL471:
 4426 07fa 46F80930 		str	r3, [r6, r9]
 4427              		.loc 1 2237 0
 4428 07fe 2546     		mov	r5, r4
 4429              		.loc 1 3187 0
 4430 0800 B0E4     		b	.L743
 4431              	.LVL472:
 4432              	.L439:
 4433              		.loc 1 3182 0
 4434 0802 A9F10409 		sub	r9, r9, #4
 4435              	.LVL473:
 4436              		.loc 1 3181 0
 4437 0806 0114     		asrs	r1, r0, #16
 4438              		.loc 1 3182 0
 4439 0808 46F80910 		str	r1, [r6, r9]
 4440              		.loc 1 2237 0
 4441 080c 2546     		mov	r5, r4
 4442              		.loc 1 3183 0
 4443 080e A9E4     		b	.L743
 4444              	.LVL474:
 4445              	.L438:
 4446              		.loc 1 3174 0
 4447 0810 0314     		asrs	r3, r0, #16
 4448              		.loc 1 3176 0
 4449 0812 032B     		cmp	r3, #3
 4450 0814 00F2CD87 		bhi	.L615
 4451              		.loc 1 3177 0
 4452 0818 0B98     		ldr	r0, [sp, #44]
 4453 081a C3F10405 		rsb	r5, r3, #4
 4454 081e 80EA0502 		eor	r2, r0, r5
 4455 0822 0B92     		str	r2, [sp, #44]
 4456              		.loc 1 2237 0
 4457 0824 2546     		mov	r5, r4
 4458 0826 9DE4     		b	.L743
 4459              	.LVL475:
 4460              	.L437:
 4461              		.loc 1 3171 0
 4462 0828 0B99     		ldr	r1, [sp, #44]
 4463              		.loc 1 3170 0
 4464 082a 0314     		asrs	r3, r0, #16
 4465              		.loc 1 3171 0
ARM GAS  /tmp/ccvHIMcj.s 			page 80


 4466 082c 11FA03F0 		lsls	r0, r1, r3
 4467 0830 00EB0A05 		add	r5, r0, sl
 4468 0834 0B95     		str	r5, [sp, #44]
 4469              		.loc 1 2237 0
 4470 0836 2546     		mov	r5, r4
 4471              		.loc 1 3172 0
 4472 0838 94E4     		b	.L743
 4473              	.LVL476:
 4474              	.L446:
 4475              		.loc 1 3224 0
 4476 083a 0014     		asrs	r0, r0, #16
 4477 083c 01F01980 		beq	.L618
 4478              		.loc 1 3225 0
 4479 0840 55F8041F 		ldr	r1, [r5, #4]!
 4480              	.LVL477:
 4481 0844 431E     		subs	r3, r0, #1
 4482 0846 0293     		str	r3, [sp, #8]
 4483              		.loc 1 3226 0
 4484 0848 06EB0903 		add	r3, r6, r9
 4485 084c 43F8041D 		str	r1, [r3, #-4]!
 4486              	.LVL478:
 4487 0850 0299     		ldr	r1, [sp, #8]
 4488 0852 0122     		movs	r2, #1
 4489 0854 1140     		ands	r1, r1, r2
 4490              		.loc 1 3224 0
 4491 0856 8242     		cmp	r2, r0
 4492 0858 0291     		str	r1, [sp, #8]
 4493 085a 13D0     		beq	.L756
 4494 085c 0299     		ldr	r1, [sp, #8]
 4495 085e 31B1     		cbz	r1, .L586
 4496              		.loc 1 3225 0
 4497 0860 55F8041F 		ldr	r1, [r5, #4]!
 4498              	.LVL479:
 4499              		.loc 1 3226 0
 4500 0864 0222     		movs	r2, #2
 4501              		.loc 1 3224 0
 4502 0866 8242     		cmp	r2, r0
 4503              		.loc 1 3226 0
 4504 0868 43F8041D 		str	r1, [r3, #-4]!
 4505              		.loc 1 3224 0
 4506 086c 0AD0     		beq	.L756
 4507              	.L586:
 4508              		.loc 1 3225 0
 4509 086e 55F8041F 		ldr	r1, [r5, #4]!
 4510              		.loc 1 3226 0
 4511 0872 0232     		adds	r2, r2, #2
 4512 0874 43F8041D 		str	r1, [r3, #-4]!
 4513              		.loc 1 3225 0
 4514 0878 55F8041F 		ldr	r1, [r5, #4]!
 4515              		.loc 1 3224 0
 4516 087c 8242     		cmp	r2, r0
 4517              		.loc 1 3226 0
 4518 087e 43F8041D 		str	r1, [r3, #-4]!
 4519              		.loc 1 3224 0
 4520 0882 F4D1     		bne	.L586
 4521              	.L756:
 4522 0884 04EB8205 		add	r5, r4, r2, lsl #2
ARM GAS  /tmp/ccvHIMcj.s 			page 81


 4523 0888 A9EB8009 		sub	r9, r9, r0, lsl #2
 4524 088c 6AE4     		b	.L743
 4525              	.LVL480:
 4526              	.L445:
 4527              		.loc 1 3206 0
 4528 088e 06EB0C03 		add	r3, r6, ip
 4529 0892 A9F10409 		sub	r9, r9, #4
 4530              	.LVL481:
 4531 0896 03EB2041 		add	r1, r3, r0, asr #16
 4532 089a 46F80910 		str	r1, [r6, r9]
 4533              		.loc 1 2237 0
 4534 089e 2546     		mov	r5, r4
 4535              		.loc 1 3207 0
 4536 08a0 60E4     		b	.L743
 4537              	.LVL482:
 4538              	.L444:
 4539              		.loc 1 3202 0
 4540 08a2 06EB2040 		add	r0, r6, r0, asr #16
 4541 08a6 50F80C50 		ldr	r5, [r0, ip]
 4542 08aa A9F10409 		sub	r9, r9, #4
 4543              	.LVL483:
 4544 08ae 7219     		adds	r2, r6, r5
 4545 08b0 46F80920 		str	r2, [r6, r9]
 4546              		.loc 1 2237 0
 4547 08b4 2546     		mov	r5, r4
 4548              		.loc 1 3203 0
 4549 08b6 55E4     		b	.L743
 4550              	.LVL484:
 4551              	.L443:
 4552              		.loc 1 3198 0
 4553 08b8 A9F10409 		sub	r9, r9, #4
 4554              	.LVL485:
 4555 08bc 06EB2043 		add	r3, r6, r0, asr #16
 4556 08c0 46F80930 		str	r3, [r6, r9]
 4557              		.loc 1 2237 0
 4558 08c4 2546     		mov	r5, r4
 4559              		.loc 1 3199 0
 4560 08c6 4DE4     		b	.L743
 4561              	.LVL486:
 4562              	.L434:
 4563              		.loc 1 3155 0
 4564 08c8 0CEB2040 		add	r0, ip, r0, asr #16
 4565              	.LVL487:
 4566              		.loc 1 3156 0
 4567 08cc 3258     		ldr	r2, [r6, r0]
 4568              		.loc 1 2237 0
 4569 08ce 2546     		mov	r5, r4
 4570              		.loc 1 3156 0
 4571 08d0 0B9C     		ldr	r4, [sp, #44]
 4572              	.LVL488:
 4573 08d2 B450     		str	r4, [r6, r2]
 4574              		.loc 1 3157 0
 4575 08d4 46E4     		b	.L743
 4576              	.LVL489:
 4577              	.L433:
 4578              		.loc 1 3151 0
 4579 08d6 0B9B     		ldr	r3, [sp, #44]
ARM GAS  /tmp/ccvHIMcj.s 			page 82


 4580 08d8 06EB2045 		add	r5, r6, r0, asr #16
 4581 08dc 45F80C30 		str	r3, [r5, ip]
 4582              		.loc 1 2237 0
 4583 08e0 2546     		mov	r5, r4
 4584              		.loc 1 3152 0
 4585 08e2 3FE4     		b	.L743
 4586              	.LVL490:
 4587              	.L432:
 4588              		.loc 1 3147 0
 4589 08e4 0B99     		ldr	r1, [sp, #44]
 4590              		.loc 1 3146 0
 4591 08e6 0014     		asrs	r0, r0, #16
 4592              		.loc 1 3147 0
 4593 08e8 3150     		str	r1, [r6, r0]
 4594              		.loc 1 2237 0
 4595 08ea 2546     		mov	r5, r4
 4596              		.loc 1 3148 0
 4597 08ec 3AE4     		b	.L743
 4598              	.LVL491:
 4599              	.L431:
 4600              		.loc 1 3143 0
 4601 08ee 0CEB204A 		add	sl, ip, r0, asr #16
 4602              	.LVL492:
 4603              		.loc 1 2237 0
 4604 08f2 2546     		mov	r5, r4
 4605              		.loc 1 3144 0
 4606 08f4 36E4     		b	.L743
 4607              	.L430:
 4608              		.loc 1 3139 0
 4609 08f6 0CEB2042 		add	r2, ip, r0, asr #16
 4610 08fa 0B92     		str	r2, [sp, #44]
 4611              		.loc 1 2237 0
 4612 08fc 2546     		mov	r5, r4
 4613              		.loc 1 3140 0
 4614 08fe 31E4     		b	.L743
 4615              	.L429:
 4616              		.loc 1 3135 0
 4617 0900 4FEA204A 		asr	sl, r0, #16
 4618              	.LVL493:
 4619              		.loc 1 2237 0
 4620 0904 2546     		mov	r5, r4
 4621              		.loc 1 3136 0
 4622 0906 2DE4     		b	.L743
 4623              	.L428:
 4624              		.loc 1 3132 0
 4625 0908 0514     		asrs	r5, r0, #16
 4626 090a 0B95     		str	r5, [sp, #44]
 4627              		.loc 1 2237 0
 4628 090c 2546     		mov	r5, r4
 4629              		.loc 1 3133 0
 4630 090e 29E4     		b	.L743
 4631              	.L427:
 4632              		.loc 1 3129 0
 4633 0910 0014     		asrs	r0, r0, #16
 4634              	.LVL494:
 4635              		.loc 1 2237 0
 4636 0912 2546     		mov	r5, r4
ARM GAS  /tmp/ccvHIMcj.s 			page 83


 4637              	.LVL495:
 4638              	.L476:
 4639              		.loc 1 2278 0
 4640 0914 0B9B     		ldr	r3, [sp, #44]
 4641 0916 9B45     		cmp	fp, r3
 4642 0918 02DC     		bgt	.L477
 4643              		.loc 1 2278 0 is_stmt 0 discriminator 1
 4644 091a 9945     		cmp	r9, r3
 4645 091c 00F37D87 		bgt	.L564
 4646              	.L477:
 4647              		.loc 1 2278 0 discriminator 2
 4648 0920 D8F82C20 		ldr	r2, [r8, #44]	@ unaligned
 4649 0924 9342     		cmp	r3, r2
 4650 0926 80F07887 		bcs	.L564
 4651              		.loc 1 2280 0 is_stmt 1
 4652 092a 0228     		cmp	r0, #2
 4653 092c 00F04887 		beq	.L481
 4654 0930 0428     		cmp	r0, #4
 4655 0932 00F04187 		beq	.L482
 4656 0936 0128     		cmp	r0, #1
 4657 0938 7FF414AC 		bne	.L743
 4658              		.loc 1 2282 0
 4659 093c F45C     		ldrb	r4, [r6, r3]	@ zero_extendqisi2
 4660              	.LVL496:
 4661 093e 0B94     		str	r4, [sp, #44]
 4662              		.loc 1 2283 0
 4663 0940 10E4     		b	.L743
 4664              	.LVL497:
 4665              	.L436:
 4666              		.loc 1 3163 0
 4667 0942 0B9B     		ldr	r3, [sp, #44]
 4668              		.loc 1 3162 0
 4669 0944 0214     		asrs	r2, r0, #16
 4670              		.loc 1 3163 0
 4671 0946 13FA02F1 		lsls	r1, r3, r2
 4672 094a 01EB0A03 		add	r3, r1, sl
 4673              	.LVL498:
 4674              		.loc 1 3165 0
 4675 094e 9B45     		cmp	fp, r3
 4676 0950 02DC     		bgt	.L581
 4677              		.loc 1 3165 0 is_stmt 0 discriminator 1
 4678 0952 9945     		cmp	r9, r3
 4679 0954 00F3A287 		bgt	.L582
 4680              	.L581:
 4681              		.loc 1 3165 0 discriminator 2
 4682 0958 D8F82C00 		ldr	r0, [r8, #44]	@ unaligned
 4683              	.LVL499:
 4684 095c 8342     		cmp	r3, r0
 4685 095e 80F09D87 		bcs	.L582
 4686              		.loc 1 3167 0 is_stmt 1
 4687 0962 F258     		ldr	r2, [r6, r3]
 4688              		.loc 1 2237 0
 4689 0964 2546     		mov	r5, r4
 4690              	.LVL500:
 4691              		.loc 1 3167 0
 4692 0966 0B92     		str	r2, [sp, #44]
 4693              		.loc 1 3168 0
ARM GAS  /tmp/ccvHIMcj.s 			page 84


 4694 0968 FFF7FCBB 		b	.L743
 4695              	.LVL501:
 4696              	.L435:
 4697              		.loc 1 3159 0
 4698 096c 0014     		asrs	r0, r0, #16
 4699              	.LVL502:
 4700              		.loc 1 2237 0
 4701 096e 2546     		mov	r5, r4
 4702              	.LVL503:
 4703              	.L486:
 4704              		.loc 1 2329 0
 4705 0970 DA45     		cmp	sl, fp
 4706 0972 02DB     		blt	.L487
 4707              		.loc 1 2329 0 is_stmt 0 discriminator 1
 4708 0974 CA45     		cmp	sl, r9
 4709 0976 C0F25087 		blt	.L564
 4710              	.L487:
 4711              		.loc 1 2329 0 discriminator 2
 4712 097a D8F82C20 		ldr	r2, [r8, #44]	@ unaligned
 4713 097e 9245     		cmp	sl, r2
 4714 0980 80F04B87 		bcs	.L564
 4715              		.loc 1 2331 0 is_stmt 1
 4716 0984 0228     		cmp	r0, #2
 4717 0986 00F02D87 		beq	.L491
 4718 098a 0428     		cmp	r0, #4
 4719 098c 00F02587 		beq	.L492
 4720 0990 0128     		cmp	r0, #1
 4721 0992 7FF4E7AB 		bne	.L743
 4722              		.loc 1 2333 0
 4723 0996 0B98     		ldr	r0, [sp, #44]
 4724              	.LVL504:
 4725 0998 06F80A00 		strb	r0, [r6, sl]
 4726              		.loc 1 2334 0
 4727 099c FFF7E2BB 		b	.L743
 4728              	.LVL505:
 4729              	.L426:
 4730              		.loc 1 3125 0
 4731 09a0 0CEB2043 		add	r3, ip, r0, asr #16
 4732              	.LVL506:
 4733              		.loc 1 3126 0
 4734 09a4 F158     		ldr	r1, [r6, r3]
 4735              		.loc 1 2237 0
 4736 09a6 2546     		mov	r5, r4
 4737              		.loc 1 3126 0
 4738 09a8 56F801A0 		ldr	sl, [r6, r1]
 4739              	.LVL507:
 4740              		.loc 1 3127 0
 4741 09ac FFF7DABB 		b	.L743
 4742              	.LVL508:
 4743              	.L425:
 4744              		.loc 1 3120 0
 4745 09b0 0CEB2040 		add	r0, ip, r0, asr #16
 4746              	.LVL509:
 4747              		.loc 1 3121 0
 4748 09b4 3258     		ldr	r2, [r6, r0]
 4749              		.loc 1 2237 0
 4750 09b6 2546     		mov	r5, r4
ARM GAS  /tmp/ccvHIMcj.s 			page 85


 4751              		.loc 1 3121 0
 4752 09b8 B458     		ldr	r4, [r6, r2]
 4753              	.LVL510:
 4754 09ba 0B94     		str	r4, [sp, #44]
 4755              		.loc 1 3122 0
 4756 09bc FFF7D2BB 		b	.L743
 4757              	.LVL511:
 4758              	.L363:
 4759              		.loc 1 2577 0
 4760 09c0 0B9A     		ldr	r2, [sp, #44]
 4761              		.loc 1 2237 0
 4762 09c2 2546     		mov	r5, r4
 4763              		.loc 1 2577 0
 4764 09c4 511E     		subs	r1, r2, #1
 4765 09c6 0B91     		str	r1, [sp, #44]
 4766              		.loc 1 2578 0
 4767 09c8 FFF7CCBB 		b	.L743
 4768              	.L362:
 4769              		.loc 1 2570 0
 4770 09cc 0B9B     		ldr	r3, [sp, #44]
 4771              		.loc 1 2237 0
 4772 09ce 2546     		mov	r5, r4
 4773              		.loc 1 2570 0
 4774 09d0 F458     		ldr	r4, [r6, r3]
 4775              	.LVL512:
 4776 09d2 601C     		adds	r0, r4, #1
 4777 09d4 F050     		str	r0, [r6, r3]
 4778              		.loc 1 2575 0
 4779 09d6 FFF7C5BB 		b	.L743
 4780              	.LVL513:
 4781              	.L361:
 4782              		.loc 1 2566 0
 4783 09da 0AF1010A 		add	sl, sl, #1
 4784              	.LVL514:
 4785              		.loc 1 2237 0
 4786 09de 2546     		mov	r5, r4
 4787              		.loc 1 2567 0
 4788 09e0 FFF7C0BB 		b	.L743
 4789              	.L360:
 4790              		.loc 1 2563 0
 4791 09e4 0B9A     		ldr	r2, [sp, #44]
 4792              		.loc 1 2237 0
 4793 09e6 2546     		mov	r5, r4
 4794              		.loc 1 2563 0
 4795 09e8 511C     		adds	r1, r2, #1
 4796 09ea 0B91     		str	r1, [sp, #44]
 4797              		.loc 1 2564 0
 4798 09ec FFF7BABB 		b	.L743
 4799              	.L359:
 4800              		.loc 1 2237 0
 4801 09f0 2546     		mov	r5, r4
 4802              		.loc 1 2560 0
 4803 09f2 0B9C     		ldr	r4, [sp, #44]
 4804              	.LVL515:
 4805 09f4 5445     		cmp	r4, sl
 4806 09f6 B4BF     		ite	lt
 4807 09f8 0024     		movlt	r4, #0
ARM GAS  /tmp/ccvHIMcj.s 			page 86


 4808 09fa 0124     		movge	r4, #1
 4809 09fc 0B94     		str	r4, [sp, #44]
 4810              		.loc 1 2561 0
 4811 09fe FFF7B1BB 		b	.L743
 4812              	.LVL516:
 4813              	.L358:
 4814              		.loc 1 2557 0
 4815 0a02 0B9B     		ldr	r3, [sp, #44]
 4816              		.loc 1 2237 0
 4817 0a04 2546     		mov	r5, r4
 4818              		.loc 1 2557 0
 4819 0a06 5345     		cmp	r3, sl
 4820 0a08 D4BF     		ite	le
 4821 0a0a 0023     		movle	r3, #0
 4822 0a0c 0123     		movgt	r3, #1
 4823 0a0e 0B93     		str	r3, [sp, #44]
 4824              		.loc 1 2558 0
 4825 0a10 FFF7A8BB 		b	.L743
 4826              	.L357:
 4827              		.loc 1 2554 0
 4828 0a14 0B98     		ldr	r0, [sp, #44]
 4829              		.loc 1 2237 0
 4830 0a16 2546     		mov	r5, r4
 4831              		.loc 1 2554 0
 4832 0a18 5045     		cmp	r0, sl
 4833 0a1a CCBF     		ite	gt
 4834 0a1c 0020     		movgt	r0, #0
 4835 0a1e 0120     		movle	r0, #1
 4836 0a20 0B90     		str	r0, [sp, #44]
 4837              		.loc 1 2555 0
 4838 0a22 FFF79FBB 		b	.L743
 4839              	.L356:
 4840              		.loc 1 2551 0
 4841 0a26 0B9A     		ldr	r2, [sp, #44]
 4842              		.loc 1 2237 0
 4843 0a28 2546     		mov	r5, r4
 4844              		.loc 1 2551 0
 4845 0a2a 5245     		cmp	r2, sl
 4846 0a2c ACBF     		ite	ge
 4847 0a2e 0022     		movge	r2, #0
 4848 0a30 0122     		movlt	r2, #1
 4849 0a32 0B92     		str	r2, [sp, #44]
 4850              		.loc 1 2552 0
 4851 0a34 FFF796BB 		b	.L743
 4852              	.L355:
 4853              		.loc 1 2548 0
 4854 0a38 0B99     		ldr	r1, [sp, #44]
 4855              		.loc 1 2237 0
 4856 0a3a 2546     		mov	r5, r4
 4857              		.loc 1 2548 0
 4858 0a3c B1EB0A04 		subs	r4, r1, sl
 4859              	.LVL517:
 4860 0a40 18BF     		it	ne
 4861 0a42 0124     		movne	r4, #1
 4862 0a44 0B94     		str	r4, [sp, #44]
 4863              		.loc 1 2549 0
 4864 0a46 FFF78DBB 		b	.L743
ARM GAS  /tmp/ccvHIMcj.s 			page 87


 4865              	.LVL518:
 4866              	.L354:
 4867              		.loc 1 2545 0
 4868 0a4a 0B9B     		ldr	r3, [sp, #44]
 4869              		.loc 1 2237 0
 4870 0a4c 2546     		mov	r5, r4
 4871              		.loc 1 2545 0
 4872 0a4e CAEB0300 		rsb	r0, sl, r3
 4873 0a52 4242     		rsbs	r2, r0, #0
 4874 0a54 42EB0001 		adc	r1, r2, r0
 4875 0a58 0B91     		str	r1, [sp, #44]
 4876              		.loc 1 2546 0
 4877 0a5a FFF783BB 		b	.L743
 4878              	.L353:
 4879              		.loc 1 2237 0
 4880 0a5e 2546     		mov	r5, r4
 4881              		.loc 1 2542 0
 4882 0a60 0B9C     		ldr	r4, [sp, #44]
 4883              	.LVL519:
 4884 0a62 E343     		mvns	r3, r4
 4885 0a64 0B93     		str	r3, [sp, #44]
 4886              		.loc 1 2543 0
 4887 0a66 FFF77DBB 		b	.L743
 4888              	.LVL520:
 4889              	.L352:
 4890              		.loc 1 2539 0
 4891 0a6a 0B98     		ldr	r0, [sp, #44]
 4892              		.loc 1 2237 0
 4893 0a6c 2546     		mov	r5, r4
 4894              		.loc 1 2539 0
 4895 0a6e 4242     		negs	r2, r0
 4896 0a70 0B92     		str	r2, [sp, #44]
 4897              		.loc 1 2540 0
 4898 0a72 FFF777BB 		b	.L743
 4899              	.L351:
 4900              		.loc 1 2536 0
 4901 0a76 0B99     		ldr	r1, [sp, #44]
 4902              		.loc 1 2237 0
 4903 0a78 2546     		mov	r5, r4
 4904              		.loc 1 2536 0
 4905 0a7a D1F10104 		rsbs	r4, r1, #1
 4906              	.LVL521:
 4907 0a7e 38BF     		it	cc
 4908 0a80 0024     		movcc	r4, #0
 4909 0a82 0B94     		str	r4, [sp, #44]
 4910              		.loc 1 2537 0
 4911 0a84 FFF76EBB 		b	.L743
 4912              	.LVL522:
 4913              	.L350:
 4914              		.loc 1 2533 0
 4915 0a88 0B9B     		ldr	r3, [sp, #44]
 4916              		.loc 1 2237 0
 4917 0a8a 2546     		mov	r5, r4
 4918              		.loc 1 2533 0
 4919 0a8c 83EA0A00 		eor	r0, r3, sl
 4920 0a90 0B90     		str	r0, [sp, #44]
 4921              		.loc 1 2534 0
ARM GAS  /tmp/ccvHIMcj.s 			page 88


 4922 0a92 FFF767BB 		b	.L743
 4923              	.L349:
 4924              		.loc 1 2530 0
 4925 0a96 0B9A     		ldr	r2, [sp, #44]
 4926              		.loc 1 2237 0
 4927 0a98 2546     		mov	r5, r4
 4928              		.loc 1 2530 0
 4929 0a9a 42EA0A01 		orr	r1, r2, sl
 4930 0a9e 0B91     		str	r1, [sp, #44]
 4931              		.loc 1 2531 0
 4932 0aa0 FFF760BB 		b	.L743
 4933              	.L348:
 4934              		.loc 1 2237 0
 4935 0aa4 2546     		mov	r5, r4
 4936              		.loc 1 2527 0
 4937 0aa6 0B9C     		ldr	r4, [sp, #44]
 4938              	.LVL523:
 4939 0aa8 04EA0A03 		and	r3, r4, sl
 4940 0aac 0B93     		str	r3, [sp, #44]
 4941              		.loc 1 2528 0
 4942 0aae FFF759BB 		b	.L743
 4943              	.LVL524:
 4944              	.L347:
 4945              		.loc 1 2524 0
 4946 0ab2 0B98     		ldr	r0, [sp, #44]
 4947              		.loc 1 2237 0
 4948 0ab4 2546     		mov	r5, r4
 4949              		.loc 1 2524 0
 4950 0ab6 C0EB0A02 		rsb	r2, r0, sl
 4951 0aba 0B92     		str	r2, [sp, #44]
 4952              		.loc 1 2525 0
 4953 0abc FFF752BB 		b	.L743
 4954              	.L346:
 4955              		.loc 1 2521 0
 4956 0ac0 0B99     		ldr	r1, [sp, #44]
 4957              		.loc 1 2237 0
 4958 0ac2 2546     		mov	r5, r4
 4959              		.loc 1 2521 0
 4960 0ac4 01EB0A04 		add	r4, r1, sl
 4961              	.LVL525:
 4962 0ac8 0B94     		str	r4, [sp, #44]
 4963              		.loc 1 2522 0
 4964 0aca FFF74BBB 		b	.L743
 4965              	.LVL526:
 4966              	.L345:
 4967              		.loc 1 2500 0
 4968 0ace 0B9B     		ldr	r3, [sp, #44]
 4969 0ad0 002B     		cmp	r3, #0
 4970 0ad2 00F00487 		beq	.L814
 4971              	.LVL527:
 4972              		.loc 1 2505 0
 4973 0ad6 9AFBF3F2 		sdiv	r2, sl, r3
 4974              	.LVL528:
 4975              		.loc 1 2506 0
 4976 0ada 03FB12AA 		mls	sl, r3, r2, sl
 4977              	.LVL529:
 4978              		.loc 1 2505 0
ARM GAS  /tmp/ccvHIMcj.s 			page 89


 4979 0ade 0B92     		str	r2, [sp, #44]
 4980              		.loc 1 2515 0
 4981 0ae0 BAF1000F 		cmp	sl, #0
 4982 0ae4 00F09686 		beq	.L609
 4983              		.loc 1 2515 0 is_stmt 0 discriminator 1
 4984 0ae8 9AEA030F 		teq	sl, r3
 4985 0aec 00F1BB86 		bmi	.L815
 4986              		.loc 1 2237 0 is_stmt 1
 4987 0af0 2546     		mov	r5, r4
 4988 0af2 FFF737BB 		b	.L743
 4989              	.LVL530:
 4990              	.L344:
 4991              		.loc 1 2497 0
 4992 0af6 0B9A     		ldr	r2, [sp, #44]
 4993              		.loc 1 2237 0
 4994 0af8 2546     		mov	r5, r4
 4995              		.loc 1 2497 0
 4996 0afa 0AFB02F1 		mul	r1, sl, r2
 4997 0afe 0B91     		str	r1, [sp, #44]
 4998              	.LVL531:
 4999              		.loc 1 2498 0
 5000 0b00 FFF730BB 		b	.L743
 5001              	.L395:
 5002              		.loc 1 2910 0
 5003 0b04 0B99     		ldr	r1, [sp, #44]
 5004 0b06 8A45     		cmp	sl, r1
 5005 0b08 00F37D86 		bgt	.L571
 5006              		.loc 1 2911 0
 5007 0b0c 2268     		ldr	r2, [r4, #0]
 5008 0b0e A018     		adds	r0, r4, r2
 5009 0b10 051F     		subs	r5, r0, #4
 5010              	.LVL532:
 5011 0b12 FFF727BB 		b	.L743
 5012              	.LVL533:
 5013              	.L394:
 5014              		.loc 1 2904 0
 5015 0b16 0B9B     		ldr	r3, [sp, #44]
 5016 0b18 9A45     		cmp	sl, r3
 5017 0b1a 80F25586 		bge	.L570
 5018              		.loc 1 2905 0
 5019 0b1e 2568     		ldr	r5, [r4, #0]
 5020 0b20 6419     		adds	r4, r4, r5
 5021              	.LVL534:
 5022 0b22 251F     		subs	r5, r4, #4
 5023              	.LVL535:
 5024 0b24 FFF71EBB 		b	.L743
 5025              	.LVL536:
 5026              	.L393:
 5027              		.loc 1 2898 0
 5028 0b28 0B99     		ldr	r1, [sp, #44]
 5029 0b2a 8A45     		cmp	sl, r1
 5030 0b2c C0F26086 		blt	.L569
 5031              		.loc 1 2899 0
 5032 0b30 2268     		ldr	r2, [r4, #0]
 5033 0b32 A018     		adds	r0, r4, r2
 5034              	.LVL537:
 5035 0b34 051F     		subs	r5, r0, #4
ARM GAS  /tmp/ccvHIMcj.s 			page 90


 5036              	.LVL538:
 5037 0b36 FFF715BB 		b	.L743
 5038              	.LVL539:
 5039              	.L331:
 5040              		.loc 1 2432 0
 5041 0b3a 6B68     		ldr	r3, [r5, #4]
 5042 0b3c 5B44     		add	r3, fp, r3
 5043              	.LVL540:
 5044              		.loc 1 2433 0
 5045 0b3e 03F13F00 		add	r0, r3, #63
 5046 0b42 8145     		cmp	r9, r0
 5047 0b44 7FF7EBAB 		ble	.L625
 5048              		.loc 1 2434 0
 5049 0b48 D8F82420 		ldr	r2, [r8, #36]	@ unaligned
 5050 0b4c 9342     		cmp	r3, r2
 5051 0b4e FFF6E4AB 		blt	.L626
 5052              		.loc 1 2430 0
 5053 0b52 DA46     		mov	sl, fp
 5054 0b54 251D     		adds	r5, r4, #4
 5055 0b56 9B46     		mov	fp, r3
 5056              	.LVL541:
 5057 0b58 FFF704BB 		b	.L743
 5058              	.LVL542:
 5059              	.L410:
 5060              		.loc 1 3029 0
 5061 0b5c 6D68     		ldr	r5, [r5, #4]
 5062 0b5e 0295     		str	r5, [sp, #8]
 5063              	.LVL543:
 5064              		.loc 1 3030 0
 5065 0b60 029B     		ldr	r3, [sp, #8]
 5066              		.loc 1 3029 0
 5067 0b62 251D     		adds	r5, r4, #4
 5068              	.LVL544:
 5069              		.loc 1 3030 0
 5070 0b64 002B     		cmp	r3, #0
 5071 0b66 3FF4FDAA 		beq	.L743
 5072              		.loc 1 3031 0
 5073 0b6a 6268     		ldr	r2, [r4, #4]
 5074              	.LVL545:
 5075              		.loc 1 3030 0
 5076 0b6c 029C     		ldr	r4, [sp, #8]
 5077              	.LVL546:
 5078 0b6e 581E     		subs	r0, r3, #1
 5079              		.loc 1 3032 0
 5080 0b70 0121     		movs	r1, #1
 5081 0b72 06EB0903 		add	r3, r6, r9
 5082              	.LVL547:
 5083 0b76 43F8042D 		str	r2, [r3, #-4]!
 5084 0b7a 00EA0102 		and	r2, r0, r1
 5085              		.loc 1 3031 0
 5086 0b7e 281D     		adds	r0, r5, #4
 5087              	.LVL548:
 5088              		.loc 1 3030 0
 5089 0b80 A142     		cmp	r1, r4
 5090 0b82 15D0     		beq	.L747
 5091 0b84 3AB1     		cbz	r2, .L574
 5092 0b86 029A     		ldr	r2, [sp, #8]
ARM GAS  /tmp/ccvHIMcj.s 			page 91


 5093              		.loc 1 3031 0
 5094 0b88 50F8044B 		ldr	r4, [r0], #4
 5095              	.LVL549:
 5096              		.loc 1 3032 0
 5097 0b8c 0221     		movs	r1, #2
 5098              		.loc 1 3030 0
 5099 0b8e 9142     		cmp	r1, r2
 5100              		.loc 1 3032 0
 5101 0b90 43F8044D 		str	r4, [r3, #-4]!
 5102              		.loc 1 3030 0
 5103 0b94 0CD0     		beq	.L747
 5104              	.L574:
 5105              		.loc 1 3031 0
 5106 0b96 0246     		mov	r2, r0
 5107 0b98 52F8044B 		ldr	r4, [r2], #4
 5108              		.loc 1 3032 0
 5109 0b9c 0231     		adds	r1, r1, #2
 5110 0b9e 43F8044D 		str	r4, [r3, #-4]!
 5111              		.loc 1 3031 0
 5112 0ba2 4468     		ldr	r4, [r0, #4]
 5113 0ba4 101D     		adds	r0, r2, #4
 5114              		.loc 1 3032 0
 5115 0ba6 43F8044D 		str	r4, [r3, #-4]!
 5116              		.loc 1 3030 0
 5117 0baa 029C     		ldr	r4, [sp, #8]
 5118 0bac A142     		cmp	r1, r4
 5119 0bae F2D1     		bne	.L574
 5120              	.L747:
 5121 0bb0 029B     		ldr	r3, [sp, #8]
 5122 0bb2 05EB8105 		add	r5, r5, r1, lsl #2
 5123              	.LVL550:
 5124 0bb6 A9EB8309 		sub	r9, r9, r3, lsl #2
 5125 0bba FFF7D3BA 		b	.L743
 5126              	.LVL551:
 5127              	.L409:
 5128              		.loc 1 3007 0
 5129 0bbe 6268     		ldr	r2, [r4, #4]
 5130              		.loc 1 3008 0
 5131 0bc0 A9F10409 		sub	r9, r9, #4
 5132              	.LVL552:
 5133              		.loc 1 3007 0
 5134 0bc4 0292     		str	r2, [sp, #8]
 5135              		.loc 1 3006 0
 5136 0bc6 6968     		ldr	r1, [r5, #4]
 5137              	.LVL553:
 5138              		.loc 1 3008 0
 5139 0bc8 46F80920 		str	r2, [r6, r9]
 5140              		.loc 1 3010 0
 5141 0bcc D8F80400 		ldr	r0, [r8, #4]	@ unaligned
 5142              	.LVL554:
 5143              		.loc 1 3007 0
 5144 0bd0 04F10805 		add	r5, r4, #8
 5145              	.LVL555:
 5146              		.loc 1 3010 0
 5147 0bd4 C0EB050E 		rsb	lr, r0, r5
 5148              		.loc 1 3012 0
 5149 0bd8 C8F81CC0 		str	ip, [r8, #28]	@ unaligned
ARM GAS  /tmp/ccvHIMcj.s 			page 92


 5150              		.loc 1 3013 0
 5151 0bdc C8F82890 		str	r9, [r8, #40]	@ unaligned
 5152              		.loc 1 3010 0
 5153 0be0 C8F818E0 		str	lr, [r8, #24]	@ unaligned
 5154              		.loc 1 3011 0
 5155 0be4 C8F820B0 		str	fp, [r8, #32]	@ unaligned
 5156              		.loc 1 3014 0
 5157 0be8 D8F80C40 		ldr	r4, [r8, #12]	@ unaligned
 5158              	.LVL556:
 5159 0bec 06EB0903 		add	r3, r6, r9
 5160 0bf0 CDF804C0 		str	ip, [sp, #4]
 5161 0bf4 4046     		mov	r0, r8
 5162 0bf6 069A     		ldr	r2, [sp, #24]
 5163 0bf8 A047     		blx	r4
 5164              	.LVL557:
 5165              		.loc 1 3015 0
 5166 0bfa 0299     		ldr	r1, [sp, #8]
 5167 0bfc 01EB090C 		add	ip, r1, r9
 5168 0c00 0CF10409 		add	r9, ip, #4
 5169              	.LVL558:
 5170              		.loc 1 3016 0
 5171 0c04 DDF804C0 		ldr	ip, [sp, #4]
 5172 0c08 0028     		cmp	r0, #0
 5173 0c0a 3FF4ABAA 		beq	.L743
 5174              		.loc 1 3017 0
 5175 0c0e 0C28     		cmp	r0, #12
 5176 0c10 00F06E86 		beq	.L816
 5177              	.LVL559:
 5178              	.L573:
 5179              		.loc 1 3025 0
 5180 0c14 0499     		ldr	r1, [sp, #16]
 5181 0c16 C8F82810 		str	r1, [r8, #40]	@ unaligned
 5182 0c1a 059B     		ldr	r3, [sp, #20]
 5183 0c1c C8F82030 		str	r3, [r8, #32]	@ unaligned
 5184 0c20 FFF759BB 		b	.L290
 5185              	.LVL560:
 5186              	.L408:
 5187              		.loc 1 2999 0
 5188 0c24 2368     		ldr	r3, [r4, #0]
 5189              		.loc 1 2997 0
 5190 0c26 251D     		adds	r5, r4, #4
 5191              	.LVL561:
 5192              		.loc 1 2999 0
 5193 0c28 0CEB0300 		add	r0, ip, r3
 5194              	.LVL562:
 5195 0c2c 3258     		ldr	r2, [r6, r0]
 5196 0c2e 541E     		subs	r4, r2, #1
 5197              	.LVL563:
 5198 0c30 3450     		str	r4, [r6, r0]
 5199              		.loc 1 3004 0
 5200 0c32 FFF797BA 		b	.L743
 5201              	.LVL564:
 5202              	.L339:
 5203              		.loc 1 2480 0
 5204 0c36 0B9A     		ldr	r2, [sp, #44]
 5205              		.loc 1 2237 0
 5206 0c38 2546     		mov	r5, r4
ARM GAS  /tmp/ccvHIMcj.s 			page 93


 5207              		.loc 1 2480 0
 5208 0c3a 02FA0AF1 		lsl	r1, r2, sl
 5209 0c3e 0B91     		str	r1, [sp, #44]
 5210              		.loc 1 2481 0
 5211 0c40 FFF790BA 		b	.L743
 5212              	.L338:
 5213              		.loc 1 2474 0
 5214 0c44 0B98     		ldr	r0, [sp, #44]
 5215 0c46 0028     		cmp	r0, #0
 5216 0c48 00F0C185 		beq	.L509
 5217              		.loc 1 2475 0
 5218 0c4c 2368     		ldr	r3, [r4, #0]
 5219 0c4e E418     		adds	r4, r4, r3
 5220              	.LVL565:
 5221 0c50 251F     		subs	r5, r4, #4
 5222              	.LVL566:
 5223 0c52 FFF787BA 		b	.L743
 5224              	.LVL567:
 5225              	.L337:
 5226              		.loc 1 2468 0
 5227 0c56 0B9D     		ldr	r5, [sp, #44]
 5228 0c58 002D     		cmp	r5, #0
 5229 0c5a 40F0BB85 		bne	.L508
 5230              		.loc 1 2469 0
 5231 0c5e 2268     		ldr	r2, [r4, #0]
 5232 0c60 A118     		adds	r1, r4, r2
 5233 0c62 0D1F     		subs	r5, r1, #4
 5234              	.LVL568:
 5235 0c64 FFF77EBA 		b	.L743
 5236              	.LVL569:
 5237              	.L336:
 5238              		.loc 1 2465 0
 5239 0c68 6B68     		ldr	r3, [r5, #4]
 5240 0c6a E418     		adds	r4, r4, r3
 5241              	.LVL570:
 5242 0c6c 251F     		subs	r5, r4, #4
 5243              	.LVL571:
 5244              		.loc 1 2466 0
 5245 0c6e FFF779BA 		b	.L743
 5246              	.LVL572:
 5247              	.L335:
 5248              		.loc 1 2459 0
 5249 0c72 D8F80400 		ldr	r0, [r8, #4]	@ unaligned
 5250              	.LVL573:
 5251 0c76 A9F10409 		sub	r9, r9, #4
 5252              	.LVL574:
 5253 0c7a 221A     		subs	r2, r4, r0
 5254 0c7c 111D     		adds	r1, r2, #4
 5255 0c7e 46F80910 		str	r1, [r6, r9]
 5256              		.loc 1 2460 0
 5257 0c82 6D68     		ldr	r5, [r5, #4]
 5258              	.LVL575:
 5259 0c84 6319     		adds	r3, r4, r5
 5260 0c86 1D1F     		subs	r5, r3, #4
 5261              	.LVL576:
 5262              		.loc 1 2461 0
 5263 0c88 FFF76CBA 		b	.L743
ARM GAS  /tmp/ccvHIMcj.s 			page 94


 5264              	.LVL577:
 5265              	.L334:
 5266              		.loc 1 2450 0
 5267 0c8c 09F10402 		add	r2, r9, #4
 5268              		.loc 1 2451 0
 5269 0c90 B358     		ldr	r3, [r6, r2]
 5270              		.loc 1 2453 0
 5271 0c92 D8F87410 		ldr	r1, [r8, #116]	@ unaligned
 5272              		.loc 1 2450 0
 5273 0c96 56F809C0 		ldr	ip, [r6, r9]
 5274              	.LVL578:
 5275              		.loc 1 2453 0
 5276 0c9a 8B42     		cmp	r3, r1
 5277 0c9c 80F2C685 		bge	.L561
 5278              		.loc 1 2451 0
 5279 0ca0 101D     		adds	r0, r2, #4
 5280              		.loc 1 2456 0
 5281 0ca2 3458     		ldr	r4, [r6, r0]
 5282              	.LVL579:
 5283              		.loc 1 2455 0
 5284 0ca4 D8F80420 		ldr	r2, [r8, #4]	@ unaligned
 5285              	.LVL580:
 5286              		.loc 1 2456 0
 5287 0ca8 00F10409 		add	r9, r0, #4
 5288              	.LVL581:
 5289              		.loc 1 2455 0
 5290 0cac D518     		adds	r5, r2, r3
 5291              	.LVL582:
 5292              		.loc 1 2456 0
 5293 0cae A144     		add	r9, r9, r4
 5294              	.LVL583:
 5295              		.loc 1 2457 0
 5296 0cb0 FFF758BA 		b	.L743
 5297              	.LVL584:
 5298              	.L333:
 5299              		.loc 1 2442 0
 5300 0cb4 09F10402 		add	r2, r9, #4
 5301              		.loc 1 2443 0
 5302 0cb8 B358     		ldr	r3, [r6, r2]
 5303              		.loc 1 2445 0
 5304 0cba D8F87400 		ldr	r0, [r8, #116]	@ unaligned
 5305              	.LVL585:
 5306              		.loc 1 2442 0
 5307 0cbe 56F809C0 		ldr	ip, [r6, r9]
 5308              	.LVL586:
 5309              		.loc 1 2445 0
 5310 0cc2 8342     		cmp	r3, r0
 5311 0cc4 80F2A985 		bge	.L564
 5312              		.loc 1 2447 0
 5313 0cc8 D8F80450 		ldr	r5, [r8, #4]	@ unaligned
 5314              	.LVL587:
 5315              		.loc 1 2443 0
 5316 0ccc 02F10409 		add	r9, r2, #4
 5317              	.LVL588:
 5318              		.loc 1 2447 0
 5319 0cd0 ED18     		adds	r5, r5, r3
 5320              	.LVL589:
ARM GAS  /tmp/ccvHIMcj.s 			page 95


 5321              		.loc 1 2448 0
 5322 0cd2 FFF747BA 		b	.L743
 5323              	.LVL590:
 5324              	.L332:
 5325              		.loc 1 2437 0
 5326 0cd6 A9F10409 		sub	r9, r9, #4
 5327              	.LVL591:
 5328              		.loc 1 2439 0
 5329 0cda 0BF13F01 		add	r1, fp, #63
 5330 0cde 8945     		cmp	r9, r1
 5331              		.loc 1 2437 0
 5332 0ce0 46F809C0 		str	ip, [r6, r9]
 5333              	.LVL592:
 5334              		.loc 1 2439 0
 5335 0ce4 7FF71BAB 		ble	.L625
 5336              		.loc 1 2237 0
 5337 0ce8 2546     		mov	r5, r4
 5338              		.loc 1 2439 0
 5339 0cea CC46     		mov	ip, r9
 5340 0cec FFF73ABA 		b	.L743
 5341              	.LVL593:
 5342              	.L343:
 5343              		.loc 1 2494 0
 5344 0cf0 2368     		ldr	r3, [r4, #0]
 5345              		.loc 1 2493 0
 5346 0cf2 251D     		adds	r5, r4, #4
 5347              	.LVL594:
 5348              		.loc 1 2494 0
 5349 0cf4 0AFA03FA 		lsl	sl, sl, r3
 5350              	.LVL595:
 5351              		.loc 1 2495 0
 5352 0cf8 FFF734BA 		b	.L743
 5353              	.LVL596:
 5354              	.L342:
 5355              		.loc 1 2490 0
 5356 0cfc 2068     		ldr	r0, [r4, #0]
 5357              		.loc 1 2489 0
 5358 0cfe 251D     		adds	r5, r4, #4
 5359              	.LVL597:
 5360              		.loc 1 2490 0
 5361 0d00 0B9C     		ldr	r4, [sp, #44]
 5362              	.LVL598:
 5363 0d02 14FA00F2 		lsls	r2, r4, r0
 5364 0d06 0B92     		str	r2, [sp, #44]
 5365              		.loc 1 2491 0
 5366 0d08 FFF72CBA 		b	.L743
 5367              	.LVL599:
 5368              	.L341:
 5369              		.loc 1 2486 0
 5370 0d0c 0B99     		ldr	r1, [sp, #44]
 5371              		.loc 1 2237 0
 5372 0d0e 2546     		mov	r5, r4
 5373              		.loc 1 2486 0
 5374 0d10 41FA0AF3 		asr	r3, r1, sl
 5375 0d14 0B93     		str	r3, [sp, #44]
 5376              		.loc 1 2487 0
 5377 0d16 FFF725BA 		b	.L743
ARM GAS  /tmp/ccvHIMcj.s 			page 96


 5378              	.L340:
 5379              		.loc 1 2237 0
 5380 0d1a 2546     		mov	r5, r4
 5381              		.loc 1 2483 0
 5382 0d1c 0B9C     		ldr	r4, [sp, #44]
 5383              	.LVL600:
 5384 0d1e 24FA0AF0 		lsr	r0, r4, sl
 5385 0d22 0B90     		str	r0, [sp, #44]
 5386              		.loc 1 2484 0
 5387 0d24 FFF71EBA 		b	.L743
 5388              	.LVL601:
 5389              	.L315:
 5390              		.loc 1 2308 0
 5391 0d28 2068     		ldr	r0, [r4, #0]
 5392              		.loc 1 2307 0
 5393 0d2a 251D     		adds	r5, r4, #4
 5394              	.LVL602:
 5395              		.loc 1 2308 0
 5396 0d2c 0B9C     		ldr	r4, [sp, #44]
 5397              	.LVL603:
 5398 0d2e 3450     		str	r4, [r6, r0]
 5399              		.loc 1 2309 0
 5400 0d30 FFF718BA 		b	.L743
 5401              	.LVL604:
 5402              	.L314:
 5403              		.loc 1 2303 0
 5404 0d34 6968     		ldr	r1, [r5, #4]
 5405              	.LVL605:
 5406 0d36 251D     		adds	r5, r4, #4
 5407              	.LVL606:
 5408              		.loc 1 2304 0
 5409 0d38 01EB0C0A 		add	sl, r1, ip
 5410              	.LVL607:
 5411              		.loc 1 2305 0
 5412 0d3c FFF712BA 		b	.L743
 5413              	.LVL608:
 5414              	.L313:
 5415              		.loc 1 2300 0
 5416 0d40 2368     		ldr	r3, [r4, #0]
 5417              		.loc 1 2299 0
 5418 0d42 251D     		adds	r5, r4, #4
 5419              	.LVL609:
 5420              		.loc 1 2300 0
 5421 0d44 03EB0C02 		add	r2, r3, ip
 5422 0d48 0B92     		str	r2, [sp, #44]
 5423              		.loc 1 2301 0
 5424 0d4a FFF70BBA 		b	.L743
 5425              	.LVL610:
 5426              	.L312:
 5427              		.loc 1 2296 0
 5428 0d4e D5F804A0 		ldr	sl, [r5, #4]
 5429              	.LVL611:
 5430 0d52 251D     		adds	r5, r4, #4
 5431              	.LVL612:
 5432              		.loc 1 2297 0
 5433 0d54 FFF706BA 		b	.L743
 5434              	.LVL613:
ARM GAS  /tmp/ccvHIMcj.s 			page 97


 5435              	.L311:
 5436              		.loc 1 2293 0
 5437 0d58 6868     		ldr	r0, [r5, #4]
 5438 0d5a 251D     		adds	r5, r4, #4
 5439              	.LVL614:
 5440 0d5c 0B90     		str	r0, [sp, #44]
 5441              		.loc 1 2294 0
 5442 0d5e FFF701BA 		b	.L743
 5443              	.LVL615:
 5444              	.L310:
 5445              		.loc 1 2275 0
 5446 0d62 6868     		ldr	r0, [r5, #4]
 5447              	.LVL616:
 5448 0d64 251D     		adds	r5, r4, #4
 5449              	.LVL617:
 5450 0d66 D5E5     		b	.L476
 5451              	.LVL618:
 5452              	.L309:
 5453              		.loc 1 2270 0
 5454 0d68 0B9B     		ldr	r3, [sp, #44]
 5455 0d6a 9B45     		cmp	fp, r3
 5456 0d6c 02DC     		bgt	.L473
 5457              		.loc 1 2270 0 is_stmt 0 discriminator 1
 5458 0d6e 9945     		cmp	r9, r3
 5459 0d70 00F35C85 		bgt	.L561
 5460              	.L473:
 5461              		.loc 1 2270 0 discriminator 2
 5462 0d74 D8F82C10 		ldr	r1, [r8, #44]	@ unaligned
 5463 0d78 8B42     		cmp	r3, r1
 5464 0d7a 80F05785 		bcs	.L561
 5465              		.loc 1 2272 0 is_stmt 1
 5466 0d7e F058     		ldr	r0, [r6, r3]
 5467              		.loc 1 2237 0
 5468 0d80 2546     		mov	r5, r4
 5469              		.loc 1 2272 0
 5470 0d82 0B90     		str	r0, [sp, #44]
 5471              		.loc 1 2273 0
 5472 0d84 FFF7EEB9 		b	.L743
 5473              	.L308:
 5474              		.loc 1 2265 0
 5475 0d88 2268     		ldr	r2, [r4, #0]
 5476              		.loc 1 2264 0
 5477 0d8a 251D     		adds	r5, r4, #4
 5478              	.LVL619:
 5479              		.loc 1 2265 0
 5480 0d8c 0CEB020A 		add	sl, ip, r2
 5481              	.LVL620:
 5482              		.loc 1 2266 0
 5483 0d90 56F80A30 		ldr	r3, [r6, sl]
 5484 0d94 56F803A0 		ldr	sl, [r6, r3]
 5485              	.LVL621:
 5486              		.loc 1 2267 0
 5487 0d98 FFF7E4B9 		b	.L743
 5488              	.LVL622:
 5489              	.L307:
 5490              		.loc 1 2260 0
 5491 0d9c 2068     		ldr	r0, [r4, #0]
ARM GAS  /tmp/ccvHIMcj.s 			page 98


 5492              		.loc 1 2259 0
 5493 0d9e 251D     		adds	r5, r4, #4
 5494              	.LVL623:
 5495              		.loc 1 2260 0
 5496 0da0 0CEB0001 		add	r1, ip, r0
 5497              	.LVL624:
 5498              		.loc 1 2261 0
 5499 0da4 7258     		ldr	r2, [r6, r1]
 5500 0da6 B458     		ldr	r4, [r6, r2]
 5501              	.LVL625:
 5502 0da8 0B94     		str	r4, [sp, #44]
 5503              		.loc 1 2262 0
 5504 0daa FFF7DBB9 		b	.L743
 5505              	.LVL626:
 5506              	.L306:
 5507              		.loc 1 2256 0
 5508 0dae 2368     		ldr	r3, [r4, #0]
 5509              		.loc 1 2255 0
 5510 0db0 251D     		adds	r5, r4, #4
 5511              	.LVL627:
 5512              		.loc 1 2256 0
 5513 0db2 06EB030A 		add	sl, r6, r3
 5514              	.LVL628:
 5515 0db6 5AF80CA0 		ldr	sl, [sl, ip]
 5516              	.LVL629:
 5517              		.loc 1 2257 0
 5518 0dba FFF7D3B9 		b	.L743
 5519              	.LVL630:
 5520              	.L305:
 5521              		.loc 1 2252 0
 5522 0dbe 2068     		ldr	r0, [r4, #0]
 5523              		.loc 1 2251 0
 5524 0dc0 251D     		adds	r5, r4, #4
 5525              	.LVL631:
 5526              		.loc 1 2252 0
 5527 0dc2 3118     		adds	r1, r6, r0
 5528 0dc4 51F80C20 		ldr	r2, [r1, ip]
 5529 0dc8 0B92     		str	r2, [sp, #44]
 5530              		.loc 1 2253 0
 5531 0dca FFF7CBB9 		b	.L743
 5532              	.LVL632:
 5533              	.L304:
 5534              		.loc 1 2248 0
 5535 0dce 2368     		ldr	r3, [r4, #0]
 5536              		.loc 1 2247 0
 5537 0dd0 251D     		adds	r5, r4, #4
 5538              	.LVL633:
 5539              		.loc 1 2248 0
 5540 0dd2 56F803A0 		ldr	sl, [r6, r3]
 5541              	.LVL634:
 5542              		.loc 1 2249 0
 5543 0dd6 FFF7C5B9 		b	.L743
 5544              	.LVL635:
 5545              	.L303:
 5546              		.loc 1 2244 0
 5547 0dda 2068     		ldr	r0, [r4, #0]
 5548              		.loc 1 2243 0
ARM GAS  /tmp/ccvHIMcj.s 			page 99


 5549 0ddc 251D     		adds	r5, r4, #4
 5550              	.LVL636:
 5551              		.loc 1 2244 0
 5552 0dde 3458     		ldr	r4, [r6, r0]
 5553              	.LVL637:
 5554 0de0 0B94     		str	r4, [sp, #44]
 5555              		.loc 1 2245 0
 5556 0de2 FFF7BFB9 		b	.L743
 5557              	.LVL638:
 5558              	.L300:
 5559              		.loc 1 2237 0
 5560 0de6 2546     		mov	r5, r4
 5561 0de8 FFF7BCB9 		b	.L743
 5562              	.L302:
 5563              		.loc 1 3361 0
 5564 0dec 049B     		ldr	r3, [sp, #16]
 5565 0dee 0620     		movs	r0, #6
 5566 0df0 C8F82830 		str	r3, [r8, #40]	@ unaligned
 5567 0df4 0599     		ldr	r1, [sp, #20]
 5568 0df6 C8F82010 		str	r1, [r8, #32]	@ unaligned
 5569 0dfa FFF76CBA 		b	.L290
 5570              	.L323:
 5571              		.loc 1 2399 0
 5572 0dfe 0B9A     		ldr	r2, [sp, #44]
 5573              	.LVL639:
 5574              		.loc 1 2237 0
 5575 0e00 2546     		mov	r5, r4
 5576              		.loc 1 2400 0
 5577 0e02 CDF82CA0 		str	sl, [sp, #44]
 5578              	.LVL640:
 5579              		.loc 1 2401 0
 5580 0e06 9246     		mov	sl, r2
 5581              		.loc 1 2402 0
 5582 0e08 FFF7ACB9 		b	.L743
 5583              	.LVL641:
 5584              	.L322:
 5585              		.loc 1 2378 0
 5586 0e0c 2068     		ldr	r0, [r4, #0]
 5587              		.loc 1 2377 0
 5588 0e0e 251D     		adds	r5, r4, #4
 5589              	.LVL642:
 5590              		.loc 1 2378 0
 5591 0e10 811E     		subs	r1, r0, #2
 5592 0e12 0429     		cmp	r1, #4
 5593 0e14 3FF6A6A9 		bhi	.L743
 5594 0e18 01A0     		adr	r0, .L505
 5595 0e1a 50F821F0 		ldr	pc, [r0, r1, lsl #2]
 5596 0e1e 00BF     		.align	2
 5597              	.L505:
 5598 0e20 13170000 		.word	.L501+1
 5599 0e24 65010000 		.word	.L743+1
 5600 0e28 0B170000 		.word	.L502+1
 5601 0e2c 03170000 		.word	.L503+1
 5602 0e30 1B170000 		.word	.L504+1
 5603              	.LVL643:
 5604              	.L321:
 5605              		.loc 1 2352 0
ARM GAS  /tmp/ccvHIMcj.s 			page 100


 5606 0e34 2368     		ldr	r3, [r4, #0]
 5607              		.loc 1 2351 0
 5608 0e36 251D     		adds	r5, r4, #4
 5609              	.LVL644:
 5610              		.loc 1 2352 0
 5611 0e38 062B     		cmp	r3, #6
 5612 0e3a 3FF693A9 		bhi	.L743
 5613 0e3e DFE813F0 		tbh	[pc, r3, lsl #1]
 5614              	.LVL645:
 5615              	.L500:
 5616 0e42 8D04     		.2byte	(.L493-.L500)/2
 5617 0e44 8904     		.2byte	(.L494-.L500)/2
 5618 0e46 8504     		.2byte	(.L495-.L500)/2
 5619 0e48 8004     		.2byte	(.L496-.L500)/2
 5620 0e4a 7C04     		.2byte	(.L497-.L500)/2
 5621 0e4c 7804     		.2byte	(.L498-.L500)/2
 5622 0e4e 7204     		.2byte	(.L499-.L500)/2
 5623              	.LVL646:
 5624              	.L320:
 5625              		.loc 1 2346 0
 5626 0e50 2368     		ldr	r3, [r4, #0]
 5627              		.loc 1 2344 0
 5628 0e52 251D     		adds	r5, r4, #4
 5629              	.LVL647:
 5630              		.loc 1 2346 0
 5631 0e54 032B     		cmp	r3, #3
 5632 0e56 3FF685A9 		bhi	.L743
 5633              		.loc 1 2347 0
 5634 0e5a 0B9A     		ldr	r2, [sp, #44]
 5635 0e5c C3F10400 		rsb	r0, r3, #4
 5636 0e60 82EA0004 		eor	r4, r2, r0
 5637              	.LVL648:
 5638 0e64 0B94     		str	r4, [sp, #44]
 5639 0e66 FFF77DB9 		b	.L743
 5640              	.LVL649:
 5641              	.L327:
 5642              		.loc 1 2413 0
 5643 0e6a 56F80920 		ldr	r2, [r6, r9]
 5644              		.loc 1 2237 0
 5645 0e6e 2546     		mov	r5, r4
 5646              		.loc 1 2413 0
 5647 0e70 0B92     		str	r2, [sp, #44]
 5648 0e72 09F10409 		add	r9, r9, #4
 5649              	.LVL650:
 5650              		.loc 1 2414 0
 5651 0e76 FFF775B9 		b	.L743
 5652              	.L326:
 5653              		.loc 1 2410 0
 5654 0e7a 0B98     		ldr	r0, [sp, #44]
 5655 0e7c A9F10409 		sub	r9, r9, #4
 5656              	.LVL651:
 5657 0e80 3118     		adds	r1, r6, r0
 5658 0e82 46F80910 		str	r1, [r6, r9]
 5659              		.loc 1 2237 0
 5660 0e86 2546     		mov	r5, r4
 5661              		.loc 1 2411 0
 5662 0e88 FFF76CB9 		b	.L743
ARM GAS  /tmp/ccvHIMcj.s 			page 101


 5663              	.L325:
 5664              		.loc 1 2407 0
 5665 0e8c A9F10409 		sub	r9, r9, #4
 5666              	.LVL652:
 5667 0e90 46F809A0 		str	sl, [r6, r9]
 5668              		.loc 1 2237 0
 5669 0e94 2546     		mov	r5, r4
 5670              		.loc 1 2408 0
 5671 0e96 FFF765B9 		b	.L743
 5672              	.L324:
 5673              		.loc 1 2404 0
 5674 0e9a 0B9B     		ldr	r3, [sp, #44]
 5675 0e9c A9F10409 		sub	r9, r9, #4
 5676              	.LVL653:
 5677 0ea0 46F80930 		str	r3, [r6, r9]
 5678              		.loc 1 2237 0
 5679 0ea4 2546     		mov	r5, r4
 5680              		.loc 1 2405 0
 5681 0ea6 FFF75DB9 		b	.L743
 5682              	.L329:
 5683              		.loc 1 2420 0
 5684 0eaa 2168     		ldr	r1, [r4, #0]
 5685              		.loc 1 2419 0
 5686 0eac 251D     		adds	r5, r4, #4
 5687              	.LVL654:
 5688              		.loc 1 2420 0
 5689 0eae 7318     		adds	r3, r6, r1
 5690 0eb0 53F80940 		ldr	r4, [r3, r9]
 5691              	.LVL655:
 5692 0eb4 0B94     		str	r4, [sp, #44]
 5693              		.loc 1 2421 0
 5694 0eb6 FFF755B9 		b	.L743
 5695              	.LVL656:
 5696              	.L328:
 5697              		.loc 1 2416 0
 5698 0eba 56F809A0 		ldr	sl, [r6, r9]
 5699              	.LVL657:
 5700              		.loc 1 2237 0
 5701 0ebe 2546     		mov	r5, r4
 5702              		.loc 1 2416 0
 5703 0ec0 09F10409 		add	r9, r9, #4
 5704              	.LVL658:
 5705              		.loc 1 2417 0
 5706 0ec4 FFF74EB9 		b	.L743
 5707              	.LVL659:
 5708              	.L330:
 5709              		.loc 1 2425 0
 5710 0ec8 6A68     		ldr	r2, [r5, #4]
 5711              		.loc 1 2426 0
 5712 0eca 0BF13F00 		add	r0, fp, #63
 5713              		.loc 1 2425 0
 5714 0ece 09EB0203 		add	r3, r9, r2
 5715              	.LVL660:
 5716              		.loc 1 2426 0
 5717 0ed2 8342     		cmp	r3, r0
 5718 0ed4 7FF723AA 		ble	.L625
 5719              		.loc 1 2427 0
ARM GAS  /tmp/ccvHIMcj.s 			page 102


 5720 0ed8 D8F82C10 		ldr	r1, [r8, #44]	@ unaligned
 5721 0edc 8B42     		cmp	r3, r1
 5722 0ede 3FF704AA 		bgt	.L624
 5723              		.loc 1 2423 0
 5724 0ee2 CA46     		mov	sl, r9
 5725 0ee4 251D     		adds	r5, r4, #4
 5726 0ee6 9946     		mov	r9, r3
 5727              	.LVL661:
 5728 0ee8 FFF73CB9 		b	.L743
 5729              	.LVL662:
 5730              	.L319:
 5731              		.loc 1 2326 0
 5732 0eec 6868     		ldr	r0, [r5, #4]
 5733              	.LVL663:
 5734 0eee 251D     		adds	r5, r4, #4
 5735              	.LVL664:
 5736 0ef0 3EE5     		b	.L486
 5737              	.LVL665:
 5738              	.L318:
 5739              		.loc 1 2321 0
 5740 0ef2 DA45     		cmp	sl, fp
 5741 0ef4 02DB     		blt	.L483
 5742              		.loc 1 2321 0 is_stmt 0 discriminator 1
 5743 0ef6 CA45     		cmp	sl, r9
 5744 0ef8 C0F29884 		blt	.L561
 5745              	.L483:
 5746              		.loc 1 2321 0 discriminator 2
 5747 0efc D8F82C10 		ldr	r1, [r8, #44]	@ unaligned
 5748 0f00 8A45     		cmp	sl, r1
 5749 0f02 80F09384 		bcs	.L561
 5750              		.loc 1 2237 0 is_stmt 1
 5751 0f06 2546     		mov	r5, r4
 5752              		.loc 1 2323 0
 5753 0f08 0B9C     		ldr	r4, [sp, #44]
 5754              	.LVL666:
 5755 0f0a 46F80A40 		str	r4, [r6, sl]
 5756              		.loc 1 2324 0
 5757 0f0e FFF729B9 		b	.L743
 5758              	.LVL667:
 5759              	.L317:
 5760              		.loc 1 2316 0
 5761 0f12 2368     		ldr	r3, [r4, #0]
 5762              		.loc 1 2317 0
 5763 0f14 0B99     		ldr	r1, [sp, #44]
 5764              		.loc 1 2316 0
 5765 0f16 0CEB0302 		add	r2, ip, r3
 5766              		.loc 1 2317 0
 5767 0f1a B058     		ldr	r0, [r6, r2]
 5768              		.loc 1 2315 0
 5769 0f1c 251D     		adds	r5, r4, #4
 5770              	.LVL668:
 5771              		.loc 1 2317 0
 5772 0f1e 3150     		str	r1, [r6, r0]
 5773              		.loc 1 2318 0
 5774 0f20 FFF720B9 		b	.L743
 5775              	.LVL669:
 5776              	.L316:
ARM GAS  /tmp/ccvHIMcj.s 			page 103


 5777              		.loc 1 2312 0
 5778 0f24 2568     		ldr	r5, [r4, #0]
 5779 0f26 0B9A     		ldr	r2, [sp, #44]
 5780 0f28 7319     		adds	r3, r6, r5
 5781 0f2a 43F80C20 		str	r2, [r3, ip]
 5782              		.loc 1 2311 0
 5783 0f2e 251D     		adds	r5, r4, #4
 5784              	.LVL670:
 5785              		.loc 1 2313 0
 5786 0f30 FFF718B9 		b	.L743
 5787              	.LVL671:
 5788              	.L379:
 5789              		.loc 1 2830 0
 5790 0f34 0B99     		ldr	r1, [sp, #44]
 5791 0f36 0AEB8103 		add	r3, sl, r1, lsl #2
 5792              	.LVL672:
 5793              		.loc 1 2832 0
 5794 0f3a 9B45     		cmp	fp, r3
 5795 0f3c 02DC     		bgt	.L560
 5796              		.loc 1 2832 0 is_stmt 0 discriminator 1
 5797 0f3e 9945     		cmp	r9, r3
 5798 0f40 00F37484 		bgt	.L561
 5799              	.L560:
 5800              		.loc 1 2832 0 discriminator 2
 5801 0f44 D8F82C00 		ldr	r0, [r8, #44]	@ unaligned
 5802 0f48 8342     		cmp	r3, r0
 5803 0f4a 80F06F84 		bcs	.L561
 5804              		.loc 1 2834 0 is_stmt 1
 5805 0f4e F158     		ldr	r1, [r6, r3]
 5806              		.loc 1 2237 0
 5807 0f50 2546     		mov	r5, r4
 5808              		.loc 1 2834 0
 5809 0f52 0B91     		str	r1, [sp, #44]
 5810              		.loc 1 2835 0
 5811 0f54 FFF706B9 		b	.L743
 5812              	.LVL673:
 5813              	.L378:
 5814              	.LBB72:
 5815              		.loc 1 2811 0
 5816 0f58 6A68     		ldr	r2, [r5, #4]
 5817 0f5a A318     		adds	r3, r4, r2
 5818              	.LVL674:
 5819              		.loc 1 2813 0
 5820 0f5c 5968     		ldr	r1, [r3, #4]
 5821 0f5e C8F87010 		str	r1, [r8, #112]	@ unaligned
 5822              		.loc 1 2814 0
 5823 0f62 A258     		ldr	r2, [r4, r2]
 5824              	.LVL675:
 5825              		.loc 1 2815 0
 5826 0f64 002A     		cmp	r2, #0
 5827 0f66 1EDD     		ble	.L556
 5828 0f68 9C68     		ldr	r4, [r3, #8]
 5829              	.LVL676:
 5830 0f6a 0B98     		ldr	r0, [sp, #44]
 5831 0f6c 0833     		adds	r3, r3, #8
 5832              	.LVL677:
 5833 0f6e 8442     		cmp	r4, r0
ARM GAS  /tmp/ccvHIMcj.s 			page 104


 5834 0f70 00F04484 		beq	.L557
 5835 0f74 541E     		subs	r4, r2, #1
 5836 0f76 14F0010F 		tst	r4, #1
 5837 0f7a 10D0     		beq	.L630
 5838 0f7c 53F8085F 		ldr	r5, [r3, #8]!
 5839              	.LVL678:
 5840 0f80 2246     		mov	r2, r4
 5841              	.LVL679:
 5842 0f82 8542     		cmp	r5, r0
 5843 0f84 0BD1     		bne	.L630
 5844 0f86 00F039BC 		b	.L557
 5845              	.LVL680:
 5846              	.L817:
 5847              		.loc 1 2815 0 is_stmt 0 discriminator 2
 5848 0f8a 53F8084F 		ldr	r4, [r3, #8]!
 5849              	.LVL681:
 5850 0f8e 8442     		cmp	r4, r0
 5851 0f90 00F03484 		beq	.L557
 5852              	.LVL682:
 5853              		.loc 1 2815 0
 5854 0f94 53F8084F 		ldr	r4, [r3, #8]!
 5855              	.LVL683:
 5856 0f98 8442     		cmp	r4, r0
 5857 0f9a 00F02F84 		beq	.L557
 5858              	.LVL684:
 5859              	.L630:
 5860              		.loc 1 2815 0 discriminator 1
 5861 0f9e 013A     		subs	r2, r2, #1
 5862 0fa0 02F1FF32 		add	r2, r2, #-1
 5863 0fa4 F1D1     		bne	.L817
 5864              	.LVL685:
 5865              	.L556:
 5866              		.loc 1 2820 0 is_stmt 1
 5867 0fa6 D8F81430 		ldr	r3, [r8, #20]	@ unaligned
 5868 0faa 4046     		mov	r0, r8
 5869 0fac CDF804C0 		str	ip, [sp, #4]
 5870 0fb0 9847     		blx	r3
 5871              	.LVL686:
 5872 0fb2 DDF804C0 		ldr	ip, [sp, #4]
 5873 0fb6 0028     		cmp	r0, #0
 5874 0fb8 7FF42CAE 		bne	.L573
 5875              		.loc 1 2822 0
 5876 0fbc D8F80450 		ldr	r5, [r8, #4]	@ unaligned
 5877              	.LVL687:
 5878              		.loc 1 2823 0
 5879 0fc0 FFF7D0B8 		b	.L743
 5880              	.LVL688:
 5881              	.L377:
 5882              	.LBE72:
 5883              		.loc 1 2799 0
 5884 0fc4 09F10405 		add	r5, r9, #4
 5885              		.loc 1 2800 0
 5886 0fc8 7459     		ldr	r4, [r6, r5]
 5887              	.LVL689:
 5888              		.loc 1 2799 0
 5889 0fca 56F809C0 		ldr	ip, [r6, r9]
 5890              	.LVL690:
ARM GAS  /tmp/ccvHIMcj.s 			page 105


 5891              		.loc 1 2801 0
 5892 0fce A1B2     		uxth	r1, r4
 5893 0fd0 C8F87010 		str	r1, [r8, #112]	@ unaligned
 5894              		.loc 1 2800 0
 5895 0fd4 09F10809 		add	r9, r9, #8
 5896              	.LVL691:
 5897              		.loc 1 2805 0
 5898 0fd8 D8F81420 		ldr	r2, [r8, #20]	@ unaligned
 5899              		.loc 1 2804 0
 5900 0fdc 56F80950 		ldr	r5, [r6, r9]
 5901              	.LVL692:
 5902              		.loc 1 2805 0
 5903 0fe0 4046     		mov	r0, r8
 5904              	.LVL693:
 5905 0fe2 CDF804C0 		str	ip, [sp, #4]
 5906 0fe6 9047     		blx	r2
 5907              	.LVL694:
 5908              		.loc 1 2806 0
 5909 0fe8 DDF804C0 		ldr	ip, [sp, #4]
 5910 0fec 0028     		cmp	r0, #0
 5911 0fee 40F01D84 		bne	.L561
 5912              		.loc 1 2806 0 is_stmt 0 discriminator 1
 5913 0ff2 D8F87400 		ldr	r0, [r8, #116]	@ unaligned
 5914              	.LVL695:
 5915              		.loc 1 2802 0 is_stmt 1 discriminator 1
 5916 0ff6 240C     		lsrs	r4, r4, #16
 5917              	.LVL696:
 5918              		.loc 1 2806 0 discriminator 1
 5919 0ff8 8442     		cmp	r4, r0
 5920 0ffa 80F21784 		bge	.L561
 5921              		.loc 1 2808 0
 5922 0ffe D8F804E0 		ldr	lr, [r8, #4]	@ unaligned
 5923              		.loc 1 2804 0
 5924 1002 09F10409 		add	r9, r9, #4
 5925              	.LVL697:
 5926 1006 A944     		add	r9, r9, r5
 5927              	.LVL698:
 5928              		.loc 1 2808 0
 5929 1008 0EEB0405 		add	r5, lr, r4
 5930              	.LVL699:
 5931              		.loc 1 2809 0
 5932 100c FFF7AAB8 		b	.L743
 5933              	.LVL700:
 5934              	.L376:
 5935              		.loc 1 2788 0
 5936 1010 D8F80430 		ldr	r3, [r8, #4]	@ unaligned
 5937              		.loc 1 2790 0
 5938 1014 D8F870E0 		ldr	lr, [r8, #112]	@ unaligned
 5939              		.loc 1 2788 0
 5940 1018 E21A     		subs	r2, r4, r3
 5941 101a 111D     		adds	r1, r2, #4
 5942              		.loc 1 2790 0
 5943 101c 4EEA0140 		orr	r0, lr, r1, lsl #16
 5944              	.LVL701:
 5945 1020 A9F10409 		sub	r9, r9, #4
 5946              	.LVL702:
 5947 1024 46F80900 		str	r0, [r6, r9]
ARM GAS  /tmp/ccvHIMcj.s 			page 106


 5948              		.loc 1 2791 0
 5949 1028 6968     		ldr	r1, [r5, #4]
 5950              		.loc 1 2793 0
 5951 102a D8F81430 		ldr	r3, [r8, #20]	@ unaligned
 5952              		.loc 1 2791 0
 5953 102e C8F87010 		str	r1, [r8, #112]	@ unaligned
 5954              		.loc 1 2793 0
 5955 1032 4046     		mov	r0, r8
 5956 1034 CDF804C0 		str	ip, [sp, #4]
 5957 1038 9847     		blx	r3
 5958              	.LVL703:
 5959 103a DDF804C0 		ldr	ip, [sp, #4]
 5960 103e 0028     		cmp	r0, #0
 5961 1040 7FF4E8AD 		bne	.L573
 5962              		.loc 1 2795 0
 5963 1044 D8F80450 		ldr	r5, [r8, #4]	@ unaligned
 5964              	.LVL704:
 5965              		.loc 1 2796 0
 5966 1048 FFF78CB8 		b	.L743
 5967              	.LVL705:
 5968              	.L375:
 5969              		.loc 1 2719 0
 5970 104c D8F81030 		ldr	r3, [r8, #16]	@ unaligned
 5971 1050 002B     		cmp	r3, #0
 5972 1052 00F0F483 		beq	.L611
 5973              		.loc 1 2724 0
 5974 1056 D8F80400 		ldr	r0, [r8, #4]	@ unaligned
 5975              	.LVL706:
 5976              		.loc 1 2721 0
 5977 105a C8F81CC0 		str	ip, [r8, #28]	@ unaligned
 5978              		.loc 1 2724 0
 5979 105e C0EB040E 		rsb	lr, r0, r4
 5980              		.loc 1 2722 0
 5981 1062 C8F82890 		str	r9, [r8, #40]	@ unaligned
 5982              		.loc 1 2723 0
 5983 1066 C8F820B0 		str	fp, [r8, #32]	@ unaligned
 5984              		.loc 1 2724 0
 5985 106a C8F818E0 		str	lr, [r8, #24]	@ unaligned
 5986              		.loc 1 2725 0
 5987 106e 4046     		mov	r0, r8
 5988 1070 CDF804C0 		str	ip, [sp, #4]
 5989 1074 9847     		blx	r3
 5990              	.LVL707:
 5991              		.loc 1 2726 0
 5992 1076 DDF804C0 		ldr	ip, [sp, #4]
 5993 107a 0028     		cmp	r0, #0
 5994 107c 40F04784 		bne	.L818
 5995              		.loc 1 2237 0
 5996 1080 2546     		mov	r5, r4
 5997 1082 FFF76FB8 		b	.L743
 5998              	.LVL708:
 5999              	.L374:
 6000              		.loc 1 2713 0
 6001 1086 56F80930 		ldr	r3, [r6, r9]
 6002              	.LVL709:
 6003              		.loc 1 2237 0
 6004 108a 2546     		mov	r5, r4
ARM GAS  /tmp/ccvHIMcj.s 			page 107


 6005              		.loc 1 2714 0
 6006 108c 46F809A0 		str	sl, [r6, r9]
 6007              	.LVL710:
 6008              		.loc 1 2715 0
 6009 1090 9A46     		mov	sl, r3
 6010              		.loc 1 2716 0
 6011 1092 FFF767B8 		b	.L743
 6012              	.LVL711:
 6013              	.L418:
 6014              		.loc 1 3085 0
 6015 1096 6968     		ldr	r1, [r5, #4]
 6016              		.loc 1 3086 0
 6017 1098 04F10805 		add	r5, r4, #8
 6018              		.loc 1 3085 0
 6019 109c 7318     		adds	r3, r6, r1
 6020 109e 53F80C00 		ldr	r0, [r3, ip]
 6021              	.LVL712:
 6022 10a2 0B90     		str	r0, [sp, #44]
 6023              	.LVL713:
 6024              		.loc 1 3087 0
 6025 10a4 6268     		ldr	r2, [r4, #4]
 6026 10a6 06EB020A 		add	sl, r6, r2
 6027              	.LVL714:
 6028 10aa 5AF80CA0 		ldr	sl, [sl, ip]
 6029              	.LVL715:
 6030              		.loc 1 3088 0
 6031 10ae FFF759B8 		b	.L743
 6032              	.LVL716:
 6033              	.L417:
 6034              		.loc 1 3079 0
 6035 10b2 6968     		ldr	r1, [r5, #4]
 6036              		.loc 1 3080 0
 6037 10b4 04F10805 		add	r5, r4, #8
 6038              		.loc 1 3079 0
 6039 10b8 7358     		ldr	r3, [r6, r1]
 6040 10ba 0B93     		str	r3, [sp, #44]
 6041              	.LVL717:
 6042              		.loc 1 3081 0
 6043 10bc 6468     		ldr	r4, [r4, #4]
 6044              	.LVL718:
 6045 10be 56F804A0 		ldr	sl, [r6, r4]
 6046              	.LVL719:
 6047              		.loc 1 3082 0
 6048 10c2 FFF74FB8 		b	.L743
 6049              	.LVL720:
 6050              	.L416:
 6051              		.loc 1 3071 0
 6052 10c6 6B68     		ldr	r3, [r5, #4]
 6053 10c8 251D     		adds	r5, r4, #4
 6054 10ca 0293     		str	r3, [sp, #8]
 6055              	.LVL721:
 6056              		.loc 1 3072 0
 6057 10cc 0298     		ldr	r0, [sp, #8]
 6058 10ce 0028     		cmp	r0, #0
 6059 10d0 3FF448A8 		beq	.L743
 6060              		.loc 1 3073 0
 6061 10d4 6368     		ldr	r3, [r4, #4]
ARM GAS  /tmp/ccvHIMcj.s 			page 108


 6062              	.LVL722:
 6063              		.loc 1 3072 0
 6064 10d6 0CEB0601 		add	r1, ip, r6
 6065 10da 029A     		ldr	r2, [sp, #8]
 6066              		.loc 1 3074 0
 6067 10dc CC18     		adds	r4, r1, r3
 6068              	.LVL723:
 6069              		.loc 1 3072 0
 6070 10de 0791     		str	r1, [sp, #28]
 6071              		.loc 1 3074 0
 6072 10e0 06EB0903 		add	r3, r6, r9
 6073 10e4 0121     		movs	r1, #1
 6074 10e6 0138     		subs	r0, r0, #1
 6075              	.LVL724:
 6076 10e8 43F8044D 		str	r4, [r3, #-4]!
 6077              		.loc 1 3073 0
 6078 10ec 2C1D     		adds	r4, r5, #4
 6079              	.LVL725:
 6080              		.loc 1 3072 0
 6081 10ee 9142     		cmp	r1, r2
 6082 10f0 00EA0100 		and	r0, r0, r1
 6083 10f4 22D0     		beq	.L753
 6084 10f6 48B1     		cbz	r0, .L782
 6085              		.loc 1 3073 0
 6086 10f8 54F8042B 		ldr	r2, [r4], #4
 6087              	.LVL726:
 6088              		.loc 1 3074 0
 6089 10fc 0798     		ldr	r0, [sp, #28]
 6090 10fe 0221     		movs	r1, #2
 6091 1100 8018     		adds	r0, r0, r2
 6092              		.loc 1 3072 0
 6093 1102 029A     		ldr	r2, [sp, #8]
 6094              		.loc 1 3074 0
 6095 1104 43F8040D 		str	r0, [r3, #-4]!
 6096              		.loc 1 3072 0
 6097 1108 9142     		cmp	r1, r2
 6098 110a 17D0     		beq	.L753
 6099              	.L782:
 6100 110c 0798     		ldr	r0, [sp, #28]
 6101 110e CDF824A0 		str	sl, [sp, #36]
 6102 1112 CA46     		mov	sl, r9
 6103              	.LVL727:
 6104 1114 A946     		mov	r9, r5
 6105              	.LVL728:
 6106              	.L580:
 6107              		.loc 1 3073 0
 6108 1116 2246     		mov	r2, r4
 6109 1118 52F8045B 		ldr	r5, [r2], #4
 6110              		.loc 1 3074 0
 6111 111c 0231     		adds	r1, r1, #2
 6112 111e 4519     		adds	r5, r0, r5
 6113 1120 43F8045D 		str	r5, [r3, #-4]!
 6114              		.loc 1 3073 0
 6115 1124 6568     		ldr	r5, [r4, #4]
 6116 1126 141D     		adds	r4, r2, #4
 6117              		.loc 1 3074 0
 6118 1128 4219     		adds	r2, r0, r5
ARM GAS  /tmp/ccvHIMcj.s 			page 109


 6119              		.loc 1 3072 0
 6120 112a 029D     		ldr	r5, [sp, #8]
 6121              		.loc 1 3074 0
 6122 112c 43F8042D 		str	r2, [r3, #-4]!
 6123              		.loc 1 3072 0
 6124 1130 A942     		cmp	r1, r5
 6125 1132 F0D1     		bne	.L580
 6126 1134 4D46     		mov	r5, r9
 6127 1136 D146     		mov	r9, sl
 6128              	.LVL729:
 6129 1138 DDF824A0 		ldr	sl, [sp, #36]
 6130              	.LVL730:
 6131              	.L753:
 6132 113c 0298     		ldr	r0, [sp, #8]
 6133 113e 05EB8105 		add	r5, r5, r1, lsl #2
 6134              	.LVL731:
 6135 1142 A9EB8009 		sub	r9, r9, r0, lsl #2
 6136 1146 FFF70DB8 		b	.L743
 6137              	.LVL732:
 6138              	.L415:
 6139              		.loc 1 3064 0
 6140 114a 6D68     		ldr	r5, [r5, #4]
 6141 114c 0295     		str	r5, [sp, #8]
 6142              	.LVL733:
 6143              		.loc 1 3065 0
 6144 114e 0299     		ldr	r1, [sp, #8]
 6145              		.loc 1 3064 0
 6146 1150 251D     		adds	r5, r4, #4
 6147              	.LVL734:
 6148              		.loc 1 3065 0
 6149 1152 0029     		cmp	r1, #0
 6150 1154 3FF406A8 		beq	.L743
 6151              		.loc 1 3066 0
 6152 1158 6268     		ldr	r2, [r4, #4]
 6153              	.LVL735:
 6154 115a 06EB0C00 		add	r0, r6, ip
 6155              	.LVL736:
 6156              		.loc 1 3067 0
 6157 115e 8358     		ldr	r3, [r0, r2]
 6158 1160 0299     		ldr	r1, [sp, #8]
 6159              		.loc 1 3065 0
 6160 1162 029A     		ldr	r2, [sp, #8]
 6161              		.loc 1 3067 0
 6162 1164 F418     		adds	r4, r6, r3
 6163              	.LVL737:
 6164 1166 0790     		str	r0, [sp, #28]
 6165 1168 06EB0903 		add	r3, r6, r9
 6166 116c 481E     		subs	r0, r1, #1
 6167 116e 0121     		movs	r1, #1
 6168              	.LVL738:
 6169 1170 43F8044D 		str	r4, [r3, #-4]!
 6170              		.loc 1 3066 0
 6171 1174 2C1D     		adds	r4, r5, #4
 6172              	.LVL739:
 6173              		.loc 1 3065 0
 6174 1176 9142     		cmp	r1, r2
 6175 1178 00EA0100 		and	r0, r0, r1
ARM GAS  /tmp/ccvHIMcj.s 			page 110


 6176 117c 25D0     		beq	.L752
 6177 117e 50B1     		cbz	r0, .L780
 6178              		.loc 1 3067 0
 6179 1180 0798     		ldr	r0, [sp, #28]
 6180              		.loc 1 3066 0
 6181 1182 54F8042B 		ldr	r2, [r4], #4
 6182              	.LVL740:
 6183              		.loc 1 3067 0
 6184 1186 0221     		movs	r1, #2
 6185 1188 8258     		ldr	r2, [r0, r2]
 6186 118a B018     		adds	r0, r6, r2
 6187              		.loc 1 3065 0
 6188 118c 029A     		ldr	r2, [sp, #8]
 6189              		.loc 1 3067 0
 6190 118e 43F8040D 		str	r0, [r3, #-4]!
 6191              		.loc 1 3065 0
 6192 1192 9142     		cmp	r1, r2
 6193 1194 19D0     		beq	.L752
 6194              	.L780:
 6195 1196 0798     		ldr	r0, [sp, #28]
 6196 1198 CDF824A0 		str	sl, [sp, #36]
 6197 119c CA46     		mov	sl, r9
 6198              	.LVL741:
 6199 119e A946     		mov	r9, r5
 6200              	.LVL742:
 6201              	.L579:
 6202              		.loc 1 3066 0
 6203 11a0 2246     		mov	r2, r4
 6204 11a2 52F8045B 		ldr	r5, [r2], #4
 6205              		.loc 1 3067 0
 6206 11a6 0231     		adds	r1, r1, #2
 6207 11a8 4559     		ldr	r5, [r0, r5]
 6208 11aa 7519     		adds	r5, r6, r5
 6209 11ac 43F8045D 		str	r5, [r3, #-4]!
 6210              		.loc 1 3066 0
 6211 11b0 6568     		ldr	r5, [r4, #4]
 6212 11b2 141D     		adds	r4, r2, #4
 6213              		.loc 1 3067 0
 6214 11b4 4559     		ldr	r5, [r0, r5]
 6215 11b6 7219     		adds	r2, r6, r5
 6216              		.loc 1 3065 0
 6217 11b8 029D     		ldr	r5, [sp, #8]
 6218              		.loc 1 3067 0
 6219 11ba 43F8042D 		str	r2, [r3, #-4]!
 6220              		.loc 1 3065 0
 6221 11be A942     		cmp	r1, r5
 6222 11c0 EED1     		bne	.L579
 6223 11c2 4D46     		mov	r5, r9
 6224 11c4 D146     		mov	r9, sl
 6225              	.LVL743:
 6226 11c6 DDF824A0 		ldr	sl, [sp, #36]
 6227              	.LVL744:
 6228              	.L752:
 6229 11ca 029C     		ldr	r4, [sp, #8]
 6230 11cc 05EB8105 		add	r5, r5, r1, lsl #2
 6231              	.LVL745:
 6232 11d0 A9EB8409 		sub	r9, r9, r4, lsl #2
ARM GAS  /tmp/ccvHIMcj.s 			page 111


 6233 11d4 FEF7C6BF 		b	.L743
 6234              	.LVL746:
 6235              	.L414:
 6236              		.loc 1 3057 0
 6237 11d8 6D68     		ldr	r5, [r5, #4]
 6238 11da 0295     		str	r5, [sp, #8]
 6239              	.LVL747:
 6240              		.loc 1 3058 0
 6241 11dc 0299     		ldr	r1, [sp, #8]
 6242              		.loc 1 3057 0
 6243 11de 251D     		adds	r5, r4, #4
 6244              	.LVL748:
 6245              		.loc 1 3058 0
 6246 11e0 0029     		cmp	r1, #0
 6247 11e2 3EF4BFAF 		beq	.L743
 6248              		.loc 1 3059 0
 6249 11e6 6168     		ldr	r1, [r4, #4]
 6250              	.LVL749:
 6251 11e8 029B     		ldr	r3, [sp, #8]
 6252              		.loc 1 3058 0
 6253 11ea 029A     		ldr	r2, [sp, #8]
 6254 11ec 5C1E     		subs	r4, r3, #1
 6255              		.loc 1 3060 0
 6256 11ee 7018     		adds	r0, r6, r1
 6257              	.LVL750:
 6258 11f0 06EB0903 		add	r3, r6, r9
 6259 11f4 0121     		movs	r1, #1
 6260 11f6 43F8040D 		str	r0, [r3, #-4]!
 6261 11fa 04EA0100 		and	r0, r4, r1
 6262              		.loc 1 3059 0
 6263 11fe 2C1D     		adds	r4, r5, #4
 6264              	.LVL751:
 6265              		.loc 1 3058 0
 6266 1200 9142     		cmp	r1, r2
 6267 1202 18D0     		beq	.L751
 6268 1204 40B1     		cbz	r0, .L578
 6269              		.loc 1 3059 0
 6270 1206 54F8040B 		ldr	r0, [r4], #4
 6271              	.LVL752:
 6272              		.loc 1 3060 0
 6273 120a 0221     		movs	r1, #2
 6274 120c 3218     		adds	r2, r6, r0
 6275              		.loc 1 3058 0
 6276 120e 0298     		ldr	r0, [sp, #8]
 6277              		.loc 1 3060 0
 6278 1210 43F8042D 		str	r2, [r3, #-4]!
 6279              		.loc 1 3058 0
 6280 1214 8142     		cmp	r1, r0
 6281 1216 0ED0     		beq	.L751
 6282              	.L578:
 6283              		.loc 1 3059 0
 6284 1218 2246     		mov	r2, r4
 6285 121a 52F8040B 		ldr	r0, [r2], #4
 6286              		.loc 1 3060 0
 6287 121e 0231     		adds	r1, r1, #2
 6288 1220 3018     		adds	r0, r6, r0
 6289 1222 43F8040D 		str	r0, [r3, #-4]!
ARM GAS  /tmp/ccvHIMcj.s 			page 112


 6290              		.loc 1 3059 0
 6291 1226 6068     		ldr	r0, [r4, #4]
 6292 1228 141D     		adds	r4, r2, #4
 6293              		.loc 1 3058 0
 6294 122a 029A     		ldr	r2, [sp, #8]
 6295              		.loc 1 3060 0
 6296 122c 3018     		adds	r0, r6, r0
 6297              		.loc 1 3058 0
 6298 122e 9142     		cmp	r1, r2
 6299              		.loc 1 3060 0
 6300 1230 43F8040D 		str	r0, [r3, #-4]!
 6301              		.loc 1 3058 0
 6302 1234 F0D1     		bne	.L578
 6303              	.L751:
 6304 1236 029C     		ldr	r4, [sp, #8]
 6305 1238 05EB8105 		add	r5, r5, r1, lsl #2
 6306              	.LVL753:
 6307 123c A9EB8409 		sub	r9, r9, r4, lsl #2
 6308 1240 FEF790BF 		b	.L743
 6309              	.LVL754:
 6310              	.L387:
 6311              		.loc 1 2869 0
 6312 1244 2268     		ldr	r2, [r4, #0]
 6313 1246 A9F10409 		sub	r9, r9, #4
 6314              	.LVL755:
 6315 124a B118     		adds	r1, r6, r2
 6316              		.loc 1 2868 0
 6317 124c 251D     		adds	r5, r4, #4
 6318              	.LVL756:
 6319              		.loc 1 2869 0
 6320 124e 46F80910 		str	r1, [r6, r9]
 6321              		.loc 1 2870 0
 6322 1252 FEF787BF 		b	.L743
 6323              	.LVL757:
 6324              	.L386:
 6325              		.loc 1 2865 0
 6326 1256 2568     		ldr	r5, [r4, #0]
 6327 1258 A9F10409 		sub	r9, r9, #4
 6328              	.LVL758:
 6329 125c 05EB0C03 		add	r3, r5, ip
 6330 1260 46F80930 		str	r3, [r6, r9]
 6331              		.loc 1 2864 0
 6332 1264 251D     		adds	r5, r4, #4
 6333              	.LVL759:
 6334              		.loc 1 2866 0
 6335 1266 FEF77DBF 		b	.L743
 6336              	.LVL760:
 6337              	.L385:
 6338              		.loc 1 2861 0
 6339 126a 2068     		ldr	r0, [r4, #0]
 6340              	.LVL761:
 6341 126c A9F10409 		sub	r9, r9, #4
 6342              	.LVL762:
 6343 1270 3218     		adds	r2, r6, r0
 6344 1272 52F80C10 		ldr	r1, [r2, ip]
 6345              		.loc 1 2860 0
 6346 1276 251D     		adds	r5, r4, #4
ARM GAS  /tmp/ccvHIMcj.s 			page 113


 6347              	.LVL763:
 6348              		.loc 1 2861 0
 6349 1278 46F80910 		str	r1, [r6, r9]
 6350              		.loc 1 2862 0
 6351 127c FEF772BF 		b	.L743
 6352              	.LVL764:
 6353              	.L384:
 6354              		.loc 1 2857 0
 6355 1280 2568     		ldr	r5, [r4, #0]
 6356 1282 A9F10409 		sub	r9, r9, #4
 6357              	.LVL765:
 6358 1286 7359     		ldr	r3, [r6, r5]
 6359              		.loc 1 2856 0
 6360 1288 251D     		adds	r5, r4, #4
 6361              	.LVL766:
 6362              		.loc 1 2857 0
 6363 128a 46F80930 		str	r3, [r6, r9]
 6364              		.loc 1 2858 0
 6365 128e FEF769BF 		b	.L743
 6366              	.LVL767:
 6367              	.L383:
 6368              		.loc 1 2853 0
 6369 1292 2068     		ldr	r0, [r4, #0]
 6370 1294 A9F10409 		sub	r9, r9, #4
 6371              	.LVL768:
 6372              		.loc 1 2852 0
 6373 1298 251D     		adds	r5, r4, #4
 6374              	.LVL769:
 6375              		.loc 1 2853 0
 6376 129a 46F80900 		str	r0, [r6, r9]
 6377              		.loc 1 2854 0
 6378 129e FEF761BF 		b	.L743
 6379              	.LVL770:
 6380              	.L382:
 6381              		.loc 1 2849 0
 6382 12a2 2168     		ldr	r1, [r4, #0]
 6383 12a4 0B9A     		ldr	r2, [sp, #44]
 6384              		.loc 1 2848 0
 6385 12a6 251D     		adds	r5, r4, #4
 6386              	.LVL771:
 6387              		.loc 1 2849 0
 6388 12a8 12FA01F3 		lsls	r3, r2, r1
 6389 12ac 03EB0A00 		add	r0, r3, sl
 6390 12b0 0B90     		str	r0, [sp, #44]
 6391              		.loc 1 2850 0
 6392 12b2 FEF757BF 		b	.L743
 6393              	.LVL772:
 6394              	.L381:
 6395              		.loc 1 2845 0
 6396 12b6 0B99     		ldr	r1, [sp, #44]
 6397              		.loc 1 2237 0
 6398 12b8 2546     		mov	r5, r4
 6399              		.loc 1 2845 0
 6400 12ba 0AEB8104 		add	r4, sl, r1, lsl #2
 6401              	.LVL773:
 6402 12be 0B94     		str	r4, [sp, #44]
 6403              		.loc 1 2846 0
ARM GAS  /tmp/ccvHIMcj.s 			page 114


 6404 12c0 FEF750BF 		b	.L743
 6405              	.LVL774:
 6406              	.L380:
 6407              		.loc 1 2838 0
 6408 12c4 6B68     		ldr	r3, [r5, #4]
 6409 12c6 0B9A     		ldr	r2, [sp, #44]
 6410 12c8 12FA03F0 		lsls	r0, r2, r3
 6411 12cc 00EB0A03 		add	r3, r0, sl
 6412              	.LVL775:
 6413              		.loc 1 2840 0
 6414 12d0 9B45     		cmp	fp, r3
 6415 12d2 02DC     		bgt	.L563
 6416              		.loc 1 2840 0 is_stmt 0 discriminator 1
 6417 12d4 9945     		cmp	r9, r3
 6418 12d6 00F3A082 		bgt	.L564
 6419              	.L563:
 6420              		.loc 1 2840 0 discriminator 2
 6421 12da D8F82C10 		ldr	r1, [r8, #44]	@ unaligned
 6422 12de 8B42     		cmp	r3, r1
 6423 12e0 80F09B82 		bcs	.L564
 6424              		.loc 1 2842 0 is_stmt 1
 6425 12e4 F258     		ldr	r2, [r6, r3]
 6426              		.loc 1 2837 0
 6427 12e6 251D     		adds	r5, r4, #4
 6428              		.loc 1 2842 0
 6429 12e8 0B92     		str	r2, [sp, #44]
 6430              		.loc 1 2843 0
 6431 12ea FEF73BBF 		b	.L743
 6432              	.LVL776:
 6433              	.L391:
 6434              		.loc 1 2886 0
 6435 12ee 0B99     		ldr	r1, [sp, #44]
 6436 12f0 5145     		cmp	r1, sl
 6437 12f2 00F0AF82 		beq	.L567
 6438              		.loc 1 2887 0
 6439 12f6 2268     		ldr	r2, [r4, #0]
 6440 12f8 A018     		adds	r0, r4, r2
 6441 12fa 051F     		subs	r5, r0, #4
 6442              	.LVL777:
 6443 12fc FEF732BF 		b	.L743
 6444              	.LVL778:
 6445              	.L390:
 6446              		.loc 1 2880 0
 6447 1300 0B9B     		ldr	r3, [sp, #44]
 6448 1302 5345     		cmp	r3, sl
 6449 1304 00F0A182 		beq	.L819
 6450              		.loc 1 2883 0
 6451 1308 251D     		adds	r5, r4, #4
 6452              	.LVL779:
 6453 130a FEF72BBF 		b	.L743
 6454              	.LVL780:
 6455              	.L392:
 6456              		.loc 1 2892 0
 6457 130e 0B9B     		ldr	r3, [sp, #44]
 6458 1310 9A45     		cmp	sl, r3
 6459 1312 40F37082 		ble	.L568
 6460              		.loc 1 2893 0
ARM GAS  /tmp/ccvHIMcj.s 			page 115


 6461 1316 2568     		ldr	r5, [r4, #0]
 6462 1318 6419     		adds	r4, r4, r5
 6463              	.LVL781:
 6464 131a 251F     		subs	r5, r4, #4
 6465              	.LVL782:
 6466 131c FEF722BF 		b	.L743
 6467              	.LVL783:
 6468              	.L389:
 6469              		.loc 1 2877 0
 6470 1320 2068     		ldr	r0, [r4, #0]
 6471              	.LVL784:
 6472 1322 06EB0C02 		add	r2, r6, ip
 6473 1326 A9F10409 		sub	r9, r9, #4
 6474              	.LVL785:
 6475 132a 1118     		adds	r1, r2, r0
 6476              		.loc 1 2876 0
 6477 132c 251D     		adds	r5, r4, #4
 6478              	.LVL786:
 6479              		.loc 1 2877 0
 6480 132e 46F80910 		str	r1, [r6, r9]
 6481              		.loc 1 2878 0
 6482 1332 FEF717BF 		b	.L743
 6483              	.LVL787:
 6484              	.L388:
 6485              		.loc 1 2873 0
 6486 1336 2568     		ldr	r5, [r4, #0]
 6487 1338 A9F10409 		sub	r9, r9, #4
 6488              	.LVL788:
 6489 133c 7319     		adds	r3, r6, r5
 6490 133e 53F80C00 		ldr	r0, [r3, ip]
 6491              		.loc 1 2872 0
 6492 1342 251D     		adds	r5, r4, #4
 6493              	.LVL789:
 6494              		.loc 1 2873 0
 6495 1344 3418     		adds	r4, r6, r0
 6496              	.LVL790:
 6497 1346 46F80940 		str	r4, [r6, r9]
 6498              		.loc 1 2874 0
 6499 134a FEF70BBF 		b	.L743
 6500              	.LVL791:
 6501              	.L371:
 6502              		.loc 1 2680 0
 6503 134e D8F80400 		ldr	r0, [r8, #4]	@ unaligned
 6504              		.loc 1 2678 0
 6505 1352 6968     		ldr	r1, [r5, #4]
 6506              	.LVL792:
 6507 1354 251D     		adds	r5, r4, #4
 6508              	.LVL793:
 6509              		.loc 1 2680 0
 6510 1356 C0EB050E 		rsb	lr, r0, r5
 6511              		.loc 1 2682 0
 6512 135a C8F81CC0 		str	ip, [r8, #28]	@ unaligned
 6513              		.loc 1 2680 0
 6514 135e C8F818E0 		str	lr, [r8, #24]	@ unaligned
 6515              		.loc 1 2681 0
 6516 1362 C8F820B0 		str	fp, [r8, #32]	@ unaligned
 6517              		.loc 1 2683 0
ARM GAS  /tmp/ccvHIMcj.s 			page 116


 6518 1366 C8F82890 		str	r9, [r8, #40]	@ unaligned
 6519              		.loc 1 2684 0
 6520 136a D8F80C40 		ldr	r4, [r8, #12]	@ unaligned
 6521              	.LVL794:
 6522 136e 4046     		mov	r0, r8
 6523 1370 CDF804C0 		str	ip, [sp, #4]
 6524 1374 069A     		ldr	r2, [sp, #24]
 6525 1376 06EB0903 		add	r3, r6, r9
 6526 137a A047     		blx	r4
 6527              	.LVL795:
 6528              		.loc 1 2685 0
 6529 137c DDF804C0 		ldr	ip, [sp, #4]
 6530 1380 0028     		cmp	r0, #0
 6531 1382 3EF4EFAE 		beq	.L743
 6532              		.loc 1 2686 0
 6533 1386 0C28     		cmp	r0, #12
 6534 1388 7FF444AC 		bne	.L573
 6535              		.loc 1 2687 0
 6536 138c 0B9B     		ldr	r3, [sp, #44]
 6537              		.loc 1 2688 0
 6538 138e C8F860A0 		str	sl, [r8, #96]	@ unaligned
 6539              		.loc 1 2687 0
 6540 1392 C8F85C30 		str	r3, [r8, #92]	@ unaligned
 6541              		.loc 1 2689 0
 6542 1396 0499     		ldr	r1, [sp, #16]
 6543 1398 C8F86410 		str	r1, [r8, #100]	@ unaligned
 6544              		.loc 1 2690 0
 6545 139c 059A     		ldr	r2, [sp, #20]
 6546 139e C8F86820 		str	r2, [r8, #104]	@ unaligned
 6547              		.loc 1 2691 0
 6548 13a2 FEF798BF 		b	.L290
 6549              	.LVL796:
 6550              	.L370:
 6551              		.loc 1 2672 0
 6552 13a6 2268     		ldr	r2, [r4, #0]
 6553 13a8 0B98     		ldr	r0, [sp, #44]
 6554              	.LVL797:
 6555              		.loc 1 2671 0
 6556 13aa 251D     		adds	r5, r4, #4
 6557              	.LVL798:
 6558              		.loc 1 2672 0
 6559 13ac 9042     		cmp	r0, r2
 6560 13ae 7EF6D9AE 		bls	.L743
 6561              		.loc 1 2673 0
 6562 13b2 D8F804C0 		ldr	ip, [r8, #4]	@ unaligned
 6563              	.LVL799:
 6564              		.loc 1 2674 0
 6565 13b6 049B     		ldr	r3, [sp, #16]
 6566              		.loc 1 2673 0
 6567 13b8 CCEB0505 		rsb	r5, ip, r5
 6568              	.LVL800:
 6569              		.loc 1 2674 0
 6570 13bc C8F82830 		str	r3, [r8, #40]	@ unaligned
 6571              		.loc 1 2673 0
 6572 13c0 C8F81850 		str	r5, [r8, #24]	@ unaligned
 6573              		.loc 1 2674 0
 6574 13c4 0599     		ldr	r1, [sp, #20]
ARM GAS  /tmp/ccvHIMcj.s 			page 117


 6575 13c6 0420     		movs	r0, #4
 6576 13c8 C8F82010 		str	r1, [r8, #32]	@ unaligned
 6577 13cc FEF783BF 		b	.L290
 6578              	.LVL801:
 6579              	.L369:
 6580 13d0 2746     		mov	r7, r4
 6581              	.LVL802:
 6582              		.loc 1 2653 0
 6583 13d2 57F8040B 		ldr	r0, [r7], #4
 6584              	.LVL803:
 6585 13d6 4446     		mov	r4, r8
 6586              	.LVL804:
 6587 13d8 FEF7ADBF 		b	.L545
 6588              	.LVL805:
 6589              	.L368:
 6590              		.loc 1 2642 0
 6591 13dc 6868     		ldr	r0, [r5, #4]
 6592              	.LVL806:
 6593 13de 251D     		adds	r5, r4, #4
 6594              	.LVL807:
 6595 13e0 FFF728B8 		b	.L537
 6596              	.LVL808:
 6597              	.L367:
 6598              		.loc 1 2618 0
 6599 13e4 6A68     		ldr	r2, [r5, #4]
 6600              	.LVL809:
 6601 13e6 251D     		adds	r5, r4, #4
 6602              	.LVL810:
 6603 13e8 FEF7BFBF 		b	.L524
 6604              	.LVL811:
 6605              	.L366:
 6606              		.loc 1 2591 0
 6607 13ec 6A68     		ldr	r2, [r5, #4]
 6608              	.LVL812:
 6609 13ee 251D     		adds	r5, r4, #4
 6610              	.LVL813:
 6611 13f0 FEF7EEBF 		b	.L511
 6612              	.LVL814:
 6613              	.L365:
 6614              		.loc 1 2584 0
 6615 13f4 0B9B     		ldr	r3, [sp, #44]
 6616              		.loc 1 2237 0
 6617 13f6 2546     		mov	r5, r4
 6618              		.loc 1 2584 0
 6619 13f8 F458     		ldr	r4, [r6, r3]
 6620              	.LVL815:
 6621 13fa 601E     		subs	r0, r4, #1
 6622 13fc F050     		str	r0, [r6, r3]
 6623              		.loc 1 2589 0
 6624 13fe FEF7B1BE 		b	.L743
 6625              	.LVL816:
 6626              	.L364:
 6627              		.loc 1 2580 0
 6628 1402 0AF1FF3A 		add	sl, sl, #-1
 6629              	.LVL817:
 6630              		.loc 1 2237 0
 6631 1406 2546     		mov	r5, r4
ARM GAS  /tmp/ccvHIMcj.s 			page 118


 6632              		.loc 1 2581 0
 6633 1408 FEF7ACBE 		b	.L743
 6634              	.L373:
 6635              		.loc 1 2708 0
 6636 140c 56F80910 		ldr	r1, [r6, r9]
 6637              	.LVL818:
 6638              		.loc 1 2709 0
 6639 1410 0B9A     		ldr	r2, [sp, #44]
 6640              		.loc 1 2237 0
 6641 1412 2546     		mov	r5, r4
 6642              		.loc 1 2709 0
 6643 1414 46F80920 		str	r2, [r6, r9]
 6644              		.loc 1 2710 0
 6645 1418 0B91     		str	r1, [sp, #44]
 6646              		.loc 1 2711 0
 6647 141a FEF7A3BE 		b	.L743
 6648              	.LVL819:
 6649              	.L372:
 6650              	.LBB73:
 6651              		.loc 1 2697 0
 6652 141e 6868     		ldr	r0, [r5, #4]
 6653 1420 2118     		adds	r1, r4, r0
 6654              	.LVL820:
 6655              		.loc 1 2700 0
 6656 1422 2358     		ldr	r3, [r4, r0]
 6657              		.loc 1 2699 0
 6658 1424 4D68     		ldr	r5, [r1, #4]
 6659              		.loc 1 2701 0
 6660 1426 002B     		cmp	r3, #0
 6661              		.loc 1 2699 0
 6662 1428 0D44     		add	r5, r1, r5
 6663              	.LVL821:
 6664              		.loc 1 2701 0
 6665 142a 7EF79BAE 		ble	.L743
 6666 142e 8C68     		ldr	r4, [r1, #8]
 6667              	.LVL822:
 6668 1430 0B9A     		ldr	r2, [sp, #44]
 6669 1432 0831     		adds	r1, r1, #8
 6670              	.LVL823:
 6671 1434 9442     		cmp	r4, r2
 6672 1436 16D0     		beq	.L550
 6673 1438 581E     		subs	r0, r3, #1
 6674 143a 10F0010F 		tst	r0, #1
 6675 143e 09D0     		beq	.L629
 6676 1440 51F8084F 		ldr	r4, [r1, #8]!
 6677              	.LVL824:
 6678 1444 0346     		mov	r3, r0
 6679              	.LVL825:
 6680 1446 A242     		cmp	r2, r4
 6681 1448 04D1     		bne	.L629
 6682 144a 0CE0     		b	.L550
 6683              	.LVL826:
 6684              	.L727:
 6685 144c 51F8080F 		ldr	r0, [r1, #8]!
 6686              	.LVL827:
 6687 1450 8242     		cmp	r2, r0
 6688 1452 08D0     		beq	.L550
ARM GAS  /tmp/ccvHIMcj.s 			page 119


 6689              	.LVL828:
 6690              	.L629:
 6691              		.loc 1 2701 0 is_stmt 0 discriminator 1
 6692 1454 013B     		subs	r3, r3, #1
 6693 1456 03F1FF33 		add	r3, r3, #-1
 6694 145a 3EF483AE 		beq	.L743
 6695              		.loc 1 2701 0 discriminator 2
 6696 145e 51F8080F 		ldr	r0, [r1, #8]!
 6697              	.LVL829:
 6698 1462 8242     		cmp	r2, r0
 6699 1464 F2D1     		bne	.L727
 6700              	.LVL830:
 6701              	.L550:
 6702              		.loc 1 2704 0 is_stmt 1
 6703 1466 4D68     		ldr	r5, [r1, #4]
 6704              	.LVL831:
 6705 1468 4D19     		adds	r5, r1, r5
 6706              	.LVL832:
 6707 146a FEF77BBE 		b	.L743
 6708              	.LVL833:
 6709              	.L402:
 6710              	.LBE73:
 6711              		.loc 1 2959 0
 6712 146e 2168     		ldr	r1, [r4, #0]
 6713              		.loc 1 2958 0
 6714 1470 251D     		adds	r5, r4, #4
 6715              	.LVL834:
 6716              		.loc 1 2959 0
 6717 1472 7318     		adds	r3, r6, r1
 6718 1474 0024     		movs	r4, #0
 6719 1476 43F80C40 		str	r4, [r3, ip]
 6720              		.loc 1 2960 0
 6721 147a FEF773BE 		b	.L743
 6722              	.LVL835:
 6723              	.L401:
 6724              		.loc 1 2955 0
 6725 147e 2268     		ldr	r2, [r4, #0]
 6726 1480 0020     		movs	r0, #0
 6727              	.LVL836:
 6728              		.loc 1 2954 0
 6729 1482 251D     		adds	r5, r4, #4
 6730              	.LVL837:
 6731              		.loc 1 2955 0
 6732 1484 B050     		str	r0, [r6, r2]
 6733              		.loc 1 2956 0
 6734 1486 FEF76DBE 		b	.L743
 6735              	.LVL838:
 6736              	.L603:
 6737              		.loc 1 2237 0
 6738 148a 2546     		mov	r5, r4
 6739              		.loc 1 2951 0
 6740 148c 4FF0000A 		mov	sl, #0
 6741              	.LVL839:
 6742 1490 FEF768BE 		b	.L743
 6743              	.LVL840:
 6744              	.L400:
 6745              		.loc 1 2948 0
ARM GAS  /tmp/ccvHIMcj.s 			page 120


 6746 1494 0025     		movs	r5, #0
 6747 1496 0B95     		str	r5, [sp, #44]
 6748              		.loc 1 2237 0
 6749 1498 2546     		mov	r5, r4
 6750              		.loc 1 2949 0
 6751 149a FEF763BE 		b	.L743
 6752              	.L399:
 6753              		.loc 1 2945 0
 6754 149e 2368     		ldr	r3, [r4, #0]
 6755 14a0 0B99     		ldr	r1, [sp, #44]
 6756              		.loc 1 2944 0
 6757 14a2 251D     		adds	r5, r4, #4
 6758              	.LVL841:
 6759              		.loc 1 2945 0
 6760 14a4 03FB01F4 		mul	r4, r3, r1
 6761              	.LVL842:
 6762 14a8 0B94     		str	r4, [sp, #44]
 6763              		.loc 1 2946 0
 6764 14aa FEF75BBE 		b	.L743
 6765              	.LVL843:
 6766              	.L398:
 6767              		.loc 1 2941 0
 6768 14ae 2068     		ldr	r0, [r4, #0]
 6769 14b0 0B9A     		ldr	r2, [sp, #44]
 6770              		.loc 1 2940 0
 6771 14b2 251D     		adds	r5, r4, #4
 6772              	.LVL844:
 6773              		.loc 1 2941 0
 6774 14b4 1118     		adds	r1, r2, r0
 6775 14b6 0B91     		str	r1, [sp, #44]
 6776              		.loc 1 2942 0
 6777 14b8 FEF754BE 		b	.L743
 6778              	.LVL845:
 6779              	.L397:
 6780              		.loc 1 2937 0
 6781 14bc 0B9B     		ldr	r3, [sp, #44]
 6782              		.loc 1 2237 0
 6783 14be 2546     		mov	r5, r4
 6784              		.loc 1 2937 0
 6785 14c0 CAEB0304 		rsb	r4, sl, r3
 6786              	.LVL846:
 6787 14c4 0B94     		str	r4, [sp, #44]
 6788              		.loc 1 2938 0
 6789 14c6 FEF74DBE 		b	.L743
 6790              	.LVL847:
 6791              	.L396:
 6792              		.loc 1 2916 0
 6793 14ca BAF1000F 		cmp	sl, #0
 6794 14ce 00F0EE81 		beq	.L820
 6795              	.LVL848:
 6796              		.loc 1 2921 0
 6797 14d2 0B98     		ldr	r0, [sp, #44]
 6798 14d4 90FBFAF2 		sdiv	r2, r0, sl
 6799              	.LVL849:
 6800              		.loc 1 2922 0
 6801 14d8 92FBFAF5 		sdiv	r5, r2, sl
 6802              	.LVL850:
ARM GAS  /tmp/ccvHIMcj.s 			page 121


 6803 14dc 0AFB1523 		mls	r3, sl, r5, r2
 6804              	.LVL851:
 6805              		.loc 1 2921 0
 6806 14e0 0B92     		str	r2, [sp, #44]
 6807              		.loc 1 2931 0
 6808 14e2 002B     		cmp	r3, #0
 6809 14e4 00F09281 		beq	.L613
 6810              		.loc 1 2931 0 is_stmt 0 discriminator 1
 6811 14e8 93EA0A0F 		teq	r3, sl
 6812 14ec 00F1B581 		bmi	.L821
 6813              		.loc 1 2237 0 is_stmt 1
 6814 14f0 2546     		mov	r5, r4
 6815              		.loc 1 2931 0
 6816 14f2 9A46     		mov	sl, r3
 6817              	.LVL852:
 6818 14f4 FEF736BE 		b	.L743
 6819              	.LVL853:
 6820              	.L406:
 6821              		.loc 1 2981 0
 6822 14f8 2068     		ldr	r0, [r4, #0]
 6823              		.loc 1 2979 0
 6824 14fa 251D     		adds	r5, r4, #4
 6825              	.LVL854:
 6826              		.loc 1 2981 0
 6827 14fc 0CEB0001 		add	r1, ip, r0
 6828 1500 7458     		ldr	r4, [r6, r1]
 6829              	.LVL855:
 6830 1502 621C     		adds	r2, r4, #1
 6831 1504 7250     		str	r2, [r6, r1]
 6832              		.loc 1 2986 0
 6833 1506 FEF72DBE 		b	.L743
 6834              	.LVL856:
 6835              	.L404:
 6836              		.loc 1 2967 0
 6837 150a 2168     		ldr	r1, [r4, #0]
 6838              		.loc 1 2966 0
 6839 150c 251D     		adds	r5, r4, #4
 6840              	.LVL857:
 6841              		.loc 1 2967 0
 6842 150e C1EB0A02 		rsb	r2, r1, sl
 6843 1512 5342     		rsbs	r3, r2, #0
 6844 1514 43EB0200 		adc	r0, r3, r2
 6845 1518 0B90     		str	r0, [sp, #44]
 6846              	.LVL858:
 6847              		.loc 1 2968 0
 6848 151a FEF723BE 		b	.L743
 6849              	.LVL859:
 6850              	.L403:
 6851              		.loc 1 2963 0
 6852 151e 2168     		ldr	r1, [r4, #0]
 6853              		.loc 1 2962 0
 6854 1520 251D     		adds	r5, r4, #4
 6855              	.LVL860:
 6856              		.loc 1 2963 0
 6857 1522 0B9C     		ldr	r4, [sp, #44]
 6858              	.LVL861:
 6859 1524 631A     		subs	r3, r4, r1
ARM GAS  /tmp/ccvHIMcj.s 			page 122


 6860 1526 5A42     		rsbs	r2, r3, #0
 6861 1528 42EB0300 		adc	r0, r2, r3
 6862 152c 0B90     		str	r0, [sp, #44]
 6863              		.loc 1 2964 0
 6864 152e FEF719BE 		b	.L743
 6865              	.LVL862:
 6866              	.L407:
 6867              		.loc 1 2990 0
 6868 1532 2368     		ldr	r3, [r4, #0]
 6869              		.loc 1 2988 0
 6870 1534 251D     		adds	r5, r4, #4
 6871              	.LVL863:
 6872              		.loc 1 2990 0
 6873 1536 F158     		ldr	r1, [r6, r3]
 6874 1538 4A1E     		subs	r2, r1, #1
 6875 153a F250     		str	r2, [r6, r3]
 6876              		.loc 1 2995 0
 6877 153c FEF712BE 		b	.L743
 6878              	.LVL864:
 6879              	.L405:
 6880              		.loc 1 2972 0
 6881 1540 2068     		ldr	r0, [r4, #0]
 6882              		.loc 1 2970 0
 6883 1542 251D     		adds	r5, r4, #4
 6884              	.LVL865:
 6885              		.loc 1 2972 0
 6886 1544 3358     		ldr	r3, [r6, r0]
 6887 1546 5C1C     		adds	r4, r3, #1
 6888              	.LVL866:
 6889 1548 3450     		str	r4, [r6, r0]
 6890              		.loc 1 2977 0
 6891 154a FEF70BBE 		b	.L743
 6892              	.LVL867:
 6893              	.L422:
 6894              		.loc 1 3107 0
 6895 154e 0114     		asrs	r1, r0, #16
 6896              		.loc 1 3108 0
 6897 1550 56F801A0 		ldr	sl, [r6, r1]
 6898              	.LVL868:
 6899              		.loc 1 2237 0
 6900 1554 2546     		mov	r5, r4
 6901              		.loc 1 3109 0
 6902 1556 FEF705BE 		b	.L743
 6903              	.LVL869:
 6904              	.L421:
 6905              		.loc 1 3103 0
 6906 155a 0014     		asrs	r0, r0, #16
 6907              		.loc 1 3104 0
 6908 155c 3258     		ldr	r2, [r6, r0]
 6909              		.loc 1 2237 0
 6910 155e 2546     		mov	r5, r4
 6911              		.loc 1 3104 0
 6912 1560 0B92     		str	r2, [sp, #44]
 6913              		.loc 1 3105 0
 6914 1562 FEF7FFBD 		b	.L743
 6915              	.LVL870:
 6916              	.L420:
ARM GAS  /tmp/ccvHIMcj.s 			page 123


 6917              		.loc 1 3097 0
 6918 1566 2568     		ldr	r5, [r4, #0]
 6919 1568 6168     		ldr	r1, [r4, #4]
 6920 156a 7319     		adds	r3, r6, r5
 6921 156c 43F80C10 		str	r1, [r3, ip]
 6922              		.loc 1 3096 0
 6923 1570 04F10805 		add	r5, r4, #8
 6924              	.LVL871:
 6925              		.loc 1 3098 0
 6926 1574 FEF7F6BD 		b	.L743
 6927              	.LVL872:
 6928              	.L419:
 6929              		.loc 1 3092 0
 6930 1578 2068     		ldr	r0, [r4, #0]
 6931 157a 6268     		ldr	r2, [r4, #4]
 6932              		.loc 1 3091 0
 6933 157c 04F10805 		add	r5, r4, #8
 6934              	.LVL873:
 6935              		.loc 1 3092 0
 6936 1580 3250     		str	r2, [r6, r0]
 6937              		.loc 1 3093 0
 6938 1582 FEF7EFBD 		b	.L743
 6939              	.LVL874:
 6940              	.L424:
 6941              		.loc 1 3116 0
 6942 1586 06EB204A 		add	sl, r6, r0, asr #16
 6943              	.LVL875:
 6944 158a 5AF80CA0 		ldr	sl, [sl, ip]
 6945              	.LVL876:
 6946              		.loc 1 2237 0
 6947 158e 2546     		mov	r5, r4
 6948              		.loc 1 3117 0
 6949 1590 FEF7E8BD 		b	.L743
 6950              	.LVL877:
 6951              	.L423:
 6952              		.loc 1 3112 0
 6953 1594 06EB2045 		add	r5, r6, r0, asr #16
 6954 1598 55F80C30 		ldr	r3, [r5, ip]
 6955              		.loc 1 2237 0
 6956 159c 2546     		mov	r5, r4
 6957              		.loc 1 3112 0
 6958 159e 0B93     		str	r3, [sp, #44]
 6959              		.loc 1 3113 0
 6960 15a0 FEF7E0BD 		b	.L743
 6961              	.LVL878:
 6962              	.L412:
 6963              		.loc 1 3043 0
 6964 15a4 6D68     		ldr	r5, [r5, #4]
 6965 15a6 0295     		str	r5, [sp, #8]
 6966              	.LVL879:
 6967              		.loc 1 3044 0
 6968 15a8 029B     		ldr	r3, [sp, #8]
 6969              		.loc 1 3043 0
 6970 15aa 251D     		adds	r5, r4, #4
 6971              	.LVL880:
 6972              		.loc 1 3044 0
 6973 15ac 002B     		cmp	r3, #0
ARM GAS  /tmp/ccvHIMcj.s 			page 124


 6974 15ae 3EF4D9AD 		beq	.L743
 6975              		.loc 1 3045 0
 6976 15b2 6368     		ldr	r3, [r4, #4]
 6977              	.LVL881:
 6978 15b4 06EB0C02 		add	r2, r6, ip
 6979 15b8 0299     		ldr	r1, [sp, #8]
 6980              		.loc 1 3046 0
 6981 15ba D058     		ldr	r0, [r2, r3]
 6982 15bc 0792     		str	r2, [sp, #28]
 6983              		.loc 1 3044 0
 6984 15be 029A     		ldr	r2, [sp, #8]
 6985 15c0 4C1E     		subs	r4, r1, #1
 6986              	.LVL882:
 6987              		.loc 1 3046 0
 6988 15c2 06EB0903 		add	r3, r6, r9
 6989 15c6 0121     		movs	r1, #1
 6990              	.LVL883:
 6991 15c8 43F8040D 		str	r0, [r3, #-4]!
 6992 15cc 04EA0100 		and	r0, r4, r1
 6993              		.loc 1 3045 0
 6994 15d0 2C1D     		adds	r4, r5, #4
 6995              	.LVL884:
 6996              		.loc 1 3044 0
 6997 15d2 9142     		cmp	r1, r2
 6998 15d4 22D0     		beq	.L749
 6999 15d6 48B1     		cbz	r0, .L774
 7000              		.loc 1 3045 0
 7001 15d8 54F8042B 		ldr	r2, [r4], #4
 7002              	.LVL885:
 7003              		.loc 1 3046 0
 7004 15dc 0798     		ldr	r0, [sp, #28]
 7005 15de 0221     		movs	r1, #2
 7006 15e0 8058     		ldr	r0, [r0, r2]
 7007              		.loc 1 3044 0
 7008 15e2 029A     		ldr	r2, [sp, #8]
 7009              		.loc 1 3046 0
 7010 15e4 43F8040D 		str	r0, [r3, #-4]!
 7011              		.loc 1 3044 0
 7012 15e8 9142     		cmp	r1, r2
 7013 15ea 17D0     		beq	.L749
 7014              	.L774:
 7015 15ec 0798     		ldr	r0, [sp, #28]
 7016 15ee CDF824A0 		str	sl, [sp, #36]
 7017 15f2 CA46     		mov	sl, r9
 7018              	.LVL886:
 7019 15f4 A946     		mov	r9, r5
 7020              	.LVL887:
 7021              	.L576:
 7022              		.loc 1 3045 0
 7023 15f6 2246     		mov	r2, r4
 7024 15f8 52F8045B 		ldr	r5, [r2], #4
 7025              		.loc 1 3046 0
 7026 15fc 0231     		adds	r1, r1, #2
 7027 15fe 4559     		ldr	r5, [r0, r5]
 7028 1600 43F8045D 		str	r5, [r3, #-4]!
 7029              		.loc 1 3045 0
 7030 1604 6568     		ldr	r5, [r4, #4]
ARM GAS  /tmp/ccvHIMcj.s 			page 125


 7031 1606 141D     		adds	r4, r2, #4
 7032              		.loc 1 3046 0
 7033 1608 4259     		ldr	r2, [r0, r5]
 7034              		.loc 1 3044 0
 7035 160a 029D     		ldr	r5, [sp, #8]
 7036              		.loc 1 3046 0
 7037 160c 43F8042D 		str	r2, [r3, #-4]!
 7038              		.loc 1 3044 0
 7039 1610 A942     		cmp	r1, r5
 7040 1612 F0D1     		bne	.L576
 7041 1614 4D46     		mov	r5, r9
 7042 1616 D146     		mov	r9, sl
 7043              	.LVL888:
 7044 1618 DDF824A0 		ldr	sl, [sp, #36]
 7045              	.LVL889:
 7046              	.L749:
 7047 161c 029C     		ldr	r4, [sp, #8]
 7048 161e 05EB8105 		add	r5, r5, r1, lsl #2
 7049              	.LVL890:
 7050 1622 A9EB8409 		sub	r9, r9, r4, lsl #2
 7051 1626 FEF79DBD 		b	.L743
 7052              	.LVL891:
 7053              	.L411:
 7054              		.loc 1 3036 0
 7055 162a 6968     		ldr	r1, [r5, #4]
 7056 162c 251D     		adds	r5, r4, #4
 7057 162e 0291     		str	r1, [sp, #8]
 7058              	.LVL892:
 7059              		.loc 1 3037 0
 7060 1630 0298     		ldr	r0, [sp, #8]
 7061              	.LVL893:
 7062 1632 0028     		cmp	r0, #0
 7063 1634 3EF496AD 		beq	.L743
 7064              	.LVL894:
 7065              		.loc 1 3038 0
 7066 1638 6368     		ldr	r3, [r4, #4]
 7067              	.LVL895:
 7068              		.loc 1 3037 0
 7069 163a 029A     		ldr	r2, [sp, #8]
 7070              		.loc 1 3039 0
 7071 163c F458     		ldr	r4, [r6, r3]
 7072              	.LVL896:
 7073 163e 0121     		movs	r1, #1
 7074              	.LVL897:
 7075 1640 06EB0903 		add	r3, r6, r9
 7076 1644 0138     		subs	r0, r0, #1
 7077              	.LVL898:
 7078 1646 43F8044D 		str	r4, [r3, #-4]!
 7079              		.loc 1 3038 0
 7080 164a 2C1D     		adds	r4, r5, #4
 7081              	.LVL899:
 7082              		.loc 1 3037 0
 7083 164c 9142     		cmp	r1, r2
 7084 164e 00EA0100 		and	r0, r0, r1
 7085 1652 18D0     		beq	.L748
 7086 1654 40B1     		cbz	r0, .L575
 7087              		.loc 1 3038 0
ARM GAS  /tmp/ccvHIMcj.s 			page 126


 7088 1656 54F8040B 		ldr	r0, [r4], #4
 7089              	.LVL900:
 7090              		.loc 1 3039 0
 7091 165a 0221     		movs	r1, #2
 7092 165c 3258     		ldr	r2, [r6, r0]
 7093              		.loc 1 3037 0
 7094 165e 0298     		ldr	r0, [sp, #8]
 7095              		.loc 1 3039 0
 7096 1660 43F8042D 		str	r2, [r3, #-4]!
 7097              		.loc 1 3037 0
 7098 1664 8142     		cmp	r1, r0
 7099 1666 0ED0     		beq	.L748
 7100              	.L575:
 7101              		.loc 1 3038 0
 7102 1668 2246     		mov	r2, r4
 7103 166a 52F8040B 		ldr	r0, [r2], #4
 7104              		.loc 1 3039 0
 7105 166e 0231     		adds	r1, r1, #2
 7106 1670 3058     		ldr	r0, [r6, r0]
 7107 1672 43F8040D 		str	r0, [r3, #-4]!
 7108              		.loc 1 3038 0
 7109 1676 6068     		ldr	r0, [r4, #4]
 7110 1678 141D     		adds	r4, r2, #4
 7111              		.loc 1 3037 0
 7112 167a 029A     		ldr	r2, [sp, #8]
 7113              		.loc 1 3039 0
 7114 167c 3058     		ldr	r0, [r6, r0]
 7115              		.loc 1 3037 0
 7116 167e 9142     		cmp	r1, r2
 7117              		.loc 1 3039 0
 7118 1680 43F8040D 		str	r0, [r3, #-4]!
 7119              		.loc 1 3037 0
 7120 1684 F0D1     		bne	.L575
 7121              	.L748:
 7122 1686 05EB8105 		add	r5, r5, r1, lsl #2
 7123              	.LVL901:
 7124 168a 0299     		ldr	r1, [sp, #8]
 7125 168c A9EB8109 		sub	r9, r9, r1, lsl #2
 7126 1690 FEF768BD 		b	.L743
 7127              	.LVL902:
 7128              	.L413:
 7129              		.loc 1 3050 0
 7130 1694 6868     		ldr	r0, [r5, #4]
 7131              	.LVL903:
 7132 1696 251D     		adds	r5, r4, #4
 7133              	.LVL904:
 7134 1698 0290     		str	r0, [sp, #8]
 7135              	.LVL905:
 7136              		.loc 1 3051 0
 7137 169a 0298     		ldr	r0, [sp, #8]
 7138 169c 0028     		cmp	r0, #0
 7139 169e 3EF461AD 		beq	.L743
 7140              		.loc 1 3052 0
 7141 16a2 6168     		ldr	r1, [r4, #4]
 7142              	.LVL906:
 7143              		.loc 1 3051 0
 7144 16a4 029A     		ldr	r2, [sp, #8]
ARM GAS  /tmp/ccvHIMcj.s 			page 127


 7145 16a6 441E     		subs	r4, r0, #1
 7146              	.LVL907:
 7147              		.loc 1 3053 0
 7148 16a8 06EB0903 		add	r3, r6, r9
 7149 16ac 0CEB0100 		add	r0, ip, r1
 7150              	.LVL908:
 7151 16b0 0121     		movs	r1, #1
 7152 16b2 43F8040D 		str	r0, [r3, #-4]!
 7153 16b6 04EA0100 		and	r0, r4, r1
 7154              		.loc 1 3052 0
 7155 16ba 2C1D     		adds	r4, r5, #4
 7156              	.LVL909:
 7157              		.loc 1 3051 0
 7158 16bc 9142     		cmp	r1, r2
 7159 16be 19D0     		beq	.L750
 7160 16c0 48B1     		cbz	r0, .L577
 7161              		.loc 1 3052 0
 7162 16c2 54F8042B 		ldr	r2, [r4], #4
 7163              	.LVL910:
 7164              		.loc 1 3053 0
 7165 16c6 0221     		movs	r1, #2
 7166 16c8 0CEB0200 		add	r0, ip, r2
 7167              		.loc 1 3051 0
 7168 16cc 029A     		ldr	r2, [sp, #8]
 7169              		.loc 1 3053 0
 7170 16ce 43F8040D 		str	r0, [r3, #-4]!
 7171              		.loc 1 3051 0
 7172 16d2 9142     		cmp	r1, r2
 7173 16d4 0ED0     		beq	.L750
 7174              	.L577:
 7175              		.loc 1 3052 0
 7176 16d6 2246     		mov	r2, r4
 7177 16d8 52F8040B 		ldr	r0, [r2], #4
 7178              		.loc 1 3053 0
 7179 16dc 0231     		adds	r1, r1, #2
 7180 16de 6044     		add	r0, ip, r0
 7181 16e0 43F8040D 		str	r0, [r3, #-4]!
 7182              		.loc 1 3052 0
 7183 16e4 6068     		ldr	r0, [r4, #4]
 7184 16e6 141D     		adds	r4, r2, #4
 7185              		.loc 1 3051 0
 7186 16e8 029A     		ldr	r2, [sp, #8]
 7187              		.loc 1 3053 0
 7188 16ea 6044     		add	r0, ip, r0
 7189              		.loc 1 3051 0
 7190 16ec 9142     		cmp	r1, r2
 7191              		.loc 1 3053 0
 7192 16ee 43F8040D 		str	r0, [r3, #-4]!
 7193              		.loc 1 3051 0
 7194 16f2 F0D1     		bne	.L577
 7195              	.L750:
 7196 16f4 029B     		ldr	r3, [sp, #8]
 7197 16f6 05EB8105 		add	r5, r5, r1, lsl #2
 7198              	.LVL911:
 7199 16fa A9EB8309 		sub	r9, r9, r3, lsl #2
 7200 16fe FEF731BD 		b	.L743
 7201              	.LVL912:
ARM GAS  /tmp/ccvHIMcj.s 			page 128


 7202              	.L503:
 7203              		.loc 1 2391 0
 7204 1702 DDF82CC0 		ldr	ip, [sp, #44]
 7205              	.LVL913:
 7206              		.loc 1 2392 0
 7207 1706 FEF72DBD 		b	.L743
 7208              	.LVL914:
 7209              	.L502:
 7210              		.loc 1 2388 0
 7211 170a DDF82C90 		ldr	r9, [sp, #44]
 7212              	.LVL915:
 7213              		.loc 1 2389 0
 7214 170e FEF729BD 		b	.L743
 7215              	.LVL916:
 7216              	.L501:
 7217              		.loc 1 2385 0
 7218 1712 DDF82CB0 		ldr	fp, [sp, #44]
 7219              	.LVL917:
 7220              		.loc 1 2386 0
 7221 1716 FEF725BD 		b	.L743
 7222              	.LVL918:
 7223              	.L504:
 7224              		.loc 1 2394 0
 7225 171a D8F80450 		ldr	r5, [r8, #4]	@ unaligned
 7226              	.LVL919:
 7227 171e 0B9C     		ldr	r4, [sp, #44]
 7228              	.LVL920:
 7229 1720 2D19     		adds	r5, r5, r4
 7230              	.LVL921:
 7231              		.loc 1 2395 0
 7232 1722 FEF71FBD 		b	.L743
 7233              	.LVL922:
 7234              	.L499:
 7235              		.loc 1 2372 0
 7236 1726 D8F80430 		ldr	r3, [r8, #4]	@ unaligned
 7237 172a EA1A     		subs	r2, r5, r3
 7238 172c 0B92     		str	r2, [sp, #44]
 7239              		.loc 1 2373 0
 7240 172e FEF719BD 		b	.L743
 7241              	.L498:
 7242              		.loc 1 2369 0
 7243 1732 CDF82CC0 		str	ip, [sp, #44]
 7244              		.loc 1 2370 0
 7245 1736 FEF715BD 		b	.L743
 7246              	.L497:
 7247              		.loc 1 2366 0
 7248 173a CDF82C90 		str	r9, [sp, #44]
 7249              		.loc 1 2367 0
 7250 173e FEF711BD 		b	.L743
 7251              	.L496:
 7252              		.loc 1 2363 0
 7253 1742 D8F82C00 		ldr	r0, [r8, #44]	@ unaligned
 7254              	.LVL923:
 7255 1746 0B90     		str	r0, [sp, #44]
 7256              		.loc 1 2364 0
 7257 1748 FEF70CBD 		b	.L743
 7258              	.L495:
ARM GAS  /tmp/ccvHIMcj.s 			page 129


 7259              		.loc 1 2360 0
 7260 174c CDF82CB0 		str	fp, [sp, #44]
 7261              		.loc 1 2361 0
 7262 1750 FEF708BD 		b	.L743
 7263              	.L494:
 7264              		.loc 1 2357 0
 7265 1754 3C69     		ldr	r4, [r7, #16]	@ unaligned
 7266 1756 0B94     		str	r4, [sp, #44]
 7267              		.loc 1 2358 0
 7268 1758 FEF704BD 		b	.L743
 7269              	.L493:
 7270              		.loc 1 2354 0
 7271 175c F968     		ldr	r1, [r7, #12]	@ unaligned
 7272 175e 0B91     		str	r1, [sp, #44]
 7273              		.loc 1 2355 0
 7274 1760 FEF700BD 		b	.L743
 7275              	.LVL924:
 7276              	.L809:
 7277              		.loc 1 2127 0
 7278 1764 D8F838C0 		ldr	ip, [r8, #56]	@ unaligned
 7279 1768 D8F83430 		ldr	r3, [r8, #52]	@ unaligned
 7280              		.loc 1 2126 0
 7281 176c A06E     		ldr	r0, [r4, #104]	@ unaligned
 7282              		.loc 1 2127 0
 7283 176e 9C45     		cmp	ip, r3
 7284              		.loc 1 2125 0
 7285 1770 656E     		ldr	r5, [r4, #100]	@ unaligned
 7286              	.LVL925:
 7287              		.loc 1 2126 0
 7288 1772 0590     		str	r0, [sp, #20]
 7289              	.LVL926:
 7290              		.loc 1 2127 0
 7291 1774 04D1     		bne	.L822
 7292 1776 DDF81090 		ldr	r9, [sp, #16]
 7293              		.loc 1 2125 0
 7294 177a 0495     		str	r5, [sp, #16]
 7295 177c FEF7B4BC 		b	.L296
 7296              	.L822:
 7297              		.loc 1 2130 0
 7298 1780 D4F814C0 		ldr	ip, [r4, #20]	@ unaligned
 7299 1784 216F     		ldr	r1, [r4, #112]	@ unaligned
 7300 1786 2046     		mov	r0, r4
 7301              	.LVL927:
 7302 1788 0192     		str	r2, [sp, #4]
 7303 178a E047     		blx	ip
 7304              	.LVL928:
 7305 178c 019A     		ldr	r2, [sp, #4]
 7306 178e 0028     		cmp	r0, #0
 7307 1790 7EF4A1AD 		bne	.L290
 7308 1794 D4F82890 		ldr	r9, [r4, #40]	@ unaligned
 7309              		.loc 1 2125 0
 7310 1798 0495     		str	r5, [sp, #16]
 7311 179a FEF7A5BC 		b	.L296
 7312              	.LVL929:
 7313              	.L813:
 7314              		.loc 1 2663 0
 7315 179e C4F82890 		str	r9, [r4, #40]	@ unaligned
ARM GAS  /tmp/ccvHIMcj.s 			page 130


 7316              		.loc 1 2664 0
 7317 17a2 C4F820B0 		str	fp, [r4, #32]	@ unaligned
 7318              		.loc 1 2665 0
 7319 17a6 049A     		ldr	r2, [sp, #16]
 7320 17a8 6266     		str	r2, [r4, #100]	@ unaligned
 7321              		.loc 1 2666 0
 7322 17aa 059B     		ldr	r3, [sp, #20]
 7323 17ac A366     		str	r3, [r4, #104]	@ unaligned
 7324              		.loc 1 2667 0
 7325 17ae FEF792BD 		b	.L290
 7326              	.LVL930:
 7327              	.L615:
 7328              		.loc 1 2237 0
 7329 17b2 2546     		mov	r5, r4
 7330              	.LVL931:
 7331 17b4 FEF7D6BC 		b	.L743
 7332              	.LVL932:
 7333              	.L482:
 7334              		.loc 1 2288 0
 7335 17b8 F158     		ldr	r1, [r6, r3]
 7336 17ba 0B91     		str	r1, [sp, #44]
 7337              		.loc 1 2289 0
 7338 17bc FEF7D2BC 		b	.L743
 7339              	.L481:
 7340              		.loc 1 2285 0
 7341 17c0 F35A     		ldrh	r3, [r6, r3]
 7342 17c2 0B93     		str	r3, [sp, #44]
 7343              		.loc 1 2286 0
 7344 17c4 FEF7CEBC 		b	.L743
 7345              	.LVL933:
 7346              	.L570:
 7347              		.loc 1 2907 0
 7348 17c8 251D     		adds	r5, r4, #4
 7349              	.LVL934:
 7350 17ca FEF7CBBC 		b	.L743
 7351              	.LVL935:
 7352              	.L509:
 7353              		.loc 1 2477 0
 7354 17ce 251D     		adds	r5, r4, #4
 7355              	.LVL936:
 7356 17d0 FEF7C8BC 		b	.L743
 7357              	.LVL937:
 7358              	.L508:
 7359              		.loc 1 2471 0
 7360 17d4 251D     		adds	r5, r4, #4
 7361              	.LVL938:
 7362 17d6 FEF7C5BC 		b	.L743
 7363              	.LVL939:
 7364              	.L492:
 7365              		.loc 1 2339 0
 7366 17da 0B99     		ldr	r1, [sp, #44]
 7367 17dc 46F80A10 		str	r1, [r6, sl]
 7368              		.loc 1 2340 0
 7369 17e0 FEF7C0BC 		b	.L743
 7370              	.L491:
 7371              		.loc 1 2336 0
 7372 17e4 BDF82C30 		ldrh	r3, [sp, #44]
ARM GAS  /tmp/ccvHIMcj.s 			page 131


 7373 17e8 26F80A30 		strh	r3, [r6, sl]	@ movhi
 7374              		.loc 1 2337 0
 7375 17ec FEF7BABC 		b	.L743
 7376              	.LVL940:
 7377              	.L569:
 7378              		.loc 1 2901 0
 7379 17f0 251D     		adds	r5, r4, #4
 7380              	.LVL941:
 7381 17f2 FEF7B7BC 		b	.L743
 7382              	.LVL942:
 7383              	.L568:
 7384              		.loc 1 2895 0
 7385 17f6 251D     		adds	r5, r4, #4
 7386              	.LVL943:
 7387 17f8 FEF7B4BC 		b	.L743
 7388              	.LVL944:
 7389              	.L557:
 7390              	.LBB74:
 7391              		.loc 1 2818 0
 7392 17fc 5968     		ldr	r1, [r3, #4]
 7393 17fe C8F87010 		str	r1, [r8, #112]	@ unaligned
 7394 1802 FFF7D0BB 		b	.L556
 7395              	.LVL945:
 7396              	.L571:
 7397              	.LBE74:
 7398              		.loc 1 2913 0
 7399 1806 251D     		adds	r5, r4, #4
 7400              	.LVL946:
 7401 1808 FEF7ACBC 		b	.L743
 7402              	.LVL947:
 7403              	.L613:
 7404              		.loc 1 2237 0
 7405 180c 2546     		mov	r5, r4
 7406              		.loc 1 2931 0
 7407 180e 9A46     		mov	sl, r3
 7408              	.LVL948:
 7409 1810 FEF7A8BC 		b	.L743
 7410              	.LVL949:
 7411              	.L609:
 7412              		.loc 1 2237 0
 7413 1814 2546     		mov	r5, r4
 7414 1816 FEF7A5BC 		b	.L743
 7415              	.LVL950:
 7416              	.L564:
 7417              		.loc 1 2841 0
 7418 181a 049B     		ldr	r3, [sp, #16]
 7419 181c C8F82830 		str	r3, [r8, #40]	@ unaligned
 7420 1820 0598     		ldr	r0, [sp, #20]
 7421 1822 C8F82000 		str	r0, [r8, #32]	@ unaligned
 7422 1826 0520     		movs	r0, #5
 7423 1828 FEF755BD 		b	.L290
 7424              	.LVL951:
 7425              	.L561:
 7426              		.loc 1 2833 0
 7427 182c 049B     		ldr	r3, [sp, #16]
 7428 182e 0520     		movs	r0, #5
 7429 1830 C8F82830 		str	r3, [r8, #40]	@ unaligned
ARM GAS  /tmp/ccvHIMcj.s 			page 132


 7430 1834 059A     		ldr	r2, [sp, #20]
 7431 1836 C8F82020 		str	r2, [r8, #32]	@ unaligned
 7432 183a FEF74CBD 		b	.L290
 7433              	.LVL952:
 7434              	.L611:
 7435              		.loc 1 2237 0
 7436 183e 2546     		mov	r5, r4
 7437 1840 FEF790BC 		b	.L743
 7438              	.LVL953:
 7439              	.L812:
 7440              		.loc 1 2655 0
 7441 1844 0B9B     		ldr	r3, [sp, #44]
 7442 1846 FEF77DBD 		b	.L547
 7443              	.LVL954:
 7444              	.L819:
 7445              		.loc 1 2881 0
 7446 184a 2568     		ldr	r5, [r4, #0]
 7447              	.LVL955:
 7448 184c 6419     		adds	r4, r4, r5
 7449              	.LVL956:
 7450 184e 251F     		subs	r5, r4, #4
 7451              	.LVL957:
 7452 1850 FEF788BC 		b	.L743
 7453              	.LVL958:
 7454              	.L567:
 7455              		.loc 1 2889 0
 7456 1854 251D     		adds	r5, r4, #4
 7457              	.LVL959:
 7458 1856 FEF785BC 		b	.L743
 7459              	.LVL960:
 7460              	.L821:
 7461              		.loc 1 2932 0
 7462 185a 013A     		subs	r2, r2, #1
 7463 185c 0B92     		str	r2, [sp, #44]
 7464              		.loc 1 2933 0
 7465 185e 9A44     		add	sl, sl, r3
 7466              	.LVL961:
 7467              		.loc 1 2237 0
 7468 1860 2546     		mov	r5, r4
 7469 1862 FEF77FBC 		b	.L743
 7470              	.LVL962:
 7471              	.L815:
 7472              		.loc 1 2516 0
 7473 1866 551E     		subs	r5, r2, #1
 7474 1868 0B95     		str	r5, [sp, #44]
 7475              		.loc 1 2517 0
 7476 186a 9A44     		add	sl, sl, r3
 7477              	.LVL963:
 7478              		.loc 1 2237 0
 7479 186c 2546     		mov	r5, r4
 7480 186e FEF779BC 		b	.L743
 7481              	.LVL964:
 7482              	.L618:
 7483 1872 2546     		mov	r5, r4
 7484 1874 FEF776BC 		b	.L743
 7485              	.L616:
 7486 1878 2546     		mov	r5, r4
ARM GAS  /tmp/ccvHIMcj.s 			page 133


 7487 187a FEF773BC 		b	.L743
 7488              	.L621:
 7489 187e 2546     		mov	r5, r4
 7490 1880 FEF770BC 		b	.L743
 7491              	.L617:
 7492 1884 2546     		mov	r5, r4
 7493 1886 FEF76DBC 		b	.L743
 7494              	.L620:
 7495 188a 2546     		mov	r5, r4
 7496 188c FEF76ABC 		b	.L743
 7497              	.L622:
 7498 1890 2546     		mov	r5, r4
 7499 1892 FEF767BC 		b	.L743
 7500              	.L619:
 7501 1896 2546     		mov	r5, r4
 7502 1898 FEF764BC 		b	.L743
 7503              	.LVL965:
 7504              	.L582:
 7505              		.loc 1 3166 0
 7506 189c 049B     		ldr	r3, [sp, #16]
 7507              	.LVL966:
 7508 189e 0520     		movs	r0, #5
 7509 18a0 C8F82830 		str	r3, [r8, #40]	@ unaligned
 7510 18a4 0599     		ldr	r1, [sp, #20]
 7511 18a6 C8F82010 		str	r1, [r8, #32]	@ unaligned
 7512 18aa FEF714BD 		b	.L290
 7513              	.L820:
 7514              		.loc 1 2917 0
 7515 18ae 0499     		ldr	r1, [sp, #16]
 7516 18b0 0B20     		movs	r0, #11
 7517 18b2 C8F82810 		str	r1, [r8, #40]	@ unaligned
 7518 18b6 059B     		ldr	r3, [sp, #20]
 7519 18b8 C8F82030 		str	r3, [r8, #32]	@ unaligned
 7520 18bc FEF70BBD 		b	.L290
 7521              	.LVL967:
 7522              	.L811:
 7523              		.loc 1 3354 0
 7524 18c0 D8F804C0 		ldr	ip, [r8, #4]	@ unaligned
 7525              	.LVL968:
 7526              		.loc 1 3355 0
 7527 18c4 0498     		ldr	r0, [sp, #16]
 7528              		.loc 1 3354 0
 7529 18c6 CCEB0407 		rsb	r7, ip, r4
 7530              	.LVL969:
 7531              		.loc 1 3355 0
 7532 18ca C8F82800 		str	r0, [r8, #40]	@ unaligned
 7533              		.loc 1 3354 0
 7534 18ce C8F81870 		str	r7, [r8, #24]	@ unaligned
 7535              		.loc 1 3355 0
 7536 18d2 059A     		ldr	r2, [sp, #20]
 7537 18d4 0420     		movs	r0, #4
 7538 18d6 C8F82020 		str	r2, [r8, #32]	@ unaligned
 7539 18da FEF7FCBC 		b	.L290
 7540              	.LVL970:
 7541              	.L814:
 7542              		.loc 1 2501 0
 7543 18de 049B     		ldr	r3, [sp, #16]
ARM GAS  /tmp/ccvHIMcj.s 			page 134


 7544 18e0 C8F82830 		str	r3, [r8, #40]	@ unaligned
 7545 18e4 0598     		ldr	r0, [sp, #20]
 7546 18e6 C8F82000 		str	r0, [r8, #32]	@ unaligned
 7547 18ea 0B20     		movs	r0, #11
 7548 18ec FEF7F3BC 		b	.L290
 7549              	.LVL971:
 7550              	.L816:
 7551              		.loc 1 3018 0
 7552 18f0 0B9A     		ldr	r2, [sp, #44]
 7553              		.loc 1 3019 0
 7554 18f2 C8F860A0 		str	sl, [r8, #96]	@ unaligned
 7555              		.loc 1 3018 0
 7556 18f6 C8F85C20 		str	r2, [r8, #92]	@ unaligned
 7557              		.loc 1 3020 0
 7558 18fa C8F82890 		str	r9, [r8, #40]	@ unaligned
 7559              		.loc 1 3021 0
 7560 18fe 0499     		ldr	r1, [sp, #16]
 7561 1900 C8F86410 		str	r1, [r8, #100]	@ unaligned
 7562              		.loc 1 3022 0
 7563 1904 059B     		ldr	r3, [sp, #20]
 7564 1906 C8F86830 		str	r3, [r8, #104]	@ unaligned
 7565              		.loc 1 3023 0
 7566 190a FEF7E4BC 		b	.L290
 7567              	.LVL972:
 7568              	.L818:
 7569              		.loc 1 2727 0
 7570 190e 0C28     		cmp	r0, #12
 7571 1910 07D0     		beq	.L823
 7572              		.loc 1 2734 0
 7573 1912 049A     		ldr	r2, [sp, #16]
 7574 1914 C8F82820 		str	r2, [r8, #40]	@ unaligned
 7575 1918 0599     		ldr	r1, [sp, #20]
 7576 191a C8F82010 		str	r1, [r8, #32]	@ unaligned
 7577 191e FEF7DABC 		b	.L290
 7578              	.L823:
 7579              		.loc 1 2728 0
 7580 1922 0B9B     		ldr	r3, [sp, #44]
 7581              		.loc 1 2729 0
 7582 1924 C8F860A0 		str	sl, [r8, #96]	@ unaligned
 7583              		.loc 1 2728 0
 7584 1928 C8F85C30 		str	r3, [r8, #92]	@ unaligned
 7585              		.loc 1 2730 0
 7586 192c 049A     		ldr	r2, [sp, #16]
 7587 192e C8F86420 		str	r2, [r8, #100]	@ unaligned
 7588              		.loc 1 2731 0
 7589 1932 0599     		ldr	r1, [sp, #20]
 7590 1934 C8F86810 		str	r1, [r8, #104]	@ unaligned
 7591              		.loc 1 2732 0
 7592 1938 FEF7CDBC 		b	.L290
 7593              		.cfi_endproc
 7594              	.LFE34:
 7595              		.size	amx_Exec, .-amx_Exec
 7596 193c AFF30080 		.section	.text.amx_SetCallback,"ax",%progbits
 7597              		.align	2
 7598              		.p2align 4,,15
 7599              		.global	amx_SetCallback
 7600              		.thumb
ARM GAS  /tmp/ccvHIMcj.s 			page 135


 7601              		.thumb_func
 7602              		.type	amx_SetCallback, %function
 7603              	amx_SetCallback:
 7604              	.LFB35:
 7605              		.loc 1 3371 0
 7606              		.cfi_startproc
 7607              		@ args = 0, pretend = 0, frame = 0
 7608              		@ frame_needed = 0, uses_anonymous_args = 0
 7609              		@ link register save eliminated.
 7610              	.LVL973:
 7611              		.loc 1 3374 0
 7612 0000 C160     		str	r1, [r0, #12]	@ unaligned
 7613              		.loc 1 3376 0
 7614 0002 0020     		movs	r0, #0
 7615              	.LVL974:
 7616 0004 7047     		bx	lr
 7617              		.cfi_endproc
 7618              	.LFE35:
 7619              		.size	amx_SetCallback, .-amx_SetCallback
 7620 0006 00BFAFF3 		.section	.text.amx_SetDebugHook,"ax",%progbits
 7620      0080AFF3 
 7620      0080
 7621              		.align	2
 7622              		.p2align 4,,15
 7623              		.global	amx_SetDebugHook
 7624              		.thumb
 7625              		.thumb_func
 7626              		.type	amx_SetDebugHook, %function
 7627              	amx_SetDebugHook:
 7628              	.LFB36:
 7629              		.loc 1 3381 0
 7630              		.cfi_startproc
 7631              		@ args = 0, pretend = 0, frame = 0
 7632              		@ frame_needed = 0, uses_anonymous_args = 0
 7633              		@ link register save eliminated.
 7634              	.LVL975:
 7635              		.loc 1 3383 0
 7636 0000 0161     		str	r1, [r0, #16]	@ unaligned
 7637              		.loc 1 3385 0
 7638 0002 0020     		movs	r0, #0
 7639              	.LVL976:
 7640 0004 7047     		bx	lr
 7641              		.cfi_endproc
 7642              	.LFE36:
 7643              		.size	amx_SetDebugHook, .-amx_SetDebugHook
 7644 0006 00BFAFF3 		.section	.text.amx_RaiseError,"ax",%progbits
 7644      0080AFF3 
 7644      0080
 7645              		.align	2
 7646              		.p2align 4,,15
 7647              		.global	amx_RaiseError
 7648              		.thumb
 7649              		.thumb_func
 7650              		.type	amx_RaiseError, %function
 7651              	amx_RaiseError:
 7652              	.LFB37:
 7653              		.loc 1 3390 0
ARM GAS  /tmp/ccvHIMcj.s 			page 136


 7654              		.cfi_startproc
 7655              		@ args = 0, pretend = 0, frame = 0
 7656              		@ frame_needed = 0, uses_anonymous_args = 0
 7657              		@ link register save eliminated.
 7658              	.LVL977:
 7659              		.loc 1 3392 0
 7660 0000 4165     		str	r1, [r0, #84]	@ unaligned
 7661              		.loc 1 3394 0
 7662 0002 0020     		movs	r0, #0
 7663              	.LVL978:
 7664 0004 7047     		bx	lr
 7665              		.cfi_endproc
 7666              	.LFE37:
 7667              		.size	amx_RaiseError, .-amx_RaiseError
 7668 0006 00BFAFF3 		.section	.text.amx_Allot,"ax",%progbits
 7668      0080AFF3 
 7668      0080
 7669              		.align	2
 7670              		.p2align 4,,15
 7671              		.global	amx_Allot
 7672              		.thumb
 7673              		.thumb_func
 7674              		.type	amx_Allot, %function
 7675              	amx_Allot:
 7676              	.LFB38:
 7677              		.loc 1 3399 0
 7678              		.cfi_startproc
 7679              		@ args = 0, pretend = 0, frame = 0
 7680              		@ frame_needed = 0, uses_anonymous_args = 0
 7681              		@ link register save eliminated.
 7682              	.LVL979:
 7683 0000 30B4     		push	{r4, r5}
 7684              	.LCFI30:
 7685              		.cfi_def_cfa_offset 8
 7686              		.loc 1 3407 0
 7687 0002 8368     		ldr	r3, [r0, #8]	@ unaligned
 7688              		.loc 1 3404 0
 7689 0004 0468     		ldr	r4, [r0, #0]	@ unaligned
 7690              		.cfi_offset 5, -4
 7691              		.cfi_offset 4, -8
 7692              	.LVL980:
 7693              		.loc 1 3407 0
 7694 0006 93B1     		cbz	r3, .L833
 7695              	.L828:
 7696              	.LVL981:
 7697              		.loc 1 3409 0 discriminator 3
 7698 0008 046A     		ldr	r4, [r0, #32]	@ unaligned
 7699              	.LVL982:
 7700 000a D0F828C0 		ldr	ip, [r0, #40]	@ unaligned
 7701 000e 8900     		lsls	r1, r1, #2
 7702              	.LVL983:
 7703 0010 C4EB0C05 		rsb	r5, r4, ip
 7704 0014 6D1A     		subs	r5, r5, r1
 7705 0016 3F2D     		cmp	r5, #63
 7706 0018 07D9     		bls	.L832
 7707              		.loc 1 3411 0
 7708 001a 0AB1     		cbz	r2, .L831
ARM GAS  /tmp/ccvHIMcj.s 			page 137


 7709              		.loc 1 3412 0
 7710 001c 1B19     		adds	r3, r3, r4
 7711              	.LVL984:
 7712 001e 1360     		str	r3, [r2, #0]
 7713              	.L831:
 7714              		.loc 1 3413 0
 7715 0020 6118     		adds	r1, r4, r1
 7716 0022 0162     		str	r1, [r0, #32]	@ unaligned
 7717              		.loc 1 3414 0
 7718 0024 0020     		movs	r0, #0
 7719              	.LVL985:
 7720              	.L829:
 7721              		.loc 1 3415 0
 7722 0026 30BC     		pop	{r4, r5}
 7723 0028 7047     		bx	lr
 7724              	.LVL986:
 7725              	.L832:
 7726              		.loc 1 3410 0
 7727 002a 1020     		movs	r0, #16
 7728              	.LVL987:
 7729 002c FBE7     		b	.L829
 7730              	.LVL988:
 7731              	.L833:
 7732              		.loc 1 3407 0 discriminator 2
 7733 002e 2369     		ldr	r3, [r4, #16]	@ unaligned
 7734 0030 E318     		adds	r3, r4, r3
 7735 0032 E9E7     		b	.L828
 7736              		.cfi_endproc
 7737              	.LFE38:
 7738              		.size	amx_Allot, .-amx_Allot
 7739 0034 AFF30080 		.section	.text.amx_PushArray,"ax",%progbits
 7739      AFF30080 
 7739      AFF30080 
 7740              		.align	2
 7741              		.p2align 4,,15
 7742              		.global	amx_PushArray
 7743              		.thumb
 7744              		.thumb_func
 7745              		.type	amx_PushArray, %function
 7746              	amx_PushArray:
 7747              	.LFB31:
 7748              		.loc 1 1961 0
 7749              		.cfi_startproc
 7750              		@ args = 0, pretend = 0, frame = 0
 7751              		@ frame_needed = 0, uses_anonymous_args = 0
 7752              	.LVL989:
 7753 0000 2DE9F843 		push	{r3, r4, r5, r6, r7, r8, r9, lr}
 7754              	.LCFI31:
 7755              		.cfi_def_cfa_offset 32
 7756              		.loc 1 1961 0
 7757 0004 0C46     		mov	r4, r1
 7758              		.cfi_offset 14, -4
 7759              		.cfi_offset 9, -8
 7760              		.cfi_offset 8, -12
 7761              		.cfi_offset 7, -16
 7762              		.cfi_offset 6, -20
 7763              		.cfi_offset 5, -24
ARM GAS  /tmp/ccvHIMcj.s 			page 138


 7764              		.cfi_offset 4, -28
 7765              		.cfi_offset 3, -32
 7766 0006 9046     		mov	r8, r2
 7767              		.loc 1 1969 0
 7768 0008 1946     		mov	r1, r3
 7769              	.LVL990:
 7770 000a 2246     		mov	r2, r4
 7771              	.LVL991:
 7772              		.loc 1 1961 0
 7773 000c 1F46     		mov	r7, r3
 7774 000e 0546     		mov	r5, r0
 7775              		.loc 1 1968 0
 7776 0010 D0F82090 		ldr	r9, [r0, #32]	@ unaligned
 7777              	.LVL992:
 7778              		.loc 1 1969 0
 7779 0014 FFF7FEFF 		bl	amx_Allot
 7780              	.LVL993:
 7781              		.loc 1 1970 0
 7782 0018 0646     		mov	r6, r0
 7783 001a 10B1     		cbz	r0, .L838
 7784              		.loc 1 1975 0
 7785 001c 3046     		mov	r0, r6
 7786 001e BDE8F883 		pop	{r3, r4, r5, r6, r7, r8, r9, pc}
 7787              	.L838:
 7788              		.loc 1 1971 0
 7789 0022 BA00     		lsls	r2, r7, #2
 7790 0024 2068     		ldr	r0, [r4, #0]
 7791              	.LVL994:
 7792 0026 4146     		mov	r1, r8
 7793 0028 FFF7FEFF 		bl	memcpy
 7794              	.LVL995:
 7795              	.LBB75:
 7796              	.LBB77:
 7797              		.loc 1 1932 0
 7798 002c 2A6A     		ldr	r2, [r5, #32]	@ unaligned
 7799 002e AB6A     		ldr	r3, [r5, #40]	@ unaligned
 7800 0030 3F32     		adds	r2, r2, #63
 7801 0032 9A42     		cmp	r2, r3
 7802 0034 0CDA     		bge	.L837
 7803              		.loc 1 1935 0
 7804 0036 AA68     		ldr	r2, [r5, #8]	@ unaligned
 7805              		.loc 1 1934 0
 7806 0038 2968     		ldr	r1, [r5, #0]	@ unaligned
 7807              	.LVL996:
 7808              		.loc 1 1935 0
 7809 003a 6AB1     		cbz	r2, .L839
 7810              	.L836:
 7811              	.LVL997:
 7812              		.loc 1 1937 0
 7813 003c A86D     		ldr	r0, [r5, #88]	@ unaligned
 7814              		.loc 1 1936 0
 7815 003e 043B     		subs	r3, r3, #4
 7816              		.loc 1 1937 0
 7817 0040 411C     		adds	r1, r0, #1
 7818              	.LVL998:
 7819              		.loc 1 1936 0
 7820 0042 AB62     		str	r3, [r5, #40]	@ unaligned
ARM GAS  /tmp/ccvHIMcj.s 			page 139


 7821              		.loc 1 1937 0
 7822 0044 A965     		str	r1, [r5, #88]	@ unaligned
 7823              	.LBE77:
 7824              	.LBE75:
 7825              		.loc 1 1975 0
 7826 0046 3046     		mov	r0, r6
 7827              	.LBB80:
 7828              	.LBB78:
 7829              		.loc 1 1938 0
 7830 0048 42F80390 		str	r9, [r2, r3]
 7831              	.LBE78:
 7832              	.LBE80:
 7833              		.loc 1 1975 0
 7834 004c BDE8F883 		pop	{r3, r4, r5, r6, r7, r8, r9, pc}
 7835              	.LVL999:
 7836              	.L837:
 7837              	.LBB81:
 7838              	.LBB76:
 7839              		.loc 1 1933 0
 7840 0050 0326     		movs	r6, #3
 7841              	.LVL1000:
 7842              	.LBE76:
 7843              	.LBE81:
 7844              		.loc 1 1975 0
 7845 0052 3046     		mov	r0, r6
 7846 0054 BDE8F883 		pop	{r3, r4, r5, r6, r7, r8, r9, pc}
 7847              	.LVL1001:
 7848              	.L839:
 7849              	.LBB82:
 7850              	.LBB79:
 7851              		.loc 1 1935 0
 7852 0058 0869     		ldr	r0, [r1, #16]	@ unaligned
 7853 005a 0A18     		adds	r2, r1, r0
 7854 005c EEE7     		b	.L836
 7855              	.LBE79:
 7856              	.LBE82:
 7857              		.cfi_endproc
 7858              	.LFE31:
 7859              		.size	amx_PushArray, .-amx_PushArray
 7860 005e 00BF     		.section	.text.amx_Release,"ax",%progbits
 7861              		.align	2
 7862              		.p2align 4,,15
 7863              		.global	amx_Release
 7864              		.thumb
 7865              		.thumb_func
 7866              		.type	amx_Release, %function
 7867              	amx_Release:
 7868              	.LFB39:
 7869              		.loc 1 3418 0
 7870              		.cfi_startproc
 7871              		@ args = 0, pretend = 0, frame = 0
 7872              		@ frame_needed = 0, uses_anonymous_args = 0
 7873              		@ link register save eliminated.
 7874              	.LVL1002:
 7875              		.loc 1 3427 0
 7876 0000 8368     		ldr	r3, [r0, #8]	@ unaligned
 7877              		.loc 1 3424 0
ARM GAS  /tmp/ccvHIMcj.s 			page 140


 7878 0002 0268     		ldr	r2, [r0, #0]	@ unaligned
 7879              	.LVL1003:
 7880              		.loc 1 3427 0
 7881 0004 33B1     		cbz	r3, .L843
 7882              	.LVL1004:
 7883              		.loc 1 3429 0 discriminator 3
 7884 0006 026A     		ldr	r2, [r0, #32]	@ unaligned
 7885              	.LVL1005:
 7886              		.loc 1 3428 0 discriminator 3
 7887 0008 C91A     		subs	r1, r1, r3
 7888              	.LVL1006:
 7889              		.loc 1 3429 0 discriminator 3
 7890 000a 9142     		cmp	r1, r2
 7891              		.loc 1 3430 0 discriminator 3
 7892 000c B8BF     		it	lt
 7893 000e 0162     		strlt	r1, [r0, #32]	@ unaligned
 7894              		.loc 1 3432 0 discriminator 3
 7895 0010 0020     		movs	r0, #0
 7896              	.LVL1007:
 7897 0012 7047     		bx	lr
 7898              	.LVL1008:
 7899              	.L843:
 7900              		.loc 1 3427 0 discriminator 2
 7901 0014 1369     		ldr	r3, [r2, #16]	@ unaligned
 7902 0016 D318     		adds	r3, r2, r3
 7903              	.LVL1009:
 7904              		.loc 1 3429 0 discriminator 2
 7905 0018 026A     		ldr	r2, [r0, #32]	@ unaligned
 7906              	.LVL1010:
 7907              		.loc 1 3428 0 discriminator 2
 7908 001a C91A     		subs	r1, r1, r3
 7909              	.LVL1011:
 7910              		.loc 1 3429 0 discriminator 2
 7911 001c 9142     		cmp	r1, r2
 7912              		.loc 1 3430 0 discriminator 2
 7913 001e B8BF     		it	lt
 7914 0020 0162     		strlt	r1, [r0, #32]	@ unaligned
 7915              		.loc 1 3432 0 discriminator 2
 7916 0022 0020     		movs	r0, #0
 7917              	.LVL1012:
 7918 0024 7047     		bx	lr
 7919              		.cfi_endproc
 7920              	.LFE39:
 7921              		.size	amx_Release, .-amx_Release
 7922 0026 00BFAFF3 		.section	.text.amx_StrLen,"ax",%progbits
 7922      0080AFF3 
 7922      0080
 7923              		.align	2
 7924              		.p2align 4,,15
 7925              		.global	amx_StrLen
 7926              		.thumb
 7927              		.thumb_func
 7928              		.type	amx_StrLen, %function
 7929              	amx_StrLen:
 7930              	.LFB40:
 7931              		.loc 1 3449 0
 7932              		.cfi_startproc
ARM GAS  /tmp/ccvHIMcj.s 			page 141


 7933              		@ args = 0, pretend = 0, frame = 0
 7934              		@ frame_needed = 0, uses_anonymous_args = 0
 7935              	.LVL1013:
 7936 0000 38B5     		push	{r3, r4, r5, lr}
 7937              	.LCFI32:
 7938              		.cfi_def_cfa_offset 16
 7939              		.loc 1 3449 0
 7940 0002 0D46     		mov	r5, r1
 7941              		.cfi_offset 14, -4
 7942              		.cfi_offset 5, -8
 7943              		.cfi_offset 4, -12
 7944              		.cfi_offset 3, -16
 7945              		.loc 1 3456 0
 7946 0004 0446     		mov	r4, r0
 7947 0006 F8B1     		cbz	r0, .L855
 7948              		.loc 1 3461 0
 7949 0008 0368     		ldr	r3, [r0, #0]
 7950 000a B3F1807F 		cmp	r3, #16777216
 7951 000e 09D2     		bcs	.L847
 7952              	.LVL1014:
 7953              		.loc 1 3476 0 discriminator 1
 7954 0010 2BB1     		cbz	r3, .L849
 7955              		.loc 1 3476 0 is_stmt 0
 7956 0012 0023     		movs	r3, #0
 7957              	.LVL1015:
 7958              	.L851:
 7959              		.loc 1 3476 0 discriminator 2
 7960 0014 54F8042F 		ldr	r2, [r4, #4]!
 7961 0018 0133     		adds	r3, r3, #1
 7962              	.LVL1016:
 7963 001a 002A     		cmp	r2, #0
 7964 001c FAD1     		bne	.L851
 7965              	.LVL1017:
 7966              	.L849:
 7967              		.loc 1 3479 0 is_stmt 1
 7968 001e 2B60     		str	r3, [r5, #0]
 7969              		.loc 1 3480 0
 7970 0020 0020     		movs	r0, #0
 7971              		.loc 1 3481 0
 7972 0022 38BD     		pop	{r3, r4, r5, pc}
 7973              	.LVL1018:
 7974              	.L847:
 7975              		.loc 1 3464 0
 7976 0024 FFF7FEFF 		bl	strlen
 7977              	.LVL1019:
 7978              		.loc 1 3468 0
 7979 0028 8308     		lsrs	r3, r0, #2
 7980 002a 54F82320 		ldr	r2, [r4, r3, lsl #2]
 7981              	.LVL1020:
 7982              		.loc 1 3469 0
 7983 002e 20F00303 		bic	r3, r0, #3
 7984              	.LVL1021:
 7985              		.loc 1 3470 0
 7986 0032 12F07F4F 		tst	r2, #-16777216
 7987 0036 F2D0     		beq	.L849
 7988              	.L852:
 7989              		.loc 1 3472 0
ARM GAS  /tmp/ccvHIMcj.s 			page 142


 7990 0038 1202     		lsls	r2, r2, #8
 7991              	.LVL1022:
 7992              		.loc 1 3471 0
 7993 003a 0133     		adds	r3, r3, #1
 7994              	.LVL1023:
 7995              		.loc 1 3470 0
 7996 003c 12F07F4F 		tst	r2, #-16777216
 7997 0040 FAD1     		bne	.L852
 7998              		.loc 1 3479 0
 7999 0042 2B60     		str	r3, [r5, #0]
 8000              		.loc 1 3480 0
 8001 0044 0020     		movs	r0, #0
 8002              		.loc 1 3481 0
 8003 0046 38BD     		pop	{r3, r4, r5, pc}
 8004              	.LVL1024:
 8005              	.L855:
 8006              		.loc 1 3457 0
 8007 0048 0860     		str	r0, [r1, #0]
 8008              		.loc 1 3458 0
 8009 004a 1920     		movs	r0, #25
 8010 004c 38BD     		pop	{r3, r4, r5, pc}
 8011              		.cfi_endproc
 8012              	.LFE40:
 8013              		.size	amx_StrLen, .-amx_StrLen
 8014 004e 00BF     		.section	.text.amx_SetString,"ax",%progbits
 8015              		.align	2
 8016              		.p2align 4,,15
 8017              		.global	amx_SetString
 8018              		.thumb
 8019              		.thumb_func
 8020              		.type	amx_SetString, %function
 8021              	amx_SetString:
 8022              	.LFB41:
 8023              		.loc 1 3486 0
 8024              		.cfi_startproc
 8025              		@ args = 4, pretend = 0, frame = 0
 8026              		@ frame_needed = 0, uses_anonymous_args = 0
 8027              	.LVL1025:
 8028 0000 2DE9F041 		push	{r4, r5, r6, r7, r8, lr}
 8029              	.LCFI33:
 8030              		.cfi_def_cfa_offset 24
 8031              		.loc 1 3486 0
 8032 0004 069E     		ldr	r6, [sp, #24]
 8033              		.cfi_offset 14, -4
 8034              		.cfi_offset 8, -8
 8035              		.cfi_offset 7, -12
 8036              		.cfi_offset 6, -16
 8037              		.cfi_offset 5, -20
 8038              		.cfi_offset 4, -24
 8039              		.loc 1 3494 0
 8040 0006 1D46     		mov	r5, r3
 8041              		.loc 1 3486 0
 8042 0008 0446     		mov	r4, r0
 8043 000a 8846     		mov	r8, r1
 8044 000c 1746     		mov	r7, r2
 8045              		.loc 1 3494 0
 8046 000e 002B     		cmp	r3, #0
ARM GAS  /tmp/ccvHIMcj.s 			page 143


 8047 0010 40F0AA80 		bne	.L898
 8048              		.loc 1 3494 0 is_stmt 0 discriminator 2
 8049 0014 0846     		mov	r0, r1
 8050              	.LVL1026:
 8051 0016 FFF7FEFF 		bl	strlen
 8052              	.LVL1027:
 8053 001a 0346     		mov	r3, r0
 8054              	.L858:
 8055              	.LVL1028:
 8056              		.loc 1 3496 0 is_stmt 1 discriminator 3
 8057 001c 002F     		cmp	r7, #0
 8058 001e 54D0     		beq	.L859
 8059              		.loc 1 3498 0
 8060 0020 574A     		ldr	r2, .L900
 8061 0022 9642     		cmp	r6, r2
 8062 0024 03D8     		bhi	.L861
 8063              		.loc 1 3498 0 is_stmt 0 discriminator 1
 8064 0026 B600     		lsls	r6, r6, #2
 8065 0028 B342     		cmp	r3, r6
 8066              		.loc 1 3499 0 is_stmt 1 discriminator 1
 8067 002a 28BF     		it	cs
 8068 002c 731E     		subcs	r3, r6, #1
 8069              	.LVL1029:
 8070              	.L861:
 8071              		.loc 1 3500 0
 8072 002e 9E08     		lsrs	r6, r3, #2
 8073 0030 0022     		movs	r2, #0
 8074 0032 B700     		lsls	r7, r6, #2
 8075              	.LVL1030:
 8076 0034 44F82620 		str	r2, [r4, r6, lsl #2]
 8077              		.loc 1 3504 0
 8078 0038 002D     		cmp	r5, #0
 8079 003a 00F09A80 		beq	.L862
 8080              	.LVL1031:
 8081              		.loc 1 3505 0 discriminator 1
 8082 003e 9342     		cmp	r3, r2
 8083 0040 20DD     		ble	.L863
 8084              		.loc 1 3506 0
 8085 0042 58F8040B 		ldr	r0, [r8], #4
 8086              	.LVL1032:
 8087 0046 2246     		mov	r2, r4
 8088              		.loc 1 3485 0
 8089 0048 E318     		adds	r3, r4, r3
 8090              	.LVL1033:
 8091 004a E543     		mvns	r5, r4
 8092              	.LVL1034:
 8093              		.loc 1 3506 0
 8094 004c 02F8010B 		strb	r0, [r2], #1
 8095              	.LVL1035:
 8096 0050 E918     		adds	r1, r5, r3
 8097              		.loc 1 3505 0
 8098 0052 9A42     		cmp	r2, r3
 8099 0054 01F00101 		and	r1, r1, #1
 8100 0058 14D0     		beq	.L863
 8101 005a 29B1     		cbz	r1, .L864
 8102              		.loc 1 3506 0
 8103 005c 58F8040B 		ldr	r0, [r8], #4
ARM GAS  /tmp/ccvHIMcj.s 			page 144


 8104              	.LVL1036:
 8105 0060 02F8010B 		strb	r0, [r2], #1
 8106              		.loc 1 3505 0
 8107 0064 9A42     		cmp	r2, r3
 8108 0066 0DD0     		beq	.L863
 8109              	.LVL1037:
 8110              	.L864:
 8111              		.loc 1 3506 0 discriminator 2
 8112 0068 C446     		mov	ip, r8
 8113 006a 5CF8040B 		ldr	r0, [ip], #4
 8114 006e 1146     		mov	r1, r2
 8115 0070 01F8010B 		strb	r0, [r1], #1
 8116 0074 D8F80450 		ldr	r5, [r8, #4]
 8117 0078 0CF10408 		add	r8, ip, #4
 8118 007c 5570     		strb	r5, [r2, #1]
 8119 007e 4A1C     		adds	r2, r1, #1
 8120              		.loc 1 3505 0 discriminator 2
 8121 0080 9A42     		cmp	r2, r3
 8122 0082 F1D1     		bne	.L864
 8123              	.L863:
 8124              	.LVL1038:
 8125              		.loc 1 3485 0
 8126 0084 E419     		adds	r4, r4, r7
 8127              	.LVL1039:
 8128              		.loc 1 3518 0
 8129 0086 2046     		mov	r0, r4
 8130 0088 751E     		subs	r5, r6, #1
 8131              	.LVL1040:
 8132 008a FFF7FEFF 		bl	amx_Swap32
 8133 008e 043C     		subs	r4, r4, #4
 8134              		.loc 1 3517 0
 8135 0090 B5F1FF3F 		cmp	r5, #-1
 8136 0094 06F00106 		and	r6, r6, #1
 8137 0098 14D0     		beq	.L866
 8138 009a 3EB1     		cbz	r6, .L865
 8139              		.loc 1 3518 0
 8140 009c 2046     		mov	r0, r4
 8141 009e 013D     		subs	r5, r5, #1
 8142 00a0 FFF7FEFF 		bl	amx_Swap32
 8143 00a4 043C     		subs	r4, r4, #4
 8144              		.loc 1 3517 0
 8145 00a6 B5F1FF3F 		cmp	r5, #-1
 8146 00aa 0BD0     		beq	.L866
 8147              	.L865:
 8148              		.loc 1 3518 0
 8149 00ac 2046     		mov	r0, r4
 8150 00ae 043C     		subs	r4, r4, #4
 8151 00b0 FFF7FEFF 		bl	amx_Swap32
 8152 00b4 023D     		subs	r5, r5, #2
 8153 00b6 2046     		mov	r0, r4
 8154 00b8 FFF7FEFF 		bl	amx_Swap32
 8155 00bc 043C     		subs	r4, r4, #4
 8156              		.loc 1 3517 0
 8157 00be B5F1FF3F 		cmp	r5, #-1
 8158 00c2 F3D1     		bne	.L865
 8159              	.L866:
 8160              		.loc 1 3539 0
ARM GAS  /tmp/ccvHIMcj.s 			page 145


 8161 00c4 0020     		movs	r0, #0
 8162 00c6 BDE8F081 		pop	{r4, r5, r6, r7, r8, pc}
 8163              	.LVL1041:
 8164              	.L859:
 8165              		.loc 1 3522 0
 8166 00ca 2E4A     		ldr	r2, .L900+4
 8167 00cc 9642     		cmp	r6, r2
 8168 00ce 02D8     		bhi	.L868
 8169              		.loc 1 3522 0 is_stmt 0 discriminator 1
 8170 00d0 9E42     		cmp	r6, r3
 8171              		.loc 1 3523 0 is_stmt 1 discriminator 1
 8172 00d2 98BF     		it	ls
 8173 00d4 731E     		subls	r3, r6, #1
 8174              	.LVL1042:
 8175              	.L868:
 8176              		.loc 1 3528 0
 8177 00d6 25B3     		cbz	r5, .L899
 8178              	.LVL1043:
 8179              		.loc 1 3529 0 discriminator 1
 8180 00d8 002B     		cmp	r3, #0
 8181 00da 1CDD     		ble	.L871
 8182              		.loc 1 3530 0
 8183 00dc D8F80010 		ldr	r1, [r8, #0]
 8184 00e0 5A1E     		subs	r2, r3, #1
 8185              		.loc 1 3529 0
 8186 00e2 0120     		movs	r0, #1
 8187              	.LVL1044:
 8188              		.loc 1 3530 0
 8189 00e4 2160     		str	r1, [r4, #0]
 8190 00e6 02EA0001 		and	r1, r2, r0
 8191              		.loc 1 3529 0
 8192 00ea 0422     		movs	r2, #4
 8193 00ec 9842     		cmp	r0, r3
 8194 00ee 12D0     		beq	.L871
 8195 00f0 31B1     		cbz	r1, .L872
 8196              		.loc 1 3530 0
 8197 00f2 D8F80420 		ldr	r2, [r8, #4]
 8198              		.loc 1 3529 0
 8199 00f6 0220     		movs	r0, #2
 8200              		.loc 1 3530 0
 8201 00f8 6260     		str	r2, [r4, #4]
 8202              		.loc 1 3529 0
 8203 00fa 0822     		movs	r2, #8
 8204 00fc 9842     		cmp	r0, r3
 8205 00fe 0AD0     		beq	.L871
 8206              	.LVL1045:
 8207              	.L872:
 8208              		.loc 1 3529 0 is_stmt 0 discriminator 2
 8209 0100 111D     		adds	r1, r2, #4
 8210              		.loc 1 3530 0 is_stmt 1 discriminator 2
 8211 0102 58F80260 		ldr	r6, [r8, r2]
 8212 0106 58F80150 		ldr	r5, [r8, r1]
 8213              		.loc 1 3529 0 discriminator 2
 8214 010a 0230     		adds	r0, r0, #2
 8215              		.loc 1 3530 0 discriminator 2
 8216 010c A650     		str	r6, [r4, r2]
 8217              		.loc 1 3529 0 discriminator 2
ARM GAS  /tmp/ccvHIMcj.s 			page 146


 8218 010e 0832     		adds	r2, r2, #8
 8219 0110 9842     		cmp	r0, r3
 8220              		.loc 1 3530 0 discriminator 2
 8221 0112 6550     		str	r5, [r4, r1]
 8222              		.loc 1 3529 0 discriminator 2
 8223 0114 F4D1     		bne	.L872
 8224              	.L871:
 8225              		.loc 1 3536 0
 8226 0116 0021     		movs	r1, #0
 8227 0118 44F82310 		str	r1, [r4, r3, lsl #2]
 8228              		.loc 1 3539 0
 8229 011c 0020     		movs	r0, #0
 8230 011e BDE8F081 		pop	{r4, r5, r6, r7, r8, pc}
 8231              	.LVL1046:
 8232              	.L899:
 8233              		.loc 1 3532 0 discriminator 1
 8234 0122 002B     		cmp	r3, #0
 8235 0124 F7DD     		ble	.L871
 8236              		.loc 1 3532 0 is_stmt 0
 8237 0126 0122     		movs	r2, #1
 8238              	.LVL1047:
 8239              		.loc 1 3533 0 is_stmt 1
 8240 0128 98F80050 		ldrb	r5, [r8, #0]	@ zero_extendqisi2
 8241              	.LVL1048:
 8242 012c 581E     		subs	r0, r3, #1
 8243 012e 2146     		mov	r1, r4
 8244              		.loc 1 3532 0
 8245 0130 9A42     		cmp	r2, r3
 8246              		.loc 1 3533 0
 8247 0132 41F8045B 		str	r5, [r1], #4
 8248 0136 00EA0200 		and	r0, r0, r2
 8249              		.loc 1 3532 0
 8250 013a ECD0     		beq	.L871
 8251 013c 30B1     		cbz	r0, .L873
 8252              		.loc 1 3533 0
 8253 013e 98F80100 		ldrb	r0, [r8, #1]	@ zero_extendqisi2
 8254              		.loc 1 3532 0
 8255 0142 0222     		movs	r2, #2
 8256 0144 9A42     		cmp	r2, r3
 8257              		.loc 1 3533 0
 8258 0146 41F8040B 		str	r0, [r1], #4
 8259              		.loc 1 3532 0
 8260 014a E4D0     		beq	.L871
 8261              	.L873:
 8262              		.loc 1 3533 0 discriminator 2
 8263 014c 18F80250 		ldrb	r5, [r8, r2]	@ zero_extendqisi2
 8264 0150 0846     		mov	r0, r1
 8265 0152 40F8045B 		str	r5, [r0], #4
 8266              		.loc 1 3532 0 discriminator 2
 8267 0156 0132     		adds	r2, r2, #1
 8268              		.loc 1 3533 0 discriminator 2
 8269 0158 18F80250 		ldrb	r5, [r8, r2]	@ zero_extendqisi2
 8270              		.loc 1 3532 0 discriminator 2
 8271 015c 0132     		adds	r2, r2, #1
 8272              		.loc 1 3533 0 discriminator 2
 8273 015e 4D60     		str	r5, [r1, #4]
 8274 0160 011D     		adds	r1, r0, #4
ARM GAS  /tmp/ccvHIMcj.s 			page 147


 8275              		.loc 1 3532 0 discriminator 2
 8276 0162 9A42     		cmp	r2, r3
 8277 0164 F2D1     		bne	.L873
 8278 0166 D6E7     		b	.L871
 8279              	.LVL1049:
 8280              	.L898:
 8281              		.loc 1 3494 0 discriminator 1
 8282 0168 0846     		mov	r0, r1
 8283 016a FFF7FEFF 		bl	wcslen
 8284              	.LVL1050:
 8285 016e 0346     		mov	r3, r0
 8286 0170 54E7     		b	.L858
 8287              	.LVL1051:
 8288              	.L862:
 8289              		.loc 1 3508 0
 8290 0172 2046     		mov	r0, r4
 8291 0174 4146     		mov	r1, r8
 8292 0176 1A46     		mov	r2, r3
 8293 0178 FFF7FEFF 		bl	memcpy
 8294              	.LVL1052:
 8295 017c 82E7     		b	.L863
 8296              	.L901:
 8297 017e 00BF     		.align	2
 8298              	.L900:
 8299 0180 FEFFFF1F 		.word	536870910
 8300 0184 FEFFFF7F 		.word	2147483646
 8301              		.cfi_endproc
 8302              	.LFE41:
 8303              		.size	amx_SetString, .-amx_SetString
 8304 0188 AFF30080 		.section	.text.amx_PushString,"ax",%progbits
 8304      AFF30080 
 8305              		.align	2
 8306              		.p2align 4,,15
 8307              		.global	amx_PushString
 8308              		.thumb
 8309              		.thumb_func
 8310              		.type	amx_PushString, %function
 8311              	amx_PushString:
 8312              	.LFB32:
 8313              		.loc 1 1978 0
 8314              		.cfi_startproc
 8315              		@ args = 4, pretend = 0, frame = 0
 8316              		@ frame_needed = 0, uses_anonymous_args = 0
 8317              	.LVL1053:
 8318 0000 2DE9F04F 		push	{r4, r5, r6, r7, r8, r9, sl, fp, lr}
 8319              	.LCFI34:
 8320              		.cfi_def_cfa_offset 36
 8321 0004 83B0     		sub	sp, sp, #12
 8322              	.LCFI35:
 8323              		.cfi_def_cfa_offset 48
 8324              		.loc 1 1978 0
 8325 0006 DDF830A0 		ldr	sl, [sp, #48]
 8326              		.cfi_offset 14, -4
 8327              		.cfi_offset 11, -8
 8328              		.cfi_offset 10, -12
 8329              		.cfi_offset 9, -16
 8330              		.cfi_offset 8, -20
ARM GAS  /tmp/ccvHIMcj.s 			page 148


 8331              		.cfi_offset 7, -24
 8332              		.cfi_offset 6, -28
 8333              		.cfi_offset 5, -32
 8334              		.cfi_offset 4, -36
 8335 000a 0446     		mov	r4, r0
 8336 000c 0F46     		mov	r7, r1
 8337 000e 9046     		mov	r8, r2
 8338 0010 9946     		mov	r9, r3
 8339              		.loc 1 1988 0
 8340 0012 BAF1000F 		cmp	sl, #0
 8341 0016 2CD1     		bne	.L909
 8342              		.loc 1 1988 0 is_stmt 0 discriminator 2
 8343 0018 1046     		mov	r0, r2
 8344              	.LVL1054:
 8345 001a FFF7FEFF 		bl	strlen
 8346              	.LVL1055:
 8347 001e 451C     		adds	r5, r0, #1
 8348              	.L904:
 8349              	.LVL1056:
 8350              		.loc 1 1990 0 is_stmt 1 discriminator 3
 8351 0020 B9F1000F 		cmp	r9, #0
 8352 0024 01D0     		beq	.L905
 8353              		.loc 1 1991 0
 8354 0026 0335     		adds	r5, r5, #3
 8355              	.LVL1057:
 8356 0028 AD08     		lsrs	r5, r5, #2
 8357              	.LVL1058:
 8358              	.L905:
 8359              		.loc 1 1993 0
 8360 002a 2046     		mov	r0, r4
 8361 002c 2946     		mov	r1, r5
 8362 002e 3A46     		mov	r2, r7
 8363              		.loc 1 1992 0
 8364 0030 D4F820B0 		ldr	fp, [r4, #32]	@ unaligned
 8365              	.LVL1059:
 8366              		.loc 1 1993 0
 8367 0034 FFF7FEFF 		bl	amx_Allot
 8368              	.LVL1060:
 8369              		.loc 1 1994 0
 8370 0038 0646     		mov	r6, r0
 8371 003a 18B1     		cbz	r0, .L910
 8372              	.LVL1061:
 8373              	.L906:
 8374              		.loc 1 1999 0
 8375 003c 3046     		mov	r0, r6
 8376 003e 03B0     		add	sp, sp, #12
 8377 0040 BDE8F08F 		pop	{r4, r5, r6, r7, r8, r9, sl, fp, pc}
 8378              	.LVL1062:
 8379              	.L910:
 8380              		.loc 1 1995 0
 8381 0044 3868     		ldr	r0, [r7, #0]
 8382              	.LVL1063:
 8383 0046 4A46     		mov	r2, r9
 8384 0048 5346     		mov	r3, sl
 8385 004a 4146     		mov	r1, r8
 8386 004c 0095     		str	r5, [sp, #0]
 8387 004e FFF7FEFF 		bl	amx_SetString
ARM GAS  /tmp/ccvHIMcj.s 			page 149


 8388              	.LVL1064:
 8389              	.LBB83:
 8390              	.LBB84:
 8391              		.loc 1 1932 0
 8392 0052 226A     		ldr	r2, [r4, #32]	@ unaligned
 8393 0054 A36A     		ldr	r3, [r4, #40]	@ unaligned
 8394 0056 3F32     		adds	r2, r2, #63
 8395 0058 9A42     		cmp	r2, r3
 8396 005a 0FDA     		bge	.L908
 8397              		.loc 1 1935 0
 8398 005c A268     		ldr	r2, [r4, #8]	@ unaligned
 8399              		.loc 1 1934 0
 8400 005e 2168     		ldr	r1, [r4, #0]	@ unaligned
 8401              	.LVL1065:
 8402              		.loc 1 1935 0
 8403 0060 72B1     		cbz	r2, .L911
 8404              	.L907:
 8405              	.LVL1066:
 8406              		.loc 1 1937 0
 8407 0062 A06D     		ldr	r0, [r4, #88]	@ unaligned
 8408              		.loc 1 1936 0
 8409 0064 043B     		subs	r3, r3, #4
 8410              		.loc 1 1937 0
 8411 0066 411C     		adds	r1, r0, #1
 8412              	.LVL1067:
 8413              		.loc 1 1936 0
 8414 0068 A362     		str	r3, [r4, #40]	@ unaligned
 8415              		.loc 1 1937 0
 8416 006a A165     		str	r1, [r4, #88]	@ unaligned
 8417              		.loc 1 1938 0
 8418 006c 42F803B0 		str	fp, [r2, r3]
 8419 0070 E4E7     		b	.L906
 8420              	.LVL1068:
 8421              	.L909:
 8422              	.LBE84:
 8423              	.LBE83:
 8424              		.loc 1 1988 0 discriminator 1
 8425 0072 1046     		mov	r0, r2
 8426 0074 FFF7FEFF 		bl	wcslen
 8427 0078 451C     		adds	r5, r0, #1
 8428 007a D1E7     		b	.L904
 8429              	.LVL1069:
 8430              	.L908:
 8431              	.LBB86:
 8432              	.LBB85:
 8433              		.loc 1 1933 0
 8434 007c 0326     		movs	r6, #3
 8435              	.LVL1070:
 8436 007e DDE7     		b	.L906
 8437              	.LVL1071:
 8438              	.L911:
 8439              		.loc 1 1935 0
 8440 0080 0869     		ldr	r0, [r1, #16]	@ unaligned
 8441 0082 0A18     		adds	r2, r1, r0
 8442 0084 EDE7     		b	.L907
 8443              	.LBE85:
 8444              	.LBE86:
ARM GAS  /tmp/ccvHIMcj.s 			page 150


 8445              		.cfi_endproc
 8446              	.LFE32:
 8447              		.size	amx_PushString, .-amx_PushString
 8448 0086 00BFAFF3 		.section	.text.amx_GetString,"ax",%progbits
 8448      0080AFF3 
 8448      0080
 8449              		.align	2
 8450              		.p2align 4,,15
 8451              		.global	amx_GetString
 8452              		.thumb
 8453              		.thumb_func
 8454              		.type	amx_GetString, %function
 8455              	amx_GetString:
 8456              	.LFB42:
 8457              		.loc 1 3544 0
 8458              		.cfi_startproc
 8459              		@ args = 0, pretend = 0, frame = 0
 8460              		@ frame_needed = 0, uses_anonymous_args = 0
 8461              		@ link register save eliminated.
 8462              	.LVL1072:
 8463 0000 2DE9F001 		push	{r4, r5, r6, r7, r8}
 8464              	.LCFI36:
 8465              		.cfi_def_cfa_offset 20
 8466              		.loc 1 3549 0
 8467 0004 0C68     		ldr	r4, [r1, #0]
 8468              		.cfi_offset 8, -4
 8469              		.cfi_offset 7, -8
 8470              		.cfi_offset 6, -12
 8471              		.cfi_offset 5, -16
 8472              		.cfi_offset 4, -20
 8473 0006 B4F1807F 		cmp	r4, #16777216
 8474 000a 4FD3     		bcc	.L913
 8475              	.LVL1073:
 8476              	.LBB87:
 8477              		.loc 1 3554 0 discriminator 1
 8478 000c 002B     		cmp	r3, #0
 8479 000e 44D0     		beq	.L930
 8480              		.loc 1 3554 0 is_stmt 0
 8481 0010 4FF0000C 		mov	ip, #0
 8482 0014 0125     		movs	r5, #1
 8483 0016 0326     		movs	r6, #3
 8484 0018 13F0010F 		tst	r3, #1
 8485 001c 6746     		mov	r7, ip
 8486 001e 2AD1     		bne	.L919
 8487              		.loc 1 3556 0 is_stmt 1
 8488 0020 2746     		mov	r7, r4
 8489              	.LVL1074:
 8490 0022 0431     		adds	r1, r1, #4
 8491              	.LVL1075:
 8492              		.loc 1 3558 0
 8493 0024 240E     		lsrs	r4, r4, #24
 8494              		.loc 1 3543 0
 8495 0026 E046     		mov	r8, ip
 8496              		.loc 1 3558 0
 8497 0028 00F0A380 		beq	.L916
 8498              		.loc 1 3563 0
 8499 002c 002A     		cmp	r2, #0
ARM GAS  /tmp/ccvHIMcj.s 			page 151


 8500 002e 40F0A480 		bne	.L962
 8501              		.loc 1 3566 0
 8502 0032 0470     		strb	r4, [r0, #0]
 8503              	.LVL1076:
 8504              	.L963:
 8505              		.loc 1 3568 0
 8506 0034 0226     		movs	r6, #2
 8507              		.loc 1 3554 0
 8508 0036 4FF0010C 		mov	ip, #1
 8509 003a 3546     		mov	r5, r6
 8510 003c 1BE0     		b	.L919
 8511              	.LVL1077:
 8512              	.L968:
 8513 003e 9D42     		cmp	r5, r3
 8514              		.loc 1 3564 0
 8515 0040 40F82C40 		str	r4, [r0, ip, lsl #2]
 8516              	.LVL1078:
 8517              		.loc 1 3554 0
 8518 0044 29D0     		beq	.L930
 8519              	.LVL1079:
 8520              	.L969:
 8521              		.loc 1 3568 0
 8522 0046 0336     		adds	r6, r6, #3
 8523 0048 06F00306 		and	r6, r6, #3
 8524              		.loc 1 3555 0
 8525 004c 032E     		cmp	r6, #3
 8526              		.loc 1 3568 0
 8527 004e 05F1010C 		add	ip, r5, #1
 8528              		.loc 1 3543 0
 8529 0052 A846     		mov	r8, r5
 8530              		.loc 1 3555 0
 8531 0054 00F08480 		beq	.L967
 8532              		.loc 1 3557 0
 8533 0058 F400     		lsls	r4, r6, #3
 8534              	.LVL1080:
 8535 005a 57FA04F4 		asrs	r4, r7, r4
 8536 005e E4B2     		uxtb	r4, r4
 8537              		.loc 1 3558 0
 8538 0060 002C     		cmp	r4, #0
 8539 0062 00F08680 		beq	.L916
 8540              	.L972:
 8541              		.loc 1 3563 0
 8542 0066 002A     		cmp	r2, #0
 8543 0068 77D1     		bne	.L964
 8544              		.loc 1 3566 0
 8545 006a 4455     		strb	r4, [r0, r5]
 8546              	.L965:
 8547              		.loc 1 3568 0
 8548 006c F51C     		adds	r5, r6, #3
 8549 006e 05F00306 		and	r6, r5, #3
 8550              		.loc 1 3554 0
 8551 0072 0CF10105 		add	r5, ip, #1
 8552              	.LVL1081:
 8553              	.L919:
 8554              		.loc 1 3555 0
 8555 0076 032E     		cmp	r6, #3
 8556              		.loc 1 3556 0
ARM GAS  /tmp/ccvHIMcj.s 			page 152


 8557 0078 08BF     		it	eq
 8558 007a 51F8047B 		ldreq	r7, [r1], #4
 8559              	.LVL1082:
 8560              		.loc 1 3557 0
 8561 007e F400     		lsls	r4, r6, #3
 8562 0080 57FA04F4 		asrs	r4, r7, r4
 8563 0084 E4B2     		uxtb	r4, r4
 8564              	.LVL1083:
 8565              		.loc 1 3543 0
 8566 0086 05F1FF38 		add	r8, r5, #-1
 8567              		.loc 1 3558 0
 8568 008a 002C     		cmp	r4, #0
 8569 008c 71D0     		beq	.L916
 8570              		.loc 1 3563 0
 8571 008e 002A     		cmp	r2, #0
 8572 0090 D5D1     		bne	.L968
 8573              		.loc 1 3554 0
 8574 0092 9D42     		cmp	r5, r3
 8575              		.loc 1 3566 0
 8576 0094 00F80C40 		strb	r4, [r0, ip]
 8577              	.LVL1084:
 8578              		.loc 1 3554 0
 8579 0098 D5D1     		bne	.L969
 8580              	.LVL1085:
 8581              	.L930:
 8582              	.LBE87:
 8583              		.loc 1 3588 0
 8584 009a 5C1E     		subs	r4, r3, #1
 8585 009c 02D4     		bmi	.L928
 8586              	.LVL1086:
 8587              		.loc 1 3592 0
 8588 009e 002A     		cmp	r2, #0
 8589 00a0 1FD1     		bne	.L970
 8590              	.LVL1087:
 8591              	.L929:
 8592              		.loc 1 3595 0
 8593 00a2 0255     		strb	r2, [r0, r4]
 8594              	.LVL1088:
 8595              	.L928:
 8596              		.loc 1 3599 0
 8597 00a4 0020     		movs	r0, #0
 8598              	.LVL1089:
 8599 00a6 BDE8F001 		pop	{r4, r5, r6, r7, r8}
 8600 00aa 7047     		bx	lr
 8601              	.LVL1090:
 8602              	.L913:
 8603              		.loc 1 3576 0
 8604 00ac EAB1     		cbz	r2, .L971
 8605              		.loc 1 3577 0 discriminator 1
 8606 00ae A4B1     		cbz	r4, .L921
 8607              		.loc 1 3577 0 is_stmt 0
 8608 00b0 002B     		cmp	r3, #0
 8609 00b2 F2D0     		beq	.L930
 8610 00b4 51F8045F 		ldr	r5, [r1, #4]!
 8611              	.LVL1091:
 8612 00b8 5E1E     		subs	r6, r3, #1
 8613              		.loc 1 3578 0 is_stmt 1
ARM GAS  /tmp/ccvHIMcj.s 			page 153


 8614 00ba 0460     		str	r4, [r0, #0]
 8615 00bc 06F00106 		and	r6, r6, #1
 8616 00c0 0124     		movs	r4, #1
 8617              	.LVL1092:
 8618              		.loc 1 3577 0
 8619 00c2 55B1     		cbz	r5, .L921
 8620 00c4 9C42     		cmp	r4, r3
 8621 00c6 E8D0     		beq	.L930
 8622 00c8 002E     		cmp	r6, #0
 8623 00ca 35D0     		beq	.L924
 8624              		.loc 1 3578 0
 8625 00cc 40F82450 		str	r5, [r0, r4, lsl #2]
 8626              		.loc 1 3577 0
 8627 00d0 51F8045F 		ldr	r5, [r1, #4]!
 8628              		.loc 1 3578 0
 8629 00d4 0224     		movs	r4, #2
 8630              		.loc 1 3577 0
 8631 00d6 002D     		cmp	r5, #0
 8632 00d8 3CD1     		bne	.L947
 8633              	.L921:
 8634              		.loc 1 3586 0
 8635 00da A342     		cmp	r3, r4
 8636 00dc DDD9     		bls	.L930
 8637              	.L966:
 8638              		.loc 1 3592 0
 8639 00de 002A     		cmp	r2, #0
 8640 00e0 DFD0     		beq	.L929
 8641              	.L970:
 8642              		.loc 1 3593 0
 8643 00e2 0023     		movs	r3, #0
 8644              	.LVL1093:
 8645 00e4 40F82430 		str	r3, [r0, r4, lsl #2]
 8646 00e8 DCE7     		b	.L928
 8647              	.LVL1094:
 8648              	.L971:
 8649              		.loc 1 3580 0 discriminator 1
 8650 00ea 002C     		cmp	r4, #0
 8651 00ec 48D0     		beq	.L931
 8652              		.loc 1 3580 0 is_stmt 0
 8653 00ee 002B     		cmp	r3, #0
 8654 00f0 D3D0     		beq	.L930
 8655              		.loc 1 3581 0 is_stmt 1
 8656 00f2 0470     		strb	r4, [r0, #0]
 8657              		.loc 1 3580 0
 8658 00f4 51F8045F 		ldr	r5, [r1, #4]!
 8659              	.LVL1095:
 8660 00f8 5C1E     		subs	r4, r3, #1
 8661 00fa 04F00106 		and	r6, r4, #1
 8662              		.loc 1 3581 0
 8663 00fe 0124     		movs	r4, #1
 8664              	.LVL1096:
 8665              		.loc 1 3580 0
 8666 0100 002D     		cmp	r5, #0
 8667 0102 EAD0     		beq	.L921
 8668 0104 9C42     		cmp	r4, r3
 8669 0106 C8D0     		beq	.L930
 8670 0108 3EB1     		cbz	r6, .L926
ARM GAS  /tmp/ccvHIMcj.s 			page 154


 8671              		.loc 1 3581 0
 8672 010a 4570     		strb	r5, [r0, #1]
 8673              		.loc 1 3580 0
 8674 010c 51F8045F 		ldr	r5, [r1, #4]!
 8675              		.loc 1 3581 0
 8676 0110 0224     		movs	r4, #2
 8677              		.loc 1 3580 0
 8678 0112 002D     		cmp	r5, #0
 8679 0114 E1D0     		beq	.L921
 8680 0116 9C42     		cmp	r4, r3
 8681 0118 BFD0     		beq	.L930
 8682              	.L926:
 8683              		.loc 1 3581 0
 8684 011a 0555     		strb	r5, [r0, r4]
 8685              		.loc 1 3580 0
 8686 011c 51F8045F 		ldr	r5, [r1, #4]!
 8687              		.loc 1 3581 0
 8688 0120 0134     		adds	r4, r4, #1
 8689              		.loc 1 3580 0
 8690 0122 002D     		cmp	r5, #0
 8691 0124 D9D0     		beq	.L921
 8692              		.loc 1 3581 0 discriminator 2
 8693 0126 0555     		strb	r5, [r0, r4]
 8694              		.loc 1 3580 0 discriminator 2
 8695 0128 51F8045F 		ldr	r5, [r1, #4]!
 8696              		.loc 1 3581 0 discriminator 2
 8697 012c 0134     		adds	r4, r4, #1
 8698              		.loc 1 3580 0 discriminator 2
 8699 012e 002D     		cmp	r5, #0
 8700 0130 D3D0     		beq	.L921
 8701              		.loc 1 3580 0 is_stmt 0
 8702 0132 9C42     		cmp	r4, r3
 8703 0134 F1D1     		bne	.L926
 8704 0136 B0E7     		b	.L930
 8705              	.L924:
 8706              		.loc 1 3577 0 is_stmt 1
 8707 0138 51F8046F 		ldr	r6, [r1, #4]!
 8708              		.loc 1 3578 0
 8709 013c 40F82450 		str	r5, [r0, r4, lsl #2]
 8710 0140 0134     		adds	r4, r4, #1
 8711              		.loc 1 3577 0
 8712 0142 002E     		cmp	r6, #0
 8713 0144 C9D0     		beq	.L921
 8714              		.loc 1 3577 0 is_stmt 0 discriminator 2
 8715 0146 51F8045F 		ldr	r5, [r1, #4]!
 8716              		.loc 1 3578 0 is_stmt 1 discriminator 2
 8717 014a 40F82460 		str	r6, [r0, r4, lsl #2]
 8718 014e 0134     		adds	r4, r4, #1
 8719              		.loc 1 3577 0 discriminator 2
 8720 0150 002D     		cmp	r5, #0
 8721 0152 C2D0     		beq	.L921
 8722              	.L947:
 8723              		.loc 1 3577 0 is_stmt 0
 8724 0154 9C42     		cmp	r4, r3
 8725 0156 EFD1     		bne	.L924
 8726 0158 9FE7     		b	.L930
 8727              	.LVL1097:
ARM GAS  /tmp/ccvHIMcj.s 			page 155


 8728              	.L964:
 8729              	.LBB88:
 8730              		.loc 1 3564 0 is_stmt 1
 8731 015a 40F82540 		str	r4, [r0, r5, lsl #2]
 8732 015e 85E7     		b	.L965
 8733              	.LVL1098:
 8734              	.L967:
 8735              		.loc 1 3556 0
 8736 0160 51F8047B 		ldr	r7, [r1], #4
 8737              	.LVL1099:
 8738              		.loc 1 3557 0
 8739 0164 F400     		lsls	r4, r6, #3
 8740              	.LVL1100:
 8741 0166 57FA04F4 		asrs	r4, r7, r4
 8742 016a E4B2     		uxtb	r4, r4
 8743              		.loc 1 3558 0
 8744 016c 002C     		cmp	r4, #0
 8745 016e 7FF47AAF 		bne	.L972
 8746              	.LVL1101:
 8747              	.L916:
 8748              	.LBE88:
 8749              		.loc 1 3580 0
 8750 0172 4446     		mov	r4, r8
 8751              		.loc 1 3586 0
 8752 0174 A342     		cmp	r3, r4
 8753 0176 B2D8     		bhi	.L966
 8754 0178 8FE7     		b	.L930
 8755              	.LVL1102:
 8756              	.L962:
 8757              	.LBB89:
 8758              		.loc 1 3564 0
 8759 017a 40F82C40 		str	r4, [r0, ip, lsl #2]
 8760 017e 59E7     		b	.L963
 8761              	.LVL1103:
 8762              	.L931:
 8763              	.LBE89:
 8764              		.loc 1 3580 0
 8765 0180 1446     		mov	r4, r2
 8766 0182 AAE7     		b	.L921
 8767              		.cfi_endproc
 8768              	.LFE42:
 8769              		.size	amx_GetString, .-amx_GetString
 8770 0184 AFF30080 		.section	.text.amx_UTF8Get,"ax",%progbits
 8770      AFF30080 
 8770      AFF30080 
 8771              		.align	2
 8772              		.p2align 4,,15
 8773              		.global	amx_UTF8Get
 8774              		.thumb
 8775              		.thumb_func
 8776              		.type	amx_UTF8Get, %function
 8777              	amx_UTF8Get:
 8778              	.LFB43:
 8779              		.loc 1 3614 0
 8780              		.cfi_startproc
 8781              		@ args = 0, pretend = 0, frame = 0
 8782              		@ frame_needed = 0, uses_anonymous_args = 0
ARM GAS  /tmp/ccvHIMcj.s 			page 156


 8783              		@ link register save eliminated.
 8784              	.LVL1104:
 8785 0000 70B4     		push	{r4, r5, r6}
 8786              	.LCFI37:
 8787              		.cfi_def_cfa_offset 12
 8788              		.loc 1 3622 0
 8789 0002 0AB1     		cbz	r2, .L974
 8790              		.cfi_offset 6, -4
 8791              		.cfi_offset 5, -8
 8792              		.cfi_offset 4, -12
 8793              		.loc 1 3623 0
 8794 0004 0023     		movs	r3, #0
 8795 0006 1360     		str	r3, [r2, #0]
 8796              	.L974:
 8797              		.loc 1 3624 0
 8798 0008 01B1     		cbz	r1, .L975
 8799              		.loc 1 3625 0
 8800 000a 0860     		str	r0, [r1, #0]
 8801              	.L975:
 8802              		.loc 1 3627 0
 8803 000c 0346     		mov	r3, r0
 8804 000e 13F8014B 		ldrb	r4, [r3], #1	@ zero_extendqisi2
 8805              	.LVL1105:
 8806              		.loc 1 3628 0
 8807 0012 14F0800F 		tst	r4, #128
 8808 0016 07D1     		bne	.L999
 8809              	.LVL1106:
 8810              	.L977:
 8811              		.loc 1 3678 0
 8812 0018 02B1     		cbz	r2, .L986
 8813              		.loc 1 3679 0
 8814 001a 1460     		str	r4, [r2, #0]
 8815              	.L986:
 8816              		.loc 1 3680 0
 8817 001c 0029     		cmp	r1, #0
 8818 001e 60D0     		beq	.L997
 8819              		.loc 1 3681 0
 8820 0020 0B60     		str	r3, [r1, #0]
 8821              		.loc 1 3683 0
 8822 0022 0020     		movs	r0, #0
 8823              	.LVL1107:
 8824              	.L978:
 8825              		.loc 1 3687 0
 8826 0024 70BC     		pop	{r4, r5, r6}
 8827 0026 7047     		bx	lr
 8828              	.LVL1108:
 8829              	.L999:
 8830              		.loc 1 3632 0
 8831 0028 04F14005 		add	r5, r4, #64
 8832 002c EDB2     		uxtb	r5, r5
 8833 002e 3D2D     		cmp	r5, #61
 8834 0030 3CD8     		bhi	.L996
 8835              		.loc 1 3641 0
 8836 0032 2D4D     		ldr	r5, .L1001
 8837 0034 C4F3830C 		ubfx	ip, r4, #2, #4
 8838 0038 15F80C50 		ldrb	r5, [r5, ip]	@ zero_extendqisi2
 8839              	.LVL1109:
ARM GAS  /tmp/ccvHIMcj.s 			page 157


 8840              		.loc 1 3646 0
 8841 003c 1F26     		movs	r6, #31
 8842 003e 2E41     		asrs	r6, r6, r5
 8843 0040 06EA0404 		and	r4, r6, r4
 8844              	.LVL1110:
 8845              		.loc 1 3651 0
 8846 0044 042D     		cmp	r5, #4
 8847 0046 38D8     		bhi	.L979
 8848 0048 DFE805F0 		tbb	[pc, r5]
 8849              	.L985:
 8850 004c 2B       		.byte	(.L980-.L985)/2
 8851 004d 21       		.byte	(.L981-.L985)/2
 8852 004e 17       		.byte	(.L982-.L985)/2
 8853 004f 0D       		.byte	(.L983-.L985)/2
 8854 0050 03       		.byte	(.L984-.L985)/2
 8855 0051 00       		.align	1
 8856              	.L984:
 8857              	.LVL1111:
 8858              		.loc 1 3653 0
 8859 0052 4078     		ldrb	r0, [r0, #1]	@ zero_extendqisi2
 8860              	.LVL1112:
 8861 0054 00F0C006 		and	r6, r0, #192
 8862 0058 802E     		cmp	r6, #128
 8863 005a 27D1     		bne	.L996
 8864              		.loc 1 3654 0
 8865 005c 00F03F00 		and	r0, r0, #63
 8866              		.loc 1 3653 0
 8867 0060 0133     		adds	r3, r3, #1
 8868              	.LVL1113:
 8869              		.loc 1 3654 0
 8870 0062 40EA8414 		orr	r4, r0, r4, lsl #6
 8871              	.LVL1114:
 8872              	.L983:
 8873              		.loc 1 3656 0
 8874 0066 1878     		ldrb	r0, [r3, #0]	@ zero_extendqisi2
 8875              	.LVL1115:
 8876 0068 00F0C006 		and	r6, r0, #192
 8877 006c 802E     		cmp	r6, #128
 8878 006e 1DD1     		bne	.L996
 8879              		.loc 1 3657 0
 8880 0070 00F03F06 		and	r6, r0, #63
 8881              		.loc 1 3656 0
 8882 0074 0133     		adds	r3, r3, #1
 8883              	.LVL1116:
 8884              		.loc 1 3657 0
 8885 0076 46EA8414 		orr	r4, r6, r4, lsl #6
 8886              	.LVL1117:
 8887              	.L982:
 8888              		.loc 1 3659 0
 8889 007a 1878     		ldrb	r0, [r3, #0]	@ zero_extendqisi2
 8890              	.LVL1118:
 8891 007c 00F0C006 		and	r6, r0, #192
 8892 0080 802E     		cmp	r6, #128
 8893 0082 13D1     		bne	.L996
 8894              		.loc 1 3660 0
 8895 0084 00F03F0C 		and	ip, r0, #63
 8896              		.loc 1 3659 0
ARM GAS  /tmp/ccvHIMcj.s 			page 158


 8897 0088 0133     		adds	r3, r3, #1
 8898              	.LVL1119:
 8899              		.loc 1 3660 0
 8900 008a 4CEA8414 		orr	r4, ip, r4, lsl #6
 8901              	.LVL1120:
 8902              	.L981:
 8903              		.loc 1 3662 0
 8904 008e 1878     		ldrb	r0, [r3, #0]	@ zero_extendqisi2
 8905              	.LVL1121:
 8906 0090 00F0C006 		and	r6, r0, #192
 8907 0094 802E     		cmp	r6, #128
 8908 0096 09D1     		bne	.L996
 8909              		.loc 1 3663 0
 8910 0098 00F03F00 		and	r0, r0, #63
 8911              		.loc 1 3662 0
 8912 009c 0133     		adds	r3, r3, #1
 8913              	.LVL1122:
 8914              		.loc 1 3663 0
 8915 009e 40EA8414 		orr	r4, r0, r4, lsl #6
 8916              	.LVL1123:
 8917              	.L980:
 8918              		.loc 1 3665 0
 8919 00a2 1878     		ldrb	r0, [r3, #0]	@ zero_extendqisi2
 8920              	.LVL1124:
 8921 00a4 00F0C006 		and	r6, r0, #192
 8922 00a8 802E     		cmp	r6, #128
 8923 00aa 01D0     		beq	.L1000
 8924              	.LVL1125:
 8925              	.L996:
 8926              		.loc 1 3686 0
 8927 00ac 1920     		movs	r0, #25
 8928 00ae B9E7     		b	.L978
 8929              	.LVL1126:
 8930              	.L1000:
 8931              		.loc 1 3666 0
 8932 00b0 00F03F0C 		and	ip, r0, #63
 8933              		.loc 1 3665 0
 8934 00b4 0133     		adds	r3, r3, #1
 8935              	.LVL1127:
 8936              		.loc 1 3666 0
 8937 00b6 4CEA8414 		orr	r4, ip, r4, lsl #6
 8938              	.LVL1128:
 8939              	.L979:
 8940              		.loc 1 3672 0
 8941 00ba 0C48     		ldr	r0, .L1001+4
 8942 00bc 50F82500 		ldr	r0, [r0, r5, lsl #2]
 8943 00c0 8442     		cmp	r4, r0
 8944 00c2 F3DB     		blt	.L996
 8945              		.loc 1 3674 0
 8946 00c4 A4F5584C 		sub	ip, r4, #55296
 8947 00c8 BCF5006F 		cmp	ip, #2048
 8948 00cc EED3     		bcc	.L996
 8949              		.loc 1 3674 0 is_stmt 0 discriminator 1
 8950 00ce 4FF6FE70 		movw	r0, #65534
 8951 00d2 8442     		cmp	r4, r0
 8952 00d4 EAD0     		beq	.L996
 8953 00d6 4FF6FF7C 		movw	ip, #65535
ARM GAS  /tmp/ccvHIMcj.s 			page 159


 8954 00da 6445     		cmp	r4, ip
 8955 00dc 9CD1     		bne	.L977
 8956              		.loc 1 3686 0 is_stmt 1
 8957 00de 1920     		movs	r0, #25
 8958 00e0 A0E7     		b	.L978
 8959              	.LVL1129:
 8960              	.L997:
 8961              		.loc 1 3683 0
 8962 00e2 0846     		mov	r0, r1
 8963 00e4 9EE7     		b	.L978
 8964              	.L1002:
 8965 00e6 00BF     		.align	2
 8966              	.L1001:
 8967 00e8 00000000 		.word	.LANCHOR1
 8968 00ec 00000000 		.word	.LANCHOR2
 8969              		.cfi_endproc
 8970              	.LFE43:
 8971              		.size	amx_UTF8Get, .-amx_UTF8Get
 8972              		.section	.text.amx_UTF8Put,"ax",%progbits
 8973              		.align	2
 8974              		.p2align 4,,15
 8975              		.global	amx_UTF8Put
 8976              		.thumb
 8977              		.thumb_func
 8978              		.type	amx_UTF8Put, %function
 8979              	amx_UTF8Put:
 8980              	.LFB44:
 8981              		.loc 1 3697 0
 8982              		.cfi_startproc
 8983              		@ args = 0, pretend = 0, frame = 0
 8984              		@ frame_needed = 0, uses_anonymous_args = 0
 8985              		@ link register save eliminated.
 8986              	.LVL1130:
 8987 0000 2DE9F003 		push	{r4, r5, r6, r7, r8, r9}
 8988              	.LCFI38:
 8989              		.cfi_def_cfa_offset 24
 8990              		.loc 1 3699 0
 8991 0004 01B1     		cbz	r1, .L1004
 8992              		.cfi_offset 9, -4
 8993              		.cfi_offset 8, -8
 8994              		.cfi_offset 7, -12
 8995              		.cfi_offset 6, -16
 8996              		.cfi_offset 5, -20
 8997              		.cfi_offset 4, -24
 8998              		.loc 1 3700 0
 8999 0006 0860     		str	r0, [r1, #0]
 9000              	.L1004:
 9001              		.loc 1 3702 0
 9002 0008 7F2B     		cmp	r3, #127
 9003 000a 0ADC     		bgt	.L1005
 9004              		.loc 1 3704 0
 9005 000c 002A     		cmp	r2, #0
 9006 000e 22DD     		ble	.L1020
 9007              		.loc 1 3705 0
 9008 0010 00F8013B 		strb	r3, [r0], #1
 9009              	.LVL1131:
 9010              	.L1007:
ARM GAS  /tmp/ccvHIMcj.s 			page 160


 9011              		.loc 1 3745 0
 9012 0014 0029     		cmp	r1, #0
 9013 0016 20D0     		beq	.L1021
 9014              		.loc 1 3746 0
 9015 0018 0860     		str	r0, [r1, #0]
 9016              		.loc 1 3747 0
 9017 001a 0020     		movs	r0, #0
 9018              	.LVL1132:
 9019              	.L1006:
 9020              		.loc 1 3751 0
 9021 001c BDE8F003 		pop	{r4, r5, r6, r7, r8, r9}
 9022 0020 7047     		bx	lr
 9023              	.LVL1133:
 9024              	.L1005:
 9025              		.loc 1 3706 0
 9026 0022 40F2FF74 		movw	r4, #2047
 9027 0026 A342     		cmp	r3, r4
 9028 0028 0FDC     		bgt	.L1008
 9029              		.loc 1 3708 0
 9030 002a 012A     		cmp	r2, #1
 9031 002c 13DD     		ble	.L1020
 9032              		.loc 1 3709 0
 9033 002e C3F38414 		ubfx	r4, r3, #6, #5
 9034 0032 0246     		mov	r2, r0
 9035              	.LVL1134:
 9036 0034 64F03F04 		orn	r4, r4, #63
 9037              		.loc 1 3710 0
 9038 0038 03F03F0C 		and	ip, r3, #63
 9039              		.loc 1 3709 0
 9040 003c 02F8014B 		strb	r4, [r2], #1
 9041              	.LVL1135:
 9042              		.loc 1 3710 0
 9043 0040 6CF07F03 		orn	r3, ip, #127
 9044              	.LVL1136:
 9045 0044 4370     		strb	r3, [r0, #1]
 9046 0046 501C     		adds	r0, r2, #1
 9047              	.LVL1137:
 9048 0048 E4E7     		b	.L1007
 9049              	.LVL1138:
 9050              	.L1008:
 9051              		.loc 1 3711 0
 9052 004a 4FF6FF75 		movw	r5, #65535
 9053 004e AB42     		cmp	r3, r5
 9054 0050 22DC     		bgt	.L1009
 9055              		.loc 1 3713 0
 9056 0052 022A     		cmp	r2, #2
 9057 0054 03DC     		bgt	.L1022
 9058              	.LVL1139:
 9059              	.L1020:
 9060              		.loc 1 3750 0
 9061 0056 1920     		movs	r0, #25
 9062              	.LVL1140:
 9063 0058 E0E7     		b	.L1006
 9064              	.LVL1141:
 9065              	.L1021:
 9066              		.loc 1 3747 0
 9067 005a 0846     		mov	r0, r1
ARM GAS  /tmp/ccvHIMcj.s 			page 161


 9068              	.LVL1142:
 9069 005c DEE7     		b	.L1006
 9070              	.LVL1143:
 9071              	.L1022:
 9072              		.loc 1 3714 0
 9073 005e A3F55842 		sub	r2, r3, #55296
 9074              	.LVL1144:
 9075 0062 A242     		cmp	r2, r4
 9076 0064 F7D9     		bls	.L1020
 9077              		.loc 1 3714 0 is_stmt 0 discriminator 1
 9078 0066 4FF6FE7C 		movw	ip, #65534
 9079 006a 6345     		cmp	r3, ip
 9080 006c F3D0     		beq	.L1020
 9081 006e AB42     		cmp	r3, r5
 9082 0070 F1D0     		beq	.L1020
 9083              		.loc 1 3716 0 is_stmt 1
 9084 0072 C3F30335 		ubfx	r5, r3, #12, #4
 9085 0076 0246     		mov	r2, r0
 9086              		.loc 1 3717 0
 9087 0078 C3F38514 		ubfx	r4, r3, #6, #6
 9088              		.loc 1 3716 0
 9089 007c 65F01F05 		orn	r5, r5, #31
 9090              		.loc 1 3718 0
 9091 0080 03F03F0C 		and	ip, r3, #63
 9092              		.loc 1 3716 0
 9093 0084 02F8015B 		strb	r5, [r2], #1
 9094              	.LVL1145:
 9095              		.loc 1 3717 0
 9096 0088 64F07F04 		orn	r4, r4, #127
 9097              		.loc 1 3718 0
 9098 008c 6CF07F03 		orn	r3, ip, #127
 9099              	.LVL1146:
 9100              		.loc 1 3717 0
 9101 0090 4470     		strb	r4, [r0, #1]
 9102              		.loc 1 3718 0
 9103 0092 901C     		adds	r0, r2, #2
 9104              	.LVL1147:
 9105 0094 5370     		strb	r3, [r2, #1]
 9106 0096 BDE7     		b	.L1007
 9107              	.LVL1148:
 9108              	.L1009:
 9109              		.loc 1 3719 0
 9110 0098 B3F5001F 		cmp	r3, #2097152
 9111 009c 19DA     		bge	.L1010
 9112              		.loc 1 3721 0
 9113 009e 032A     		cmp	r2, #3
 9114 00a0 D9DD     		ble	.L1020
 9115              		.loc 1 3722 0
 9116 00a2 C3F38244 		ubfx	r4, r3, #18, #3
 9117 00a6 0246     		mov	r2, r0
 9118              	.LVL1149:
 9119              		.loc 1 3723 0
 9120 00a8 C3F30536 		ubfx	r6, r3, #12, #6
 9121              		.loc 1 3724 0
 9122 00ac C3F38515 		ubfx	r5, r3, #6, #6
 9123              		.loc 1 3722 0
 9124 00b0 64F00F04 		orn	r4, r4, #15
ARM GAS  /tmp/ccvHIMcj.s 			page 162


 9125              		.loc 1 3725 0
 9126 00b4 03F03F0C 		and	ip, r3, #63
 9127              		.loc 1 3722 0
 9128 00b8 02F8014B 		strb	r4, [r2], #1
 9129              	.LVL1150:
 9130              		.loc 1 3723 0
 9131 00bc 66F07F06 		orn	r6, r6, #127
 9132              		.loc 1 3724 0
 9133 00c0 65F07F05 		orn	r5, r5, #127
 9134              		.loc 1 3725 0
 9135 00c4 6CF07F03 		orn	r3, ip, #127
 9136              	.LVL1151:
 9137              		.loc 1 3723 0
 9138 00c8 4670     		strb	r6, [r0, #1]
 9139              		.loc 1 3725 0
 9140 00ca D01C     		adds	r0, r2, #3
 9141              	.LVL1152:
 9142              		.loc 1 3724 0
 9143 00cc 5570     		strb	r5, [r2, #1]
 9144              		.loc 1 3725 0
 9145 00ce 9370     		strb	r3, [r2, #2]
 9146 00d0 A0E7     		b	.L1007
 9147              	.LVL1153:
 9148              	.L1010:
 9149              		.loc 1 3726 0
 9150 00d2 B3F1806F 		cmp	r3, #67108864
 9151 00d6 1FDA     		bge	.L1011
 9152              		.loc 1 3728 0
 9153 00d8 042A     		cmp	r2, #4
 9154 00da BCDD     		ble	.L1020
 9155              		.loc 1 3729 0
 9156 00dc C3F30164 		ubfx	r4, r3, #24, #2
 9157 00e0 0246     		mov	r2, r0
 9158              	.LVL1154:
 9159              		.loc 1 3730 0
 9160 00e2 C3F3854C 		ubfx	ip, r3, #18, #6
 9161              		.loc 1 3731 0
 9162 00e6 C3F30537 		ubfx	r7, r3, #12, #6
 9163              		.loc 1 3732 0
 9164 00ea C3F38516 		ubfx	r6, r3, #6, #6
 9165              		.loc 1 3729 0
 9166 00ee 64F00704 		orn	r4, r4, #7
 9167              		.loc 1 3733 0
 9168 00f2 03F03F03 		and	r3, r3, #63
 9169              	.LVL1155:
 9170              		.loc 1 3729 0
 9171 00f6 02F8014B 		strb	r4, [r2], #1
 9172              	.LVL1156:
 9173              		.loc 1 3730 0
 9174 00fa 6CF07F0C 		orn	ip, ip, #127
 9175              		.loc 1 3731 0
 9176 00fe 67F07F07 		orn	r7, r7, #127
 9177              		.loc 1 3732 0
 9178 0102 66F07F06 		orn	r6, r6, #127
 9179              		.loc 1 3733 0
 9180 0106 63F07F03 		orn	r3, r3, #127
 9181              		.loc 1 3730 0
ARM GAS  /tmp/ccvHIMcj.s 			page 163


 9182 010a 80F801C0 		strb	ip, [r0, #1]
 9183              		.loc 1 3733 0
 9184 010e 101D     		adds	r0, r2, #4
 9185              	.LVL1157:
 9186              		.loc 1 3731 0
 9187 0110 5770     		strb	r7, [r2, #1]
 9188              		.loc 1 3732 0
 9189 0112 9670     		strb	r6, [r2, #2]
 9190              		.loc 1 3733 0
 9191 0114 D370     		strb	r3, [r2, #3]
 9192 0116 7DE7     		b	.L1007
 9193              	.LVL1158:
 9194              	.L1011:
 9195              		.loc 1 3736 0
 9196 0118 052A     		cmp	r2, #5
 9197 011a 9CDD     		ble	.L1020
 9198              		.loc 1 3737 0
 9199 011c C3F38074 		ubfx	r4, r3, #30, #1
 9200 0120 0246     		mov	r2, r0
 9201              	.LVL1159:
 9202              		.loc 1 3738 0
 9203 0122 C3F30569 		ubfx	r9, r3, #24, #6
 9204              		.loc 1 3739 0
 9205 0126 C3F38548 		ubfx	r8, r3, #18, #6
 9206              		.loc 1 3740 0
 9207 012a C3F3053C 		ubfx	ip, r3, #12, #6
 9208              		.loc 1 3741 0
 9209 012e C3F38517 		ubfx	r7, r3, #6, #6
 9210              		.loc 1 3737 0
 9211 0132 64F00304 		orn	r4, r4, #3
 9212              		.loc 1 3742 0
 9213 0136 03F03F03 		and	r3, r3, #63
 9214              	.LVL1160:
 9215              		.loc 1 3737 0
 9216 013a 02F8014B 		strb	r4, [r2], #1
 9217              	.LVL1161:
 9218              		.loc 1 3738 0
 9219 013e 69F07F09 		orn	r9, r9, #127
 9220              		.loc 1 3739 0
 9221 0142 68F07F08 		orn	r8, r8, #127
 9222              		.loc 1 3740 0
 9223 0146 6CF07F0C 		orn	ip, ip, #127
 9224              		.loc 1 3741 0
 9225 014a 67F07F07 		orn	r7, r7, #127
 9226              		.loc 1 3742 0
 9227 014e 63F07F03 		orn	r3, r3, #127
 9228              		.loc 1 3738 0
 9229 0152 80F80190 		strb	r9, [r0, #1]
 9230              		.loc 1 3742 0
 9231 0156 501D     		adds	r0, r2, #5
 9232              		.loc 1 3739 0
 9233 0158 82F80180 		strb	r8, [r2, #1]
 9234              		.loc 1 3740 0
 9235 015c 82F802C0 		strb	ip, [r2, #2]
 9236              		.loc 1 3741 0
 9237 0160 D770     		strb	r7, [r2, #3]
 9238              		.loc 1 3742 0
ARM GAS  /tmp/ccvHIMcj.s 			page 164


 9239 0162 1371     		strb	r3, [r2, #4]
 9240              	.LVL1162:
 9241 0164 56E7     		b	.L1007
 9242              		.cfi_endproc
 9243              	.LFE44:
 9244              		.size	amx_UTF8Put, .-amx_UTF8Put
 9245 0166 00BFAFF3 		.section	.text.amx_UTF8Check,"ax",%progbits
 9245      0080AFF3 
 9245      0080
 9246              		.align	2
 9247              		.p2align 4,,15
 9248              		.global	amx_UTF8Check
 9249              		.thumb
 9250              		.thumb_func
 9251              		.type	amx_UTF8Check, %function
 9252              	amx_UTF8Check:
 9253              	.LFB45:
 9254              		.loc 1 3759 0
 9255              		.cfi_startproc
 9256              		@ args = 0, pretend = 0, frame = 8
 9257              		@ frame_needed = 0, uses_anonymous_args = 0
 9258              	.LVL1163:
 9259 0000 70B5     		push	{r4, r5, r6, lr}
 9260              	.LCFI39:
 9261              		.cfi_def_cfa_offset 16
 9262 0002 82B0     		sub	sp, sp, #8
 9263              	.LCFI40:
 9264              		.cfi_def_cfa_offset 24
 9265              		.loc 1 3759 0
 9266 0004 02AD     		add	r5, sp, #8
 9267              		.cfi_offset 14, -4
 9268              		.cfi_offset 6, -8
 9269              		.cfi_offset 5, -12
 9270              		.cfi_offset 4, -16
 9271 0006 45F8040D 		str	r0, [r5, #-4]!
 9272 000a 0E46     		mov	r6, r1
 9273              		.loc 1 3761 0
 9274 000c 0024     		movs	r4, #0
 9275              	.LVL1164:
 9276              	.L1024:
 9277              		.loc 1 3762 0 discriminator 2
 9278 000e 019B     		ldr	r3, [sp, #4]
 9279              		.loc 1 3763 0 discriminator 2
 9280 0010 2946     		mov	r1, r5
 9281 0012 1846     		mov	r0, r3
 9282              	.LVL1165:
 9283              		.loc 1 3762 0 discriminator 2
 9284 0014 1B78     		ldrb	r3, [r3, #0]	@ zero_extendqisi2
 9285              		.loc 1 3763 0 discriminator 2
 9286 0016 0022     		movs	r2, #0
 9287              		.loc 1 3762 0 discriminator 2
 9288 0018 43B1     		cbz	r3, .L1028
 9289              		.loc 1 3763 0
 9290 001a FFF7FEFF 		bl	amx_UTF8Get
 9291              	.LVL1166:
 9292              		.loc 1 3764 0
 9293 001e 0134     		adds	r4, r4, #1
ARM GAS  /tmp/ccvHIMcj.s 			page 165


 9294              	.LVL1167:
 9295              		.loc 1 3762 0
 9296 0020 0028     		cmp	r0, #0
 9297 0022 F4D0     		beq	.L1024
 9298              	.LVL1168:
 9299              	.L1025:
 9300              		.loc 1 3766 0
 9301 0024 06B1     		cbz	r6, .L1027
 9302              		.loc 1 3767 0
 9303 0026 3460     		str	r4, [r6, #0]
 9304              	.L1027:
 9305              		.loc 1 3769 0
 9306 0028 02B0     		add	sp, sp, #8
 9307 002a 70BD     		pop	{r4, r5, r6, pc}
 9308              	.L1028:
 9309              		.loc 1 3762 0
 9310 002c 1846     		mov	r0, r3
 9311 002e F9E7     		b	.L1025
 9312              		.cfi_endproc
 9313              	.LFE45:
 9314              		.size	amx_UTF8Check, .-amx_UTF8Check
 9315              		.section	.text.amx_UTF8Len,"ax",%progbits
 9316              		.align	2
 9317              		.p2align 4,,15
 9318              		.global	amx_UTF8Len
 9319              		.thumb
 9320              		.thumb_func
 9321              		.type	amx_UTF8Len, %function
 9322              	amx_UTF8Len:
 9323              	.LFB46:
 9324              		.loc 1 3777 0
 9325              		.cfi_startproc
 9326              		@ args = 0, pretend = 0, frame = 16
 9327              		@ frame_needed = 0, uses_anonymous_args = 0
 9328              	.LVL1169:
 9329 0000 2DE9F047 		push	{r4, r5, r6, r7, r8, r9, sl, lr}
 9330              	.LCFI41:
 9331              		.cfi_def_cfa_offset 32
 9332 0004 84B0     		sub	sp, sp, #16
 9333              	.LCFI42:
 9334              		.cfi_def_cfa_offset 48
 9335              		.loc 1 3777 0
 9336 0006 0546     		mov	r5, r0
 9337              		.cfi_offset 14, -4
 9338              		.cfi_offset 10, -8
 9339              		.cfi_offset 9, -12
 9340              		.cfi_offset 8, -16
 9341              		.cfi_offset 7, -20
 9342              		.cfi_offset 6, -24
 9343              		.cfi_offset 5, -28
 9344              		.cfi_offset 4, -32
 9345 0008 8A46     		mov	sl, r1
 9346              		.loc 1 3781 0
 9347 000a FFF7FEFF 		bl	amx_StrLen
 9348              	.LVL1170:
 9349              		.loc 1 3782 0
 9350 000e 8046     		mov	r8, r0
ARM GAS  /tmp/ccvHIMcj.s 			page 166


 9351 0010 E0B9     		cbnz	r0, .L1030
 9352              		.loc 1 3782 0 is_stmt 0 discriminator 1
 9353 0012 2B68     		ldr	r3, [r5, #0]
 9354 0014 B3F1807F 		cmp	r3, #16777216
 9355 0018 18D2     		bcs	.L1030
 9356              	.LBB90:
 9357              		.loc 1 3785 0 is_stmt 1
 9358 001a DAF80090 		ldr	r9, [sl, #0]
 9359              	.LVL1171:
 9360              		.loc 1 3786 0
 9361 001e B9F1000F 		cmp	r9, #0
 9362 0022 10DD     		ble	.L1033
 9363 0024 19F0010F 		tst	r9, #1
 9364              		.loc 1 3788 0
 9365 0028 6C46     		mov	r4, sp
 9366              	.LBE90:
 9367              		.loc 1 3776 0
 9368 002a 0646     		mov	r6, r0
 9369              		.loc 1 3785 0
 9370 002c 0746     		mov	r7, r0
 9371 002e 1ED1     		bne	.L1032
 9372              	.LVL1172:
 9373              	.LBB91:
 9374              		.loc 1 3787 0
 9375 0030 6846     		mov	r0, sp
 9376              	.LVL1173:
 9377 0032 03A9     		add	r1, sp, #12
 9378 0034 0A22     		movs	r2, #10
 9379 0036 FFF7FEFF 		bl	amx_UTF8Put
 9380              	.LVL1174:
 9381              		.loc 1 3788 0
 9382 003a 039F     		ldr	r7, [sp, #12]
 9383 003c 0126     		movs	r6, #1
 9384              	.LVL1175:
 9385 003e 3F1B     		subs	r7, r7, r4
 9386              	.LVL1176:
 9387              		.loc 1 3786 0
 9388 0040 55F8043F 		ldr	r3, [r5, #4]!
 9389 0044 13E0     		b	.L1032
 9390              	.LVL1177:
 9391              	.L1033:
 9392              		.loc 1 3785 0
 9393 0046 0746     		mov	r7, r0
 9394              		.loc 1 3790 0
 9395 0048 CAF80070 		str	r7, [sl, #0]
 9396              	.LVL1178:
 9397              	.L1030:
 9398              	.LBE91:
 9399              		.loc 1 3793 0
 9400 004c 4046     		mov	r0, r8
 9401              	.LVL1179:
 9402 004e 04B0     		add	sp, sp, #16
 9403 0050 BDE8F087 		pop	{r4, r5, r6, r7, r8, r9, sl, pc}
 9404              	.L1040:
 9405              	.LBB92:
 9406              		.loc 1 3787 0
 9407 0054 55F8043F 		ldr	r3, [r5, #4]!
ARM GAS  /tmp/ccvHIMcj.s 			page 167


 9408 0058 03A9     		add	r1, sp, #12
 9409 005a 0A22     		movs	r2, #10
 9410 005c 6846     		mov	r0, sp
 9411 005e FFF7FEFF 		bl	amx_UTF8Put
 9412              		.loc 1 3788 0
 9413 0062 039A     		ldr	r2, [sp, #12]
 9414              		.loc 1 3786 0
 9415 0064 55F8043F 		ldr	r3, [r5, #4]!
 9416              		.loc 1 3788 0
 9417 0068 111B     		subs	r1, r2, r4
 9418 006a 0136     		adds	r6, r6, #1
 9419 006c 7F18     		adds	r7, r7, r1
 9420              	.LVL1180:
 9421              	.L1032:
 9422              		.loc 1 3787 0
 9423 006e 0A22     		movs	r2, #10
 9424 0070 03A9     		add	r1, sp, #12
 9425 0072 6846     		mov	r0, sp
 9426 0074 FFF7FEFF 		bl	amx_UTF8Put
 9427              		.loc 1 3788 0
 9428 0078 0398     		ldr	r0, [sp, #12]
 9429 007a 0136     		adds	r6, r6, #1
 9430 007c 031B     		subs	r3, r0, r4
 9431              		.loc 1 3786 0
 9432 007e 4E45     		cmp	r6, r9
 9433              		.loc 1 3788 0
 9434 0080 1F44     		add	r7, r7, r3
 9435              		.loc 1 3786 0
 9436 0082 E7D1     		bne	.L1040
 9437              		.loc 1 3790 0
 9438 0084 CAF80070 		str	r7, [sl, #0]
 9439 0088 E0E7     		b	.L1030
 9440              	.LBE92:
 9441              		.cfi_endproc
 9442              	.LFE46:
 9443              		.size	amx_UTF8Len, .-amx_UTF8Len
 9444 008a 00BFAFF3 		.section	.bss.n.6308,"aw",%nobits
 9444      0080
 9445              		.align	2
 9446              		.set	.LANCHOR0,. + 0
 9447              		.type	n.6308, %object
 9448              		.size	n.6308, 8
 9449              	n.6308:
 9450 0000 00000000 		.space	8
 9450      00000000 
 9451              		.section	.rodata.utf8_count.6724,"a",%progbits
 9452              		.align	2
 9453              		.set	.LANCHOR1,. + 0
 9454              		.type	utf8_count.6724, %object
 9455              		.size	utf8_count.6724, 16
 9456              	utf8_count.6724:
 9457 0000 00       		.byte	0
 9458 0001 00       		.byte	0
 9459 0002 00       		.byte	0
 9460 0003 00       		.byte	0
 9461 0004 00       		.byte	0
 9462 0005 00       		.byte	0
ARM GAS  /tmp/ccvHIMcj.s 			page 168


 9463 0006 00       		.byte	0
 9464 0007 00       		.byte	0
 9465 0008 01       		.byte	1
 9466 0009 01       		.byte	1
 9467 000a 01       		.byte	1
 9468 000b 01       		.byte	1
 9469 000c 02       		.byte	2
 9470 000d 02       		.byte	2
 9471 000e 03       		.byte	3
 9472 000f 04       		.byte	4
 9473              		.section	.rodata.utf8_lowmark.6725,"a",%progbits
 9474              		.align	2
 9475              		.set	.LANCHOR2,. + 0
 9476              		.type	utf8_lowmark.6725, %object
 9477              		.size	utf8_lowmark.6725, 20
 9478              	utf8_lowmark.6725:
 9479 0000 80000000 		.word	128
 9480 0004 00080000 		.word	2048
 9481 0008 00000100 		.word	65536
 9482 000c 00002000 		.word	2097152
 9483 0010 00000004 		.word	67108864
 9484              		.text
 9485              	.Letext0:
 9486              		.section	.debug_loc,"",%progbits
 9487              	.Ldebug_loc0:
 9488              	.LLST0:
 9489 0000 00000000 		.4byte	.LFB4
 9490 0004 02000000 		.4byte	.LCFI0
 9491 0008 0200     		.2byte	0x2
 9492 000a 7D       		.byte	0x7d
 9493 000b 00       		.sleb128 0
 9494 000c 02000000 		.4byte	.LCFI0
 9495 0010 64000000 		.4byte	.LFE4
 9496 0014 0200     		.2byte	0x2
 9497 0016 7D       		.byte	0x7d
 9498 0017 18       		.sleb128 24
 9499 0018 00000000 		.4byte	0x0
 9500 001c 00000000 		.4byte	0x0
 9501              	.LLST1:
 9502 0020 00000000 		.4byte	.LVL0
 9503 0024 1C000000 		.4byte	.LVL3
 9504 0028 0100     		.2byte	0x1
 9505 002a 50       		.byte	0x50
 9506 002b 1C000000 		.4byte	.LVL3
 9507 002f 64000000 		.4byte	.LFE4
 9508 0033 0100     		.2byte	0x1
 9509 0035 54       		.byte	0x54
 9510 0036 00000000 		.4byte	0x0
 9511 003a 00000000 		.4byte	0x0
 9512              	.LLST2:
 9513 003e 00000000 		.4byte	.LVL0
 9514 0042 1C000000 		.4byte	.LVL3
 9515 0046 0100     		.2byte	0x1
 9516 0048 51       		.byte	0x51
 9517 0049 56000000 		.4byte	.LVL8
 9518 004d 5A000000 		.4byte	.LVL9
 9519 0051 0100     		.2byte	0x1
ARM GAS  /tmp/ccvHIMcj.s 			page 169


 9520 0053 51       		.byte	0x51
 9521 0054 5A000000 		.4byte	.LVL9
 9522 0058 64000000 		.4byte	.LFE4
 9523 005c 0400     		.2byte	0x4
 9524 005e 71       		.byte	0x71
 9525 005f 00       		.sleb128 0
 9526 0060 20       		.byte	0x20
 9527 0061 9F       		.byte	0x9f
 9528 0062 00000000 		.4byte	0x0
 9529 0066 00000000 		.4byte	0x0
 9530              	.LLST3:
 9531 006a 00000000 		.4byte	.LVL0
 9532 006e 0A000000 		.4byte	.LVL1
 9533 0072 0100     		.2byte	0x1
 9534 0074 52       		.byte	0x52
 9535 0075 0A000000 		.4byte	.LVL1
 9536 0079 64000000 		.4byte	.LFE4
 9537 007d 0100     		.2byte	0x1
 9538 007f 55       		.byte	0x55
 9539 0080 00000000 		.4byte	0x0
 9540 0084 00000000 		.4byte	0x0
 9541              	.LLST4:
 9542 0088 00000000 		.4byte	.LVL0
 9543 008c 4F000000 		.4byte	.LVL7-1
 9544 0090 0100     		.2byte	0x1
 9545 0092 53       		.byte	0x53
 9546 0093 56000000 		.4byte	.LVL8
 9547 0097 64000000 		.4byte	.LFE4
 9548 009b 0100     		.2byte	0x1
 9549 009d 53       		.byte	0x53
 9550 009e 00000000 		.4byte	0x0
 9551 00a2 00000000 		.4byte	0x0
 9552              	.LLST5:
 9553 00a6 0A000000 		.4byte	.LVL1
 9554 00aa 18000000 		.4byte	.LVL2
 9555 00ae 0100     		.2byte	0x1
 9556 00b0 52       		.byte	0x52
 9557 00b1 56000000 		.4byte	.LVL8
 9558 00b5 5E000000 		.4byte	.LVL10
 9559 00b9 0100     		.2byte	0x1
 9560 00bb 52       		.byte	0x52
 9561 00bc 00000000 		.4byte	0x0
 9562 00c0 00000000 		.4byte	0x0
 9563              	.LLST6:
 9564 00c4 1C000000 		.4byte	.LVL3
 9565 00c8 4F000000 		.4byte	.LVL7-1
 9566 00cc 0100     		.2byte	0x1
 9567 00ce 52       		.byte	0x52
 9568 00cf 5E000000 		.4byte	.LVL10
 9569 00d3 64000000 		.4byte	.LFE4
 9570 00d7 0700     		.2byte	0x7
 9571 00d9 71       		.byte	0x71
 9572 00da 00       		.sleb128 0
 9573 00db 32       		.byte	0x32
 9574 00dc 24       		.byte	0x24
 9575 00dd 70       		.byte	0x70
 9576 00de 00       		.sleb128 0
ARM GAS  /tmp/ccvHIMcj.s 			page 170


 9577 00df 22       		.byte	0x22
 9578 00e0 00000000 		.4byte	0x0
 9579 00e4 00000000 		.4byte	0x0
 9580              	.LLST7:
 9581 00e8 2A000000 		.4byte	.LVL4
 9582 00ec 32000000 		.4byte	.LVL5
 9583 00f0 0100     		.2byte	0x1
 9584 00f2 50       		.byte	0x50
 9585 00f3 32000000 		.4byte	.LVL5
 9586 00f7 38000000 		.4byte	.LVL6
 9587 00fb 0100     		.2byte	0x1
 9588 00fd 50       		.byte	0x50
 9589 00fe 00000000 		.4byte	0x0
 9590 0102 00000000 		.4byte	0x0
 9591              	.LLST8:
 9592 0106 00000000 		.4byte	.LFB5
 9593 010a 04000000 		.4byte	.LCFI1
 9594 010e 0200     		.2byte	0x2
 9595 0110 7D       		.byte	0x7d
 9596 0111 00       		.sleb128 0
 9597 0112 04000000 		.4byte	.LCFI1
 9598 0116 24000000 		.4byte	.LCFI2
 9599 011a 0200     		.2byte	0x2
 9600 011c 7D       		.byte	0x7d
 9601 011d 20       		.sleb128 32
 9602 011e 24000000 		.4byte	.LCFI2
 9603 0122 CA040000 		.4byte	.LFE5
 9604 0126 0200     		.2byte	0x2
 9605 0128 7D       		.byte	0x7d
 9606 0129 28       		.sleb128 40
 9607 012a 00000000 		.4byte	0x0
 9608 012e 00000000 		.4byte	0x0
 9609              	.LLST9:
 9610 0132 00000000 		.4byte	.LVL11
 9611 0136 8A030000 		.4byte	.LVL30
 9612 013a 0100     		.2byte	0x1
 9613 013c 50       		.byte	0x50
 9614 013d 8C030000 		.4byte	.LVL31
 9615 0141 A4030000 		.4byte	.LVL37
 9616 0145 0100     		.2byte	0x1
 9617 0147 50       		.byte	0x50
 9618 0148 A6030000 		.4byte	.LVL38
 9619 014c B0030000 		.4byte	.LVL39
 9620 0150 0100     		.2byte	0x1
 9621 0152 50       		.byte	0x50
 9622 0153 B8030000 		.4byte	.LVL40
 9623 0157 CC030000 		.4byte	.LVL43
 9624 015b 0100     		.2byte	0x1
 9625 015d 50       		.byte	0x50
 9626 015e CE030000 		.4byte	.LVL44
 9627 0162 C8040000 		.4byte	.LVL102
 9628 0166 0100     		.2byte	0x1
 9629 0168 50       		.byte	0x50
 9630 0169 00000000 		.4byte	0x0
 9631 016d 00000000 		.4byte	0x0
 9632              	.LLST10:
 9633 0171 0A000000 		.4byte	.LVL12
ARM GAS  /tmp/ccvHIMcj.s 			page 171


 9634 0175 56000000 		.4byte	.LVL17
 9635 0179 0100     		.2byte	0x1
 9636 017b 53       		.byte	0x53
 9637 017c C0040000 		.4byte	.LVL100
 9638 0180 C6040000 		.4byte	.LVL101
 9639 0184 0100     		.2byte	0x1
 9640 0186 53       		.byte	0x53
 9641 0187 00000000 		.4byte	0x0
 9642 018b 00000000 		.4byte	0x0
 9643              	.LLST11:
 9644 018f 62000000 		.4byte	.LVL18
 9645 0193 6A000000 		.4byte	.LVL19
 9646 0197 0500     		.2byte	0x5
 9647 0199 73       		.byte	0x73
 9648 019a 00       		.sleb128 0
 9649 019b 74       		.byte	0x74
 9650 019c 00       		.sleb128 0
 9651 019d 22       		.byte	0x22
 9652 019e 6A000000 		.4byte	.LVL19
 9653 01a2 38030000 		.4byte	.LVL21
 9654 01a6 0500     		.2byte	0x5
 9655 01a8 73       		.byte	0x73
 9656 01a9 00       		.sleb128 0
 9657 01aa 71       		.byte	0x71
 9658 01ab 00       		.sleb128 0
 9659 01ac 22       		.byte	0x22
 9660 01ad 8C030000 		.4byte	.LVL31
 9661 01b1 B0030000 		.4byte	.LVL39
 9662 01b5 0100     		.2byte	0x1
 9663 01b7 57       		.byte	0x57
 9664 01b8 B8030000 		.4byte	.LVL40
 9665 01bc BA030000 		.4byte	.LVL41
 9666 01c0 0100     		.2byte	0x1
 9667 01c2 57       		.byte	0x57
 9668 01c3 BA030000 		.4byte	.LVL41
 9669 01c7 C4030000 		.4byte	.LVL42
 9670 01cb 0500     		.2byte	0x5
 9671 01cd 73       		.byte	0x73
 9672 01ce 00       		.sleb128 0
 9673 01cf 71       		.byte	0x71
 9674 01d0 00       		.sleb128 0
 9675 01d1 22       		.byte	0x22
 9676 01d2 CE030000 		.4byte	.LVL44
 9677 01d6 D0030000 		.4byte	.LVL45
 9678 01da 0100     		.2byte	0x1
 9679 01dc 57       		.byte	0x57
 9680 01dd D0030000 		.4byte	.LVL45
 9681 01e1 DC030000 		.4byte	.LVL47
 9682 01e5 0500     		.2byte	0x5
 9683 01e7 73       		.byte	0x73
 9684 01e8 00       		.sleb128 0
 9685 01e9 71       		.byte	0x71
 9686 01ea 00       		.sleb128 0
 9687 01eb 22       		.byte	0x22
 9688 01ec DC030000 		.4byte	.LVL47
 9689 01f0 DE030000 		.4byte	.LVL48
 9690 01f4 0800     		.2byte	0x8
ARM GAS  /tmp/ccvHIMcj.s 			page 172


 9691 01f6 73       		.byte	0x73
 9692 01f7 00       		.sleb128 0
 9693 01f8 74       		.byte	0x74
 9694 01f9 00       		.sleb128 0
 9695 01fa 22       		.byte	0x22
 9696 01fb 09       		.byte	0x9
 9697 01fc FC       		.byte	0xfc
 9698 01fd 22       		.byte	0x22
 9699 01fe DE030000 		.4byte	.LVL48
 9700 0202 1A040000 		.4byte	.LVL63
 9701 0206 0100     		.2byte	0x1
 9702 0208 57       		.byte	0x57
 9703 0209 1A040000 		.4byte	.LVL63
 9704 020d 34040000 		.4byte	.LVL68
 9705 0211 0500     		.2byte	0x5
 9706 0213 73       		.byte	0x73
 9707 0214 00       		.sleb128 0
 9708 0215 71       		.byte	0x71
 9709 0216 00       		.sleb128 0
 9710 0217 22       		.byte	0x22
 9711 0218 34040000 		.4byte	.LVL68
 9712 021c 36040000 		.4byte	.LVL69
 9713 0220 0800     		.2byte	0x8
 9714 0222 73       		.byte	0x73
 9715 0223 00       		.sleb128 0
 9716 0224 74       		.byte	0x74
 9717 0225 00       		.sleb128 0
 9718 0226 22       		.byte	0x22
 9719 0227 09       		.byte	0x9
 9720 0228 FC       		.byte	0xfc
 9721 0229 22       		.byte	0x22
 9722 022a 36040000 		.4byte	.LVL69
 9723 022e 60040000 		.4byte	.LVL79
 9724 0232 0100     		.2byte	0x1
 9725 0234 57       		.byte	0x57
 9726 0235 60040000 		.4byte	.LVL79
 9727 0239 64040000 		.4byte	.LVL80
 9728 023d 0800     		.2byte	0x8
 9729 023f 73       		.byte	0x73
 9730 0240 00       		.sleb128 0
 9731 0241 74       		.byte	0x74
 9732 0242 00       		.sleb128 0
 9733 0243 22       		.byte	0x22
 9734 0244 09       		.byte	0x9
 9735 0245 FC       		.byte	0xfc
 9736 0246 22       		.byte	0x22
 9737 0247 64040000 		.4byte	.LVL80
 9738 024b 68040000 		.4byte	.LVL82
 9739 024f 0500     		.2byte	0x5
 9740 0251 73       		.byte	0x73
 9741 0252 00       		.sleb128 0
 9742 0253 71       		.byte	0x71
 9743 0254 00       		.sleb128 0
 9744 0255 22       		.byte	0x22
 9745 0256 68040000 		.4byte	.LVL82
 9746 025a 74040000 		.4byte	.LVL83
 9747 025e 0800     		.2byte	0x8
ARM GAS  /tmp/ccvHIMcj.s 			page 173


 9748 0260 73       		.byte	0x73
 9749 0261 00       		.sleb128 0
 9750 0262 74       		.byte	0x74
 9751 0263 00       		.sleb128 0
 9752 0264 22       		.byte	0x22
 9753 0265 09       		.byte	0x9
 9754 0266 FC       		.byte	0xfc
 9755 0267 22       		.byte	0x22
 9756 0268 74040000 		.4byte	.LVL83
 9757 026c C0040000 		.4byte	.LVL100
 9758 0270 0100     		.2byte	0x1
 9759 0272 57       		.byte	0x57
 9760 0273 00000000 		.4byte	0x0
 9761 0277 00000000 		.4byte	0x0
 9762              	.LLST12:
 9763 027b 52000000 		.4byte	.LVL16
 9764 027f 56000000 		.4byte	.LVL17
 9765 0283 0200     		.2byte	0x2
 9766 0285 30       		.byte	0x30
 9767 0286 9F       		.byte	0x9f
 9768 0287 56000000 		.4byte	.LVL17
 9769 028b 6A000000 		.4byte	.LVL19
 9770 028f 0100     		.2byte	0x1
 9771 0291 54       		.byte	0x54
 9772 0292 6C000000 		.4byte	.LVL20
 9773 0296 38030000 		.4byte	.LVL21
 9774 029a 0100     		.2byte	0x1
 9775 029c 54       		.byte	0x54
 9776 029d 38030000 		.4byte	.LVL21
 9777 02a1 68030000 		.4byte	.LVL27
 9778 02a5 0200     		.2byte	0x2
 9779 02a7 91       		.byte	0x91
 9780 02a8 5C       		.sleb128 -36
 9781 02a9 6A030000 		.4byte	.LVL28
 9782 02ad 9A030000 		.4byte	.LVL35
 9783 02b1 0100     		.2byte	0x1
 9784 02b3 54       		.byte	0x54
 9785 02b4 9A030000 		.4byte	.LVL35
 9786 02b8 A2030000 		.4byte	.LVL36
 9787 02bc 0100     		.2byte	0x1
 9788 02be 54       		.byte	0x54
 9789 02bf A6030000 		.4byte	.LVL38
 9790 02c3 B0030000 		.4byte	.LVL39
 9791 02c7 0100     		.2byte	0x1
 9792 02c9 54       		.byte	0x54
 9793 02ca B8030000 		.4byte	.LVL40
 9794 02ce C4030000 		.4byte	.LVL42
 9795 02d2 0100     		.2byte	0x1
 9796 02d4 54       		.byte	0x54
 9797 02d5 CE030000 		.4byte	.LVL44
 9798 02d9 DE030000 		.4byte	.LVL48
 9799 02dd 0100     		.2byte	0x1
 9800 02df 54       		.byte	0x54
 9801 02e0 DE030000 		.4byte	.LVL48
 9802 02e4 E6030000 		.4byte	.LVL49
 9803 02e8 0E00     		.2byte	0xe
 9804 02ea 73       		.byte	0x73
ARM GAS  /tmp/ccvHIMcj.s 			page 174


 9805 02eb 00       		.sleb128 0
 9806 02ec 31       		.byte	0x31
 9807 02ed 24       		.byte	0x24
 9808 02ee 23       		.byte	0x23
 9809 02ef 01       		.uleb128 0x1
 9810 02f0 32       		.byte	0x32
 9811 02f1 24       		.byte	0x24
 9812 02f2 74       		.byte	0x74
 9813 02f3 00       		.sleb128 0
 9814 02f4 22       		.byte	0x22
 9815 02f5 23       		.byte	0x23
 9816 02f6 04       		.uleb128 0x4
 9817 02f7 9F       		.byte	0x9f
 9818 02f8 EA030000 		.4byte	.LVL50
 9819 02fc F0030000 		.4byte	.LVL52
 9820 0300 0100     		.2byte	0x1
 9821 0302 54       		.byte	0x54
 9822 0303 F6030000 		.4byte	.LVL53
 9823 0307 FA030000 		.4byte	.LVL55
 9824 030b 0100     		.2byte	0x1
 9825 030d 54       		.byte	0x54
 9826 030e FC030000 		.4byte	.LVL56
 9827 0312 08040000 		.4byte	.LVL59
 9828 0316 0100     		.2byte	0x1
 9829 0318 55       		.byte	0x55
 9830 0319 08040000 		.4byte	.LVL59
 9831 031d 2A040000 		.4byte	.LVL65
 9832 0321 0200     		.2byte	0x2
 9833 0323 91       		.byte	0x91
 9834 0324 5C       		.sleb128 -36
 9835 0325 2A040000 		.4byte	.LVL65
 9836 0329 2C040000 		.4byte	.LVL66
 9837 032d 0100     		.2byte	0x1
 9838 032f 54       		.byte	0x54
 9839 0330 2C040000 		.4byte	.LVL66
 9840 0334 40040000 		.4byte	.LVL71
 9841 0338 0100     		.2byte	0x1
 9842 033a 54       		.byte	0x54
 9843 033b 40040000 		.4byte	.LVL71
 9844 033f 4E040000 		.4byte	.LVL74
 9845 0343 0100     		.2byte	0x1
 9846 0345 54       		.byte	0x54
 9847 0346 4E040000 		.4byte	.LVL74
 9848 034a 5C040000 		.4byte	.LVL77
 9849 034e 0100     		.2byte	0x1
 9850 0350 54       		.byte	0x54
 9851 0351 5C040000 		.4byte	.LVL77
 9852 0355 64040000 		.4byte	.LVL80
 9853 0359 0100     		.2byte	0x1
 9854 035b 54       		.byte	0x54
 9855 035c 64040000 		.4byte	.LVL80
 9856 0360 7E040000 		.4byte	.LVL85
 9857 0364 0100     		.2byte	0x1
 9858 0366 54       		.byte	0x54
 9859 0367 7E040000 		.4byte	.LVL85
 9860 036b 80040000 		.4byte	.LVL86
 9861 036f 0300     		.2byte	0x3
ARM GAS  /tmp/ccvHIMcj.s 			page 175


 9862 0371 74       		.byte	0x74
 9863 0372 78       		.sleb128 -8
 9864 0373 9F       		.byte	0x9f
 9865 0374 80040000 		.4byte	.LVL86
 9866 0378 9C040000 		.4byte	.LVL90
 9867 037c 0100     		.2byte	0x1
 9868 037e 54       		.byte	0x54
 9869 037f 9C040000 		.4byte	.LVL90
 9870 0383 9E040000 		.4byte	.LVL91
 9871 0387 0300     		.2byte	0x3
 9872 0389 74       		.byte	0x74
 9873 038a 78       		.sleb128 -8
 9874 038b 9F       		.byte	0x9f
 9875 038c 9E040000 		.4byte	.LVL91
 9876 0390 A6040000 		.4byte	.LVL93
 9877 0394 0100     		.2byte	0x1
 9878 0396 54       		.byte	0x54
 9879 0397 A6040000 		.4byte	.LVL93
 9880 039b AA040000 		.4byte	.LVL95
 9881 039f 0100     		.2byte	0x1
 9882 03a1 54       		.byte	0x54
 9883 03a2 AA040000 		.4byte	.LVL95
 9884 03a6 C0040000 		.4byte	.LVL100
 9885 03aa 0100     		.2byte	0x1
 9886 03ac 54       		.byte	0x54
 9887 03ad C6040000 		.4byte	.LVL101
 9888 03b1 CA040000 		.4byte	.LFE5
 9889 03b5 0100     		.2byte	0x1
 9890 03b7 54       		.byte	0x54
 9891 03b8 00000000 		.4byte	0x0
 9892 03bc 00000000 		.4byte	0x0
 9893              	.LLST13:
 9894 03c0 3C030000 		.4byte	.LVL22
 9895 03c4 3E030000 		.4byte	.LVL23
 9896 03c8 0300     		.2byte	0x3
 9897 03ca 77       		.byte	0x77
 9898 03cb 7C       		.sleb128 -4
 9899 03cc 9F       		.byte	0x9f
 9900 03cd 3E030000 		.4byte	.LVL23
 9901 03d1 48030000 		.4byte	.LVL25
 9902 03d5 0100     		.2byte	0x1
 9903 03d7 57       		.byte	0x57
 9904 03d8 90030000 		.4byte	.LVL32
 9905 03dc 92030000 		.4byte	.LVL33
 9906 03e0 0300     		.2byte	0x3
 9907 03e2 73       		.byte	0x73
 9908 03e3 7C       		.sleb128 -4
 9909 03e4 9F       		.byte	0x9f
 9910 03e5 92030000 		.4byte	.LVL33
 9911 03e9 98030000 		.4byte	.LVL34
 9912 03ed 0100     		.2byte	0x1
 9913 03ef 53       		.byte	0x53
 9914 03f0 BA030000 		.4byte	.LVL41
 9915 03f4 C4030000 		.4byte	.LVL42
 9916 03f8 0100     		.2byte	0x1
 9917 03fa 57       		.byte	0x57
 9918 03fb CE030000 		.4byte	.LVL44
ARM GAS  /tmp/ccvHIMcj.s 			page 176


 9919 03ff D0030000 		.4byte	.LVL45
 9920 0403 0500     		.2byte	0x5
 9921 0405 77       		.byte	0x77
 9922 0406 00       		.sleb128 0
 9923 0407 40       		.byte	0x40
 9924 0408 26       		.byte	0x26
 9925 0409 9F       		.byte	0x9f
 9926 040a D0030000 		.4byte	.LVL45
 9927 040e DA030000 		.4byte	.LVL46
 9928 0412 0900     		.2byte	0x9
 9929 0414 73       		.byte	0x73
 9930 0415 00       		.sleb128 0
 9931 0416 71       		.byte	0x71
 9932 0417 00       		.sleb128 0
 9933 0418 22       		.byte	0x22
 9934 0419 06       		.byte	0x6
 9935 041a 40       		.byte	0x40
 9936 041b 26       		.byte	0x26
 9937 041c 9F       		.byte	0x9f
 9938 041d FE030000 		.4byte	.LVL57
 9939 0421 00040000 		.4byte	.LVL58
 9940 0425 0300     		.2byte	0x3
 9941 0427 74       		.byte	0x74
 9942 0428 7C       		.sleb128 -4
 9943 0429 9F       		.byte	0x9f
 9944 042a 00040000 		.4byte	.LVL58
 9945 042e 10040000 		.4byte	.LVL60
 9946 0432 0100     		.2byte	0x1
 9947 0434 54       		.byte	0x54
 9948 0435 36040000 		.4byte	.LVL69
 9949 0439 38040000 		.4byte	.LVL70
 9950 043d 0300     		.2byte	0x3
 9951 043f 73       		.byte	0x73
 9952 0440 7C       		.sleb128 -4
 9953 0441 9F       		.byte	0x9f
 9954 0442 38040000 		.4byte	.LVL70
 9955 0446 42040000 		.4byte	.LVL72
 9956 044a 0100     		.2byte	0x1
 9957 044c 53       		.byte	0x53
 9958 044d 44040000 		.4byte	.LVL73
 9959 0451 50040000 		.4byte	.LVL75
 9960 0455 0100     		.2byte	0x1
 9961 0457 53       		.byte	0x53
 9962 0458 52040000 		.4byte	.LVL76
 9963 045c 5E040000 		.4byte	.LVL78
 9964 0460 0100     		.2byte	0x1
 9965 0462 53       		.byte	0x53
 9966 0463 5E040000 		.4byte	.LVL78
 9967 0467 60040000 		.4byte	.LVL79
 9968 046b 0500     		.2byte	0x5
 9969 046d 77       		.byte	0x77
 9970 046e 00       		.sleb128 0
 9971 046f 40       		.byte	0x40
 9972 0470 26       		.byte	0x26
 9973 0471 9F       		.byte	0x9f
 9974 0472 60040000 		.4byte	.LVL79
 9975 0476 64040000 		.4byte	.LVL80
ARM GAS  /tmp/ccvHIMcj.s 			page 177


 9976 047a 0C00     		.2byte	0xc
 9977 047c 73       		.byte	0x73
 9978 047d 00       		.sleb128 0
 9979 047e 74       		.byte	0x74
 9980 047f 00       		.sleb128 0
 9981 0480 22       		.byte	0x22
 9982 0481 09       		.byte	0x9
 9983 0482 FC       		.byte	0xfc
 9984 0483 22       		.byte	0x22
 9985 0484 06       		.byte	0x6
 9986 0485 40       		.byte	0x40
 9987 0486 26       		.byte	0x26
 9988 0487 9F       		.byte	0x9f
 9989 0488 64040000 		.4byte	.LVL80
 9990 048c 66040000 		.4byte	.LVL81
 9991 0490 0900     		.2byte	0x9
 9992 0492 73       		.byte	0x73
 9993 0493 00       		.sleb128 0
 9994 0494 71       		.byte	0x71
 9995 0495 00       		.sleb128 0
 9996 0496 22       		.byte	0x22
 9997 0497 06       		.byte	0x6
 9998 0498 40       		.byte	0x40
 9999 0499 26       		.byte	0x26
 10000 049a 9F       		.byte	0x9f
 10001 049b 68040000 		.4byte	.LVL82
 10002 049f 74040000 		.4byte	.LVL83
 10003 04a3 0500     		.2byte	0x5
 10004 04a5 73       		.byte	0x73
 10005 04a6 00       		.sleb128 0
 10006 04a7 74       		.byte	0x74
 10007 04a8 00       		.sleb128 0
 10008 04a9 22       		.byte	0x22
 10009 04aa 74040000 		.4byte	.LVL83
 10010 04ae 78040000 		.4byte	.LVL84
 10011 04b2 0200     		.2byte	0x2
 10012 04b4 71       		.byte	0x71
 10013 04b5 04       		.sleb128 4
 10014 04b6 78040000 		.4byte	.LVL84
 10015 04ba 80040000 		.4byte	.LVL86
 10016 04be 0100     		.2byte	0x1
 10017 04c0 53       		.byte	0x53
 10018 04c1 82040000 		.4byte	.LVL87
 10019 04c5 92040000 		.4byte	.LVL88
 10020 04c9 0500     		.2byte	0x5
 10021 04cb 73       		.byte	0x73
 10022 04cc 00       		.sleb128 0
 10023 04cd 74       		.byte	0x74
 10024 04ce 00       		.sleb128 0
 10025 04cf 22       		.byte	0x22
 10026 04d0 92040000 		.4byte	.LVL88
 10027 04d4 96040000 		.4byte	.LVL89
 10028 04d8 0200     		.2byte	0x2
 10029 04da 7A       		.byte	0x7a
 10030 04db 04       		.sleb128 4
 10031 04dc 96040000 		.4byte	.LVL89
 10032 04e0 9E040000 		.4byte	.LVL91
ARM GAS  /tmp/ccvHIMcj.s 			page 178


 10033 04e4 0100     		.2byte	0x1
 10034 04e6 53       		.byte	0x53
 10035 04e7 9E040000 		.4byte	.LVL91
 10036 04eb A0040000 		.4byte	.LVL92
 10037 04ef 0500     		.2byte	0x5
 10038 04f1 73       		.byte	0x73
 10039 04f2 00       		.sleb128 0
 10040 04f3 74       		.byte	0x74
 10041 04f4 00       		.sleb128 0
 10042 04f5 22       		.byte	0x22
 10043 04f6 A0040000 		.4byte	.LVL92
 10044 04fa A8040000 		.4byte	.LVL94
 10045 04fe 0100     		.2byte	0x1
 10046 0500 53       		.byte	0x53
 10047 0501 B2040000 		.4byte	.LVL97
 10048 0505 B8040000 		.4byte	.LVL98
 10049 0509 0100     		.2byte	0x1
 10050 050b 53       		.byte	0x53
 10051 050c BA040000 		.4byte	.LVL99
 10052 0510 C0040000 		.4byte	.LVL100
 10053 0514 0100     		.2byte	0x1
 10054 0516 53       		.byte	0x53
 10055 0517 00000000 		.4byte	0x0
 10056 051b 00000000 		.4byte	0x0
 10057              	.LLST14:
 10058 051f 2C000000 		.4byte	.LVL14
 10059 0523 3E000000 		.4byte	.LVL15
 10060 0527 0200     		.2byte	0x2
 10061 0529 30       		.byte	0x30
 10062 052a 9F       		.byte	0x9f
 10063 052b 3E000000 		.4byte	.LVL15
 10064 052f 7C030000 		.4byte	.LVL29
 10065 0533 0100     		.2byte	0x1
 10066 0535 5B       		.byte	0x5b
 10067 0536 8C030000 		.4byte	.LVL31
 10068 053a B0030000 		.4byte	.LVL39
 10069 053e 0100     		.2byte	0x1
 10070 0540 5B       		.byte	0x5b
 10071 0541 B8030000 		.4byte	.LVL40
 10072 0545 30040000 		.4byte	.LVL67
 10073 0549 0100     		.2byte	0x1
 10074 054b 5B       		.byte	0x5b
 10075 054c 30040000 		.4byte	.LVL67
 10076 0550 AE040000 		.4byte	.LVL96
 10077 0554 0100     		.2byte	0x1
 10078 0556 5B       		.byte	0x5b
 10079 0557 AE040000 		.4byte	.LVL96
 10080 055b C0040000 		.4byte	.LVL100
 10081 055f 0100     		.2byte	0x1
 10082 0561 5B       		.byte	0x5b
 10083 0562 C0040000 		.4byte	.LVL100
 10084 0566 C6040000 		.4byte	.LVL101
 10085 056a 0200     		.2byte	0x2
 10086 056c 30       		.byte	0x30
 10087 056d 9F       		.byte	0x9f
 10088 056e 00000000 		.4byte	0x0
 10089 0572 00000000 		.4byte	0x0
ARM GAS  /tmp/ccvHIMcj.s 			page 179


 10090              	.LLST15:
 10091 0576 38030000 		.4byte	.LVL21
 10092 057a 68030000 		.4byte	.LVL27
 10093 057e 0100     		.2byte	0x1
 10094 0580 5A       		.byte	0x5a
 10095 0581 EE030000 		.4byte	.LVL51
 10096 0585 F0030000 		.4byte	.LVL52
 10097 0589 0500     		.2byte	0x5
 10098 058b 73       		.byte	0x73
 10099 058c 00       		.sleb128 0
 10100 058d 74       		.byte	0x74
 10101 058e 00       		.sleb128 0
 10102 058f 22       		.byte	0x22
 10103 0590 F0030000 		.4byte	.LVL52
 10104 0594 FA030000 		.4byte	.LVL55
 10105 0598 0800     		.2byte	0x8
 10106 059a 73       		.byte	0x73
 10107 059b 00       		.sleb128 0
 10108 059c 74       		.byte	0x74
 10109 059d 00       		.sleb128 0
 10110 059e 22       		.byte	0x22
 10111 059f 09       		.byte	0x9
 10112 05a0 FC       		.byte	0xfc
 10113 05a1 22       		.byte	0x22
 10114 05a2 FA030000 		.4byte	.LVL55
 10115 05a6 2A040000 		.4byte	.LVL65
 10116 05aa 0100     		.2byte	0x1
 10117 05ac 5A       		.byte	0x5a
 10118 05ad 00000000 		.4byte	0x0
 10119 05b1 00000000 		.4byte	0x0
 10120              	.LLST16:
 10121 05b5 38030000 		.4byte	.LVL21
 10122 05b9 42030000 		.4byte	.LVL24
 10123 05bd 0100     		.2byte	0x1
 10124 05bf 54       		.byte	0x54
 10125 05c0 42030000 		.4byte	.LVL24
 10126 05c4 48030000 		.4byte	.LVL25
 10127 05c8 0300     		.2byte	0x3
 10128 05ca 71       		.byte	0x71
 10129 05cb 78       		.sleb128 -8
 10130 05cc 9F       		.byte	0x9f
 10131 05cd F8030000 		.4byte	.LVL54
 10132 05d1 FA030000 		.4byte	.LVL55
 10133 05d5 0100     		.2byte	0x1
 10134 05d7 54       		.byte	0x54
 10135 05d8 FC030000 		.4byte	.LVL56
 10136 05dc 08040000 		.4byte	.LVL59
 10137 05e0 0100     		.2byte	0x1
 10138 05e2 55       		.byte	0x55
 10139 05e3 08040000 		.4byte	.LVL59
 10140 05e7 18040000 		.4byte	.LVL62
 10141 05eb 0200     		.2byte	0x2
 10142 05ed 91       		.byte	0x91
 10143 05ee 5C       		.sleb128 -36
 10144 05ef 18040000 		.4byte	.LVL62
 10145 05f3 1C040000 		.4byte	.LVL64
 10146 05f7 0100     		.2byte	0x1
ARM GAS  /tmp/ccvHIMcj.s 			page 180


 10147 05f9 54       		.byte	0x54
 10148 05fa 00000000 		.4byte	0x0
 10149 05fe 00000000 		.4byte	0x0
 10150              	.LLST17:
 10151 0602 48030000 		.4byte	.LVL25
 10152 0606 54030000 		.4byte	.LVL26
 10153 060a 0100     		.2byte	0x1
 10154 060c 55       		.byte	0x55
 10155 060d F6030000 		.4byte	.LVL53
 10156 0611 14040000 		.4byte	.LVL61
 10157 0615 0200     		.2byte	0x2
 10158 0617 30       		.byte	0x30
 10159 0618 9F       		.byte	0x9f
 10160 0619 14040000 		.4byte	.LVL61
 10161 061d 2A040000 		.4byte	.LVL65
 10162 0621 0100     		.2byte	0x1
 10163 0623 55       		.byte	0x55
 10164 0624 00000000 		.4byte	0x0
 10165 0628 00000000 		.4byte	0x0
 10166              	.LLST18:
 10167 062c DE030000 		.4byte	.LVL48
 10168 0630 EA030000 		.4byte	.LVL50
 10169 0634 0100     		.2byte	0x1
 10170 0636 53       		.byte	0x53
 10171 0637 00000000 		.4byte	0x0
 10172 063b 00000000 		.4byte	0x0
 10173              	.LLST19:
 10174 063f 00000000 		.4byte	.LFB0
 10175 0643 08000000 		.4byte	.LCFI3
 10176 0647 0200     		.2byte	0x2
 10177 0649 7D       		.byte	0x7d
 10178 064a 00       		.sleb128 0
 10179 064b 08000000 		.4byte	.LCFI3
 10180 064f 16000000 		.4byte	.LFE0
 10181 0653 0200     		.2byte	0x2
 10182 0655 7D       		.byte	0x7d
 10183 0656 04       		.sleb128 4
 10184 0657 00000000 		.4byte	0x0
 10185 065b 00000000 		.4byte	0x0
 10186              	.LLST20:
 10187 065f 02000000 		.4byte	.LVL104
 10188 0663 04000000 		.4byte	.LVL105
 10189 0667 0100     		.2byte	0x1
 10190 0669 51       		.byte	0x51
 10191 066a 04000000 		.4byte	.LVL105
 10192 066e 16000000 		.4byte	.LFE0
 10193 0672 0100     		.2byte	0x1
 10194 0674 53       		.byte	0x53
 10195 0675 00000000 		.4byte	0x0
 10196 0679 00000000 		.4byte	0x0
 10197              	.LLST21:
 10198 067d 00000000 		.4byte	.LVL108
 10199 0681 0E000000 		.4byte	.LVL110
 10200 0685 0100     		.2byte	0x1
 10201 0687 50       		.byte	0x50
 10202 0688 00000000 		.4byte	0x0
 10203 068c 00000000 		.4byte	0x0
ARM GAS  /tmp/ccvHIMcj.s 			page 181


 10204              	.LLST22:
 10205 0690 08000000 		.4byte	.LVL109
 10206 0694 12000000 		.4byte	.LVL111
 10207 0698 0100     		.2byte	0x1
 10208 069a 53       		.byte	0x53
 10209 069b 16000000 		.4byte	.LVL112
 10210 069f 32000000 		.4byte	.LVL113
 10211 06a3 0100     		.2byte	0x1
 10212 06a5 53       		.byte	0x53
 10213 06a6 36000000 		.4byte	.LVL114
 10214 06aa 3E000000 		.4byte	.LFE3
 10215 06ae 0100     		.2byte	0x1
 10216 06b0 53       		.byte	0x53
 10217 06b1 00000000 		.4byte	0x0
 10218 06b5 00000000 		.4byte	0x0
 10219              	.LLST23:
 10220 06b9 00000000 		.4byte	.LFB6
 10221 06bd 02000000 		.4byte	.LCFI4
 10222 06c1 0200     		.2byte	0x2
 10223 06c3 7D       		.byte	0x7d
 10224 06c4 00       		.sleb128 0
 10225 06c5 02000000 		.4byte	.LCFI4
 10226 06c9 1C010000 		.4byte	.LFE6
 10227 06cd 0200     		.2byte	0x2
 10228 06cf 7D       		.byte	0x7d
 10229 06d0 10       		.sleb128 16
 10230 06d1 00000000 		.4byte	0x0
 10231 06d5 00000000 		.4byte	0x0
 10232              	.LLST24:
 10233 06d9 00000000 		.4byte	.LVL115
 10234 06dd 18000000 		.4byte	.LVL118
 10235 06e1 0100     		.2byte	0x1
 10236 06e3 50       		.byte	0x50
 10237 06e4 18000000 		.4byte	.LVL118
 10238 06e8 1C010000 		.4byte	.LFE6
 10239 06ec 0100     		.2byte	0x1
 10240 06ee 55       		.byte	0x55
 10241 06ef 00000000 		.4byte	0x0
 10242 06f3 00000000 		.4byte	0x0
 10243              	.LLST25:
 10244 06f7 00000000 		.4byte	.LVL115
 10245 06fb 10000000 		.4byte	.LVL117
 10246 06ff 0100     		.2byte	0x1
 10247 0701 51       		.byte	0x51
 10248 0702 10000000 		.4byte	.LVL117
 10249 0706 1C010000 		.4byte	.LFE6
 10250 070a 0100     		.2byte	0x1
 10251 070c 54       		.byte	0x54
 10252 070d 00000000 		.4byte	0x0
 10253 0711 00000000 		.4byte	0x0
 10254              	.LLST26:
 10255 0715 0E000000 		.4byte	.LVL116
 10256 0719 10000000 		.4byte	.LVL117
 10257 071d 0100     		.2byte	0x1
 10258 071f 51       		.byte	0x51
 10259 0720 10000000 		.4byte	.LVL117
 10260 0724 C0000000 		.4byte	.LVL127
ARM GAS  /tmp/ccvHIMcj.s 			page 182


 10261 0728 0100     		.2byte	0x1
 10262 072a 54       		.byte	0x54
 10263 072b C4000000 		.4byte	.LVL128
 10264 072f 1C010000 		.4byte	.LFE6
 10265 0733 0100     		.2byte	0x1
 10266 0735 54       		.byte	0x54
 10267 0736 00000000 		.4byte	0x0
 10268 073a 00000000 		.4byte	0x0
 10269              	.LLST27:
 10270 073e A6000000 		.4byte	.LVL123
 10271 0742 B6000000 		.4byte	.LVL124
 10272 0746 0200     		.2byte	0x2
 10273 0748 30       		.byte	0x30
 10274 0749 9F       		.byte	0x9f
 10275 074a BC000000 		.4byte	.LVL125
 10276 074e BE000000 		.4byte	.LVL126
 10277 0752 0100     		.2byte	0x1
 10278 0754 50       		.byte	0x50
 10279 0755 C8000000 		.4byte	.LVL129
 10280 0759 CA000000 		.4byte	.LVL130
 10281 075d 0100     		.2byte	0x1
 10282 075f 50       		.byte	0x50
 10283 0760 D0000000 		.4byte	.LVL131
 10284 0764 E6000000 		.4byte	.LVL132
 10285 0768 0100     		.2byte	0x1
 10286 076a 50       		.byte	0x50
 10287 076b 0C010000 		.4byte	.LVL137
 10288 076f 0E010000 		.4byte	.LVL138
 10289 0773 0200     		.2byte	0x2
 10290 0775 4C       		.byte	0x4c
 10291 0776 9F       		.byte	0x9f
 10292 0777 00000000 		.4byte	0x0
 10293 077b 00000000 		.4byte	0x0
 10294              	.LLST28:
 10295 077f 34000000 		.4byte	.LVL119
 10296 0783 86000000 		.4byte	.LVL121
 10297 0787 0700     		.2byte	0x7
 10298 0789 74       		.byte	0x74
 10299 078a 00       		.sleb128 0
 10300 078b 74       		.byte	0x74
 10301 078c 34       		.sleb128 52
 10302 078d 06       		.byte	0x6
 10303 078e 22       		.byte	0x22
 10304 078f 9F       		.byte	0x9f
 10305 0790 F0000000 		.4byte	.LVL133
 10306 0794 0A010000 		.4byte	.LVL136
 10307 0798 0700     		.2byte	0x7
 10308 079a 74       		.byte	0x74
 10309 079b 00       		.sleb128 0
 10310 079c 74       		.byte	0x74
 10311 079d 34       		.sleb128 52
 10312 079e 06       		.byte	0x6
 10313 079f 22       		.byte	0x22
 10314 07a0 9F       		.byte	0x9f
 10315 07a1 0E010000 		.4byte	.LVL138
 10316 07a5 15010000 		.4byte	.LVL139-1
 10317 07a9 0700     		.2byte	0x7
ARM GAS  /tmp/ccvHIMcj.s 			page 183


 10318 07ab 74       		.byte	0x74
 10319 07ac 00       		.sleb128 0
 10320 07ad 74       		.byte	0x74
 10321 07ae 34       		.sleb128 52
 10322 07af 06       		.byte	0x6
 10323 07b0 22       		.byte	0x22
 10324 07b1 9F       		.byte	0x9f
 10325 07b2 00000000 		.4byte	0x0
 10326 07b6 00000000 		.4byte	0x0
 10327              	.LLST29:
 10328 07ba 7A000000 		.4byte	.LVL120
 10329 07be 94000000 		.4byte	.LVL122
 10330 07c2 0100     		.2byte	0x1
 10331 07c4 56       		.byte	0x56
 10332 07c5 FC000000 		.4byte	.LVL134
 10333 07c9 FE000000 		.4byte	.LVL135
 10334 07cd 0100     		.2byte	0x1
 10335 07cf 56       		.byte	0x56
 10336 07d0 0E010000 		.4byte	.LVL138
 10337 07d4 1C010000 		.4byte	.LFE6
 10338 07d8 0100     		.2byte	0x1
 10339 07da 56       		.byte	0x56
 10340 07db 00000000 		.4byte	0x0
 10341 07df 00000000 		.4byte	0x0
 10342              	.LLST30:
 10343 07e3 A6000000 		.4byte	.LVL123
 10344 07e7 B6000000 		.4byte	.LVL124
 10345 07eb 0200     		.2byte	0x2
 10346 07ed 30       		.byte	0x30
 10347 07ee 9F       		.byte	0x9f
 10348 07ef 00000000 		.4byte	0x0
 10349 07f3 00000000 		.4byte	0x0
 10350              	.LLST31:
 10351 07f7 00000000 		.4byte	.LVL140
 10352 07fb 02000000 		.4byte	.LVL141
 10353 07ff 0100     		.2byte	0x1
 10354 0801 50       		.byte	0x50
 10355 0802 00000000 		.4byte	0x0
 10356 0806 00000000 		.4byte	0x0
 10357              	.LLST32:
 10358 080a 00000000 		.4byte	.LVL142
 10359 080e 02000000 		.4byte	.LVL143
 10360 0812 0100     		.2byte	0x1
 10361 0814 50       		.byte	0x50
 10362 0815 00000000 		.4byte	0x0
 10363 0819 00000000 		.4byte	0x0
 10364              	.LLST33:
 10365 081d 00000000 		.4byte	.LFB9
 10366 0821 02000000 		.4byte	.LCFI5
 10367 0825 0200     		.2byte	0x2
 10368 0827 7D       		.byte	0x7d
 10369 0828 00       		.sleb128 0
 10370 0829 02000000 		.4byte	.LCFI5
 10371 082d A4000000 		.4byte	.LFE9
 10372 0831 0200     		.2byte	0x2
 10373 0833 7D       		.byte	0x7d
 10374 0834 18       		.sleb128 24
ARM GAS  /tmp/ccvHIMcj.s 			page 184


 10375 0835 00000000 		.4byte	0x0
 10376 0839 00000000 		.4byte	0x0
 10377              	.LLST34:
 10378 083d 00000000 		.4byte	.LVL144
 10379 0841 1A000000 		.4byte	.LVL146
 10380 0845 0100     		.2byte	0x1
 10381 0847 50       		.byte	0x50
 10382 0848 1A000000 		.4byte	.LVL146
 10383 084c A4000000 		.4byte	.LFE9
 10384 0850 0100     		.2byte	0x1
 10385 0852 54       		.byte	0x54
 10386 0853 00000000 		.4byte	0x0
 10387 0857 00000000 		.4byte	0x0
 10388              	.LLST35:
 10389 085b 00000000 		.4byte	.LVL144
 10390 085f 6A000000 		.4byte	.LVL150
 10391 0863 0100     		.2byte	0x1
 10392 0865 51       		.byte	0x51
 10393 0866 7E000000 		.4byte	.LVL153
 10394 086a 96000000 		.4byte	.LVL158
 10395 086e 0100     		.2byte	0x1
 10396 0870 51       		.byte	0x51
 10397 0871 9A000000 		.4byte	.LVL159
 10398 0875 A4000000 		.4byte	.LFE9
 10399 0879 0100     		.2byte	0x1
 10400 087b 51       		.byte	0x51
 10401 087c 00000000 		.4byte	0x0
 10402 0880 00000000 		.4byte	0x0
 10403              	.LLST36:
 10404 0884 00000000 		.4byte	.LVL144
 10405 0888 70000000 		.4byte	.LVL151
 10406 088c 0100     		.2byte	0x1
 10407 088e 52       		.byte	0x52
 10408 088f 70000000 		.4byte	.LVL151
 10409 0893 73000000 		.4byte	.LVL152-1
 10410 0897 0100     		.2byte	0x1
 10411 0899 50       		.byte	0x50
 10412 089a 7E000000 		.4byte	.LVL153
 10413 089e A4000000 		.4byte	.LFE9
 10414 08a2 0100     		.2byte	0x1
 10415 08a4 52       		.byte	0x52
 10416 08a5 00000000 		.4byte	0x0
 10417 08a9 00000000 		.4byte	0x0
 10418              	.LLST37:
 10419 08ad 14000000 		.4byte	.LVL145
 10420 08b1 1E000000 		.4byte	.LVL147
 10421 08b5 0100     		.2byte	0x1
 10422 08b7 55       		.byte	0x55
 10423 08b8 22000000 		.4byte	.LVL148
 10424 08bc 54000000 		.4byte	.LVL149
 10425 08c0 0100     		.2byte	0x1
 10426 08c2 55       		.byte	0x55
 10427 08c3 82000000 		.4byte	.LVL154
 10428 08c7 86000000 		.4byte	.LVL155
 10429 08cb 0100     		.2byte	0x1
 10430 08cd 55       		.byte	0x55
 10431 08ce 8A000000 		.4byte	.LVL156
ARM GAS  /tmp/ccvHIMcj.s 			page 185


 10432 08d2 8E000000 		.4byte	.LVL157
 10433 08d6 0100     		.2byte	0x1
 10434 08d8 55       		.byte	0x55
 10435 08d9 00000000 		.4byte	0x0
 10436 08dd 00000000 		.4byte	0x0
 10437              	.LLST38:
 10438 08e1 6A000000 		.4byte	.LVL150
 10439 08e5 7E000000 		.4byte	.LVL153
 10440 08e9 0100     		.2byte	0x1
 10441 08eb 55       		.byte	0x55
 10442 08ec 00000000 		.4byte	0x0
 10443 08f0 00000000 		.4byte	0x0
 10444              	.LLST39:
 10445 08f4 00000000 		.4byte	.LFB10
 10446 08f8 02000000 		.4byte	.LCFI6
 10447 08fc 0200     		.2byte	0x2
 10448 08fe 7D       		.byte	0x7d
 10449 08ff 00       		.sleb128 0
 10450 0900 02000000 		.4byte	.LCFI6
 10451 0904 50000000 		.4byte	.LFE10
 10452 0908 0200     		.2byte	0x2
 10453 090a 7D       		.byte	0x7d
 10454 090b 0C       		.sleb128 12
 10455 090c 00000000 		.4byte	0x0
 10456 0910 00000000 		.4byte	0x0
 10457              	.LLST40:
 10458 0914 00000000 		.4byte	.LVL160
 10459 0918 12000000 		.4byte	.LVL163
 10460 091c 0100     		.2byte	0x1
 10461 091e 50       		.byte	0x50
 10462 091f 16000000 		.4byte	.LVL164
 10463 0923 26000000 		.4byte	.LVL165
 10464 0927 0100     		.2byte	0x1
 10465 0929 50       		.byte	0x50
 10466 092a 48000000 		.4byte	.LVL168
 10467 092e 4A000000 		.4byte	.LVL169
 10468 0932 0100     		.2byte	0x1
 10469 0934 50       		.byte	0x50
 10470 0935 00000000 		.4byte	0x0
 10471 0939 00000000 		.4byte	0x0
 10472              	.LLST41:
 10473 093d 00000000 		.4byte	.LVL160
 10474 0941 12000000 		.4byte	.LVL163
 10475 0945 0100     		.2byte	0x1
 10476 0947 51       		.byte	0x51
 10477 0948 16000000 		.4byte	.LVL164
 10478 094c 34000000 		.4byte	.LVL166
 10479 0950 0100     		.2byte	0x1
 10480 0952 51       		.byte	0x51
 10481 0953 48000000 		.4byte	.LVL168
 10482 0957 4C000000 		.4byte	.LVL170
 10483 095b 0100     		.2byte	0x1
 10484 095d 51       		.byte	0x51
 10485 095e 00000000 		.4byte	0x0
 10486 0962 00000000 		.4byte	0x0
 10487              	.LLST42:
 10488 0966 00000000 		.4byte	.LVL160
ARM GAS  /tmp/ccvHIMcj.s 			page 186


 10489 096a 12000000 		.4byte	.LVL163
 10490 096e 0100     		.2byte	0x1
 10491 0970 52       		.byte	0x52
 10492 0971 16000000 		.4byte	.LVL164
 10493 0975 44000000 		.4byte	.LVL167
 10494 0979 0100     		.2byte	0x1
 10495 097b 52       		.byte	0x52
 10496 097c 48000000 		.4byte	.LVL168
 10497 0980 50000000 		.4byte	.LFE10
 10498 0984 0100     		.2byte	0x1
 10499 0986 52       		.byte	0x52
 10500 0987 00000000 		.4byte	0x0
 10501 098b 00000000 		.4byte	0x0
 10502              	.LLST43:
 10503 098f 06000000 		.4byte	.LVL161
 10504 0993 10000000 		.4byte	.LVL162
 10505 0997 0100     		.2byte	0x1
 10506 0999 54       		.byte	0x54
 10507 099a 16000000 		.4byte	.LVL164
 10508 099e 50000000 		.4byte	.LFE10
 10509 09a2 0100     		.2byte	0x1
 10510 09a4 54       		.byte	0x54
 10511 09a5 00000000 		.4byte	0x0
 10512 09a9 00000000 		.4byte	0x0
 10513              	.LLST44:
 10514 09ad 00000000 		.4byte	.LVL171
 10515 09b1 06000000 		.4byte	.LVL173
 10516 09b5 0100     		.2byte	0x1
 10517 09b7 50       		.byte	0x50
 10518 09b8 00000000 		.4byte	0x0
 10519 09bc 00000000 		.4byte	0x0
 10520              	.LLST45:
 10521 09c0 00000000 		.4byte	.LFB12
 10522 09c4 02000000 		.4byte	.LCFI7
 10523 09c8 0200     		.2byte	0x2
 10524 09ca 7D       		.byte	0x7d
 10525 09cb 00       		.sleb128 0
 10526 09cc 02000000 		.4byte	.LCFI7
 10527 09d0 1C000000 		.4byte	.LFE12
 10528 09d4 0200     		.2byte	0x2
 10529 09d6 7D       		.byte	0x7d
 10530 09d7 08       		.sleb128 8
 10531 09d8 00000000 		.4byte	0x0
 10532 09dc 00000000 		.4byte	0x0
 10533              	.LLST46:
 10534 09e0 00000000 		.4byte	.LVL174
 10535 09e4 06000000 		.4byte	.LVL176
 10536 09e8 0100     		.2byte	0x1
 10537 09ea 50       		.byte	0x50
 10538 09eb 00000000 		.4byte	0x0
 10539 09ef 00000000 		.4byte	0x0
 10540              	.LLST47:
 10541 09f3 04000000 		.4byte	.LVL175
 10542 09f7 16000000 		.4byte	.LVL177
 10543 09fb 0100     		.2byte	0x1
 10544 09fd 53       		.byte	0x53
 10545 09fe 00000000 		.4byte	0x0
ARM GAS  /tmp/ccvHIMcj.s 			page 187


 10546 0a02 00000000 		.4byte	0x0
 10547              	.LLST48:
 10548 0a06 00000000 		.4byte	.LFB13
 10549 0a0a 02000000 		.4byte	.LCFI8
 10550 0a0e 0200     		.2byte	0x2
 10551 0a10 7D       		.byte	0x7d
 10552 0a11 00       		.sleb128 0
 10553 0a12 02000000 		.4byte	.LCFI8
 10554 0a16 30000000 		.4byte	.LFE13
 10555 0a1a 0200     		.2byte	0x2
 10556 0a1c 7D       		.byte	0x7d
 10557 0a1d 10       		.sleb128 16
 10558 0a1e 00000000 		.4byte	0x0
 10559 0a22 00000000 		.4byte	0x0
 10560              	.LLST49:
 10561 0a26 00000000 		.4byte	.LVL178
 10562 0a2a 08000000 		.4byte	.LVL180
 10563 0a2e 0100     		.2byte	0x1
 10564 0a30 50       		.byte	0x50
 10565 0a31 00000000 		.4byte	0x0
 10566 0a35 00000000 		.4byte	0x0
 10567              	.LLST50:
 10568 0a39 00000000 		.4byte	.LVL178
 10569 0a3d 24000000 		.4byte	.LVL181
 10570 0a41 0100     		.2byte	0x1
 10571 0a43 51       		.byte	0x51
 10572 0a44 00000000 		.4byte	0x0
 10573 0a48 00000000 		.4byte	0x0
 10574              	.LLST51:
 10575 0a4c 00000000 		.4byte	.LVL178
 10576 0a50 2B000000 		.4byte	.LVL182-1
 10577 0a54 0100     		.2byte	0x1
 10578 0a56 52       		.byte	0x52
 10579 0a57 00000000 		.4byte	0x0
 10580 0a5b 00000000 		.4byte	0x0
 10581              	.LLST52:
 10582 0a5f 04000000 		.4byte	.LVL179
 10583 0a63 2B000000 		.4byte	.LVL182-1
 10584 0a67 0100     		.2byte	0x1
 10585 0a69 53       		.byte	0x53
 10586 0a6a 00000000 		.4byte	0x0
 10587 0a6e 00000000 		.4byte	0x0
 10588              	.LLST53:
 10589 0a72 00000000 		.4byte	.LFB14
 10590 0a76 04000000 		.4byte	.LCFI9
 10591 0a7a 0200     		.2byte	0x2
 10592 0a7c 7D       		.byte	0x7d
 10593 0a7d 00       		.sleb128 0
 10594 0a7e 04000000 		.4byte	.LCFI9
 10595 0a82 22000000 		.4byte	.LCFI10
 10596 0a86 0200     		.2byte	0x2
 10597 0a88 7D       		.byte	0x7d
 10598 0a89 1C       		.sleb128 28
 10599 0a8a 22000000 		.4byte	.LCFI10
 10600 0a8e C0000000 		.4byte	.LFE14
 10601 0a92 0300     		.2byte	0x3
 10602 0a94 7D       		.byte	0x7d
ARM GAS  /tmp/ccvHIMcj.s 			page 188


 10603 0a95 C000     		.sleb128 64
 10604 0a97 00000000 		.4byte	0x0
 10605 0a9b 00000000 		.4byte	0x0
 10606              	.LLST54:
 10607 0a9f 00000000 		.4byte	.LVL183
 10608 0aa3 28000000 		.4byte	.LVL186
 10609 0aa7 0100     		.2byte	0x1
 10610 0aa9 50       		.byte	0x50
 10611 0aaa 31000000 		.4byte	.LVL188-1
 10612 0aae C0000000 		.4byte	.LFE14
 10613 0ab2 0100     		.2byte	0x1
 10614 0ab4 55       		.byte	0x55
 10615 0ab5 00000000 		.4byte	0x0
 10616 0ab9 00000000 		.4byte	0x0
 10617              	.LLST55:
 10618 0abd 00000000 		.4byte	.LVL183
 10619 0ac1 12000000 		.4byte	.LVL184
 10620 0ac5 0100     		.2byte	0x1
 10621 0ac7 51       		.byte	0x51
 10622 0ac8 12000000 		.4byte	.LVL184
 10623 0acc C0000000 		.4byte	.LFE14
 10624 0ad0 0100     		.2byte	0x1
 10625 0ad2 56       		.byte	0x56
 10626 0ad3 00000000 		.4byte	0x0
 10627 0ad7 00000000 		.4byte	0x0
 10628              	.LLST56:
 10629 0adb 00000000 		.4byte	.LVL183
 10630 0adf 2C000000 		.4byte	.LVL187
 10631 0ae3 0100     		.2byte	0x1
 10632 0ae5 52       		.byte	0x52
 10633 0ae6 2C000000 		.4byte	.LVL187
 10634 0aea C0000000 		.4byte	.LFE14
 10635 0aee 0100     		.2byte	0x1
 10636 0af0 58       		.byte	0x58
 10637 0af1 00000000 		.4byte	0x0
 10638 0af5 00000000 		.4byte	0x0
 10639              	.LLST57:
 10640 0af9 24000000 		.4byte	.LVL185
 10641 0afd 4A000000 		.4byte	.LVL189
 10642 0b01 0200     		.2byte	0x2
 10643 0b03 30       		.byte	0x30
 10644 0b04 9F       		.byte	0x9f
 10645 0b05 4A000000 		.4byte	.LVL189
 10646 0b09 6C000000 		.4byte	.LVL190
 10647 0b0d 0100     		.2byte	0x1
 10648 0b0f 54       		.byte	0x54
 10649 0b10 6C000000 		.4byte	.LVL190
 10650 0b14 74000000 		.4byte	.LVL191
 10651 0b18 0100     		.2byte	0x1
 10652 0b1a 54       		.byte	0x54
 10653 0b1b 74000000 		.4byte	.LVL191
 10654 0b1f 88000000 		.4byte	.LVL192
 10655 0b23 0100     		.2byte	0x1
 10656 0b25 54       		.byte	0x54
 10657 0b26 88000000 		.4byte	.LVL192
 10658 0b2a A8000000 		.4byte	.LVL193
 10659 0b2e 0100     		.2byte	0x1
ARM GAS  /tmp/ccvHIMcj.s 			page 189


 10660 0b30 54       		.byte	0x54
 10661 0b31 00000000 		.4byte	0x0
 10662 0b35 00000000 		.4byte	0x0
 10663              	.LLST58:
 10664 0b39 24000000 		.4byte	.LVL185
 10665 0b3d 31000000 		.4byte	.LVL188-1
 10666 0b41 0100     		.2byte	0x1
 10667 0b43 50       		.byte	0x50
 10668 0b44 31000000 		.4byte	.LVL188-1
 10669 0b48 C0000000 		.4byte	.LFE14
 10670 0b4c 0100     		.2byte	0x1
 10671 0b4e 55       		.byte	0x55
 10672 0b4f 00000000 		.4byte	0x0
 10673 0b53 00000000 		.4byte	0x0
 10674              	.LLST59:
 10675 0b57 24000000 		.4byte	.LVL185
 10676 0b5b 31000000 		.4byte	.LVL188-1
 10677 0b5f 0100     		.2byte	0x1
 10678 0b61 5C       		.byte	0x5c
 10679 0b62 00000000 		.4byte	0x0
 10680 0b66 00000000 		.4byte	0x0
 10681              	.LLST60:
 10682 0b6a 00000000 		.4byte	.LFB15
 10683 0b6e 02000000 		.4byte	.LCFI11
 10684 0b72 0200     		.2byte	0x2
 10685 0b74 7D       		.byte	0x7d
 10686 0b75 00       		.sleb128 0
 10687 0b76 02000000 		.4byte	.LCFI11
 10688 0b7a 1C000000 		.4byte	.LFE15
 10689 0b7e 0200     		.2byte	0x2
 10690 0b80 7D       		.byte	0x7d
 10691 0b81 08       		.sleb128 8
 10692 0b82 00000000 		.4byte	0x0
 10693 0b86 00000000 		.4byte	0x0
 10694              	.LLST61:
 10695 0b8a 00000000 		.4byte	.LVL194
 10696 0b8e 06000000 		.4byte	.LVL196
 10697 0b92 0100     		.2byte	0x1
 10698 0b94 50       		.byte	0x50
 10699 0b95 00000000 		.4byte	0x0
 10700 0b99 00000000 		.4byte	0x0
 10701              	.LLST62:
 10702 0b9d 04000000 		.4byte	.LVL195
 10703 0ba1 16000000 		.4byte	.LVL197
 10704 0ba5 0100     		.2byte	0x1
 10705 0ba7 53       		.byte	0x53
 10706 0ba8 00000000 		.4byte	0x0
 10707 0bac 00000000 		.4byte	0x0
 10708              	.LLST63:
 10709 0bb0 00000000 		.4byte	.LFB16
 10710 0bb4 02000000 		.4byte	.LCFI12
 10711 0bb8 0200     		.2byte	0x2
 10712 0bba 7D       		.byte	0x7d
 10713 0bbb 00       		.sleb128 0
 10714 0bbc 02000000 		.4byte	.LCFI12
 10715 0bc0 3C000000 		.4byte	.LFE16
 10716 0bc4 0200     		.2byte	0x2
ARM GAS  /tmp/ccvHIMcj.s 			page 190


 10717 0bc6 7D       		.byte	0x7d
 10718 0bc7 18       		.sleb128 24
 10719 0bc8 00000000 		.4byte	0x0
 10720 0bcc 00000000 		.4byte	0x0
 10721              	.LLST64:
 10722 0bd0 00000000 		.4byte	.LVL198
 10723 0bd4 0E000000 		.4byte	.LVL200
 10724 0bd8 0100     		.2byte	0x1
 10725 0bda 50       		.byte	0x50
 10726 0bdb 00000000 		.4byte	0x0
 10727 0bdf 00000000 		.4byte	0x0
 10728              	.LLST65:
 10729 0be3 00000000 		.4byte	.LVL198
 10730 0be7 22000000 		.4byte	.LVL202
 10731 0beb 0100     		.2byte	0x1
 10732 0bed 51       		.byte	0x51
 10733 0bee 34000000 		.4byte	.LVL204
 10734 0bf2 38000000 		.4byte	.LVL205
 10735 0bf6 0100     		.2byte	0x1
 10736 0bf8 51       		.byte	0x51
 10737 0bf9 00000000 		.4byte	0x0
 10738 0bfd 00000000 		.4byte	0x0
 10739              	.LLST66:
 10740 0c01 00000000 		.4byte	.LVL198
 10741 0c05 29000000 		.4byte	.LVL203-1
 10742 0c09 0100     		.2byte	0x1
 10743 0c0b 52       		.byte	0x52
 10744 0c0c 34000000 		.4byte	.LVL204
 10745 0c10 38000000 		.4byte	.LVL205
 10746 0c14 0100     		.2byte	0x1
 10747 0c16 52       		.byte	0x52
 10748 0c17 00000000 		.4byte	0x0
 10749 0c1b 00000000 		.4byte	0x0
 10750              	.LLST67:
 10751 0c1f 00000000 		.4byte	.LVL198
 10752 0c23 29000000 		.4byte	.LVL203-1
 10753 0c27 0100     		.2byte	0x1
 10754 0c29 53       		.byte	0x53
 10755 0c2a 29000000 		.4byte	.LVL203-1
 10756 0c2e 3C000000 		.4byte	.LFE16
 10757 0c32 0100     		.2byte	0x1
 10758 0c34 57       		.byte	0x57
 10759 0c35 00000000 		.4byte	0x0
 10760 0c39 00000000 		.4byte	0x0
 10761              	.LLST68:
 10762 0c3d 1E000000 		.4byte	.LVL201
 10763 0c41 34000000 		.4byte	.LVL204
 10764 0c45 0100     		.2byte	0x1
 10765 0c47 55       		.byte	0x55
 10766 0c48 38000000 		.4byte	.LVL205
 10767 0c4c 3C000000 		.4byte	.LFE16
 10768 0c50 0100     		.2byte	0x1
 10769 0c52 55       		.byte	0x55
 10770 0c53 00000000 		.4byte	0x0
 10771 0c57 00000000 		.4byte	0x0
 10772              	.LLST69:
 10773 0c5b 00000000 		.4byte	.LFB17
ARM GAS  /tmp/ccvHIMcj.s 			page 191


 10774 0c5f 04000000 		.4byte	.LCFI13
 10775 0c63 0200     		.2byte	0x2
 10776 0c65 7D       		.byte	0x7d
 10777 0c66 00       		.sleb128 0
 10778 0c67 04000000 		.4byte	.LCFI13
 10779 0c6b 24000000 		.4byte	.LCFI14
 10780 0c6f 0200     		.2byte	0x2
 10781 0c71 7D       		.byte	0x7d
 10782 0c72 1C       		.sleb128 28
 10783 0c73 24000000 		.4byte	.LCFI14
 10784 0c77 70000000 		.4byte	.LFE17
 10785 0c7b 0300     		.2byte	0x3
 10786 0c7d 7D       		.byte	0x7d
 10787 0c7e C000     		.sleb128 64
 10788 0c80 00000000 		.4byte	0x0
 10789 0c84 00000000 		.4byte	0x0
 10790              	.LLST70:
 10791 0c88 00000000 		.4byte	.LVL206
 10792 0c8c 1C000000 		.4byte	.LVL209
 10793 0c90 0100     		.2byte	0x1
 10794 0c92 50       		.byte	0x50
 10795 0c93 1C000000 		.4byte	.LVL209
 10796 0c97 70000000 		.4byte	.LFE17
 10797 0c9b 0100     		.2byte	0x1
 10798 0c9d 57       		.byte	0x57
 10799 0c9e 00000000 		.4byte	0x0
 10800 0ca2 00000000 		.4byte	0x0
 10801              	.LLST71:
 10802 0ca6 00000000 		.4byte	.LVL206
 10803 0caa 12000000 		.4byte	.LVL207
 10804 0cae 0100     		.2byte	0x1
 10805 0cb0 51       		.byte	0x51
 10806 0cb1 12000000 		.4byte	.LVL207
 10807 0cb5 70000000 		.4byte	.LFE17
 10808 0cb9 0100     		.2byte	0x1
 10809 0cbb 58       		.byte	0x58
 10810 0cbc 00000000 		.4byte	0x0
 10811 0cc0 00000000 		.4byte	0x0
 10812              	.LLST72:
 10813 0cc4 00000000 		.4byte	.LVL206
 10814 0cc8 2C000000 		.4byte	.LVL212
 10815 0ccc 0100     		.2byte	0x1
 10816 0cce 52       		.byte	0x52
 10817 0ccf 2C000000 		.4byte	.LVL212
 10818 0cd3 70000000 		.4byte	.LFE17
 10819 0cd7 0100     		.2byte	0x1
 10820 0cd9 59       		.byte	0x59
 10821 0cda 00000000 		.4byte	0x0
 10822 0cde 00000000 		.4byte	0x0
 10823              	.LLST73:
 10824 0ce2 20000000 		.4byte	.LVL210
 10825 0ce6 2C000000 		.4byte	.LVL212
 10826 0cea 0200     		.2byte	0x2
 10827 0cec 30       		.byte	0x30
 10828 0ced 9F       		.byte	0x9f
 10829 0cee 2E000000 		.4byte	.LVL213
 10830 0cf2 32000000 		.4byte	.LVL214
ARM GAS  /tmp/ccvHIMcj.s 			page 192


 10831 0cf6 0100     		.2byte	0x1
 10832 0cf8 56       		.byte	0x56
 10833 0cf9 56000000 		.4byte	.LVL217
 10834 0cfd 5A000000 		.4byte	.LVL218
 10835 0d01 0100     		.2byte	0x1
 10836 0d03 56       		.byte	0x56
 10837 0d04 00000000 		.4byte	0x0
 10838 0d08 00000000 		.4byte	0x0
 10839              	.LLST74:
 10840 0d0c 18000000 		.4byte	.LVL208
 10841 0d10 20000000 		.4byte	.LVL210
 10842 0d14 1100     		.2byte	0x11
 10843 0d16 7C       		.byte	0x7c
 10844 0d17 24       		.sleb128 36
 10845 0d18 06       		.byte	0x6
 10846 0d19 7C       		.byte	0x7c
 10847 0d1a 20       		.sleb128 32
 10848 0d1b 06       		.byte	0x6
 10849 0d1c 1C       		.byte	0x1c
 10850 0d1d 7C       		.byte	0x7c
 10851 0d1e 0A       		.sleb128 10
 10852 0d1f 94       		.byte	0x94
 10853 0d20 02       		.byte	0x2
 10854 0d21 40       		.byte	0x40
 10855 0d22 24       		.byte	0x24
 10856 0d23 40       		.byte	0x40
 10857 0d24 26       		.byte	0x26
 10858 0d25 1B       		.byte	0x1b
 10859 0d26 9F       		.byte	0x9f
 10860 0d27 20000000 		.4byte	.LVL210
 10861 0d2b 22000000 		.4byte	.LVL211
 10862 0d2f 0300     		.2byte	0x3
 10863 0d31 75       		.byte	0x75
 10864 0d32 7F       		.sleb128 -1
 10865 0d33 9F       		.byte	0x9f
 10866 0d34 22000000 		.4byte	.LVL211
 10867 0d38 2E000000 		.4byte	.LVL213
 10868 0d3c 0100     		.2byte	0x1
 10869 0d3e 55       		.byte	0x55
 10870 0d3f 2E000000 		.4byte	.LVL213
 10871 0d43 70000000 		.4byte	.LFE17
 10872 0d47 0100     		.2byte	0x1
 10873 0d49 55       		.byte	0x55
 10874 0d4a 00000000 		.4byte	0x0
 10875 0d4e 00000000 		.4byte	0x0
 10876              	.LLST75:
 10877 0d52 2C000000 		.4byte	.LVL212
 10878 0d56 32000000 		.4byte	.LVL214
 10879 0d5a 0100     		.2byte	0x1
 10880 0d5c 54       		.byte	0x54
 10881 0d5d 3A000000 		.4byte	.LVL215
 10882 0d61 5A000000 		.4byte	.LVL218
 10883 0d65 0100     		.2byte	0x1
 10884 0d67 54       		.byte	0x54
 10885 0d68 6A000000 		.4byte	.LVL219
 10886 0d6c 70000000 		.4byte	.LFE17
 10887 0d70 0100     		.2byte	0x1
ARM GAS  /tmp/ccvHIMcj.s 			page 193


 10888 0d72 54       		.byte	0x54
 10889 0d73 00000000 		.4byte	0x0
 10890 0d77 00000000 		.4byte	0x0
 10891              	.LLST76:
 10892 0d7b 2C000000 		.4byte	.LVL212
 10893 0d7f 32000000 		.4byte	.LVL214
 10894 0d83 0100     		.2byte	0x1
 10895 0d85 50       		.byte	0x50
 10896 0d86 4E000000 		.4byte	.LVL216
 10897 0d8a 5A000000 		.4byte	.LVL218
 10898 0d8e 0100     		.2byte	0x1
 10899 0d90 50       		.byte	0x50
 10900 0d91 6A000000 		.4byte	.LVL219
 10901 0d95 70000000 		.4byte	.LFE17
 10902 0d99 0100     		.2byte	0x1
 10903 0d9b 50       		.byte	0x50
 10904 0d9c 00000000 		.4byte	0x0
 10905 0da0 00000000 		.4byte	0x0
 10906              	.LLST77:
 10907 0da4 18000000 		.4byte	.LVL208
 10908 0da8 1C000000 		.4byte	.LVL209
 10909 0dac 0100     		.2byte	0x1
 10910 0dae 50       		.byte	0x50
 10911 0daf 1C000000 		.4byte	.LVL209
 10912 0db3 70000000 		.4byte	.LFE17
 10913 0db7 0100     		.2byte	0x1
 10914 0db9 57       		.byte	0x57
 10915 0dba 00000000 		.4byte	0x0
 10916 0dbe 00000000 		.4byte	0x0
 10917              	.LLST78:
 10918 0dc2 18000000 		.4byte	.LVL208
 10919 0dc6 2C000000 		.4byte	.LVL212
 10920 0dca 0100     		.2byte	0x1
 10921 0dcc 5C       		.byte	0x5c
 10922 0dcd 00000000 		.4byte	0x0
 10923 0dd1 00000000 		.4byte	0x0
 10924              	.LLST79:
 10925 0dd5 00000000 		.4byte	.LFB18
 10926 0dd9 02000000 		.4byte	.LCFI15
 10927 0ddd 0200     		.2byte	0x2
 10928 0ddf 7D       		.byte	0x7d
 10929 0de0 00       		.sleb128 0
 10930 0de1 02000000 		.4byte	.LCFI15
 10931 0de5 1C000000 		.4byte	.LFE18
 10932 0de9 0200     		.2byte	0x2
 10933 0deb 7D       		.byte	0x7d
 10934 0dec 08       		.sleb128 8
 10935 0ded 00000000 		.4byte	0x0
 10936 0df1 00000000 		.4byte	0x0
 10937              	.LLST80:
 10938 0df5 00000000 		.4byte	.LVL220
 10939 0df9 06000000 		.4byte	.LVL222
 10940 0dfd 0100     		.2byte	0x1
 10941 0dff 50       		.byte	0x50
 10942 0e00 00000000 		.4byte	0x0
 10943 0e04 00000000 		.4byte	0x0
 10944              	.LLST81:
ARM GAS  /tmp/ccvHIMcj.s 			page 194


 10945 0e08 04000000 		.4byte	.LVL221
 10946 0e0c 16000000 		.4byte	.LVL223
 10947 0e10 0100     		.2byte	0x1
 10948 0e12 53       		.byte	0x53
 10949 0e13 00000000 		.4byte	0x0
 10950 0e17 00000000 		.4byte	0x0
 10951              	.LLST82:
 10952 0e1b 00000000 		.4byte	.LFB19
 10953 0e1f 04000000 		.4byte	.LCFI16
 10954 0e23 0200     		.2byte	0x2
 10955 0e25 7D       		.byte	0x7d
 10956 0e26 00       		.sleb128 0
 10957 0e27 04000000 		.4byte	.LCFI16
 10958 0e2b 54000000 		.4byte	.LFE19
 10959 0e2f 0200     		.2byte	0x2
 10960 0e31 7D       		.byte	0x7d
 10961 0e32 18       		.sleb128 24
 10962 0e33 00000000 		.4byte	0x0
 10963 0e37 00000000 		.4byte	0x0
 10964              	.LLST83:
 10965 0e3b 00000000 		.4byte	.LVL224
 10966 0e3f 16000000 		.4byte	.LVL226
 10967 0e43 0100     		.2byte	0x1
 10968 0e45 50       		.byte	0x50
 10969 0e46 16000000 		.4byte	.LVL226
 10970 0e4a 54000000 		.4byte	.LFE19
 10971 0e4e 0100     		.2byte	0x1
 10972 0e50 55       		.byte	0x55
 10973 0e51 00000000 		.4byte	0x0
 10974 0e55 00000000 		.4byte	0x0
 10975              	.LLST84:
 10976 0e59 00000000 		.4byte	.LVL224
 10977 0e5d 2E000000 		.4byte	.LVL228
 10978 0e61 0100     		.2byte	0x1
 10979 0e63 51       		.byte	0x51
 10980 0e64 00000000 		.4byte	0x0
 10981 0e68 00000000 		.4byte	0x0
 10982              	.LLST85:
 10983 0e6c 00000000 		.4byte	.LVL224
 10984 0e70 35000000 		.4byte	.LVL229-1
 10985 0e74 0100     		.2byte	0x1
 10986 0e76 52       		.byte	0x52
 10987 0e77 00000000 		.4byte	0x0
 10988 0e7b 00000000 		.4byte	0x0
 10989              	.LLST86:
 10990 0e7f 00000000 		.4byte	.LVL224
 10991 0e83 35000000 		.4byte	.LVL229-1
 10992 0e87 0100     		.2byte	0x1
 10993 0e89 53       		.byte	0x53
 10994 0e8a 35000000 		.4byte	.LVL229-1
 10995 0e8e 54000000 		.4byte	.LFE19
 10996 0e92 0100     		.2byte	0x1
 10997 0e94 58       		.byte	0x58
 10998 0e95 00000000 		.4byte	0x0
 10999 0e99 00000000 		.4byte	0x0
 11000              	.LLST87:
 11001 0e9d 3A000000 		.4byte	.LVL230
ARM GAS  /tmp/ccvHIMcj.s 			page 195


 11002 0ea1 4C000000 		.4byte	.LVL231
 11003 0ea5 0100     		.2byte	0x1
 11004 0ea7 53       		.byte	0x53
 11005 0ea8 00000000 		.4byte	0x0
 11006 0eac 00000000 		.4byte	0x0
 11007              	.LLST88:
 11008 0eb0 00000000 		.4byte	.LFB20
 11009 0eb4 04000000 		.4byte	.LCFI17
 11010 0eb8 0200     		.2byte	0x2
 11011 0eba 7D       		.byte	0x7d
 11012 0ebb 00       		.sleb128 0
 11013 0ebc 04000000 		.4byte	.LCFI17
 11014 0ec0 24000000 		.4byte	.LCFI18
 11015 0ec4 0200     		.2byte	0x2
 11016 0ec6 7D       		.byte	0x7d
 11017 0ec7 1C       		.sleb128 28
 11018 0ec8 24000000 		.4byte	.LCFI18
 11019 0ecc 68000000 		.4byte	.LFE20
 11020 0ed0 0300     		.2byte	0x3
 11021 0ed2 7D       		.byte	0x7d
 11022 0ed3 C000     		.sleb128 64
 11023 0ed5 00000000 		.4byte	0x0
 11024 0ed9 00000000 		.4byte	0x0
 11025              	.LLST89:
 11026 0edd 00000000 		.4byte	.LVL232
 11027 0ee1 1C000000 		.4byte	.LVL235
 11028 0ee5 0100     		.2byte	0x1
 11029 0ee7 50       		.byte	0x50
 11030 0ee8 1C000000 		.4byte	.LVL235
 11031 0eec 68000000 		.4byte	.LFE20
 11032 0ef0 0100     		.2byte	0x1
 11033 0ef2 57       		.byte	0x57
 11034 0ef3 00000000 		.4byte	0x0
 11035 0ef7 00000000 		.4byte	0x0
 11036              	.LLST90:
 11037 0efb 00000000 		.4byte	.LVL232
 11038 0eff 12000000 		.4byte	.LVL233
 11039 0f03 0100     		.2byte	0x1
 11040 0f05 51       		.byte	0x51
 11041 0f06 12000000 		.4byte	.LVL233
 11042 0f0a 68000000 		.4byte	.LFE20
 11043 0f0e 0100     		.2byte	0x1
 11044 0f10 59       		.byte	0x59
 11045 0f11 00000000 		.4byte	0x0
 11046 0f15 00000000 		.4byte	0x0
 11047              	.LLST91:
 11048 0f19 00000000 		.4byte	.LVL232
 11049 0f1d 2C000000 		.4byte	.LVL238
 11050 0f21 0100     		.2byte	0x1
 11051 0f23 52       		.byte	0x52
 11052 0f24 2C000000 		.4byte	.LVL238
 11053 0f28 68000000 		.4byte	.LFE20
 11054 0f2c 0100     		.2byte	0x1
 11055 0f2e 58       		.byte	0x58
 11056 0f2f 00000000 		.4byte	0x0
 11057 0f33 00000000 		.4byte	0x0
 11058              	.LLST92:
ARM GAS  /tmp/ccvHIMcj.s 			page 196


 11059 0f37 20000000 		.4byte	.LVL236
 11060 0f3b 2C000000 		.4byte	.LVL238
 11061 0f3f 0200     		.2byte	0x2
 11062 0f41 30       		.byte	0x30
 11063 0f42 9F       		.byte	0x9f
 11064 0f43 2E000000 		.4byte	.LVL239
 11065 0f47 32000000 		.4byte	.LVL240
 11066 0f4b 0100     		.2byte	0x1
 11067 0f4d 56       		.byte	0x56
 11068 0f4e 56000000 		.4byte	.LVL243
 11069 0f52 5A000000 		.4byte	.LVL244
 11070 0f56 0100     		.2byte	0x1
 11071 0f58 56       		.byte	0x56
 11072 0f59 00000000 		.4byte	0x0
 11073 0f5d 00000000 		.4byte	0x0
 11074              	.LLST93:
 11075 0f61 18000000 		.4byte	.LVL234
 11076 0f65 20000000 		.4byte	.LVL236
 11077 0f69 1100     		.2byte	0x11
 11078 0f6b 7C       		.byte	0x7c
 11079 0f6c 30       		.sleb128 48
 11080 0f6d 06       		.byte	0x6
 11081 0f6e 7C       		.byte	0x7c
 11082 0f6f 2C       		.sleb128 44
 11083 0f70 06       		.byte	0x6
 11084 0f71 1C       		.byte	0x1c
 11085 0f72 7C       		.byte	0x7c
 11086 0f73 0A       		.sleb128 10
 11087 0f74 94       		.byte	0x94
 11088 0f75 02       		.byte	0x2
 11089 0f76 40       		.byte	0x40
 11090 0f77 24       		.byte	0x24
 11091 0f78 40       		.byte	0x40
 11092 0f79 26       		.byte	0x26
 11093 0f7a 1B       		.byte	0x1b
 11094 0f7b 9F       		.byte	0x9f
 11095 0f7c 20000000 		.4byte	.LVL236
 11096 0f80 22000000 		.4byte	.LVL237
 11097 0f84 0300     		.2byte	0x3
 11098 0f86 75       		.byte	0x75
 11099 0f87 7F       		.sleb128 -1
 11100 0f88 9F       		.byte	0x9f
 11101 0f89 22000000 		.4byte	.LVL237
 11102 0f8d 2E000000 		.4byte	.LVL239
 11103 0f91 0100     		.2byte	0x1
 11104 0f93 55       		.byte	0x55
 11105 0f94 2E000000 		.4byte	.LVL239
 11106 0f98 68000000 		.4byte	.LFE20
 11107 0f9c 0100     		.2byte	0x1
 11108 0f9e 55       		.byte	0x55
 11109 0f9f 00000000 		.4byte	0x0
 11110 0fa3 00000000 		.4byte	0x0
 11111              	.LLST94:
 11112 0fa7 2C000000 		.4byte	.LVL238
 11113 0fab 32000000 		.4byte	.LVL240
 11114 0faf 0100     		.2byte	0x1
 11115 0fb1 54       		.byte	0x54
ARM GAS  /tmp/ccvHIMcj.s 			page 197


 11116 0fb2 3A000000 		.4byte	.LVL241
 11117 0fb6 5A000000 		.4byte	.LVL244
 11118 0fba 0100     		.2byte	0x1
 11119 0fbc 54       		.byte	0x54
 11120 0fbd 00000000 		.4byte	0x0
 11121 0fc1 00000000 		.4byte	0x0
 11122              	.LLST95:
 11123 0fc5 2C000000 		.4byte	.LVL238
 11124 0fc9 32000000 		.4byte	.LVL240
 11125 0fcd 0100     		.2byte	0x1
 11126 0fcf 50       		.byte	0x50
 11127 0fd0 4E000000 		.4byte	.LVL242
 11128 0fd4 5A000000 		.4byte	.LVL244
 11129 0fd8 0100     		.2byte	0x1
 11130 0fda 50       		.byte	0x50
 11131 0fdb 00000000 		.4byte	0x0
 11132 0fdf 00000000 		.4byte	0x0
 11133              	.LLST96:
 11134 0fe3 18000000 		.4byte	.LVL234
 11135 0fe7 1C000000 		.4byte	.LVL235
 11136 0feb 0100     		.2byte	0x1
 11137 0fed 50       		.byte	0x50
 11138 0fee 1C000000 		.4byte	.LVL235
 11139 0ff2 68000000 		.4byte	.LFE20
 11140 0ff6 0100     		.2byte	0x1
 11141 0ff8 57       		.byte	0x57
 11142 0ff9 00000000 		.4byte	0x0
 11143 0ffd 00000000 		.4byte	0x0
 11144              	.LLST97:
 11145 1001 18000000 		.4byte	.LVL234
 11146 1005 2C000000 		.4byte	.LVL238
 11147 1009 0100     		.2byte	0x1
 11148 100b 5C       		.byte	0x5c
 11149 100c 00000000 		.4byte	0x0
 11150 1010 00000000 		.4byte	0x0
 11151              	.LLST98:
 11152 1014 00000000 		.4byte	.LFB21
 11153 1018 02000000 		.4byte	.LCFI19
 11154 101c 0200     		.2byte	0x2
 11155 101e 7D       		.byte	0x7d
 11156 101f 00       		.sleb128 0
 11157 1020 02000000 		.4byte	.LCFI19
 11158 1024 30000000 		.4byte	.LFE21
 11159 1028 0200     		.2byte	0x2
 11160 102a 7D       		.byte	0x7d
 11161 102b 04       		.sleb128 4
 11162 102c 00000000 		.4byte	0x0
 11163 1030 00000000 		.4byte	0x0
 11164              	.LLST99:
 11165 1034 00000000 		.4byte	.LVL245
 11166 1038 10000000 		.4byte	.LVL248
 11167 103c 0100     		.2byte	0x1
 11168 103e 50       		.byte	0x50
 11169 103f 14000000 		.4byte	.LVL249
 11170 1043 1E000000 		.4byte	.LVL250
 11171 1047 0100     		.2byte	0x1
 11172 1049 50       		.byte	0x50
ARM GAS  /tmp/ccvHIMcj.s 			page 198


 11173 104a 00000000 		.4byte	0x0
 11174 104e 00000000 		.4byte	0x0
 11175              	.LLST100:
 11176 1052 04000000 		.4byte	.LVL246
 11177 1056 0C000000 		.4byte	.LVL247
 11178 105a 0100     		.2byte	0x1
 11179 105c 53       		.byte	0x53
 11180 105d 14000000 		.4byte	.LVL249
 11181 1061 30000000 		.4byte	.LFE21
 11182 1065 0100     		.2byte	0x1
 11183 1067 53       		.byte	0x53
 11184 1068 00000000 		.4byte	0x0
 11185 106c 00000000 		.4byte	0x0
 11186              	.LLST101:
 11187 1070 00000000 		.4byte	.LFB22
 11188 1074 02000000 		.4byte	.LCFI20
 11189 1078 0200     		.2byte	0x2
 11190 107a 7D       		.byte	0x7d
 11191 107b 00       		.sleb128 0
 11192 107c 02000000 		.4byte	.LCFI20
 11193 1080 6E000000 		.4byte	.LFE22
 11194 1084 0200     		.2byte	0x2
 11195 1086 7D       		.byte	0x7d
 11196 1087 18       		.sleb128 24
 11197 1088 00000000 		.4byte	0x0
 11198 108c 00000000 		.4byte	0x0
 11199              	.LLST102:
 11200 1090 00000000 		.4byte	.LVL251
 11201 1094 12000000 		.4byte	.LVL254
 11202 1098 0100     		.2byte	0x1
 11203 109a 50       		.byte	0x50
 11204 109b 16000000 		.4byte	.LVL255
 11205 109f 1C000000 		.4byte	.LVL256
 11206 10a3 0100     		.2byte	0x1
 11207 10a5 50       		.byte	0x50
 11208 10a6 34000000 		.4byte	.LVL257
 11209 10aa 44000000 		.4byte	.LVL258
 11210 10ae 0100     		.2byte	0x1
 11211 10b0 50       		.byte	0x50
 11212 10b1 00000000 		.4byte	0x0
 11213 10b5 00000000 		.4byte	0x0
 11214              	.LLST103:
 11215 10b9 00000000 		.4byte	.LVL251
 11216 10bd 5E000000 		.4byte	.LVL260
 11217 10c1 0100     		.2byte	0x1
 11218 10c3 51       		.byte	0x51
 11219 10c4 6A000000 		.4byte	.LVL262
 11220 10c8 6E000000 		.4byte	.LFE22
 11221 10cc 0100     		.2byte	0x1
 11222 10ce 51       		.byte	0x51
 11223 10cf 00000000 		.4byte	0x0
 11224 10d3 00000000 		.4byte	0x0
 11225              	.LLST104:
 11226 10d7 00000000 		.4byte	.LVL251
 11227 10db 61000000 		.4byte	.LVL261-1
 11228 10df 0100     		.2byte	0x1
 11229 10e1 52       		.byte	0x52
ARM GAS  /tmp/ccvHIMcj.s 			page 199


 11230 10e2 6A000000 		.4byte	.LVL262
 11231 10e6 6E000000 		.4byte	.LFE22
 11232 10ea 0100     		.2byte	0x1
 11233 10ec 52       		.byte	0x52
 11234 10ed 00000000 		.4byte	0x0
 11235 10f1 00000000 		.4byte	0x0
 11236              	.LLST105:
 11237 10f5 00000000 		.4byte	.LVL251
 11238 10f9 0E000000 		.4byte	.LVL253
 11239 10fd 0100     		.2byte	0x1
 11240 10ff 53       		.byte	0x53
 11241 1100 0E000000 		.4byte	.LVL253
 11242 1104 6E000000 		.4byte	.LFE22
 11243 1108 0100     		.2byte	0x1
 11244 110a 56       		.byte	0x56
 11245 110b 00000000 		.4byte	0x0
 11246 110f 00000000 		.4byte	0x0
 11247              	.LLST106:
 11248 1113 54000000 		.4byte	.LVL259
 11249 1117 6A000000 		.4byte	.LVL262
 11250 111b 0100     		.2byte	0x1
 11251 111d 55       		.byte	0x55
 11252 111e 00000000 		.4byte	0x0
 11253 1122 00000000 		.4byte	0x0
 11254              	.LLST107:
 11255 1126 00000000 		.4byte	.LFB23
 11256 112a 04000000 		.4byte	.LCFI21
 11257 112e 0200     		.2byte	0x2
 11258 1130 7D       		.byte	0x7d
 11259 1131 00       		.sleb128 0
 11260 1132 04000000 		.4byte	.LCFI21
 11261 1136 06000000 		.4byte	.LCFI22
 11262 113a 0200     		.2byte	0x2
 11263 113c 7D       		.byte	0x7d
 11264 113d 1C       		.sleb128 28
 11265 113e 06000000 		.4byte	.LCFI22
 11266 1142 58000000 		.4byte	.LFE23
 11267 1146 0200     		.2byte	0x2
 11268 1148 7D       		.byte	0x7d
 11269 1149 28       		.sleb128 40
 11270 114a 00000000 		.4byte	0x0
 11271 114e 00000000 		.4byte	0x0
 11272              	.LLST108:
 11273 1152 00000000 		.4byte	.LVL263
 11274 1156 11000000 		.4byte	.LVL265-1
 11275 115a 0100     		.2byte	0x1
 11276 115c 50       		.byte	0x50
 11277 115d 11000000 		.4byte	.LVL265-1
 11278 1161 58000000 		.4byte	.LFE23
 11279 1165 0100     		.2byte	0x1
 11280 1167 58       		.byte	0x58
 11281 1168 00000000 		.4byte	0x0
 11282 116c 00000000 		.4byte	0x0
 11283              	.LLST109:
 11284 1170 00000000 		.4byte	.LVL263
 11285 1174 0A000000 		.4byte	.LVL264
 11286 1178 0100     		.2byte	0x1
ARM GAS  /tmp/ccvHIMcj.s 			page 200


 11287 117a 51       		.byte	0x51
 11288 117b 0A000000 		.4byte	.LVL264
 11289 117f 58000000 		.4byte	.LFE23
 11290 1183 0100     		.2byte	0x1
 11291 1185 59       		.byte	0x59
 11292 1186 00000000 		.4byte	0x0
 11293 118a 00000000 		.4byte	0x0
 11294              	.LLST110:
 11295 118e 00000000 		.4byte	.LVL263
 11296 1192 11000000 		.4byte	.LVL265-1
 11297 1196 0100     		.2byte	0x1
 11298 1198 52       		.byte	0x52
 11299 1199 11000000 		.4byte	.LVL265-1
 11300 119d 58000000 		.4byte	.LFE23
 11301 11a1 0100     		.2byte	0x1
 11302 11a3 57       		.byte	0x57
 11303 11a4 00000000 		.4byte	0x0
 11304 11a8 00000000 		.4byte	0x0
 11305              	.LLST111:
 11306 11ac 1A000000 		.4byte	.LVL266
 11307 11b0 44000000 		.4byte	.LVL268
 11308 11b4 0100     		.2byte	0x1
 11309 11b6 56       		.byte	0x56
 11310 11b7 44000000 		.4byte	.LVL268
 11311 11bb 58000000 		.4byte	.LFE23
 11312 11bf 0100     		.2byte	0x1
 11313 11c1 56       		.byte	0x56
 11314 11c2 00000000 		.4byte	0x0
 11315 11c6 00000000 		.4byte	0x0
 11316              	.LLST112:
 11317 11ca 2E000000 		.4byte	.LVL267
 11318 11ce 48000000 		.4byte	.LVL269
 11319 11d2 0100     		.2byte	0x1
 11320 11d4 54       		.byte	0x54
 11321 11d5 54000000 		.4byte	.LVL270
 11322 11d9 58000000 		.4byte	.LFE23
 11323 11dd 0100     		.2byte	0x1
 11324 11df 54       		.byte	0x54
 11325 11e0 00000000 		.4byte	0x0
 11326 11e4 00000000 		.4byte	0x0
 11327              	.LLST113:
 11328 11e8 00000000 		.4byte	.LVL271
 11329 11ec 1E000000 		.4byte	.LVL275
 11330 11f0 0100     		.2byte	0x1
 11331 11f2 50       		.byte	0x50
 11332 11f3 20000000 		.4byte	.LVL276
 11333 11f7 28000000 		.4byte	.LVL278
 11334 11fb 0100     		.2byte	0x1
 11335 11fd 50       		.byte	0x50
 11336 11fe 30000000 		.4byte	.LVL280
 11337 1202 3C000000 		.4byte	.LFE24
 11338 1206 0100     		.2byte	0x1
 11339 1208 50       		.byte	0x50
 11340 1209 00000000 		.4byte	0x0
 11341 120d 00000000 		.4byte	0x0
 11342              	.LLST114:
 11343 1211 00000000 		.4byte	.LVL271
ARM GAS  /tmp/ccvHIMcj.s 			page 201


 11344 1215 2A000000 		.4byte	.LVL279
 11345 1219 0100     		.2byte	0x1
 11346 121b 51       		.byte	0x51
 11347 121c 30000000 		.4byte	.LVL280
 11348 1220 3C000000 		.4byte	.LFE24
 11349 1224 0100     		.2byte	0x1
 11350 1226 51       		.byte	0x51
 11351 1227 00000000 		.4byte	0x0
 11352 122b 00000000 		.4byte	0x0
 11353              	.LLST115:
 11354 122f 00000000 		.4byte	.LVL271
 11355 1233 06000000 		.4byte	.LVL272
 11356 1237 0200     		.2byte	0x2
 11357 1239 30       		.byte	0x30
 11358 123a 9F       		.byte	0x9f
 11359 123b 06000000 		.4byte	.LVL272
 11360 123f 0E000000 		.4byte	.LVL273
 11361 1243 0200     		.2byte	0x2
 11362 1245 31       		.byte	0x31
 11363 1246 9F       		.byte	0x9f
 11364 1247 0E000000 		.4byte	.LVL273
 11365 124b 14000000 		.4byte	.LVL274
 11366 124f 0200     		.2byte	0x2
 11367 1251 32       		.byte	0x32
 11368 1252 9F       		.byte	0x9f
 11369 1253 14000000 		.4byte	.LVL274
 11370 1257 20000000 		.4byte	.LVL276
 11371 125b 0200     		.2byte	0x2
 11372 125d 33       		.byte	0x33
 11373 125e 9F       		.byte	0x9f
 11374 125f 20000000 		.4byte	.LVL276
 11375 1263 22000000 		.4byte	.LVL277
 11376 1267 0200     		.2byte	0x2
 11377 1269 30       		.byte	0x30
 11378 126a 9F       		.byte	0x9f
 11379 126b 30000000 		.4byte	.LVL280
 11380 126f 34000000 		.4byte	.LVL281
 11381 1273 0200     		.2byte	0x2
 11382 1275 31       		.byte	0x31
 11383 1276 9F       		.byte	0x9f
 11384 1277 34000000 		.4byte	.LVL281
 11385 127b 38000000 		.4byte	.LVL282
 11386 127f 0200     		.2byte	0x2
 11387 1281 32       		.byte	0x32
 11388 1282 9F       		.byte	0x9f
 11389 1283 38000000 		.4byte	.LVL282
 11390 1287 3C000000 		.4byte	.LFE24
 11391 128b 0200     		.2byte	0x2
 11392 128d 33       		.byte	0x33
 11393 128e 9F       		.byte	0x9f
 11394 128f 00000000 		.4byte	0x0
 11395 1293 00000000 		.4byte	0x0
 11396              	.LLST116:
 11397 1297 00000000 		.4byte	.LFB25
 11398 129b 02000000 		.4byte	.LCFI23
 11399 129f 0200     		.2byte	0x2
 11400 12a1 7D       		.byte	0x7d
ARM GAS  /tmp/ccvHIMcj.s 			page 202


 11401 12a2 00       		.sleb128 0
 11402 12a3 02000000 		.4byte	.LCFI23
 11403 12a7 42000000 		.4byte	.LFE25
 11404 12ab 0200     		.2byte	0x2
 11405 12ad 7D       		.byte	0x7d
 11406 12ae 0C       		.sleb128 12
 11407 12af 00000000 		.4byte	0x0
 11408 12b3 00000000 		.4byte	0x0
 11409              	.LLST117:
 11410 12b7 00000000 		.4byte	.LVL283
 11411 12bb 24000000 		.4byte	.LVL291
 11412 12bf 0100     		.2byte	0x1
 11413 12c1 50       		.byte	0x50
 11414 12c2 28000000 		.4byte	.LVL292
 11415 12c6 32000000 		.4byte	.LVL294
 11416 12ca 0100     		.2byte	0x1
 11417 12cc 50       		.byte	0x50
 11418 12cd 36000000 		.4byte	.LVL295
 11419 12d1 42000000 		.4byte	.LFE25
 11420 12d5 0100     		.2byte	0x1
 11421 12d7 50       		.byte	0x50
 11422 12d8 00000000 		.4byte	0x0
 11423 12dc 00000000 		.4byte	0x0
 11424              	.LLST118:
 11425 12e0 00000000 		.4byte	.LVL283
 11426 12e4 08000000 		.4byte	.LVL284
 11427 12e8 0200     		.2byte	0x2
 11428 12ea 30       		.byte	0x30
 11429 12eb 9F       		.byte	0x9f
 11430 12ec 08000000 		.4byte	.LVL284
 11431 12f0 0E000000 		.4byte	.LVL285
 11432 12f4 0200     		.2byte	0x2
 11433 12f6 31       		.byte	0x31
 11434 12f7 9F       		.byte	0x9f
 11435 12f8 0E000000 		.4byte	.LVL285
 11436 12fc 14000000 		.4byte	.LVL286
 11437 1300 0200     		.2byte	0x2
 11438 1302 32       		.byte	0x32
 11439 1303 9F       		.byte	0x9f
 11440 1304 14000000 		.4byte	.LVL286
 11441 1308 1A000000 		.4byte	.LVL287
 11442 130c 0200     		.2byte	0x2
 11443 130e 33       		.byte	0x33
 11444 130f 9F       		.byte	0x9f
 11445 1310 1A000000 		.4byte	.LVL287
 11446 1314 1C000000 		.4byte	.LVL288
 11447 1318 0200     		.2byte	0x2
 11448 131a 34       		.byte	0x34
 11449 131b 9F       		.byte	0x9f
 11450 131c 1C000000 		.4byte	.LVL288
 11451 1320 1E000000 		.4byte	.LVL289
 11452 1324 0200     		.2byte	0x2
 11453 1326 31       		.byte	0x31
 11454 1327 9F       		.byte	0x9f
 11455 1328 1E000000 		.4byte	.LVL289
 11456 132c 20000000 		.4byte	.LVL290
 11457 1330 0200     		.2byte	0x2
ARM GAS  /tmp/ccvHIMcj.s 			page 203


 11458 1332 32       		.byte	0x32
 11459 1333 9F       		.byte	0x9f
 11460 1334 20000000 		.4byte	.LVL290
 11461 1338 24000000 		.4byte	.LVL291
 11462 133c 0200     		.2byte	0x2
 11463 133e 33       		.byte	0x33
 11464 133f 9F       		.byte	0x9f
 11465 1340 28000000 		.4byte	.LVL292
 11466 1344 2A000000 		.4byte	.LVL293
 11467 1348 0200     		.2byte	0x2
 11468 134a 31       		.byte	0x31
 11469 134b 9F       		.byte	0x9f
 11470 134c 2A000000 		.4byte	.LVL293
 11471 1350 36000000 		.4byte	.LVL295
 11472 1354 0100     		.2byte	0x1
 11473 1356 53       		.byte	0x53
 11474 1357 36000000 		.4byte	.LVL295
 11475 135b 3A000000 		.4byte	.LVL296
 11476 135f 0200     		.2byte	0x2
 11477 1361 32       		.byte	0x32
 11478 1362 9F       		.byte	0x9f
 11479 1363 3A000000 		.4byte	.LVL296
 11480 1367 3E000000 		.4byte	.LVL297
 11481 136b 0200     		.2byte	0x2
 11482 136d 33       		.byte	0x33
 11483 136e 9F       		.byte	0x9f
 11484 136f 3E000000 		.4byte	.LVL297
 11485 1373 42000000 		.4byte	.LFE25
 11486 1377 0200     		.2byte	0x2
 11487 1379 30       		.byte	0x30
 11488 137a 9F       		.byte	0x9f
 11489 137b 00000000 		.4byte	0x0
 11490 137f 00000000 		.4byte	0x0
 11491              	.LLST119:
 11492 1383 00000000 		.4byte	.LFB27
 11493 1387 04000000 		.4byte	.LCFI24
 11494 138b 0200     		.2byte	0x2
 11495 138d 7D       		.byte	0x7d
 11496 138e 00       		.sleb128 0
 11497 138f 04000000 		.4byte	.LCFI24
 11498 1393 06000000 		.4byte	.LCFI25
 11499 1397 0200     		.2byte	0x2
 11500 1399 7D       		.byte	0x7d
 11501 139a 24       		.sleb128 36
 11502 139b 06000000 		.4byte	.LCFI25
 11503 139f CA000000 		.4byte	.LFE27
 11504 13a3 0300     		.2byte	0x3
 11505 13a5 7D       		.byte	0x7d
 11506 13a6 C000     		.sleb128 64
 11507 13a8 00000000 		.4byte	0x0
 11508 13ac 00000000 		.4byte	0x0
 11509              	.LLST120:
 11510 13b0 00000000 		.4byte	.LVL298
 11511 13b4 24000000 		.4byte	.LVL301
 11512 13b8 0100     		.2byte	0x1
 11513 13ba 50       		.byte	0x50
 11514 13bb 24000000 		.4byte	.LVL301
ARM GAS  /tmp/ccvHIMcj.s 			page 204


 11515 13bf CA000000 		.4byte	.LFE27
 11516 13c3 0200     		.2byte	0x2
 11517 13c5 91       		.byte	0x91
 11518 13c6 54       		.sleb128 -44
 11519 13c7 00000000 		.4byte	0x0
 11520 13cb 00000000 		.4byte	0x0
 11521              	.LLST121:
 11522 13cf 00000000 		.4byte	.LVL298
 11523 13d3 12000000 		.4byte	.LVL300
 11524 13d7 0100     		.2byte	0x1
 11525 13d9 51       		.byte	0x51
 11526 13da 12000000 		.4byte	.LVL300
 11527 13de CA000000 		.4byte	.LFE27
 11528 13e2 0100     		.2byte	0x1
 11529 13e4 54       		.byte	0x54
 11530 13e5 00000000 		.4byte	0x0
 11531 13e9 00000000 		.4byte	0x0
 11532              	.LLST122:
 11533 13ed 00000000 		.4byte	.LVL298
 11534 13f1 34000000 		.4byte	.LVL304
 11535 13f5 0100     		.2byte	0x1
 11536 13f7 52       		.byte	0x52
 11537 13f8 34000000 		.4byte	.LVL304
 11538 13fc CA000000 		.4byte	.LFE27
 11539 1400 0100     		.2byte	0x1
 11540 1402 57       		.byte	0x57
 11541 1403 00000000 		.4byte	0x0
 11542 1407 00000000 		.4byte	0x0
 11543              	.LLST123:
 11544 140b 2E000000 		.4byte	.LVL303
 11545 140f 3A000000 		.4byte	.LVL305
 11546 1413 0700     		.2byte	0x7
 11547 1415 91       		.byte	0x91
 11548 1416 48       		.sleb128 -56
 11549 1417 06       		.byte	0x6
 11550 1418 7A       		.byte	0x7a
 11551 1419 00       		.sleb128 0
 11552 141a 22       		.byte	0x22
 11553 141b 9F       		.byte	0x9f
 11554 141c 8A000000 		.4byte	.LVL313
 11555 1420 94000000 		.4byte	.LVL315
 11556 1424 0A00     		.2byte	0xa
 11557 1426 73       		.byte	0x73
 11558 1427 00       		.sleb128 0
 11559 1428 40       		.byte	0x40
 11560 1429 24       		.byte	0x24
 11561 142a 40       		.byte	0x40
 11562 142b 25       		.byte	0x25
 11563 142c 7A       		.byte	0x7a
 11564 142d 00       		.sleb128 0
 11565 142e 22       		.byte	0x22
 11566 142f 9F       		.byte	0x9f
 11567 1430 00000000 		.4byte	0x0
 11568 1434 00000000 		.4byte	0x0
 11569              	.LLST124:
 11570 1438 0E000000 		.4byte	.LVL299
 11571 143c 26000000 		.4byte	.LVL302
ARM GAS  /tmp/ccvHIMcj.s 			page 205


 11572 1440 0100     		.2byte	0x1
 11573 1442 57       		.byte	0x57
 11574 1443 26000000 		.4byte	.LVL302
 11575 1447 CA000000 		.4byte	.LFE27
 11576 144b 0200     		.2byte	0x2
 11577 144d 91       		.byte	0x91
 11578 144e 48       		.sleb128 -56
 11579 144f 00000000 		.4byte	0x0
 11580 1453 00000000 		.4byte	0x0
 11581              	.LLST125:
 11582 1457 2E000000 		.4byte	.LVL303
 11583 145b 3E000000 		.4byte	.LVL306
 11584 145f 0200     		.2byte	0x2
 11585 1461 30       		.byte	0x30
 11586 1462 9F       		.byte	0x9f
 11587 1463 90000000 		.4byte	.LVL314
 11588 1467 9C000000 		.4byte	.LVL316
 11589 146b 0100     		.2byte	0x1
 11590 146d 5B       		.byte	0x5b
 11591 146e AA000000 		.4byte	.LVL317
 11592 1472 B0000000 		.4byte	.LVL318
 11593 1476 0100     		.2byte	0x1
 11594 1478 5B       		.byte	0x5b
 11595 1479 00000000 		.4byte	0x0
 11596 147d 00000000 		.4byte	0x0
 11597              	.LLST126:
 11598 1481 2E000000 		.4byte	.LVL303
 11599 1485 3E000000 		.4byte	.LVL306
 11600 1489 0100     		.2byte	0x1
 11601 148b 51       		.byte	0x51
 11602 148c 3E000000 		.4byte	.LVL306
 11603 1490 CA000000 		.4byte	.LFE27
 11604 1494 0200     		.2byte	0x2
 11605 1496 91       		.byte	0x91
 11606 1497 4C       		.sleb128 -52
 11607 1498 00000000 		.4byte	0x0
 11608 149c 00000000 		.4byte	0x0
 11609              	.LLST127:
 11610 14a0 2E000000 		.4byte	.LVL303
 11611 14a4 3E000000 		.4byte	.LVL306
 11612 14a8 0200     		.2byte	0x2
 11613 14aa 30       		.byte	0x30
 11614 14ab 9F       		.byte	0x9f
 11615 14ac 00000000 		.4byte	0x0
 11616 14b0 00000000 		.4byte	0x0
 11617              	.LLST128:
 11618 14b4 7C000000 		.4byte	.LVL311
 11619 14b8 84000000 		.4byte	.LVL312
 11620 14bc 0100     		.2byte	0x1
 11621 14be 53       		.byte	0x53
 11622 14bf 00000000 		.4byte	0x0
 11623 14c3 00000000 		.4byte	0x0
 11624              	.LLST129:
 11625 14c7 50000000 		.4byte	.LVL307
 11626 14cb 8A000000 		.4byte	.LVL313
 11627 14cf 0100     		.2byte	0x1
 11628 14d1 54       		.byte	0x54
ARM GAS  /tmp/ccvHIMcj.s 			page 206


 11629 14d2 00000000 		.4byte	0x0
 11630 14d6 00000000 		.4byte	0x0
 11631              	.LLST130:
 11632 14da 50000000 		.4byte	.LVL307
 11633 14de 8A000000 		.4byte	.LVL313
 11634 14e2 0100     		.2byte	0x1
 11635 14e4 58       		.byte	0x58
 11636 14e5 00000000 		.4byte	0x0
 11637 14e9 00000000 		.4byte	0x0
 11638              	.LLST131:
 11639 14ed 50000000 		.4byte	.LVL307
 11640 14f1 5A000000 		.4byte	.LVL308
 11641 14f5 0200     		.2byte	0x2
 11642 14f7 30       		.byte	0x30
 11643 14f8 9F       		.byte	0x9f
 11644 14f9 62000000 		.4byte	.LVL309
 11645 14fd 64000000 		.4byte	.LVL310
 11646 1501 0100     		.2byte	0x1
 11647 1503 55       		.byte	0x55
 11648 1504 00000000 		.4byte	0x0
 11649 1508 00000000 		.4byte	0x0
 11650              	.LLST132:
 11651 150c 00000000 		.4byte	.LVL319
 11652 1510 08000000 		.4byte	.LVL320
 11653 1514 0100     		.2byte	0x1
 11654 1516 50       		.byte	0x50
 11655 1517 08000000 		.4byte	.LVL320
 11656 151b 10000000 		.4byte	.LFE28
 11657 151f 0500     		.2byte	0x5
 11658 1521 03       		.byte	0x3
 11659 1522 00000000 		.4byte	n.6308
 11660 1526 00000000 		.4byte	0x0
 11661 152a 00000000 		.4byte	0x0
 11662              	.LLST133:
 11663 152e 00000000 		.4byte	.LFB29
 11664 1532 02000000 		.4byte	.LCFI26
 11665 1536 0200     		.2byte	0x2
 11666 1538 7D       		.byte	0x7d
 11667 1539 00       		.sleb128 0
 11668 153a 02000000 		.4byte	.LCFI26
 11669 153e 32000000 		.4byte	.LFE29
 11670 1542 0200     		.2byte	0x2
 11671 1544 7D       		.byte	0x7d
 11672 1545 04       		.sleb128 4
 11673 1546 00000000 		.4byte	0x0
 11674 154a 00000000 		.4byte	0x0
 11675              	.LLST134:
 11676 154e 00000000 		.4byte	.LVL321
 11677 1552 1E000000 		.4byte	.LVL325
 11678 1556 0100     		.2byte	0x1
 11679 1558 50       		.byte	0x50
 11680 1559 24000000 		.4byte	.LVL327
 11681 155d 26000000 		.4byte	.LVL328
 11682 1561 0100     		.2byte	0x1
 11683 1563 50       		.byte	0x50
 11684 1564 28000000 		.4byte	.LVL329
 11685 1568 32000000 		.4byte	.LFE29
ARM GAS  /tmp/ccvHIMcj.s 			page 207


 11686 156c 0100     		.2byte	0x1
 11687 156e 50       		.byte	0x50
 11688 156f 00000000 		.4byte	0x0
 11689 1573 00000000 		.4byte	0x0
 11690              	.LLST135:
 11691 1577 10000000 		.4byte	.LVL322
 11692 157b 14000000 		.4byte	.LVL324
 11693 157f 0100     		.2byte	0x1
 11694 1581 54       		.byte	0x54
 11695 1582 28000000 		.4byte	.LVL329
 11696 1586 32000000 		.4byte	.LFE29
 11697 158a 0100     		.2byte	0x1
 11698 158c 54       		.byte	0x54
 11699 158d 00000000 		.4byte	0x0
 11700 1591 00000000 		.4byte	0x0
 11701              	.LLST136:
 11702 1595 12000000 		.4byte	.LVL323
 11703 1599 20000000 		.4byte	.LVL326
 11704 159d 0100     		.2byte	0x1
 11705 159f 52       		.byte	0x52
 11706 15a0 00000000 		.4byte	0x0
 11707 15a4 00000000 		.4byte	0x0
 11708              	.LLST137:
 11709 15a8 00000000 		.4byte	.LFB30
 11710 15ac 02000000 		.4byte	.LCFI27
 11711 15b0 0200     		.2byte	0x2
 11712 15b2 7D       		.byte	0x7d
 11713 15b3 00       		.sleb128 0
 11714 15b4 02000000 		.4byte	.LCFI27
 11715 15b8 44000000 		.4byte	.LFE30
 11716 15bc 0200     		.2byte	0x2
 11717 15be 7D       		.byte	0x7d
 11718 15bf 08       		.sleb128 8
 11719 15c0 00000000 		.4byte	0x0
 11720 15c4 00000000 		.4byte	0x0
 11721              	.LLST138:
 11722 15c8 00000000 		.4byte	.LVL330
 11723 15cc 2A000000 		.4byte	.LVL338
 11724 15d0 0100     		.2byte	0x1
 11725 15d2 50       		.byte	0x50
 11726 15d3 30000000 		.4byte	.LVL340
 11727 15d7 32000000 		.4byte	.LVL341
 11728 15db 0100     		.2byte	0x1
 11729 15dd 50       		.byte	0x50
 11730 15de 34000000 		.4byte	.LVL342
 11731 15e2 36000000 		.4byte	.LVL343
 11732 15e6 0100     		.2byte	0x1
 11733 15e8 50       		.byte	0x50
 11734 15e9 38000000 		.4byte	.LVL344
 11735 15ed 44000000 		.4byte	.LFE30
 11736 15f1 0100     		.2byte	0x1
 11737 15f3 50       		.byte	0x50
 11738 15f4 00000000 		.4byte	0x0
 11739 15f8 00000000 		.4byte	0x0
 11740              	.LLST139:
 11741 15fc 00000000 		.4byte	.LVL330
 11742 1600 0E000000 		.4byte	.LVL333
ARM GAS  /tmp/ccvHIMcj.s 			page 208


 11743 1604 0100     		.2byte	0x1
 11744 1606 51       		.byte	0x51
 11745 1607 38000000 		.4byte	.LVL344
 11746 160b 3E000000 		.4byte	.LVL345
 11747 160f 0100     		.2byte	0x1
 11748 1611 51       		.byte	0x51
 11749 1612 00000000 		.4byte	0x0
 11750 1616 00000000 		.4byte	0x0
 11751              	.LLST140:
 11752 161a 0A000000 		.4byte	.LVL332
 11753 161e 14000000 		.4byte	.LVL335
 11754 1622 0100     		.2byte	0x1
 11755 1624 54       		.byte	0x54
 11756 1625 34000000 		.4byte	.LVL342
 11757 1629 38000000 		.4byte	.LVL344
 11758 162d 0100     		.2byte	0x1
 11759 162f 54       		.byte	0x54
 11760 1630 00000000 		.4byte	0x0
 11761 1634 00000000 		.4byte	0x0
 11762              	.LLST141:
 11763 1638 0E000000 		.4byte	.LVL333
 11764 163c 38000000 		.4byte	.LVL344
 11765 1640 0100     		.2byte	0x1
 11766 1642 51       		.byte	0x51
 11767 1643 3E000000 		.4byte	.LVL345
 11768 1647 44000000 		.4byte	.LFE30
 11769 164b 0100     		.2byte	0x1
 11770 164d 51       		.byte	0x51
 11771 164e 00000000 		.4byte	0x0
 11772 1652 00000000 		.4byte	0x0
 11773              	.LLST142:
 11774 1656 12000000 		.4byte	.LVL334
 11775 165a 2C000000 		.4byte	.LVL339
 11776 165e 0100     		.2byte	0x1
 11777 1660 51       		.byte	0x51
 11778 1661 30000000 		.4byte	.LVL340
 11779 1665 34000000 		.4byte	.LVL342
 11780 1669 0100     		.2byte	0x1
 11781 166b 51       		.byte	0x51
 11782 166c 3E000000 		.4byte	.LVL345
 11783 1670 44000000 		.4byte	.LFE30
 11784 1674 0100     		.2byte	0x1
 11785 1676 51       		.byte	0x51
 11786 1677 00000000 		.4byte	0x0
 11787 167b 00000000 		.4byte	0x0
 11788              	.LLST143:
 11789 167f 12000000 		.4byte	.LVL334
 11790 1683 2A000000 		.4byte	.LVL338
 11791 1687 0100     		.2byte	0x1
 11792 1689 50       		.byte	0x50
 11793 168a 30000000 		.4byte	.LVL340
 11794 168e 32000000 		.4byte	.LVL341
 11795 1692 0100     		.2byte	0x1
 11796 1694 50       		.byte	0x50
 11797 1695 3E000000 		.4byte	.LVL345
 11798 1699 44000000 		.4byte	.LFE30
 11799 169d 0100     		.2byte	0x1
ARM GAS  /tmp/ccvHIMcj.s 			page 209


 11800 169f 50       		.byte	0x50
 11801 16a0 00000000 		.4byte	0x0
 11802 16a4 00000000 		.4byte	0x0
 11803              	.LLST144:
 11804 16a8 1C000000 		.4byte	.LVL336
 11805 16ac 2C000000 		.4byte	.LVL339
 11806 16b0 0100     		.2byte	0x1
 11807 16b2 55       		.byte	0x55
 11808 16b3 3E000000 		.4byte	.LVL345
 11809 16b7 44000000 		.4byte	.LFE30
 11810 16bb 0100     		.2byte	0x1
 11811 16bd 55       		.byte	0x55
 11812 16be 00000000 		.4byte	0x0
 11813 16c2 00000000 		.4byte	0x0
 11814              	.LLST145:
 11815 16c6 1E000000 		.4byte	.LVL337
 11816 16ca 2C000000 		.4byte	.LVL339
 11817 16ce 0100     		.2byte	0x1
 11818 16d0 53       		.byte	0x53
 11819 16d1 00000000 		.4byte	0x0
 11820 16d5 00000000 		.4byte	0x0
 11821              	.LLST146:
 11822 16d9 00000000 		.4byte	.LVL346
 11823 16dd 02000000 		.4byte	.LVL347
 11824 16e1 0100     		.2byte	0x1
 11825 16e3 50       		.byte	0x50
 11826 16e4 00000000 		.4byte	0x0
 11827 16e8 00000000 		.4byte	0x0
 11828              	.LLST147:
 11829 16ec 00000000 		.4byte	.LFB34
 11830 16f0 04000000 		.4byte	.LCFI28
 11831 16f4 0200     		.2byte	0x2
 11832 16f6 7D       		.byte	0x7d
 11833 16f7 00       		.sleb128 0
 11834 16f8 04000000 		.4byte	.LCFI28
 11835 16fc 08000000 		.4byte	.LCFI29
 11836 1700 0200     		.2byte	0x2
 11837 1702 7D       		.byte	0x7d
 11838 1703 24       		.sleb128 36
 11839 1704 08000000 		.4byte	.LCFI29
 11840 1708 3C190000 		.4byte	.LFE34
 11841 170c 0300     		.2byte	0x3
 11842 170e 7D       		.byte	0x7d
 11843 170f D800     		.sleb128 88
 11844 1711 00000000 		.4byte	0x0
 11845 1715 00000000 		.4byte	0x0
 11846              	.LLST148:
 11847 1719 00000000 		.4byte	.LVL348
 11848 171d 24000000 		.4byte	.LVL351
 11849 1721 0100     		.2byte	0x1
 11850 1723 50       		.byte	0x50
 11851 1724 24000000 		.4byte	.LVL351
 11852 1728 64010000 		.4byte	.LVL370
 11853 172c 0100     		.2byte	0x1
 11854 172e 54       		.byte	0x54
 11855 172f 64010000 		.4byte	.LVL370
 11856 1733 D4020000 		.4byte	.LVL372
ARM GAS  /tmp/ccvHIMcj.s 			page 210


 11857 1737 0100     		.2byte	0x1
 11858 1739 58       		.byte	0x58
 11859 173a D4020000 		.4byte	.LVL372
 11860 173e D6020000 		.4byte	.LVL373
 11861 1742 0100     		.2byte	0x1
 11862 1744 50       		.byte	0x50
 11863 1745 DC020000 		.4byte	.LVL374
 11864 1749 EA020000 		.4byte	.LVL377
 11865 174d 0100     		.2byte	0x1
 11866 174f 54       		.byte	0x54
 11867 1750 EE020000 		.4byte	.LVL378
 11868 1754 1A030000 		.4byte	.LVL382
 11869 1758 0100     		.2byte	0x1
 11870 175a 54       		.byte	0x54
 11871 175b 22030000 		.4byte	.LVL383
 11872 175f 64170000 		.4byte	.LVL924
 11873 1763 0100     		.2byte	0x1
 11874 1765 58       		.byte	0x58
 11875 1766 64170000 		.4byte	.LVL924
 11876 176a B2170000 		.4byte	.LVL930
 11877 176e 0100     		.2byte	0x1
 11878 1770 54       		.byte	0x54
 11879 1771 B2170000 		.4byte	.LVL930
 11880 1775 3C190000 		.4byte	.LFE34
 11881 1779 0100     		.2byte	0x1
 11882 177b 58       		.byte	0x58
 11883 177c 00000000 		.4byte	0x0
 11884 1780 00000000 		.4byte	0x0
 11885              	.LLST149:
 11886 1784 00000000 		.4byte	.LVL348
 11887 1788 16000000 		.4byte	.LVL349
 11888 178c 0100     		.2byte	0x1
 11889 178e 51       		.byte	0x51
 11890 178f 16000000 		.4byte	.LVL349
 11891 1793 3C190000 		.4byte	.LFE34
 11892 1797 0300     		.2byte	0x3
 11893 1799 91       		.byte	0x91
 11894 179a B47F     		.sleb128 -76
 11895 179c 00000000 		.4byte	0x0
 11896 17a0 00000000 		.4byte	0x0
 11897              	.LLST150:
 11898 17a4 00000000 		.4byte	.LVL348
 11899 17a8 E8000000 		.4byte	.LVL364
 11900 17ac 0100     		.2byte	0x1
 11901 17ae 52       		.byte	0x52
 11902 17af D4020000 		.4byte	.LVL372
 11903 17b3 D6020000 		.4byte	.LVL373
 11904 17b7 0100     		.2byte	0x1
 11905 17b9 52       		.byte	0x52
 11906 17ba DC020000 		.4byte	.LVL374
 11907 17be EA020000 		.4byte	.LVL377
 11908 17c2 0100     		.2byte	0x1
 11909 17c4 52       		.byte	0x52
 11910 17c5 EE020000 		.4byte	.LVL378
 11911 17c9 F9020000 		.4byte	.LVL379-1
 11912 17cd 0100     		.2byte	0x1
 11913 17cf 52       		.byte	0x52
ARM GAS  /tmp/ccvHIMcj.s 			page 211


 11914 17d0 0E030000 		.4byte	.LVL380
 11915 17d4 1A030000 		.4byte	.LVL382
 11916 17d8 0100     		.2byte	0x1
 11917 17da 52       		.byte	0x52
 11918 17db 64170000 		.4byte	.LVL924
 11919 17df 8B170000 		.4byte	.LVL928-1
 11920 17e3 0100     		.2byte	0x1
 11921 17e5 52       		.byte	0x52
 11922 17e6 00000000 		.4byte	0x0
 11923 17ea 00000000 		.4byte	0x0
 11924              	.LLST151:
 11925 17ee 20000000 		.4byte	.LVL350
 11926 17f2 64010000 		.4byte	.LVL370
 11927 17f6 0100     		.2byte	0x1
 11928 17f8 58       		.byte	0x58
 11929 17f9 64010000 		.4byte	.LVL370
 11930 17fd D4020000 		.4byte	.LVL372
 11931 1801 0100     		.2byte	0x1
 11932 1803 57       		.byte	0x57
 11933 1804 DC020000 		.4byte	.LVL374
 11934 1808 EA020000 		.4byte	.LVL377
 11935 180c 0100     		.2byte	0x1
 11936 180e 58       		.byte	0x58
 11937 180f EE020000 		.4byte	.LVL378
 11938 1813 0E030000 		.4byte	.LVL380
 11939 1817 0100     		.2byte	0x1
 11940 1819 58       		.byte	0x58
 11941 181a 12030000 		.4byte	.LVL381
 11942 181e 1A030000 		.4byte	.LVL382
 11943 1822 0100     		.2byte	0x1
 11944 1824 58       		.byte	0x58
 11945 1825 22030000 		.4byte	.LVL383
 11946 1829 32030000 		.4byte	.LVL385
 11947 182d 0100     		.2byte	0x1
 11948 182f 57       		.byte	0x57
 11949 1830 66030000 		.4byte	.LVL389
 11950 1834 D2130000 		.4byte	.LVL802
 11951 1838 0100     		.2byte	0x1
 11952 183a 57       		.byte	0x57
 11953 183b DC130000 		.4byte	.LVL805
 11954 183f 64170000 		.4byte	.LVL924
 11955 1843 0100     		.2byte	0x1
 11956 1845 57       		.byte	0x57
 11957 1846 64170000 		.4byte	.LVL924
 11958 184a 9E170000 		.4byte	.LVL929
 11959 184e 0100     		.2byte	0x1
 11960 1850 58       		.byte	0x58
 11961 1851 B2170000 		.4byte	.LVL930
 11962 1855 44180000 		.4byte	.LVL953
 11963 1859 0100     		.2byte	0x1
 11964 185b 57       		.byte	0x57
 11965 185c 4A180000 		.4byte	.LVL954
 11966 1860 CA180000 		.4byte	.LVL969
 11967 1864 0100     		.2byte	0x1
 11968 1866 57       		.byte	0x57
 11969 1867 DE180000 		.4byte	.LVL970
 11970 186b 3C190000 		.4byte	.LFE34
ARM GAS  /tmp/ccvHIMcj.s 			page 212


 11971 186f 0100     		.2byte	0x1
 11972 1871 57       		.byte	0x57
 11973 1872 00000000 		.4byte	0x0
 11974 1876 00000000 		.4byte	0x0
 11975              	.LLST152:
 11976 187a 3C000000 		.4byte	.LVL352
 11977 187e 42000000 		.4byte	.LVL353
 11978 1882 0600     		.2byte	0x6
 11979 1884 78       		.byte	0x78
 11980 1885 00       		.sleb128 0
 11981 1886 71       		.byte	0x71
 11982 1887 00       		.sleb128 0
 11983 1888 22       		.byte	0x22
 11984 1889 9F       		.byte	0x9f
 11985 188a 00000000 		.4byte	0x0
 11986 188e 00000000 		.4byte	0x0
 11987              	.LLST153:
 11988 1892 80000000 		.4byte	.LVL359
 11989 1896 D4020000 		.4byte	.LVL372
 11990 189a 0100     		.2byte	0x1
 11991 189c 56       		.byte	0x56
 11992 189d DC020000 		.4byte	.LVL374
 11993 18a1 0E030000 		.4byte	.LVL380
 11994 18a5 0100     		.2byte	0x1
 11995 18a7 56       		.byte	0x56
 11996 18a8 1A030000 		.4byte	.LVL382
 11997 18ac 3C190000 		.4byte	.LFE34
 11998 18b0 0100     		.2byte	0x1
 11999 18b2 56       		.byte	0x56
 12000 18b3 00000000 		.4byte	0x0
 12001 18b7 00000000 		.4byte	0x0
 12002              	.LLST154:
 12003 18bb 96000000 		.4byte	.LVL360
 12004 18bf B8000000 		.4byte	.LVL363
 12005 18c3 0100     		.2byte	0x1
 12006 18c5 51       		.byte	0x51
 12007 18c6 B8000000 		.4byte	.LVL363
 12008 18ca 3A010000 		.4byte	.LVL365
 12009 18ce 0300     		.2byte	0x3
 12010 18d0 91       		.byte	0x91
 12011 18d1 B87F     		.sleb128 -72
 12012 18d3 3A010000 		.4byte	.LVL365
 12013 18d7 D4020000 		.4byte	.LVL372
 12014 18db 0300     		.2byte	0x3
 12015 18dd 91       		.byte	0x91
 12016 18de B87F     		.sleb128 -72
 12017 18e0 DC020000 		.4byte	.LVL374
 12018 18e4 E0020000 		.4byte	.LVL375
 12019 18e8 0100     		.2byte	0x1
 12020 18ea 51       		.byte	0x51
 12021 18eb E0020000 		.4byte	.LVL375
 12022 18ef 0E030000 		.4byte	.LVL380
 12023 18f3 0300     		.2byte	0x3
 12024 18f5 91       		.byte	0x91
 12025 18f6 B87F     		.sleb128 -72
 12026 18f8 1A030000 		.4byte	.LVL382
 12027 18fc 72170000 		.4byte	.LVL925
ARM GAS  /tmp/ccvHIMcj.s 			page 213


 12028 1900 0300     		.2byte	0x3
 12029 1902 91       		.byte	0x91
 12030 1903 B87F     		.sleb128 -72
 12031 1905 72170000 		.4byte	.LVL925
 12032 1909 9E170000 		.4byte	.LVL929
 12033 190d 0100     		.2byte	0x1
 12034 190f 55       		.byte	0x55
 12035 1910 9E170000 		.4byte	.LVL929
 12036 1914 3C190000 		.4byte	.LFE34
 12037 1918 0300     		.2byte	0x3
 12038 191a 91       		.byte	0x91
 12039 191b B87F     		.sleb128 -72
 12040 191d 00000000 		.4byte	0x0
 12041 1921 00000000 		.4byte	0x0
 12042              	.LLST155:
 12043 1925 9E000000 		.4byte	.LVL361
 12044 1929 B4000000 		.4byte	.LVL362
 12045 192d 0100     		.2byte	0x1
 12046 192f 50       		.byte	0x50
 12047 1930 B4000000 		.4byte	.LVL362
 12048 1934 D4020000 		.4byte	.LVL372
 12049 1938 0300     		.2byte	0x3
 12050 193a 91       		.byte	0x91
 12051 193b BC7F     		.sleb128 -68
 12052 193d DC020000 		.4byte	.LVL374
 12053 1941 E6020000 		.4byte	.LVL376
 12054 1945 0100     		.2byte	0x1
 12055 1947 50       		.byte	0x50
 12056 1948 E6020000 		.4byte	.LVL376
 12057 194c 0E030000 		.4byte	.LVL380
 12058 1950 0300     		.2byte	0x3
 12059 1952 91       		.byte	0x91
 12060 1953 BC7F     		.sleb128 -68
 12061 1955 1A030000 		.4byte	.LVL382
 12062 1959 74170000 		.4byte	.LVL926
 12063 195d 0300     		.2byte	0x3
 12064 195f 91       		.byte	0x91
 12065 1960 BC7F     		.sleb128 -68
 12066 1962 74170000 		.4byte	.LVL926
 12067 1966 88170000 		.4byte	.LVL927
 12068 196a 0100     		.2byte	0x1
 12069 196c 50       		.byte	0x50
 12070 196d 88170000 		.4byte	.LVL927
 12071 1971 3C190000 		.4byte	.LFE34
 12072 1975 0300     		.2byte	0x3
 12073 1977 91       		.byte	0x91
 12074 1978 BC7F     		.sleb128 -68
 12075 197a 00000000 		.4byte	0x0
 12076 197e 00000000 		.4byte	0x0
 12077              	.LLST156:
 12078 1982 3C000000 		.4byte	.LVL352
 12079 1986 54000000 		.4byte	.LVL354
 12080 198a 0200     		.2byte	0x2
 12081 198c 30       		.byte	0x30
 12082 198d 9F       		.byte	0x9f
 12083 198e 54000000 		.4byte	.LVL354
 12084 1992 56000000 		.4byte	.LVL355
ARM GAS  /tmp/ccvHIMcj.s 			page 214


 12085 1996 0100     		.2byte	0x1
 12086 1998 50       		.byte	0x50
 12087 1999 66000000 		.4byte	.LVL356
 12088 199d 6C000000 		.4byte	.LVL357
 12089 19a1 0100     		.2byte	0x1
 12090 19a3 50       		.byte	0x50
 12091 19a4 FA020000 		.4byte	.LVL379
 12092 19a8 0E030000 		.4byte	.LVL380
 12093 19ac 0100     		.2byte	0x1
 12094 19ae 50       		.byte	0x50
 12095 19af 5C040000 		.4byte	.LVL403
 12096 19b3 7C040000 		.4byte	.LVL407
 12097 19b7 0100     		.2byte	0x1
 12098 19b9 5A       		.byte	0x5a
 12099 19ba FA0B0000 		.4byte	.LVL557
 12100 19be 240C0000 		.4byte	.LVL560
 12101 19c2 0100     		.2byte	0x1
 12102 19c4 50       		.byte	0x50
 12103 19c5 640F0000 		.4byte	.LVL675
 12104 19c9 6E0F0000 		.4byte	.LVL677
 12105 19cd 0200     		.2byte	0x2
 12106 19cf 73       		.byte	0x73
 12107 19d0 00       		.sleb128 0
 12108 19d1 6E0F0000 		.4byte	.LVL677
 12109 19d5 800F0000 		.4byte	.LVL678
 12110 19d9 0200     		.2byte	0x2
 12111 19db 73       		.byte	0x73
 12112 19dc 78       		.sleb128 -8
 12113 19dd 800F0000 		.4byte	.LVL678
 12114 19e1 820F0000 		.4byte	.LVL679
 12115 19e5 0200     		.2byte	0x2
 12116 19e7 73       		.byte	0x73
 12117 19e8 70       		.sleb128 -16
 12118 19e9 820F0000 		.4byte	.LVL679
 12119 19ed 8A0F0000 		.4byte	.LVL680
 12120 19f1 0100     		.2byte	0x1
 12121 19f3 54       		.byte	0x54
 12122 19f4 940F0000 		.4byte	.LVL682
 12123 19f8 9E0F0000 		.4byte	.LVL684
 12124 19fc 0100     		.2byte	0x1
 12125 19fe 52       		.byte	0x52
 12126 19ff B20F0000 		.4byte	.LVL686
 12127 1a03 C40F0000 		.4byte	.LVL688
 12128 1a07 0100     		.2byte	0x1
 12129 1a09 50       		.byte	0x50
 12130 1a0a E80F0000 		.4byte	.LVL694
 12131 1a0e F60F0000 		.4byte	.LVL695
 12132 1a12 0100     		.2byte	0x1
 12133 1a14 50       		.byte	0x50
 12134 1a15 3A100000 		.4byte	.LVL703
 12135 1a19 4C100000 		.4byte	.LVL705
 12136 1a1d 0100     		.2byte	0x1
 12137 1a1f 50       		.byte	0x50
 12138 1a20 76100000 		.4byte	.LVL707
 12139 1a24 86100000 		.4byte	.LVL708
 12140 1a28 0100     		.2byte	0x1
 12141 1a2a 50       		.byte	0x50
ARM GAS  /tmp/ccvHIMcj.s 			page 215


 12142 1a2b 7C130000 		.4byte	.LVL795
 12143 1a2f A6130000 		.4byte	.LVL796
 12144 1a33 0100     		.2byte	0x1
 12145 1a35 50       		.byte	0x50
 12146 1a36 2A140000 		.4byte	.LVL821
 12147 1a3a 34140000 		.4byte	.LVL823
 12148 1a3e 0200     		.2byte	0x2
 12149 1a40 71       		.byte	0x71
 12150 1a41 00       		.sleb128 0
 12151 1a42 34140000 		.4byte	.LVL823
 12152 1a46 44140000 		.4byte	.LVL824
 12153 1a4a 0200     		.2byte	0x2
 12154 1a4c 71       		.byte	0x71
 12155 1a4d 78       		.sleb128 -8
 12156 1a4e 44140000 		.4byte	.LVL824
 12157 1a52 46140000 		.4byte	.LVL825
 12158 1a56 0200     		.2byte	0x2
 12159 1a58 71       		.byte	0x71
 12160 1a59 70       		.sleb128 -16
 12161 1a5a 46140000 		.4byte	.LVL825
 12162 1a5e 4C140000 		.4byte	.LVL826
 12163 1a62 0100     		.2byte	0x1
 12164 1a64 50       		.byte	0x50
 12165 1a65 4C140000 		.4byte	.LVL826
 12166 1a69 54140000 		.4byte	.LVL828
 12167 1a6d 0100     		.2byte	0x1
 12168 1a6f 53       		.byte	0x53
 12169 1a70 8C170000 		.4byte	.LVL928
 12170 1a74 9E170000 		.4byte	.LVL929
 12171 1a78 0100     		.2byte	0x1
 12172 1a7a 50       		.byte	0x50
 12173 1a7b F0180000 		.4byte	.LVL971
 12174 1a7f 3C190000 		.4byte	.LFE34
 12175 1a83 0100     		.2byte	0x1
 12176 1a85 50       		.byte	0x50
 12177 1a86 00000000 		.4byte	0x0
 12178 1a8a 00000000 		.4byte	0x0
 12179              	.LLST157:
 12180 1a8e 50010000 		.4byte	.LVL366
 12181 1a92 D4020000 		.4byte	.LVL372
 12182 1a96 0200     		.2byte	0x2
 12183 1a98 73       		.byte	0x73
 12184 1a99 7C       		.sleb128 -4
 12185 1a9a D6020000 		.4byte	.LVL373
 12186 1a9e DC020000 		.4byte	.LVL374
 12187 1aa2 0200     		.2byte	0x2
 12188 1aa4 91       		.byte	0x91
 12189 1aa5 54       		.sleb128 -44
 12190 1aa6 EA020000 		.4byte	.LVL377
 12191 1aaa EE020000 		.4byte	.LVL378
 12192 1aae 0200     		.2byte	0x2
 12193 1ab0 73       		.byte	0x73
 12194 1ab1 7C       		.sleb128 -4
 12195 1ab2 1A030000 		.4byte	.LVL382
 12196 1ab6 CA030000 		.4byte	.LVL394
 12197 1aba 0200     		.2byte	0x2
 12198 1abc 73       		.byte	0x73
ARM GAS  /tmp/ccvHIMcj.s 			page 216


 12199 1abd 7C       		.sleb128 -4
 12200 1abe CA030000 		.4byte	.LVL394
 12201 1ac2 DA0A0000 		.4byte	.LVL528
 12202 1ac6 0200     		.2byte	0x2
 12203 1ac8 91       		.byte	0x91
 12204 1ac9 54       		.sleb128 -44
 12205 1aca DE0A0000 		.4byte	.LVL529
 12206 1ace F60A0000 		.4byte	.LVL530
 12207 1ad2 0100     		.2byte	0x1
 12208 1ad4 52       		.byte	0x52
 12209 1ad5 F60A0000 		.4byte	.LVL530
 12210 1ad9 000B0000 		.4byte	.LVL531
 12211 1add 0200     		.2byte	0x2
 12212 1adf 73       		.byte	0x73
 12213 1ae0 7C       		.sleb128 -4
 12214 1ae1 000B0000 		.4byte	.LVL531
 12215 1ae5 D8140000 		.4byte	.LVL849
 12216 1ae9 0200     		.2byte	0x2
 12217 1aeb 91       		.byte	0x91
 12218 1aec 54       		.sleb128 -44
 12219 1aed DC140000 		.4byte	.LVL850
 12220 1af1 F8140000 		.4byte	.LVL853
 12221 1af5 0100     		.2byte	0x1
 12222 1af7 52       		.byte	0x52
 12223 1af8 F8140000 		.4byte	.LVL853
 12224 1afc 1A150000 		.4byte	.LVL858
 12225 1b00 0200     		.2byte	0x2
 12226 1b02 73       		.byte	0x73
 12227 1b03 7C       		.sleb128 -4
 12228 1b04 1A150000 		.4byte	.LVL858
 12229 1b08 64170000 		.4byte	.LVL924
 12230 1b0c 0200     		.2byte	0x2
 12231 1b0e 91       		.byte	0x91
 12232 1b0f 54       		.sleb128 -44
 12233 1b10 9E170000 		.4byte	.LVL929
 12234 1b14 3C190000 		.4byte	.LFE34
 12235 1b18 0200     		.2byte	0x2
 12236 1b1a 91       		.byte	0x91
 12237 1b1b 54       		.sleb128 -44
 12238 1b1c 00000000 		.4byte	0x0
 12239 1b20 00000000 		.4byte	0x0
 12240              	.LLST158:
 12241 1b24 58010000 		.4byte	.LVL367
 12242 1b28 64010000 		.4byte	.LVL370
 12243 1b2c 0100     		.2byte	0x1
 12244 1b2e 5A       		.byte	0x5a
 12245 1b2f 64010000 		.4byte	.LVL370
 12246 1b33 D4020000 		.4byte	.LVL372
 12247 1b37 0100     		.2byte	0x1
 12248 1b39 5A       		.byte	0x5a
 12249 1b3a 22030000 		.4byte	.LVL383
 12250 1b3e 3A050000 		.4byte	.LVL425
 12251 1b42 0100     		.2byte	0x1
 12252 1b44 5A       		.byte	0x5a
 12253 1b45 3A050000 		.4byte	.LVL425
 12254 1b49 4C050000 		.4byte	.LVL427
 12255 1b4d 0100     		.2byte	0x1
ARM GAS  /tmp/ccvHIMcj.s 			page 217


 12256 1b4f 5A       		.byte	0x5a
 12257 1b50 4C050000 		.4byte	.LVL427
 12258 1b54 6A050000 		.4byte	.LVL429
 12259 1b58 0100     		.2byte	0x1
 12260 1b5a 5B       		.byte	0x5b
 12261 1b5b 6A050000 		.4byte	.LVL429
 12262 1b5f 6C050000 		.4byte	.LVL430
 12263 1b63 0100     		.2byte	0x1
 12264 1b65 5A       		.byte	0x5a
 12265 1b66 6C050000 		.4byte	.LVL430
 12266 1b6a 8A050000 		.4byte	.LVL432
 12267 1b6e 0100     		.2byte	0x1
 12268 1b70 59       		.byte	0x59
 12269 1b71 8A050000 		.4byte	.LVL432
 12270 1b75 EE080000 		.4byte	.LVL491
 12271 1b79 0100     		.2byte	0x1
 12272 1b7b 5A       		.byte	0x5a
 12273 1b7c EE080000 		.4byte	.LVL491
 12274 1b80 F2080000 		.4byte	.LVL492
 12275 1b84 0600     		.2byte	0x6
 12276 1b86 74       		.byte	0x74
 12277 1b87 7C       		.sleb128 -4
 12278 1b88 06       		.byte	0x6
 12279 1b89 40       		.byte	0x40
 12280 1b8a 26       		.byte	0x26
 12281 1b8b 9F       		.byte	0x9f
 12282 1b8c F2080000 		.4byte	.LVL492
 12283 1b90 04090000 		.4byte	.LVL493
 12284 1b94 0100     		.2byte	0x1
 12285 1b96 5A       		.byte	0x5a
 12286 1b97 04090000 		.4byte	.LVL493
 12287 1b9b AC090000 		.4byte	.LVL507
 12288 1b9f 0100     		.2byte	0x1
 12289 1ba1 5A       		.byte	0x5a
 12290 1ba2 AC090000 		.4byte	.LVL507
 12291 1ba6 B0090000 		.4byte	.LVL508
 12292 1baa 0900     		.2byte	0x9
 12293 1bac 76       		.byte	0x76
 12294 1bad 00       		.sleb128 0
 12295 1bae 76       		.byte	0x76
 12296 1baf 00       		.sleb128 0
 12297 1bb0 73       		.byte	0x73
 12298 1bb1 00       		.sleb128 0
 12299 1bb2 22       		.byte	0x22
 12300 1bb3 06       		.byte	0x6
 12301 1bb4 22       		.byte	0x22
 12302 1bb5 B0090000 		.4byte	.LVL508
 12303 1bb9 DE090000 		.4byte	.LVL514
 12304 1bbd 0100     		.2byte	0x1
 12305 1bbf 5A       		.byte	0x5a
 12306 1bc0 DE090000 		.4byte	.LVL514
 12307 1bc4 DE0A0000 		.4byte	.LVL529
 12308 1bc8 0100     		.2byte	0x1
 12309 1bca 5A       		.byte	0x5a
 12310 1bcb DE0A0000 		.4byte	.LVL529
 12311 1bcf 3A0B0000 		.4byte	.LVL539
 12312 1bd3 0100     		.2byte	0x1
ARM GAS  /tmp/ccvHIMcj.s 			page 218


 12313 1bd5 5A       		.byte	0x5a
 12314 1bd6 3A0B0000 		.4byte	.LVL539
 12315 1bda 580B0000 		.4byte	.LVL541
 12316 1bde 0100     		.2byte	0x1
 12317 1be0 5B       		.byte	0x5b
 12318 1be1 580B0000 		.4byte	.LVL541
 12319 1be5 F80C0000 		.4byte	.LVL595
 12320 1be9 0100     		.2byte	0x1
 12321 1beb 5A       		.byte	0x5a
 12322 1bec F80C0000 		.4byte	.LVL595
 12323 1bf0 360D0000 		.4byte	.LVL605
 12324 1bf4 0100     		.2byte	0x1
 12325 1bf6 5A       		.byte	0x5a
 12326 1bf7 360D0000 		.4byte	.LVL605
 12327 1bfb 3C0D0000 		.4byte	.LVL607
 12328 1bff 0200     		.2byte	0x2
 12329 1c01 74       		.byte	0x74
 12330 1c02 00       		.sleb128 0
 12331 1c03 3C0D0000 		.4byte	.LVL607
 12332 1c07 520D0000 		.4byte	.LVL611
 12333 1c0b 0100     		.2byte	0x1
 12334 1c0d 5A       		.byte	0x5a
 12335 1c0e 520D0000 		.4byte	.LVL611
 12336 1c12 580D0000 		.4byte	.LVL613
 12337 1c16 0200     		.2byte	0x2
 12338 1c18 74       		.byte	0x74
 12339 1c19 00       		.sleb128 0
 12340 1c1a 580D0000 		.4byte	.LVL613
 12341 1c1e 900D0000 		.4byte	.LVL620
 12342 1c22 0100     		.2byte	0x1
 12343 1c24 5A       		.byte	0x5a
 12344 1c25 980D0000 		.4byte	.LVL621
 12345 1c29 9C0D0000 		.4byte	.LVL622
 12346 1c2d 0500     		.2byte	0x5
 12347 1c2f 76       		.byte	0x76
 12348 1c30 00       		.sleb128 0
 12349 1c31 73       		.byte	0x73
 12350 1c32 00       		.sleb128 0
 12351 1c33 22       		.byte	0x22
 12352 1c34 9C0D0000 		.4byte	.LVL622
 12353 1c38 B60D0000 		.4byte	.LVL628
 12354 1c3c 0100     		.2byte	0x1
 12355 1c3e 5A       		.byte	0x5a
 12356 1c3f BA0D0000 		.4byte	.LVL629
 12357 1c43 D60D0000 		.4byte	.LVL634
 12358 1c47 0100     		.2byte	0x1
 12359 1c49 5A       		.byte	0x5a
 12360 1c4a D60D0000 		.4byte	.LVL634
 12361 1c4e DA0D0000 		.4byte	.LVL635
 12362 1c52 0600     		.2byte	0x6
 12363 1c54 76       		.byte	0x76
 12364 1c55 00       		.sleb128 0
 12365 1c56 74       		.byte	0x74
 12366 1c57 00       		.sleb128 0
 12367 1c58 06       		.byte	0x6
 12368 1c59 22       		.byte	0x22
 12369 1c5a DA0D0000 		.4byte	.LVL635
ARM GAS  /tmp/ccvHIMcj.s 			page 219


 12370 1c5e 060E0000 		.4byte	.LVL640
 12371 1c62 0100     		.2byte	0x1
 12372 1c64 5A       		.byte	0x5a
 12373 1c65 060E0000 		.4byte	.LVL640
 12374 1c69 0C0E0000 		.4byte	.LVL641
 12375 1c6d 0200     		.2byte	0x2
 12376 1c6f 91       		.byte	0x91
 12377 1c70 54       		.sleb128 -44
 12378 1c71 0C0E0000 		.4byte	.LVL641
 12379 1c75 BE0E0000 		.4byte	.LVL657
 12380 1c79 0100     		.2byte	0x1
 12381 1c7b 5A       		.byte	0x5a
 12382 1c7c BE0E0000 		.4byte	.LVL657
 12383 1c80 C40E0000 		.4byte	.LVL658
 12384 1c84 0500     		.2byte	0x5
 12385 1c86 76       		.byte	0x76
 12386 1c87 00       		.sleb128 0
 12387 1c88 79       		.byte	0x79
 12388 1c89 00       		.sleb128 0
 12389 1c8a 22       		.byte	0x22
 12390 1c8b C40E0000 		.4byte	.LVL658
 12391 1c8f C80E0000 		.4byte	.LVL659
 12392 1c93 0800     		.2byte	0x8
 12393 1c95 76       		.byte	0x76
 12394 1c96 00       		.sleb128 0
 12395 1c97 79       		.byte	0x79
 12396 1c98 00       		.sleb128 0
 12397 1c99 22       		.byte	0x22
 12398 1c9a 09       		.byte	0x9
 12399 1c9b FC       		.byte	0xfc
 12400 1c9c 22       		.byte	0x22
 12401 1c9d C80E0000 		.4byte	.LVL659
 12402 1ca1 E80E0000 		.4byte	.LVL661
 12403 1ca5 0100     		.2byte	0x1
 12404 1ca7 59       		.byte	0x59
 12405 1ca8 E80E0000 		.4byte	.LVL661
 12406 1cac 90100000 		.4byte	.LVL710
 12407 1cb0 0100     		.2byte	0x1
 12408 1cb2 5A       		.byte	0x5a
 12409 1cb3 90100000 		.4byte	.LVL710
 12410 1cb7 96100000 		.4byte	.LVL711
 12411 1cbb 0500     		.2byte	0x5
 12412 1cbd 76       		.byte	0x76
 12413 1cbe 00       		.sleb128 0
 12414 1cbf 79       		.byte	0x79
 12415 1cc0 00       		.sleb128 0
 12416 1cc1 22       		.byte	0x22
 12417 1cc2 96100000 		.4byte	.LVL711
 12418 1cc6 AA100000 		.4byte	.LVL714
 12419 1cca 0100     		.2byte	0x1
 12420 1ccc 5A       		.byte	0x5a
 12421 1ccd AE100000 		.4byte	.LVL715
 12422 1cd1 C2100000 		.4byte	.LVL719
 12423 1cd5 0100     		.2byte	0x1
 12424 1cd7 5A       		.byte	0x5a
 12425 1cd8 C2100000 		.4byte	.LVL719
 12426 1cdc 14110000 		.4byte	.LVL727
ARM GAS  /tmp/ccvHIMcj.s 			page 220


 12427 1ce0 0100     		.2byte	0x1
 12428 1ce2 5A       		.byte	0x5a
 12429 1ce3 14110000 		.4byte	.LVL727
 12430 1ce7 3C110000 		.4byte	.LVL730
 12431 1ceb 0200     		.2byte	0x2
 12432 1ced 91       		.byte	0x91
 12433 1cee 4C       		.sleb128 -52
 12434 1cef 4A110000 		.4byte	.LVL732
 12435 1cf3 9E110000 		.4byte	.LVL741
 12436 1cf7 0100     		.2byte	0x1
 12437 1cf9 5A       		.byte	0x5a
 12438 1cfa 9E110000 		.4byte	.LVL741
 12439 1cfe CA110000 		.4byte	.LVL744
 12440 1d02 0200     		.2byte	0x2
 12441 1d04 91       		.byte	0x91
 12442 1d05 4C       		.sleb128 -52
 12443 1d06 D8110000 		.4byte	.LVL746
 12444 1d0a 06140000 		.4byte	.LVL817
 12445 1d0e 0100     		.2byte	0x1
 12446 1d10 5A       		.byte	0x5a
 12447 1d11 06140000 		.4byte	.LVL817
 12448 1d15 90140000 		.4byte	.LVL839
 12449 1d19 0100     		.2byte	0x1
 12450 1d1b 5A       		.byte	0x5a
 12451 1d1c 94140000 		.4byte	.LVL840
 12452 1d20 E0140000 		.4byte	.LVL851
 12453 1d24 0100     		.2byte	0x1
 12454 1d26 5A       		.byte	0x5a
 12455 1d27 E0140000 		.4byte	.LVL851
 12456 1d2b F8140000 		.4byte	.LVL853
 12457 1d2f 0100     		.2byte	0x1
 12458 1d31 53       		.byte	0x53
 12459 1d32 F8140000 		.4byte	.LVL853
 12460 1d36 54150000 		.4byte	.LVL868
 12461 1d3a 0100     		.2byte	0x1
 12462 1d3c 5A       		.byte	0x5a
 12463 1d3d 54150000 		.4byte	.LVL868
 12464 1d41 8A150000 		.4byte	.LVL875
 12465 1d45 0100     		.2byte	0x1
 12466 1d47 5A       		.byte	0x5a
 12467 1d48 8E150000 		.4byte	.LVL876
 12468 1d4c F4150000 		.4byte	.LVL886
 12469 1d50 0100     		.2byte	0x1
 12470 1d52 5A       		.byte	0x5a
 12471 1d53 F4150000 		.4byte	.LVL886
 12472 1d57 1C160000 		.4byte	.LVL889
 12473 1d5b 0200     		.2byte	0x2
 12474 1d5d 91       		.byte	0x91
 12475 1d5e 4C       		.sleb128 -52
 12476 1d5f 2A160000 		.4byte	.LVL891
 12477 1d63 64170000 		.4byte	.LVL924
 12478 1d67 0100     		.2byte	0x1
 12479 1d69 5A       		.byte	0x5a
 12480 1d6a 9E170000 		.4byte	.LVL929
 12481 1d6e 0C180000 		.4byte	.LVL947
 12482 1d72 0100     		.2byte	0x1
 12483 1d74 5A       		.byte	0x5a
ARM GAS  /tmp/ccvHIMcj.s 			page 221


 12484 1d75 0C180000 		.4byte	.LVL947
 12485 1d79 14180000 		.4byte	.LVL949
 12486 1d7d 0100     		.2byte	0x1
 12487 1d7f 53       		.byte	0x53
 12488 1d80 14180000 		.4byte	.LVL949
 12489 1d84 5A180000 		.4byte	.LVL960
 12490 1d88 0100     		.2byte	0x1
 12491 1d8a 5A       		.byte	0x5a
 12492 1d8b 5A180000 		.4byte	.LVL960
 12493 1d8f 60180000 		.4byte	.LVL961
 12494 1d93 0100     		.2byte	0x1
 12495 1d95 53       		.byte	0x53
 12496 1d96 60180000 		.4byte	.LVL961
 12497 1d9a 6C180000 		.4byte	.LVL963
 12498 1d9e 0100     		.2byte	0x1
 12499 1da0 5A       		.byte	0x5a
 12500 1da1 6C180000 		.4byte	.LVL963
 12501 1da5 3C190000 		.4byte	.LFE34
 12502 1da9 0100     		.2byte	0x1
 12503 1dab 5A       		.byte	0x5a
 12504 1dac 00000000 		.4byte	0x0
 12505 1db0 00000000 		.4byte	0x0
 12506              	.LLST159:
 12507 1db4 5E010000 		.4byte	.LVL369
 12508 1db8 64010000 		.4byte	.LVL370
 12509 1dbc 0100     		.2byte	0x1
 12510 1dbe 59       		.byte	0x59
 12511 1dbf 64010000 		.4byte	.LVL370
 12512 1dc3 D4020000 		.4byte	.LVL372
 12513 1dc7 0100     		.2byte	0x1
 12514 1dc9 59       		.byte	0x59
 12515 1dca 22030000 		.4byte	.LVL383
 12516 1dce 70050000 		.4byte	.LVL431
 12517 1dd2 0100     		.2byte	0x1
 12518 1dd4 59       		.byte	0x59
 12519 1dd5 70050000 		.4byte	.LVL431
 12520 1dd9 8C050000 		.4byte	.LVL433
 12521 1ddd 0100     		.2byte	0x1
 12522 1ddf 50       		.byte	0x50
 12523 1de0 8C050000 		.4byte	.LVL433
 12524 1de4 9A050000 		.4byte	.LVL434
 12525 1de8 0100     		.2byte	0x1
 12526 1dea 59       		.byte	0x59
 12527 1deb EE050000 		.4byte	.LVL438
 12528 1def FA050000 		.4byte	.LVL440
 12529 1df3 0100     		.2byte	0x1
 12530 1df5 59       		.byte	0x59
 12531 1df6 56060000 		.4byte	.LVL445
 12532 1dfa 60060000 		.4byte	.LVL447
 12533 1dfe 0100     		.2byte	0x1
 12534 1e00 59       		.byte	0x59
 12535 1e01 B2060000 		.4byte	.LVL451
 12536 1e05 BC060000 		.4byte	.LVL452
 12537 1e09 0100     		.2byte	0x1
 12538 1e0b 59       		.byte	0x59
 12539 1e0c 10070000 		.4byte	.LVL455
 12540 1e10 1C070000 		.4byte	.LVL456
ARM GAS  /tmp/ccvHIMcj.s 			page 222


 12541 1e14 0100     		.2byte	0x1
 12542 1e16 59       		.byte	0x59
 12543 1e17 72070000 		.4byte	.LVL460
 12544 1e1b 7C070000 		.4byte	.LVL462
 12545 1e1f 0100     		.2byte	0x1
 12546 1e21 59       		.byte	0x59
 12547 1e22 CE070000 		.4byte	.LVL466
 12548 1e26 D2070000 		.4byte	.LVL467
 12549 1e2a 0100     		.2byte	0x1
 12550 1e2c 59       		.byte	0x59
 12551 1e2d D2070000 		.4byte	.LVL467
 12552 1e31 EA070000 		.4byte	.LVL469
 12553 1e35 0100     		.2byte	0x1
 12554 1e37 59       		.byte	0x59
 12555 1e38 EA070000 		.4byte	.LVL469
 12556 1e3c FA070000 		.4byte	.LVL471
 12557 1e40 0100     		.2byte	0x1
 12558 1e42 59       		.byte	0x59
 12559 1e43 FA070000 		.4byte	.LVL471
 12560 1e47 06080000 		.4byte	.LVL473
 12561 1e4b 0100     		.2byte	0x1
 12562 1e4d 59       		.byte	0x59
 12563 1e4e 06080000 		.4byte	.LVL473
 12564 1e52 44080000 		.4byte	.LVL477
 12565 1e56 0100     		.2byte	0x1
 12566 1e58 59       		.byte	0x59
 12567 1e59 8E080000 		.4byte	.LVL480
 12568 1e5d 96080000 		.4byte	.LVL481
 12569 1e61 0100     		.2byte	0x1
 12570 1e63 59       		.byte	0x59
 12571 1e64 96080000 		.4byte	.LVL481
 12572 1e68 AE080000 		.4byte	.LVL483
 12573 1e6c 0100     		.2byte	0x1
 12574 1e6e 59       		.byte	0x59
 12575 1e6f AE080000 		.4byte	.LVL483
 12576 1e73 BC080000 		.4byte	.LVL485
 12577 1e77 0100     		.2byte	0x1
 12578 1e79 59       		.byte	0x59
 12579 1e7a BC080000 		.4byte	.LVL485
 12580 1e7e 800B0000 		.4byte	.LVL548
 12581 1e82 0100     		.2byte	0x1
 12582 1e84 59       		.byte	0x59
 12583 1e85 BE0B0000 		.4byte	.LVL551
 12584 1e89 C40B0000 		.4byte	.LVL552
 12585 1e8d 0100     		.2byte	0x1
 12586 1e8f 59       		.byte	0x59
 12587 1e90 C40B0000 		.4byte	.LVL552
 12588 1e94 D40B0000 		.4byte	.LVL555
 12589 1e98 0300     		.2byte	0x3
 12590 1e9a 79       		.byte	0x79
 12591 1e9b 04       		.sleb128 4
 12592 1e9c 9F       		.byte	0x9f
 12593 1e9d D40B0000 		.4byte	.LVL555
 12594 1ea1 040C0000 		.4byte	.LVL558
 12595 1ea5 0100     		.2byte	0x1
 12596 1ea7 59       		.byte	0x59
 12597 1ea8 040C0000 		.4byte	.LVL558
ARM GAS  /tmp/ccvHIMcj.s 			page 223


 12598 1eac 7A0C0000 		.4byte	.LVL574
 12599 1eb0 0100     		.2byte	0x1
 12600 1eb2 59       		.byte	0x59
 12601 1eb3 7A0C0000 		.4byte	.LVL574
 12602 1eb7 9A0C0000 		.4byte	.LVL578
 12603 1ebb 0100     		.2byte	0x1
 12604 1ebd 59       		.byte	0x59
 12605 1ebe 9A0C0000 		.4byte	.LVL578
 12606 1ec2 A80C0000 		.4byte	.LVL580
 12607 1ec6 0300     		.2byte	0x3
 12608 1ec8 72       		.byte	0x72
 12609 1ec9 04       		.sleb128 4
 12610 1eca 9F       		.byte	0x9f
 12611 1ecb A80C0000 		.4byte	.LVL580
 12612 1ecf B00C0000 		.4byte	.LVL583
 12613 1ed3 0100     		.2byte	0x1
 12614 1ed5 50       		.byte	0x50
 12615 1ed6 B00C0000 		.4byte	.LVL583
 12616 1eda C20C0000 		.4byte	.LVL586
 12617 1ede 0100     		.2byte	0x1
 12618 1ee0 59       		.byte	0x59
 12619 1ee1 C20C0000 		.4byte	.LVL586
 12620 1ee5 D60C0000 		.4byte	.LVL590
 12621 1ee9 0300     		.2byte	0x3
 12622 1eeb 72       		.byte	0x72
 12623 1eec 04       		.sleb128 4
 12624 1eed 9F       		.byte	0x9f
 12625 1eee D60C0000 		.4byte	.LVL590
 12626 1ef2 DA0C0000 		.4byte	.LVL591
 12627 1ef6 0100     		.2byte	0x1
 12628 1ef8 59       		.byte	0x59
 12629 1ef9 DA0C0000 		.4byte	.LVL591
 12630 1efd 760E0000 		.4byte	.LVL650
 12631 1f01 0100     		.2byte	0x1
 12632 1f03 59       		.byte	0x59
 12633 1f04 760E0000 		.4byte	.LVL650
 12634 1f08 800E0000 		.4byte	.LVL651
 12635 1f0c 0100     		.2byte	0x1
 12636 1f0e 59       		.byte	0x59
 12637 1f0f 800E0000 		.4byte	.LVL651
 12638 1f13 900E0000 		.4byte	.LVL652
 12639 1f17 0100     		.2byte	0x1
 12640 1f19 59       		.byte	0x59
 12641 1f1a 900E0000 		.4byte	.LVL652
 12642 1f1e A00E0000 		.4byte	.LVL653
 12643 1f22 0100     		.2byte	0x1
 12644 1f24 59       		.byte	0x59
 12645 1f25 A00E0000 		.4byte	.LVL653
 12646 1f29 C40E0000 		.4byte	.LVL658
 12647 1f2d 0100     		.2byte	0x1
 12648 1f2f 59       		.byte	0x59
 12649 1f30 C40E0000 		.4byte	.LVL658
 12650 1f34 D20E0000 		.4byte	.LVL660
 12651 1f38 0100     		.2byte	0x1
 12652 1f3a 59       		.byte	0x59
 12653 1f3b D20E0000 		.4byte	.LVL660
 12654 1f3f EC0E0000 		.4byte	.LVL662
ARM GAS  /tmp/ccvHIMcj.s 			page 224


 12655 1f43 0100     		.2byte	0x1
 12656 1f45 53       		.byte	0x53
 12657 1f46 EC0E0000 		.4byte	.LVL662
 12658 1f4a CE0F0000 		.4byte	.LVL690
 12659 1f4e 0100     		.2byte	0x1
 12660 1f50 59       		.byte	0x59
 12661 1f51 D80F0000 		.4byte	.LVL691
 12662 1f55 E00F0000 		.4byte	.LVL692
 12663 1f59 0100     		.2byte	0x1
 12664 1f5b 59       		.byte	0x59
 12665 1f5c E00F0000 		.4byte	.LVL692
 12666 1f60 E70F0000 		.4byte	.LVL694-1
 12667 1f64 0C00     		.2byte	0xc
 12668 1f66 79       		.byte	0x79
 12669 1f67 00       		.sleb128 0
 12670 1f68 76       		.byte	0x76
 12671 1f69 00       		.sleb128 0
 12672 1f6a 79       		.byte	0x79
 12673 1f6b 00       		.sleb128 0
 12674 1f6c 22       		.byte	0x22
 12675 1f6d 06       		.byte	0x6
 12676 1f6e 22       		.byte	0x22
 12677 1f6f 23       		.byte	0x23
 12678 1f70 04       		.uleb128 0x4
 12679 1f71 9F       		.byte	0x9f
 12680 1f72 E70F0000 		.4byte	.LVL694-1
 12681 1f76 06100000 		.4byte	.LVL697
 12682 1f7a 0800     		.2byte	0x8
 12683 1f7c 75       		.byte	0x75
 12684 1f7d 00       		.sleb128 0
 12685 1f7e 79       		.byte	0x79
 12686 1f7f 00       		.sleb128 0
 12687 1f80 22       		.byte	0x22
 12688 1f81 23       		.byte	0x23
 12689 1f82 04       		.uleb128 0x4
 12690 1f83 9F       		.byte	0x9f
 12691 1f84 06100000 		.4byte	.LVL697
 12692 1f88 08100000 		.4byte	.LVL698
 12693 1f8c 0600     		.2byte	0x6
 12694 1f8e 79       		.byte	0x79
 12695 1f8f 00       		.sleb128 0
 12696 1f90 75       		.byte	0x75
 12697 1f91 00       		.sleb128 0
 12698 1f92 22       		.byte	0x22
 12699 1f93 9F       		.byte	0x9f
 12700 1f94 10100000 		.4byte	.LVL700
 12701 1f98 24100000 		.4byte	.LVL702
 12702 1f9c 0100     		.2byte	0x1
 12703 1f9e 59       		.byte	0x59
 12704 1f9f 24100000 		.4byte	.LVL702
 12705 1fa3 EE100000 		.4byte	.LVL725
 12706 1fa7 0100     		.2byte	0x1
 12707 1fa9 59       		.byte	0x59
 12708 1faa 4A110000 		.4byte	.LVL732
 12709 1fae 76110000 		.4byte	.LVL739
 12710 1fb2 0100     		.2byte	0x1
 12711 1fb4 59       		.byte	0x59
ARM GAS  /tmp/ccvHIMcj.s 			page 225


 12712 1fb5 D8110000 		.4byte	.LVL746
 12713 1fb9 00120000 		.4byte	.LVL751
 12714 1fbd 0100     		.2byte	0x1
 12715 1fbf 59       		.byte	0x59
 12716 1fc0 44120000 		.4byte	.LVL754
 12717 1fc4 4A120000 		.4byte	.LVL755
 12718 1fc8 0100     		.2byte	0x1
 12719 1fca 59       		.byte	0x59
 12720 1fcb 4A120000 		.4byte	.LVL755
 12721 1fcf 4E120000 		.4byte	.LVL756
 12722 1fd3 0300     		.2byte	0x3
 12723 1fd5 79       		.byte	0x79
 12724 1fd6 04       		.sleb128 4
 12725 1fd7 9F       		.byte	0x9f
 12726 1fd8 4E120000 		.4byte	.LVL756
 12727 1fdc 5C120000 		.4byte	.LVL758
 12728 1fe0 0100     		.2byte	0x1
 12729 1fe2 59       		.byte	0x59
 12730 1fe3 5C120000 		.4byte	.LVL758
 12731 1fe7 66120000 		.4byte	.LVL759
 12732 1feb 0300     		.2byte	0x3
 12733 1fed 79       		.byte	0x79
 12734 1fee 04       		.sleb128 4
 12735 1fef 9F       		.byte	0x9f
 12736 1ff0 66120000 		.4byte	.LVL759
 12737 1ff4 70120000 		.4byte	.LVL762
 12738 1ff8 0100     		.2byte	0x1
 12739 1ffa 59       		.byte	0x59
 12740 1ffb 70120000 		.4byte	.LVL762
 12741 1fff 78120000 		.4byte	.LVL763
 12742 2003 0300     		.2byte	0x3
 12743 2005 79       		.byte	0x79
 12744 2006 04       		.sleb128 4
 12745 2007 9F       		.byte	0x9f
 12746 2008 78120000 		.4byte	.LVL763
 12747 200c 86120000 		.4byte	.LVL765
 12748 2010 0100     		.2byte	0x1
 12749 2012 59       		.byte	0x59
 12750 2013 86120000 		.4byte	.LVL765
 12751 2017 8A120000 		.4byte	.LVL766
 12752 201b 0300     		.2byte	0x3
 12753 201d 79       		.byte	0x79
 12754 201e 04       		.sleb128 4
 12755 201f 9F       		.byte	0x9f
 12756 2020 8A120000 		.4byte	.LVL766
 12757 2024 98120000 		.4byte	.LVL768
 12758 2028 0100     		.2byte	0x1
 12759 202a 59       		.byte	0x59
 12760 202b 98120000 		.4byte	.LVL768
 12761 202f 9A120000 		.4byte	.LVL769
 12762 2033 0300     		.2byte	0x3
 12763 2035 79       		.byte	0x79
 12764 2036 04       		.sleb128 4
 12765 2037 9F       		.byte	0x9f
 12766 2038 9A120000 		.4byte	.LVL769
 12767 203c 2A130000 		.4byte	.LVL785
 12768 2040 0100     		.2byte	0x1
ARM GAS  /tmp/ccvHIMcj.s 			page 226


 12769 2042 59       		.byte	0x59
 12770 2043 2A130000 		.4byte	.LVL785
 12771 2047 2E130000 		.4byte	.LVL786
 12772 204b 0300     		.2byte	0x3
 12773 204d 79       		.byte	0x79
 12774 204e 04       		.sleb128 4
 12775 204f 9F       		.byte	0x9f
 12776 2050 2E130000 		.4byte	.LVL786
 12777 2054 3C130000 		.4byte	.LVL788
 12778 2058 0100     		.2byte	0x1
 12779 205a 59       		.byte	0x59
 12780 205b 3C130000 		.4byte	.LVL788
 12781 205f 44130000 		.4byte	.LVL789
 12782 2063 0300     		.2byte	0x3
 12783 2065 79       		.byte	0x79
 12784 2066 04       		.sleb128 4
 12785 2067 9F       		.byte	0x9f
 12786 2068 44130000 		.4byte	.LVL789
 12787 206c D2150000 		.4byte	.LVL884
 12788 2070 0100     		.2byte	0x1
 12789 2072 59       		.byte	0x59
 12790 2073 2A160000 		.4byte	.LVL891
 12791 2077 4C160000 		.4byte	.LVL899
 12792 207b 0100     		.2byte	0x1
 12793 207d 59       		.byte	0x59
 12794 207e 94160000 		.4byte	.LVL902
 12795 2082 BC160000 		.4byte	.LVL909
 12796 2086 0100     		.2byte	0x1
 12797 2088 59       		.byte	0x59
 12798 2089 02170000 		.4byte	.LVL912
 12799 208d 0E170000 		.4byte	.LVL915
 12800 2091 0100     		.2byte	0x1
 12801 2093 59       		.byte	0x59
 12802 2094 0E170000 		.4byte	.LVL915
 12803 2098 12170000 		.4byte	.LVL916
 12804 209c 0200     		.2byte	0x2
 12805 209e 91       		.byte	0x91
 12806 209f 54       		.sleb128 -44
 12807 20a0 12170000 		.4byte	.LVL916
 12808 20a4 64170000 		.4byte	.LVL924
 12809 20a8 0100     		.2byte	0x1
 12810 20aa 59       		.byte	0x59
 12811 20ab 9E170000 		.4byte	.LVL929
 12812 20af 1A180000 		.4byte	.LVL950
 12813 20b3 0100     		.2byte	0x1
 12814 20b5 59       		.byte	0x59
 12815 20b6 3E180000 		.4byte	.LVL952
 12816 20ba 3C190000 		.4byte	.LFE34
 12817 20be 0100     		.2byte	0x1
 12818 20c0 59       		.byte	0x59
 12819 20c1 00000000 		.4byte	0x0
 12820 20c5 00000000 		.4byte	0x0
 12821              	.LLST160:
 12822 20c9 5C010000 		.4byte	.LVL368
 12823 20cd 64010000 		.4byte	.LVL370
 12824 20d1 0100     		.2byte	0x1
 12825 20d3 5C       		.byte	0x5c
ARM GAS  /tmp/ccvHIMcj.s 			page 227


 12826 20d4 64010000 		.4byte	.LVL370
 12827 20d8 D4020000 		.4byte	.LVL372
 12828 20dc 0100     		.2byte	0x1
 12829 20de 5C       		.byte	0x5c
 12830 20df 22030000 		.4byte	.LVL383
 12831 20e3 C3030000 		.4byte	.LVL392-1
 12832 20e7 0100     		.2byte	0x1
 12833 20e9 5C       		.byte	0x5c
 12834 20ea C8030000 		.4byte	.LVL393
 12835 20ee 29040000 		.4byte	.LVL399-1
 12836 20f2 0100     		.2byte	0x1
 12837 20f4 5C       		.byte	0x5c
 12838 20f5 30040000 		.4byte	.LVL400
 12839 20f9 F90B0000 		.4byte	.LVL557-1
 12840 20fd 0100     		.2byte	0x1
 12841 20ff 5C       		.byte	0x5c
 12842 2100 240C0000 		.4byte	.LVL560
 12843 2104 9A0C0000 		.4byte	.LVL578
 12844 2108 0100     		.2byte	0x1
 12845 210a 5C       		.byte	0x5c
 12846 210b 9A0C0000 		.4byte	.LVL578
 12847 210f AC0C0000 		.4byte	.LVL581
 12848 2113 0500     		.2byte	0x5
 12849 2115 76       		.byte	0x76
 12850 2116 00       		.sleb128 0
 12851 2117 79       		.byte	0x79
 12852 2118 00       		.sleb128 0
 12853 2119 22       		.byte	0x22
 12854 211a AC0C0000 		.4byte	.LVL581
 12855 211e B40C0000 		.4byte	.LVL584
 12856 2122 0800     		.2byte	0x8
 12857 2124 76       		.byte	0x76
 12858 2125 00       		.sleb128 0
 12859 2126 70       		.byte	0x70
 12860 2127 00       		.sleb128 0
 12861 2128 22       		.byte	0x22
 12862 2129 09       		.byte	0x9
 12863 212a F8       		.byte	0xf8
 12864 212b 22       		.byte	0x22
 12865 212c B40C0000 		.4byte	.LVL584
 12866 2130 C20C0000 		.4byte	.LVL586
 12867 2134 0100     		.2byte	0x1
 12868 2136 5C       		.byte	0x5c
 12869 2137 C20C0000 		.4byte	.LVL586
 12870 213b D00C0000 		.4byte	.LVL588
 12871 213f 0500     		.2byte	0x5
 12872 2141 76       		.byte	0x76
 12873 2142 00       		.sleb128 0
 12874 2143 79       		.byte	0x79
 12875 2144 00       		.sleb128 0
 12876 2145 22       		.byte	0x22
 12877 2146 D00C0000 		.4byte	.LVL588
 12878 214a D60C0000 		.4byte	.LVL590
 12879 214e 0800     		.2byte	0x8
 12880 2150 76       		.byte	0x76
 12881 2151 00       		.sleb128 0
 12882 2152 72       		.byte	0x72
ARM GAS  /tmp/ccvHIMcj.s 			page 228


 12883 2153 00       		.sleb128 0
 12884 2154 22       		.byte	0x22
 12885 2155 09       		.byte	0x9
 12886 2156 FC       		.byte	0xfc
 12887 2157 22       		.byte	0x22
 12888 2158 D60C0000 		.4byte	.LVL590
 12889 215c E40C0000 		.4byte	.LVL592
 12890 2160 0100     		.2byte	0x1
 12891 2162 5C       		.byte	0x5c
 12892 2163 E40C0000 		.4byte	.LVL592
 12893 2167 F00C0000 		.4byte	.LVL593
 12894 216b 0100     		.2byte	0x1
 12895 216d 59       		.byte	0x59
 12896 216e F00C0000 		.4byte	.LVL593
 12897 2172 B10F0000 		.4byte	.LVL686-1
 12898 2176 0100     		.2byte	0x1
 12899 2178 5C       		.byte	0x5c
 12900 2179 C40F0000 		.4byte	.LVL688
 12901 217d CE0F0000 		.4byte	.LVL690
 12902 2181 0100     		.2byte	0x1
 12903 2183 5C       		.byte	0x5c
 12904 2184 CE0F0000 		.4byte	.LVL690
 12905 2188 D80F0000 		.4byte	.LVL691
 12906 218c 0500     		.2byte	0x5
 12907 218e 76       		.byte	0x76
 12908 218f 00       		.sleb128 0
 12909 2190 79       		.byte	0x79
 12910 2191 00       		.sleb128 0
 12911 2192 22       		.byte	0x22
 12912 2193 D80F0000 		.4byte	.LVL691
 12913 2197 E00F0000 		.4byte	.LVL692
 12914 219b 0800     		.2byte	0x8
 12915 219d 76       		.byte	0x76
 12916 219e 00       		.sleb128 0
 12917 219f 75       		.byte	0x75
 12918 21a0 00       		.sleb128 0
 12919 21a1 22       		.byte	0x22
 12920 21a2 09       		.byte	0x9
 12921 21a3 FC       		.byte	0xfc
 12922 21a4 22       		.byte	0x22
 12923 21a5 E00F0000 		.4byte	.LVL692
 12924 21a9 E70F0000 		.4byte	.LVL694-1
 12925 21ad 0800     		.2byte	0x8
 12926 21af 76       		.byte	0x76
 12927 21b0 00       		.sleb128 0
 12928 21b1 79       		.byte	0x79
 12929 21b2 00       		.sleb128 0
 12930 21b3 22       		.byte	0x22
 12931 21b4 09       		.byte	0x9
 12932 21b5 F8       		.byte	0xf8
 12933 21b6 22       		.byte	0x22
 12934 21b7 10100000 		.4byte	.LVL700
 12935 21bb 39100000 		.4byte	.LVL703-1
 12936 21bf 0100     		.2byte	0x1
 12937 21c1 5C       		.byte	0x5c
 12938 21c2 4C100000 		.4byte	.LVL705
 12939 21c6 75100000 		.4byte	.LVL707-1
ARM GAS  /tmp/ccvHIMcj.s 			page 229


 12940 21ca 0100     		.2byte	0x1
 12941 21cc 5C       		.byte	0x5c
 12942 21cd 86100000 		.4byte	.LVL708
 12943 21d1 7B130000 		.4byte	.LVL795-1
 12944 21d5 0100     		.2byte	0x1
 12945 21d7 5C       		.byte	0x5c
 12946 21d8 A6130000 		.4byte	.LVL796
 12947 21dc B6130000 		.4byte	.LVL799
 12948 21e0 0100     		.2byte	0x1
 12949 21e2 5C       		.byte	0x5c
 12950 21e3 D0130000 		.4byte	.LVL801
 12951 21e7 06170000 		.4byte	.LVL913
 12952 21eb 0100     		.2byte	0x1
 12953 21ed 5C       		.byte	0x5c
 12954 21ee 06170000 		.4byte	.LVL913
 12955 21f2 0A170000 		.4byte	.LVL914
 12956 21f6 0200     		.2byte	0x2
 12957 21f8 91       		.byte	0x91
 12958 21f9 54       		.sleb128 -44
 12959 21fa 0A170000 		.4byte	.LVL914
 12960 21fe 64170000 		.4byte	.LVL924
 12961 2202 0100     		.2byte	0x1
 12962 2204 5C       		.byte	0x5c
 12963 2205 9E170000 		.4byte	.LVL929
 12964 2209 2C180000 		.4byte	.LVL951
 12965 220d 0100     		.2byte	0x1
 12966 220f 5C       		.byte	0x5c
 12967 2210 3E180000 		.4byte	.LVL952
 12968 2214 C4180000 		.4byte	.LVL968
 12969 2218 0100     		.2byte	0x1
 12970 221a 5C       		.byte	0x5c
 12971 221b DE180000 		.4byte	.LVL970
 12972 221f F0180000 		.4byte	.LVL971
 12973 2223 0100     		.2byte	0x1
 12974 2225 5C       		.byte	0x5c
 12975 2226 00000000 		.4byte	0x0
 12976 222a 00000000 		.4byte	0x0
 12977              	.LLST161:
 12978 222e 5E010000 		.4byte	.LVL369
 12979 2232 D4020000 		.4byte	.LVL372
 12980 2236 0100     		.2byte	0x1
 12981 2238 5B       		.byte	0x5b
 12982 2239 22030000 		.4byte	.LVL383
 12983 223d 50050000 		.4byte	.LVL428
 12984 2241 0100     		.2byte	0x1
 12985 2243 5B       		.byte	0x5b
 12986 2244 50050000 		.4byte	.LVL428
 12987 2248 6C050000 		.4byte	.LVL430
 12988 224c 0100     		.2byte	0x1
 12989 224e 50       		.byte	0x50
 12990 224f 6C050000 		.4byte	.LVL430
 12991 2253 3E0B0000 		.4byte	.LVL540
 12992 2257 0100     		.2byte	0x1
 12993 2259 5B       		.byte	0x5b
 12994 225a 3E0B0000 		.4byte	.LVL540
 12995 225e 5C0B0000 		.4byte	.LVL542
 12996 2262 0100     		.2byte	0x1
ARM GAS  /tmp/ccvHIMcj.s 			page 230


 12997 2264 53       		.byte	0x53
 12998 2265 5C0B0000 		.4byte	.LVL542
 12999 2269 16170000 		.4byte	.LVL917
 13000 226d 0100     		.2byte	0x1
 13001 226f 5B       		.byte	0x5b
 13002 2270 16170000 		.4byte	.LVL917
 13003 2274 1A170000 		.4byte	.LVL918
 13004 2278 0200     		.2byte	0x2
 13005 227a 91       		.byte	0x91
 13006 227b 54       		.sleb128 -44
 13007 227c 1A170000 		.4byte	.LVL918
 13008 2280 64170000 		.4byte	.LVL924
 13009 2284 0100     		.2byte	0x1
 13010 2286 5B       		.byte	0x5b
 13011 2287 9E170000 		.4byte	.LVL929
 13012 228b 3C190000 		.4byte	.LFE34
 13013 228f 0100     		.2byte	0x1
 13014 2291 5B       		.byte	0x5b
 13015 2292 00000000 		.4byte	0x0
 13016 2296 00000000 		.4byte	0x0
 13017              	.LLST162:
 13018 229a 5E010000 		.4byte	.LVL369
 13019 229e 64010000 		.4byte	.LVL370
 13020 22a2 0100     		.2byte	0x1
 13021 22a4 55       		.byte	0x55
 13022 22a5 64010000 		.4byte	.LVL370
 13023 22a9 6A010000 		.4byte	.LVL371
 13024 22ad 0100     		.2byte	0x1
 13025 22af 55       		.byte	0x55
 13026 22b0 6A010000 		.4byte	.LVL371
 13027 22b4 D4020000 		.4byte	.LVL372
 13028 22b8 0100     		.2byte	0x1
 13029 22ba 54       		.byte	0x54
 13030 22bb 22030000 		.4byte	.LVL383
 13031 22bf 36030000 		.4byte	.LVL387
 13032 22c3 0100     		.2byte	0x1
 13033 22c5 54       		.byte	0x54
 13034 22c6 36030000 		.4byte	.LVL387
 13035 22ca 4C030000 		.4byte	.LVL388
 13036 22ce 0100     		.2byte	0x1
 13037 22d0 57       		.byte	0x57
 13038 22d1 66030000 		.4byte	.LVL389
 13039 22d5 6A030000 		.4byte	.LVL391
 13040 22d9 0100     		.2byte	0x1
 13041 22db 54       		.byte	0x54
 13042 22dc 6A030000 		.4byte	.LVL391
 13043 22e0 CC030000 		.4byte	.LVL395
 13044 22e4 0100     		.2byte	0x1
 13045 22e6 55       		.byte	0x55
 13046 22e7 CC030000 		.4byte	.LVL395
 13047 22eb D0030000 		.4byte	.LVL397
 13048 22ef 0100     		.2byte	0x1
 13049 22f1 54       		.byte	0x54
 13050 22f2 D0030000 		.4byte	.LVL397
 13051 22f6 30040000 		.4byte	.LVL400
 13052 22fa 0100     		.2byte	0x1
 13053 22fc 55       		.byte	0x55
ARM GAS  /tmp/ccvHIMcj.s 			page 231


 13054 22fd 30040000 		.4byte	.LVL400
 13055 2301 34040000 		.4byte	.LVL402
 13056 2305 0100     		.2byte	0x1
 13057 2307 54       		.byte	0x54
 13058 2308 34040000 		.4byte	.LVL402
 13059 230c AC040000 		.4byte	.LVL408
 13060 2310 0100     		.2byte	0x1
 13061 2312 55       		.byte	0x55
 13062 2313 AC040000 		.4byte	.LVL408
 13063 2317 B6040000 		.4byte	.LVL411
 13064 231b 0100     		.2byte	0x1
 13065 231d 54       		.byte	0x54
 13066 231e B6040000 		.4byte	.LVL411
 13067 2322 BA040000 		.4byte	.LVL412
 13068 2326 0100     		.2byte	0x1
 13069 2328 55       		.byte	0x55
 13070 2329 BA040000 		.4byte	.LVL412
 13071 232d D0040000 		.4byte	.LVL414
 13072 2331 0100     		.2byte	0x1
 13073 2333 54       		.byte	0x54
 13074 2334 D0040000 		.4byte	.LVL414
 13075 2338 D4040000 		.4byte	.LVL415
 13076 233c 0100     		.2byte	0x1
 13077 233e 55       		.byte	0x55
 13078 233f D4040000 		.4byte	.LVL415
 13079 2343 FE040000 		.4byte	.LVL418
 13080 2347 0100     		.2byte	0x1
 13081 2349 54       		.byte	0x54
 13082 234a FE040000 		.4byte	.LVL418
 13083 234e 02050000 		.4byte	.LVL419
 13084 2352 0100     		.2byte	0x1
 13085 2354 55       		.byte	0x55
 13086 2355 02050000 		.4byte	.LVL419
 13087 2359 30050000 		.4byte	.LVL423
 13088 235d 0100     		.2byte	0x1
 13089 235f 54       		.byte	0x54
 13090 2360 30050000 		.4byte	.LVL423
 13091 2364 34050000 		.4byte	.LVL424
 13092 2368 0100     		.2byte	0x1
 13093 236a 55       		.byte	0x55
 13094 236b 34050000 		.4byte	.LVL424
 13095 236f 9A050000 		.4byte	.LVL434
 13096 2373 0100     		.2byte	0x1
 13097 2375 54       		.byte	0x54
 13098 2376 EE050000 		.4byte	.LVL438
 13099 237a FA050000 		.4byte	.LVL440
 13100 237e 0100     		.2byte	0x1
 13101 2380 54       		.byte	0x54
 13102 2381 56060000 		.4byte	.LVL445
 13103 2385 60060000 		.4byte	.LVL447
 13104 2389 0100     		.2byte	0x1
 13105 238b 54       		.byte	0x54
 13106 238c B2060000 		.4byte	.LVL451
 13107 2390 BC060000 		.4byte	.LVL452
 13108 2394 0100     		.2byte	0x1
 13109 2396 54       		.byte	0x54
 13110 2397 10070000 		.4byte	.LVL455
ARM GAS  /tmp/ccvHIMcj.s 			page 232


 13111 239b 1C070000 		.4byte	.LVL456
 13112 239f 0100     		.2byte	0x1
 13113 23a1 54       		.byte	0x54
 13114 23a2 72070000 		.4byte	.LVL460
 13115 23a6 7C070000 		.4byte	.LVL462
 13116 23aa 0100     		.2byte	0x1
 13117 23ac 54       		.byte	0x54
 13118 23ad CE070000 		.4byte	.LVL466
 13119 23b1 44080000 		.4byte	.LVL477
 13120 23b5 0100     		.2byte	0x1
 13121 23b7 54       		.byte	0x54
 13122 23b8 8E080000 		.4byte	.LVL480
 13123 23bc D2080000 		.4byte	.LVL488
 13124 23c0 0100     		.2byte	0x1
 13125 23c2 54       		.byte	0x54
 13126 23c3 D2080000 		.4byte	.LVL488
 13127 23c7 D6080000 		.4byte	.LVL489
 13128 23cb 0100     		.2byte	0x1
 13129 23cd 55       		.byte	0x55
 13130 23ce D6080000 		.4byte	.LVL489
 13131 23d2 14090000 		.4byte	.LVL495
 13132 23d6 0100     		.2byte	0x1
 13133 23d8 54       		.byte	0x54
 13134 23d9 14090000 		.4byte	.LVL495
 13135 23dd 42090000 		.4byte	.LVL497
 13136 23e1 0100     		.2byte	0x1
 13137 23e3 55       		.byte	0x55
 13138 23e4 42090000 		.4byte	.LVL497
 13139 23e8 70090000 		.4byte	.LVL503
 13140 23ec 0100     		.2byte	0x1
 13141 23ee 54       		.byte	0x54
 13142 23ef 70090000 		.4byte	.LVL503
 13143 23f3 A0090000 		.4byte	.LVL505
 13144 23f7 0100     		.2byte	0x1
 13145 23f9 55       		.byte	0x55
 13146 23fa A0090000 		.4byte	.LVL505
 13147 23fe BA090000 		.4byte	.LVL510
 13148 2402 0100     		.2byte	0x1
 13149 2404 54       		.byte	0x54
 13150 2405 BA090000 		.4byte	.LVL510
 13151 2409 C0090000 		.4byte	.LVL511
 13152 240d 0100     		.2byte	0x1
 13153 240f 55       		.byte	0x55
 13154 2410 C0090000 		.4byte	.LVL511
 13155 2414 D2090000 		.4byte	.LVL512
 13156 2418 0100     		.2byte	0x1
 13157 241a 54       		.byte	0x54
 13158 241b D2090000 		.4byte	.LVL512
 13159 241f DA090000 		.4byte	.LVL513
 13160 2423 0100     		.2byte	0x1
 13161 2425 55       		.byte	0x55
 13162 2426 DA090000 		.4byte	.LVL513
 13163 242a F4090000 		.4byte	.LVL515
 13164 242e 0100     		.2byte	0x1
 13165 2430 54       		.byte	0x54
 13166 2431 F4090000 		.4byte	.LVL515
 13167 2435 020A0000 		.4byte	.LVL516
ARM GAS  /tmp/ccvHIMcj.s 			page 233


 13168 2439 0100     		.2byte	0x1
 13169 243b 55       		.byte	0x55
 13170 243c 020A0000 		.4byte	.LVL516
 13171 2440 400A0000 		.4byte	.LVL517
 13172 2444 0100     		.2byte	0x1
 13173 2446 54       		.byte	0x54
 13174 2447 400A0000 		.4byte	.LVL517
 13175 244b 4A0A0000 		.4byte	.LVL518
 13176 244f 0100     		.2byte	0x1
 13177 2451 55       		.byte	0x55
 13178 2452 4A0A0000 		.4byte	.LVL518
 13179 2456 620A0000 		.4byte	.LVL519
 13180 245a 0100     		.2byte	0x1
 13181 245c 54       		.byte	0x54
 13182 245d 620A0000 		.4byte	.LVL519
 13183 2461 6A0A0000 		.4byte	.LVL520
 13184 2465 0100     		.2byte	0x1
 13185 2467 55       		.byte	0x55
 13186 2468 6A0A0000 		.4byte	.LVL520
 13187 246c 7E0A0000 		.4byte	.LVL521
 13188 2470 0100     		.2byte	0x1
 13189 2472 54       		.byte	0x54
 13190 2473 7E0A0000 		.4byte	.LVL521
 13191 2477 880A0000 		.4byte	.LVL522
 13192 247b 0100     		.2byte	0x1
 13193 247d 55       		.byte	0x55
 13194 247e 880A0000 		.4byte	.LVL522
 13195 2482 A80A0000 		.4byte	.LVL523
 13196 2486 0100     		.2byte	0x1
 13197 2488 54       		.byte	0x54
 13198 2489 A80A0000 		.4byte	.LVL523
 13199 248d B20A0000 		.4byte	.LVL524
 13200 2491 0100     		.2byte	0x1
 13201 2493 55       		.byte	0x55
 13202 2494 B20A0000 		.4byte	.LVL524
 13203 2498 C80A0000 		.4byte	.LVL525
 13204 249c 0100     		.2byte	0x1
 13205 249e 54       		.byte	0x54
 13206 249f C80A0000 		.4byte	.LVL525
 13207 24a3 CE0A0000 		.4byte	.LVL526
 13208 24a7 0100     		.2byte	0x1
 13209 24a9 55       		.byte	0x55
 13210 24aa CE0A0000 		.4byte	.LVL526
 13211 24ae 120B0000 		.4byte	.LVL532
 13212 24b2 0100     		.2byte	0x1
 13213 24b4 54       		.byte	0x54
 13214 24b5 120B0000 		.4byte	.LVL532
 13215 24b9 160B0000 		.4byte	.LVL533
 13216 24bd 0100     		.2byte	0x1
 13217 24bf 55       		.byte	0x55
 13218 24c0 160B0000 		.4byte	.LVL533
 13219 24c4 220B0000 		.4byte	.LVL534
 13220 24c8 0100     		.2byte	0x1
 13221 24ca 54       		.byte	0x54
 13222 24cb 240B0000 		.4byte	.LVL535
 13223 24cf 280B0000 		.4byte	.LVL536
 13224 24d3 0100     		.2byte	0x1
ARM GAS  /tmp/ccvHIMcj.s 			page 234


 13225 24d5 55       		.byte	0x55
 13226 24d6 280B0000 		.4byte	.LVL536
 13227 24da 360B0000 		.4byte	.LVL538
 13228 24de 0100     		.2byte	0x1
 13229 24e0 54       		.byte	0x54
 13230 24e1 360B0000 		.4byte	.LVL538
 13231 24e5 3A0B0000 		.4byte	.LVL539
 13232 24e9 0100     		.2byte	0x1
 13233 24eb 55       		.byte	0x55
 13234 24ec 3A0B0000 		.4byte	.LVL539
 13235 24f0 5C0B0000 		.4byte	.LVL542
 13236 24f4 0300     		.2byte	0x3
 13237 24f6 74       		.byte	0x74
 13238 24f7 04       		.sleb128 4
 13239 24f8 9F       		.byte	0x9f
 13240 24f9 5C0B0000 		.4byte	.LVL542
 13241 24fd 640B0000 		.4byte	.LVL544
 13242 2501 0100     		.2byte	0x1
 13243 2503 54       		.byte	0x54
 13244 2504 640B0000 		.4byte	.LVL544
 13245 2508 8C0B0000 		.4byte	.LVL549
 13246 250c 0100     		.2byte	0x1
 13247 250e 55       		.byte	0x55
 13248 250f BE0B0000 		.4byte	.LVL551
 13249 2513 C80B0000 		.4byte	.LVL553
 13250 2517 0100     		.2byte	0x1
 13251 2519 54       		.byte	0x54
 13252 251a C80B0000 		.4byte	.LVL553
 13253 251e D40B0000 		.4byte	.LVL555
 13254 2522 0300     		.2byte	0x3
 13255 2524 74       		.byte	0x74
 13256 2525 04       		.sleb128 4
 13257 2526 9F       		.byte	0x9f
 13258 2527 D40B0000 		.4byte	.LVL555
 13259 252b 140C0000 		.4byte	.LVL559
 13260 252f 0100     		.2byte	0x1
 13261 2531 55       		.byte	0x55
 13262 2532 240C0000 		.4byte	.LVL560
 13263 2536 280C0000 		.4byte	.LVL561
 13264 253a 0100     		.2byte	0x1
 13265 253c 54       		.byte	0x54
 13266 253d 280C0000 		.4byte	.LVL561
 13267 2541 360C0000 		.4byte	.LVL564
 13268 2545 0100     		.2byte	0x1
 13269 2547 55       		.byte	0x55
 13270 2548 360C0000 		.4byte	.LVL564
 13271 254c 500C0000 		.4byte	.LVL565
 13272 2550 0100     		.2byte	0x1
 13273 2552 54       		.byte	0x54
 13274 2553 520C0000 		.4byte	.LVL566
 13275 2557 560C0000 		.4byte	.LVL567
 13276 255b 0100     		.2byte	0x1
 13277 255d 55       		.byte	0x55
 13278 255e 560C0000 		.4byte	.LVL567
 13279 2562 640C0000 		.4byte	.LVL568
 13280 2566 0100     		.2byte	0x1
 13281 2568 54       		.byte	0x54
ARM GAS  /tmp/ccvHIMcj.s 			page 235


 13282 2569 640C0000 		.4byte	.LVL568
 13283 256d 680C0000 		.4byte	.LVL569
 13284 2571 0100     		.2byte	0x1
 13285 2573 55       		.byte	0x55
 13286 2574 680C0000 		.4byte	.LVL569
 13287 2578 6C0C0000 		.4byte	.LVL570
 13288 257c 0100     		.2byte	0x1
 13289 257e 54       		.byte	0x54
 13290 257f 6E0C0000 		.4byte	.LVL571
 13291 2583 720C0000 		.4byte	.LVL572
 13292 2587 0100     		.2byte	0x1
 13293 2589 55       		.byte	0x55
 13294 258a 720C0000 		.4byte	.LVL572
 13295 258e 880C0000 		.4byte	.LVL576
 13296 2592 0100     		.2byte	0x1
 13297 2594 54       		.byte	0x54
 13298 2595 880C0000 		.4byte	.LVL576
 13299 2599 8C0C0000 		.4byte	.LVL577
 13300 259d 0100     		.2byte	0x1
 13301 259f 55       		.byte	0x55
 13302 25a0 8C0C0000 		.4byte	.LVL577
 13303 25a4 A40C0000 		.4byte	.LVL579
 13304 25a8 0100     		.2byte	0x1
 13305 25aa 54       		.byte	0x54
 13306 25ab AE0C0000 		.4byte	.LVL582
 13307 25af B40C0000 		.4byte	.LVL584
 13308 25b3 0100     		.2byte	0x1
 13309 25b5 55       		.byte	0x55
 13310 25b6 B40C0000 		.4byte	.LVL584
 13311 25ba D20C0000 		.4byte	.LVL589
 13312 25be 0100     		.2byte	0x1
 13313 25c0 54       		.byte	0x54
 13314 25c1 D20C0000 		.4byte	.LVL589
 13315 25c5 D60C0000 		.4byte	.LVL590
 13316 25c9 0100     		.2byte	0x1
 13317 25cb 55       		.byte	0x55
 13318 25cc D60C0000 		.4byte	.LVL590
 13319 25d0 F40C0000 		.4byte	.LVL594
 13320 25d4 0100     		.2byte	0x1
 13321 25d6 54       		.byte	0x54
 13322 25d7 F40C0000 		.4byte	.LVL594
 13323 25db FC0C0000 		.4byte	.LVL596
 13324 25df 0100     		.2byte	0x1
 13325 25e1 55       		.byte	0x55
 13326 25e2 FC0C0000 		.4byte	.LVL596
 13327 25e6 000D0000 		.4byte	.LVL597
 13328 25ea 0100     		.2byte	0x1
 13329 25ec 54       		.byte	0x54
 13330 25ed 000D0000 		.4byte	.LVL597
 13331 25f1 0C0D0000 		.4byte	.LVL599
 13332 25f5 0100     		.2byte	0x1
 13333 25f7 55       		.byte	0x55
 13334 25f8 0C0D0000 		.4byte	.LVL599
 13335 25fc 1E0D0000 		.4byte	.LVL600
 13336 2600 0100     		.2byte	0x1
 13337 2602 54       		.byte	0x54
 13338 2603 1E0D0000 		.4byte	.LVL600
ARM GAS  /tmp/ccvHIMcj.s 			page 236


 13339 2607 280D0000 		.4byte	.LVL601
 13340 260b 0100     		.2byte	0x1
 13341 260d 55       		.byte	0x55
 13342 260e 280D0000 		.4byte	.LVL601
 13343 2612 2C0D0000 		.4byte	.LVL602
 13344 2616 0100     		.2byte	0x1
 13345 2618 54       		.byte	0x54
 13346 2619 2C0D0000 		.4byte	.LVL602
 13347 261d 340D0000 		.4byte	.LVL604
 13348 2621 0100     		.2byte	0x1
 13349 2623 55       		.byte	0x55
 13350 2624 340D0000 		.4byte	.LVL604
 13351 2628 380D0000 		.4byte	.LVL606
 13352 262c 0100     		.2byte	0x1
 13353 262e 54       		.byte	0x54
 13354 262f 380D0000 		.4byte	.LVL606
 13355 2633 400D0000 		.4byte	.LVL608
 13356 2637 0100     		.2byte	0x1
 13357 2639 55       		.byte	0x55
 13358 263a 400D0000 		.4byte	.LVL608
 13359 263e 440D0000 		.4byte	.LVL609
 13360 2642 0100     		.2byte	0x1
 13361 2644 54       		.byte	0x54
 13362 2645 440D0000 		.4byte	.LVL609
 13363 2649 4E0D0000 		.4byte	.LVL610
 13364 264d 0100     		.2byte	0x1
 13365 264f 55       		.byte	0x55
 13366 2650 4E0D0000 		.4byte	.LVL610
 13367 2654 540D0000 		.4byte	.LVL612
 13368 2658 0100     		.2byte	0x1
 13369 265a 54       		.byte	0x54
 13370 265b 540D0000 		.4byte	.LVL612
 13371 265f 580D0000 		.4byte	.LVL613
 13372 2663 0100     		.2byte	0x1
 13373 2665 55       		.byte	0x55
 13374 2666 580D0000 		.4byte	.LVL613
 13375 266a 5C0D0000 		.4byte	.LVL614
 13376 266e 0100     		.2byte	0x1
 13377 2670 54       		.byte	0x54
 13378 2671 5C0D0000 		.4byte	.LVL614
 13379 2675 620D0000 		.4byte	.LVL615
 13380 2679 0100     		.2byte	0x1
 13381 267b 55       		.byte	0x55
 13382 267c 620D0000 		.4byte	.LVL615
 13383 2680 660D0000 		.4byte	.LVL617
 13384 2684 0100     		.2byte	0x1
 13385 2686 54       		.byte	0x54
 13386 2687 660D0000 		.4byte	.LVL617
 13387 268b 680D0000 		.4byte	.LVL618
 13388 268f 0100     		.2byte	0x1
 13389 2691 55       		.byte	0x55
 13390 2692 680D0000 		.4byte	.LVL618
 13391 2696 8C0D0000 		.4byte	.LVL619
 13392 269a 0100     		.2byte	0x1
 13393 269c 54       		.byte	0x54
 13394 269d 8C0D0000 		.4byte	.LVL619
 13395 26a1 9C0D0000 		.4byte	.LVL622
ARM GAS  /tmp/ccvHIMcj.s 			page 237


 13396 26a5 0100     		.2byte	0x1
 13397 26a7 55       		.byte	0x55
 13398 26a8 9C0D0000 		.4byte	.LVL622
 13399 26ac A00D0000 		.4byte	.LVL623
 13400 26b0 0100     		.2byte	0x1
 13401 26b2 54       		.byte	0x54
 13402 26b3 A00D0000 		.4byte	.LVL623
 13403 26b7 AE0D0000 		.4byte	.LVL626
 13404 26bb 0100     		.2byte	0x1
 13405 26bd 55       		.byte	0x55
 13406 26be AE0D0000 		.4byte	.LVL626
 13407 26c2 B20D0000 		.4byte	.LVL627
 13408 26c6 0100     		.2byte	0x1
 13409 26c8 54       		.byte	0x54
 13410 26c9 B20D0000 		.4byte	.LVL627
 13411 26cd BE0D0000 		.4byte	.LVL630
 13412 26d1 0100     		.2byte	0x1
 13413 26d3 55       		.byte	0x55
 13414 26d4 BE0D0000 		.4byte	.LVL630
 13415 26d8 C20D0000 		.4byte	.LVL631
 13416 26dc 0100     		.2byte	0x1
 13417 26de 54       		.byte	0x54
 13418 26df C20D0000 		.4byte	.LVL631
 13419 26e3 CE0D0000 		.4byte	.LVL632
 13420 26e7 0100     		.2byte	0x1
 13421 26e9 55       		.byte	0x55
 13422 26ea CE0D0000 		.4byte	.LVL632
 13423 26ee D20D0000 		.4byte	.LVL633
 13424 26f2 0100     		.2byte	0x1
 13425 26f4 54       		.byte	0x54
 13426 26f5 D20D0000 		.4byte	.LVL633
 13427 26f9 DA0D0000 		.4byte	.LVL635
 13428 26fd 0100     		.2byte	0x1
 13429 26ff 55       		.byte	0x55
 13430 2700 DA0D0000 		.4byte	.LVL635
 13431 2704 DE0D0000 		.4byte	.LVL636
 13432 2708 0100     		.2byte	0x1
 13433 270a 54       		.byte	0x54
 13434 270b DE0D0000 		.4byte	.LVL636
 13435 270f E60D0000 		.4byte	.LVL638
 13436 2713 0100     		.2byte	0x1
 13437 2715 55       		.byte	0x55
 13438 2716 E60D0000 		.4byte	.LVL638
 13439 271a 100E0000 		.4byte	.LVL642
 13440 271e 0100     		.2byte	0x1
 13441 2720 54       		.byte	0x54
 13442 2721 100E0000 		.4byte	.LVL642
 13443 2725 340E0000 		.4byte	.LVL643
 13444 2729 0100     		.2byte	0x1
 13445 272b 55       		.byte	0x55
 13446 272c 340E0000 		.4byte	.LVL643
 13447 2730 380E0000 		.4byte	.LVL644
 13448 2734 0100     		.2byte	0x1
 13449 2736 54       		.byte	0x54
 13450 2737 380E0000 		.4byte	.LVL644
 13451 273b 500E0000 		.4byte	.LVL646
 13452 273f 0100     		.2byte	0x1
ARM GAS  /tmp/ccvHIMcj.s 			page 238


 13453 2741 55       		.byte	0x55
 13454 2742 500E0000 		.4byte	.LVL646
 13455 2746 540E0000 		.4byte	.LVL647
 13456 274a 0100     		.2byte	0x1
 13457 274c 54       		.byte	0x54
 13458 274d 540E0000 		.4byte	.LVL647
 13459 2751 6A0E0000 		.4byte	.LVL649
 13460 2755 0100     		.2byte	0x1
 13461 2757 55       		.byte	0x55
 13462 2758 6A0E0000 		.4byte	.LVL649
 13463 275c AE0E0000 		.4byte	.LVL654
 13464 2760 0100     		.2byte	0x1
 13465 2762 54       		.byte	0x54
 13466 2763 AE0E0000 		.4byte	.LVL654
 13467 2767 BA0E0000 		.4byte	.LVL656
 13468 276b 0100     		.2byte	0x1
 13469 276d 55       		.byte	0x55
 13470 276e BA0E0000 		.4byte	.LVL656
 13471 2772 C80E0000 		.4byte	.LVL659
 13472 2776 0100     		.2byte	0x1
 13473 2778 54       		.byte	0x54
 13474 2779 C80E0000 		.4byte	.LVL659
 13475 277d EC0E0000 		.4byte	.LVL662
 13476 2781 0300     		.2byte	0x3
 13477 2783 74       		.byte	0x74
 13478 2784 04       		.sleb128 4
 13479 2785 9F       		.byte	0x9f
 13480 2786 EC0E0000 		.4byte	.LVL662
 13481 278a F00E0000 		.4byte	.LVL664
 13482 278e 0100     		.2byte	0x1
 13483 2790 54       		.byte	0x54
 13484 2791 F00E0000 		.4byte	.LVL664
 13485 2795 F20E0000 		.4byte	.LVL665
 13486 2799 0100     		.2byte	0x1
 13487 279b 55       		.byte	0x55
 13488 279c F20E0000 		.4byte	.LVL665
 13489 27a0 0A0F0000 		.4byte	.LVL666
 13490 27a4 0100     		.2byte	0x1
 13491 27a6 54       		.byte	0x54
 13492 27a7 0A0F0000 		.4byte	.LVL666
 13493 27ab 120F0000 		.4byte	.LVL667
 13494 27af 0100     		.2byte	0x1
 13495 27b1 55       		.byte	0x55
 13496 27b2 120F0000 		.4byte	.LVL667
 13497 27b6 1E0F0000 		.4byte	.LVL668
 13498 27ba 0100     		.2byte	0x1
 13499 27bc 54       		.byte	0x54
 13500 27bd 1E0F0000 		.4byte	.LVL668
 13501 27c1 240F0000 		.4byte	.LVL669
 13502 27c5 0100     		.2byte	0x1
 13503 27c7 55       		.byte	0x55
 13504 27c8 240F0000 		.4byte	.LVL669
 13505 27cc 300F0000 		.4byte	.LVL670
 13506 27d0 0100     		.2byte	0x1
 13507 27d2 54       		.byte	0x54
 13508 27d3 300F0000 		.4byte	.LVL670
 13509 27d7 340F0000 		.4byte	.LVL671
ARM GAS  /tmp/ccvHIMcj.s 			page 239


 13510 27db 0100     		.2byte	0x1
 13511 27dd 55       		.byte	0x55
 13512 27de 340F0000 		.4byte	.LVL671
 13513 27e2 6A0F0000 		.4byte	.LVL676
 13514 27e6 0100     		.2byte	0x1
 13515 27e8 54       		.byte	0x54
 13516 27e9 C00F0000 		.4byte	.LVL687
 13517 27ed C40F0000 		.4byte	.LVL688
 13518 27f1 0100     		.2byte	0x1
 13519 27f3 55       		.byte	0x55
 13520 27f4 C40F0000 		.4byte	.LVL688
 13521 27f8 CA0F0000 		.4byte	.LVL689
 13522 27fc 0100     		.2byte	0x1
 13523 27fe 54       		.byte	0x54
 13524 27ff 0C100000 		.4byte	.LVL699
 13525 2803 10100000 		.4byte	.LVL700
 13526 2807 0100     		.2byte	0x1
 13527 2809 55       		.byte	0x55
 13528 280a 10100000 		.4byte	.LVL700
 13529 280e 48100000 		.4byte	.LVL704
 13530 2812 0100     		.2byte	0x1
 13531 2814 54       		.byte	0x54
 13532 2815 48100000 		.4byte	.LVL704
 13533 2819 4C100000 		.4byte	.LVL705
 13534 281d 0100     		.2byte	0x1
 13535 281f 55       		.byte	0x55
 13536 2820 4C100000 		.4byte	.LVL705
 13537 2824 96100000 		.4byte	.LVL711
 13538 2828 0100     		.2byte	0x1
 13539 282a 54       		.byte	0x54
 13540 282b 96100000 		.4byte	.LVL711
 13541 282f A4100000 		.4byte	.LVL713
 13542 2833 0300     		.2byte	0x3
 13543 2835 74       		.byte	0x74
 13544 2836 04       		.sleb128 4
 13545 2837 9F       		.byte	0x9f
 13546 2838 A4100000 		.4byte	.LVL713
 13547 283c B2100000 		.4byte	.LVL716
 13548 2840 0100     		.2byte	0x1
 13549 2842 55       		.byte	0x55
 13550 2843 B2100000 		.4byte	.LVL716
 13551 2847 BC100000 		.4byte	.LVL717
 13552 284b 0300     		.2byte	0x3
 13553 284d 74       		.byte	0x74
 13554 284e 04       		.sleb128 4
 13555 284f 9F       		.byte	0x9f
 13556 2850 BC100000 		.4byte	.LVL717
 13557 2854 C6100000 		.4byte	.LVL720
 13558 2858 0100     		.2byte	0x1
 13559 285a 55       		.byte	0x55
 13560 285b C6100000 		.4byte	.LVL720
 13561 285f CC100000 		.4byte	.LVL721
 13562 2863 0100     		.2byte	0x1
 13563 2865 54       		.byte	0x54
 13564 2866 CC100000 		.4byte	.LVL721
 13565 286a FC100000 		.4byte	.LVL726
 13566 286e 0100     		.2byte	0x1
ARM GAS  /tmp/ccvHIMcj.s 			page 240


 13567 2870 55       		.byte	0x55
 13568 2871 4A110000 		.4byte	.LVL732
 13569 2875 52110000 		.4byte	.LVL734
 13570 2879 0100     		.2byte	0x1
 13571 287b 54       		.byte	0x54
 13572 287c 52110000 		.4byte	.LVL734
 13573 2880 86110000 		.4byte	.LVL740
 13574 2884 0100     		.2byte	0x1
 13575 2886 55       		.byte	0x55
 13576 2887 D8110000 		.4byte	.LVL746
 13577 288b E0110000 		.4byte	.LVL748
 13578 288f 0100     		.2byte	0x1
 13579 2891 54       		.byte	0x54
 13580 2892 E0110000 		.4byte	.LVL748
 13581 2896 0A120000 		.4byte	.LVL752
 13582 289a 0100     		.2byte	0x1
 13583 289c 55       		.byte	0x55
 13584 289d 44120000 		.4byte	.LVL754
 13585 28a1 4E120000 		.4byte	.LVL756
 13586 28a5 0100     		.2byte	0x1
 13587 28a7 54       		.byte	0x54
 13588 28a8 4E120000 		.4byte	.LVL756
 13589 28ac 56120000 		.4byte	.LVL757
 13590 28b0 0100     		.2byte	0x1
 13591 28b2 55       		.byte	0x55
 13592 28b3 56120000 		.4byte	.LVL757
 13593 28b7 66120000 		.4byte	.LVL759
 13594 28bb 0100     		.2byte	0x1
 13595 28bd 54       		.byte	0x54
 13596 28be 66120000 		.4byte	.LVL759
 13597 28c2 6A120000 		.4byte	.LVL760
 13598 28c6 0100     		.2byte	0x1
 13599 28c8 55       		.byte	0x55
 13600 28c9 6A120000 		.4byte	.LVL760
 13601 28cd 78120000 		.4byte	.LVL763
 13602 28d1 0100     		.2byte	0x1
 13603 28d3 54       		.byte	0x54
 13604 28d4 78120000 		.4byte	.LVL763
 13605 28d8 80120000 		.4byte	.LVL764
 13606 28dc 0100     		.2byte	0x1
 13607 28de 55       		.byte	0x55
 13608 28df 80120000 		.4byte	.LVL764
 13609 28e3 8A120000 		.4byte	.LVL766
 13610 28e7 0100     		.2byte	0x1
 13611 28e9 54       		.byte	0x54
 13612 28ea 8A120000 		.4byte	.LVL766
 13613 28ee 92120000 		.4byte	.LVL767
 13614 28f2 0100     		.2byte	0x1
 13615 28f4 55       		.byte	0x55
 13616 28f5 92120000 		.4byte	.LVL767
 13617 28f9 9A120000 		.4byte	.LVL769
 13618 28fd 0100     		.2byte	0x1
 13619 28ff 54       		.byte	0x54
 13620 2900 9A120000 		.4byte	.LVL769
 13621 2904 A2120000 		.4byte	.LVL770
 13622 2908 0100     		.2byte	0x1
 13623 290a 55       		.byte	0x55
ARM GAS  /tmp/ccvHIMcj.s 			page 241


 13624 290b A2120000 		.4byte	.LVL770
 13625 290f A8120000 		.4byte	.LVL771
 13626 2913 0100     		.2byte	0x1
 13627 2915 54       		.byte	0x54
 13628 2916 A8120000 		.4byte	.LVL771
 13629 291a B6120000 		.4byte	.LVL772
 13630 291e 0100     		.2byte	0x1
 13631 2920 55       		.byte	0x55
 13632 2921 B6120000 		.4byte	.LVL772
 13633 2925 BE120000 		.4byte	.LVL773
 13634 2929 0100     		.2byte	0x1
 13635 292b 54       		.byte	0x54
 13636 292c BE120000 		.4byte	.LVL773
 13637 2930 C4120000 		.4byte	.LVL774
 13638 2934 0100     		.2byte	0x1
 13639 2936 55       		.byte	0x55
 13640 2937 C4120000 		.4byte	.LVL774
 13641 293b EE120000 		.4byte	.LVL776
 13642 293f 0300     		.2byte	0x3
 13643 2941 74       		.byte	0x74
 13644 2942 04       		.sleb128 4
 13645 2943 9F       		.byte	0x9f
 13646 2944 EE120000 		.4byte	.LVL776
 13647 2948 FC120000 		.4byte	.LVL777
 13648 294c 0100     		.2byte	0x1
 13649 294e 54       		.byte	0x54
 13650 294f FC120000 		.4byte	.LVL777
 13651 2953 00130000 		.4byte	.LVL778
 13652 2957 0100     		.2byte	0x1
 13653 2959 55       		.byte	0x55
 13654 295a 00130000 		.4byte	.LVL778
 13655 295e 0A130000 		.4byte	.LVL779
 13656 2962 0100     		.2byte	0x1
 13657 2964 54       		.byte	0x54
 13658 2965 0A130000 		.4byte	.LVL779
 13659 2969 0E130000 		.4byte	.LVL780
 13660 296d 0100     		.2byte	0x1
 13661 296f 55       		.byte	0x55
 13662 2970 0E130000 		.4byte	.LVL780
 13663 2974 1A130000 		.4byte	.LVL781
 13664 2978 0100     		.2byte	0x1
 13665 297a 54       		.byte	0x54
 13666 297b 1C130000 		.4byte	.LVL782
 13667 297f 20130000 		.4byte	.LVL783
 13668 2983 0100     		.2byte	0x1
 13669 2985 55       		.byte	0x55
 13670 2986 20130000 		.4byte	.LVL783
 13671 298a 2E130000 		.4byte	.LVL786
 13672 298e 0100     		.2byte	0x1
 13673 2990 54       		.byte	0x54
 13674 2991 2E130000 		.4byte	.LVL786
 13675 2995 36130000 		.4byte	.LVL787
 13676 2999 0100     		.2byte	0x1
 13677 299b 55       		.byte	0x55
 13678 299c 36130000 		.4byte	.LVL787
 13679 29a0 44130000 		.4byte	.LVL789
 13680 29a4 0100     		.2byte	0x1
ARM GAS  /tmp/ccvHIMcj.s 			page 242


 13681 29a6 54       		.byte	0x54
 13682 29a7 44130000 		.4byte	.LVL789
 13683 29ab 4E130000 		.4byte	.LVL791
 13684 29af 0100     		.2byte	0x1
 13685 29b1 55       		.byte	0x55
 13686 29b2 4E130000 		.4byte	.LVL791
 13687 29b6 56130000 		.4byte	.LVL793
 13688 29ba 0100     		.2byte	0x1
 13689 29bc 54       		.byte	0x54
 13690 29bd 56130000 		.4byte	.LVL793
 13691 29c1 A6130000 		.4byte	.LVL796
 13692 29c5 0100     		.2byte	0x1
 13693 29c7 55       		.byte	0x55
 13694 29c8 A6130000 		.4byte	.LVL796
 13695 29cc AC130000 		.4byte	.LVL798
 13696 29d0 0100     		.2byte	0x1
 13697 29d2 54       		.byte	0x54
 13698 29d3 AC130000 		.4byte	.LVL798
 13699 29d7 BC130000 		.4byte	.LVL800
 13700 29db 0100     		.2byte	0x1
 13701 29dd 55       		.byte	0x55
 13702 29de D0130000 		.4byte	.LVL801
 13703 29e2 D6130000 		.4byte	.LVL803
 13704 29e6 0100     		.2byte	0x1
 13705 29e8 54       		.byte	0x54
 13706 29e9 D6130000 		.4byte	.LVL803
 13707 29ed DC130000 		.4byte	.LVL805
 13708 29f1 0100     		.2byte	0x1
 13709 29f3 57       		.byte	0x57
 13710 29f4 DC130000 		.4byte	.LVL805
 13711 29f8 E0130000 		.4byte	.LVL807
 13712 29fc 0100     		.2byte	0x1
 13713 29fe 54       		.byte	0x54
 13714 29ff E0130000 		.4byte	.LVL807
 13715 2a03 E4130000 		.4byte	.LVL808
 13716 2a07 0100     		.2byte	0x1
 13717 2a09 55       		.byte	0x55
 13718 2a0a E4130000 		.4byte	.LVL808
 13719 2a0e E8130000 		.4byte	.LVL810
 13720 2a12 0100     		.2byte	0x1
 13721 2a14 54       		.byte	0x54
 13722 2a15 E8130000 		.4byte	.LVL810
 13723 2a19 EC130000 		.4byte	.LVL811
 13724 2a1d 0100     		.2byte	0x1
 13725 2a1f 55       		.byte	0x55
 13726 2a20 EC130000 		.4byte	.LVL811
 13727 2a24 F0130000 		.4byte	.LVL813
 13728 2a28 0100     		.2byte	0x1
 13729 2a2a 54       		.byte	0x54
 13730 2a2b F0130000 		.4byte	.LVL813
 13731 2a2f F4130000 		.4byte	.LVL814
 13732 2a33 0100     		.2byte	0x1
 13733 2a35 55       		.byte	0x55
 13734 2a36 F4130000 		.4byte	.LVL814
 13735 2a3a FA130000 		.4byte	.LVL815
 13736 2a3e 0100     		.2byte	0x1
 13737 2a40 54       		.byte	0x54
ARM GAS  /tmp/ccvHIMcj.s 			page 243


 13738 2a41 FA130000 		.4byte	.LVL815
 13739 2a45 02140000 		.4byte	.LVL816
 13740 2a49 0100     		.2byte	0x1
 13741 2a4b 55       		.byte	0x55
 13742 2a4c 02140000 		.4byte	.LVL816
 13743 2a50 2A140000 		.4byte	.LVL821
 13744 2a54 0100     		.2byte	0x1
 13745 2a56 54       		.byte	0x54
 13746 2a57 2A140000 		.4byte	.LVL821
 13747 2a5b 68140000 		.4byte	.LVL831
 13748 2a5f 0100     		.2byte	0x1
 13749 2a61 55       		.byte	0x55
 13750 2a62 6A140000 		.4byte	.LVL832
 13751 2a66 6E140000 		.4byte	.LVL833
 13752 2a6a 0100     		.2byte	0x1
 13753 2a6c 55       		.byte	0x55
 13754 2a6d 6E140000 		.4byte	.LVL833
 13755 2a71 72140000 		.4byte	.LVL834
 13756 2a75 0100     		.2byte	0x1
 13757 2a77 54       		.byte	0x54
 13758 2a78 72140000 		.4byte	.LVL834
 13759 2a7c 7E140000 		.4byte	.LVL835
 13760 2a80 0100     		.2byte	0x1
 13761 2a82 55       		.byte	0x55
 13762 2a83 7E140000 		.4byte	.LVL835
 13763 2a87 84140000 		.4byte	.LVL837
 13764 2a8b 0100     		.2byte	0x1
 13765 2a8d 54       		.byte	0x54
 13766 2a8e 84140000 		.4byte	.LVL837
 13767 2a92 8A140000 		.4byte	.LVL838
 13768 2a96 0100     		.2byte	0x1
 13769 2a98 55       		.byte	0x55
 13770 2a99 8A140000 		.4byte	.LVL838
 13771 2a9d A4140000 		.4byte	.LVL841
 13772 2aa1 0100     		.2byte	0x1
 13773 2aa3 54       		.byte	0x54
 13774 2aa4 A4140000 		.4byte	.LVL841
 13775 2aa8 AE140000 		.4byte	.LVL843
 13776 2aac 0100     		.2byte	0x1
 13777 2aae 55       		.byte	0x55
 13778 2aaf AE140000 		.4byte	.LVL843
 13779 2ab3 B4140000 		.4byte	.LVL844
 13780 2ab7 0100     		.2byte	0x1
 13781 2ab9 54       		.byte	0x54
 13782 2aba B4140000 		.4byte	.LVL844
 13783 2abe BC140000 		.4byte	.LVL845
 13784 2ac2 0100     		.2byte	0x1
 13785 2ac4 55       		.byte	0x55
 13786 2ac5 BC140000 		.4byte	.LVL845
 13787 2ac9 C4140000 		.4byte	.LVL846
 13788 2acd 0100     		.2byte	0x1
 13789 2acf 54       		.byte	0x54
 13790 2ad0 C4140000 		.4byte	.LVL846
 13791 2ad4 CA140000 		.4byte	.LVL847
 13792 2ad8 0100     		.2byte	0x1
 13793 2ada 55       		.byte	0x55
 13794 2adb CA140000 		.4byte	.LVL847
ARM GAS  /tmp/ccvHIMcj.s 			page 244


 13795 2adf FC140000 		.4byte	.LVL854
 13796 2ae3 0100     		.2byte	0x1
 13797 2ae5 54       		.byte	0x54
 13798 2ae6 FC140000 		.4byte	.LVL854
 13799 2aea 0A150000 		.4byte	.LVL856
 13800 2aee 0100     		.2byte	0x1
 13801 2af0 55       		.byte	0x55
 13802 2af1 0A150000 		.4byte	.LVL856
 13803 2af5 0E150000 		.4byte	.LVL857
 13804 2af9 0100     		.2byte	0x1
 13805 2afb 54       		.byte	0x54
 13806 2afc 0E150000 		.4byte	.LVL857
 13807 2b00 1E150000 		.4byte	.LVL859
 13808 2b04 0100     		.2byte	0x1
 13809 2b06 55       		.byte	0x55
 13810 2b07 1E150000 		.4byte	.LVL859
 13811 2b0b 22150000 		.4byte	.LVL860
 13812 2b0f 0100     		.2byte	0x1
 13813 2b11 54       		.byte	0x54
 13814 2b12 22150000 		.4byte	.LVL860
 13815 2b16 32150000 		.4byte	.LVL862
 13816 2b1a 0100     		.2byte	0x1
 13817 2b1c 55       		.byte	0x55
 13818 2b1d 32150000 		.4byte	.LVL862
 13819 2b21 36150000 		.4byte	.LVL863
 13820 2b25 0100     		.2byte	0x1
 13821 2b27 54       		.byte	0x54
 13822 2b28 36150000 		.4byte	.LVL863
 13823 2b2c 40150000 		.4byte	.LVL864
 13824 2b30 0100     		.2byte	0x1
 13825 2b32 55       		.byte	0x55
 13826 2b33 40150000 		.4byte	.LVL864
 13827 2b37 44150000 		.4byte	.LVL865
 13828 2b3b 0100     		.2byte	0x1
 13829 2b3d 54       		.byte	0x54
 13830 2b3e 44150000 		.4byte	.LVL865
 13831 2b42 4E150000 		.4byte	.LVL867
 13832 2b46 0100     		.2byte	0x1
 13833 2b48 55       		.byte	0x55
 13834 2b49 4E150000 		.4byte	.LVL867
 13835 2b4d 66150000 		.4byte	.LVL870
 13836 2b51 0100     		.2byte	0x1
 13837 2b53 54       		.byte	0x54
 13838 2b54 66150000 		.4byte	.LVL870
 13839 2b58 74150000 		.4byte	.LVL871
 13840 2b5c 0300     		.2byte	0x3
 13841 2b5e 74       		.byte	0x74
 13842 2b5f 04       		.sleb128 4
 13843 2b60 9F       		.byte	0x9f
 13844 2b61 74150000 		.4byte	.LVL871
 13845 2b65 78150000 		.4byte	.LVL872
 13846 2b69 0100     		.2byte	0x1
 13847 2b6b 55       		.byte	0x55
 13848 2b6c 78150000 		.4byte	.LVL872
 13849 2b70 80150000 		.4byte	.LVL873
 13850 2b74 0300     		.2byte	0x3
 13851 2b76 74       		.byte	0x74
ARM GAS  /tmp/ccvHIMcj.s 			page 245


 13852 2b77 04       		.sleb128 4
 13853 2b78 9F       		.byte	0x9f
 13854 2b79 80150000 		.4byte	.LVL873
 13855 2b7d 86150000 		.4byte	.LVL874
 13856 2b81 0100     		.2byte	0x1
 13857 2b83 55       		.byte	0x55
 13858 2b84 86150000 		.4byte	.LVL874
 13859 2b88 AC150000 		.4byte	.LVL880
 13860 2b8c 0100     		.2byte	0x1
 13861 2b8e 54       		.byte	0x54
 13862 2b8f AC150000 		.4byte	.LVL880
 13863 2b93 DC150000 		.4byte	.LVL885
 13864 2b97 0100     		.2byte	0x1
 13865 2b99 55       		.byte	0x55
 13866 2b9a 2A160000 		.4byte	.LVL891
 13867 2b9e 30160000 		.4byte	.LVL892
 13868 2ba2 0100     		.2byte	0x1
 13869 2ba4 54       		.byte	0x54
 13870 2ba5 30160000 		.4byte	.LVL892
 13871 2ba9 5A160000 		.4byte	.LVL900
 13872 2bad 0100     		.2byte	0x1
 13873 2baf 55       		.byte	0x55
 13874 2bb0 94160000 		.4byte	.LVL902
 13875 2bb4 9A160000 		.4byte	.LVL905
 13876 2bb8 0100     		.2byte	0x1
 13877 2bba 54       		.byte	0x54
 13878 2bbb 9A160000 		.4byte	.LVL905
 13879 2bbf C6160000 		.4byte	.LVL910
 13880 2bc3 0100     		.2byte	0x1
 13881 2bc5 55       		.byte	0x55
 13882 2bc6 02170000 		.4byte	.LVL912
 13883 2bca 1E170000 		.4byte	.LVL919
 13884 2bce 0100     		.2byte	0x1
 13885 2bd0 55       		.byte	0x55
 13886 2bd1 22170000 		.4byte	.LVL921
 13887 2bd5 64170000 		.4byte	.LVL924
 13888 2bd9 0100     		.2byte	0x1
 13889 2bdb 55       		.byte	0x55
 13890 2bdc B2170000 		.4byte	.LVL930
 13891 2be0 B8170000 		.4byte	.LVL932
 13892 2be4 0100     		.2byte	0x1
 13893 2be6 54       		.byte	0x54
 13894 2be7 B8170000 		.4byte	.LVL932
 13895 2beb C8170000 		.4byte	.LVL933
 13896 2bef 0100     		.2byte	0x1
 13897 2bf1 55       		.byte	0x55
 13898 2bf2 C8170000 		.4byte	.LVL933
 13899 2bf6 CA170000 		.4byte	.LVL934
 13900 2bfa 0100     		.2byte	0x1
 13901 2bfc 54       		.byte	0x54
 13902 2bfd CA170000 		.4byte	.LVL934
 13903 2c01 CE170000 		.4byte	.LVL935
 13904 2c05 0100     		.2byte	0x1
 13905 2c07 55       		.byte	0x55
 13906 2c08 CE170000 		.4byte	.LVL935
 13907 2c0c D0170000 		.4byte	.LVL936
 13908 2c10 0100     		.2byte	0x1
ARM GAS  /tmp/ccvHIMcj.s 			page 246


 13909 2c12 54       		.byte	0x54
 13910 2c13 D0170000 		.4byte	.LVL936
 13911 2c17 D4170000 		.4byte	.LVL937
 13912 2c1b 0100     		.2byte	0x1
 13913 2c1d 55       		.byte	0x55
 13914 2c1e D4170000 		.4byte	.LVL937
 13915 2c22 D6170000 		.4byte	.LVL938
 13916 2c26 0100     		.2byte	0x1
 13917 2c28 54       		.byte	0x54
 13918 2c29 D6170000 		.4byte	.LVL938
 13919 2c2d F0170000 		.4byte	.LVL940
 13920 2c31 0100     		.2byte	0x1
 13921 2c33 55       		.byte	0x55
 13922 2c34 F0170000 		.4byte	.LVL940
 13923 2c38 F2170000 		.4byte	.LVL941
 13924 2c3c 0100     		.2byte	0x1
 13925 2c3e 54       		.byte	0x54
 13926 2c3f F2170000 		.4byte	.LVL941
 13927 2c43 F6170000 		.4byte	.LVL942
 13928 2c47 0100     		.2byte	0x1
 13929 2c49 55       		.byte	0x55
 13930 2c4a F6170000 		.4byte	.LVL942
 13931 2c4e F8170000 		.4byte	.LVL943
 13932 2c52 0100     		.2byte	0x1
 13933 2c54 54       		.byte	0x54
 13934 2c55 F8170000 		.4byte	.LVL943
 13935 2c59 FC170000 		.4byte	.LVL944
 13936 2c5d 0100     		.2byte	0x1
 13937 2c5f 55       		.byte	0x55
 13938 2c60 06180000 		.4byte	.LVL945
 13939 2c64 08180000 		.4byte	.LVL946
 13940 2c68 0100     		.2byte	0x1
 13941 2c6a 54       		.byte	0x54
 13942 2c6b 08180000 		.4byte	.LVL946
 13943 2c6f 0C180000 		.4byte	.LVL947
 13944 2c73 0100     		.2byte	0x1
 13945 2c75 55       		.byte	0x55
 13946 2c76 0C180000 		.4byte	.LVL947
 13947 2c7a 1A180000 		.4byte	.LVL950
 13948 2c7e 0100     		.2byte	0x1
 13949 2c80 54       		.byte	0x54
 13950 2c81 3E180000 		.4byte	.LVL952
 13951 2c85 44180000 		.4byte	.LVL953
 13952 2c89 0100     		.2byte	0x1
 13953 2c8b 54       		.byte	0x54
 13954 2c8c 44180000 		.4byte	.LVL953
 13955 2c90 4A180000 		.4byte	.LVL954
 13956 2c94 0100     		.2byte	0x1
 13957 2c96 57       		.byte	0x57
 13958 2c97 4A180000 		.4byte	.LVL954
 13959 2c9b 4E180000 		.4byte	.LVL956
 13960 2c9f 0100     		.2byte	0x1
 13961 2ca1 54       		.byte	0x54
 13962 2ca2 50180000 		.4byte	.LVL957
 13963 2ca6 54180000 		.4byte	.LVL958
 13964 2caa 0100     		.2byte	0x1
 13965 2cac 55       		.byte	0x55
ARM GAS  /tmp/ccvHIMcj.s 			page 247


 13966 2cad 54180000 		.4byte	.LVL958
 13967 2cb1 56180000 		.4byte	.LVL959
 13968 2cb5 0100     		.2byte	0x1
 13969 2cb7 54       		.byte	0x54
 13970 2cb8 56180000 		.4byte	.LVL959
 13971 2cbc 5A180000 		.4byte	.LVL960
 13972 2cc0 0100     		.2byte	0x1
 13973 2cc2 55       		.byte	0x55
 13974 2cc3 5A180000 		.4byte	.LVL960
 13975 2cc7 F0180000 		.4byte	.LVL971
 13976 2ccb 0100     		.2byte	0x1
 13977 2ccd 54       		.byte	0x54
 13978 2cce F0180000 		.4byte	.LVL971
 13979 2cd2 0E190000 		.4byte	.LVL972
 13980 2cd6 0100     		.2byte	0x1
 13981 2cd8 55       		.byte	0x55
 13982 2cd9 0E190000 		.4byte	.LVL972
 13983 2cdd 3C190000 		.4byte	.LFE34
 13984 2ce1 0100     		.2byte	0x1
 13985 2ce3 54       		.byte	0x54
 13986 2ce4 00000000 		.4byte	0x0
 13987 2ce8 00000000 		.4byte	0x0
 13988              	.LLST163:
 13989 2cec 6A010000 		.4byte	.LVL371
 13990 2cf0 D4020000 		.4byte	.LVL372
 13991 2cf4 0200     		.2byte	0x2
 13992 2cf6 75       		.byte	0x75
 13993 2cf7 00       		.sleb128 0
 13994 2cf8 22030000 		.4byte	.LVL383
 13995 2cfc 34030000 		.4byte	.LVL386
 13996 2d00 0100     		.2byte	0x1
 13997 2d02 50       		.byte	0x50
 13998 2d03 34030000 		.4byte	.LVL386
 13999 2d07 36030000 		.4byte	.LVL387
 14000 2d0b 0200     		.2byte	0x2
 14001 2d0d 74       		.byte	0x74
 14002 2d0e 7C       		.sleb128 -4
 14003 2d0f 36030000 		.4byte	.LVL387
 14004 2d13 6A030000 		.4byte	.LVL391
 14005 2d17 0200     		.2byte	0x2
 14006 2d19 75       		.byte	0x75
 14007 2d1a 00       		.sleb128 0
 14008 2d1b 6A030000 		.4byte	.LVL391
 14009 2d1f C3030000 		.4byte	.LVL392-1
 14010 2d23 0200     		.2byte	0x2
 14011 2d25 74       		.byte	0x74
 14012 2d26 7C       		.sleb128 -4
 14013 2d27 CC030000 		.4byte	.LVL395
 14014 2d2b E8030000 		.4byte	.LVL398
 14015 2d2f 0100     		.2byte	0x1
 14016 2d31 50       		.byte	0x50
 14017 2d32 E8030000 		.4byte	.LVL398
 14018 2d36 29040000 		.4byte	.LVL399-1
 14019 2d3a 0200     		.2byte	0x2
 14020 2d3c 74       		.byte	0x74
 14021 2d3d 7C       		.sleb128 -4
 14022 2d3e 30040000 		.4byte	.LVL400
ARM GAS  /tmp/ccvHIMcj.s 			page 248


 14023 2d42 32040000 		.4byte	.LVL401
 14024 2d46 0100     		.2byte	0x1
 14025 2d48 50       		.byte	0x50
 14026 2d49 32040000 		.4byte	.LVL401
 14027 2d4d 64040000 		.4byte	.LVL404
 14028 2d51 0200     		.2byte	0x2
 14029 2d53 74       		.byte	0x74
 14030 2d54 7C       		.sleb128 -4
 14031 2d55 AC040000 		.4byte	.LVL408
 14032 2d59 B0040000 		.4byte	.LVL409
 14033 2d5d 0100     		.2byte	0x1
 14034 2d5f 50       		.byte	0x50
 14035 2d60 B0040000 		.4byte	.LVL409
 14036 2d64 B4040000 		.4byte	.LVL410
 14037 2d68 0200     		.2byte	0x2
 14038 2d6a 75       		.byte	0x75
 14039 2d6b 00       		.sleb128 0
 14040 2d6c B4040000 		.4byte	.LVL410
 14041 2d70 B6040000 		.4byte	.LVL411
 14042 2d74 0200     		.2byte	0x2
 14043 2d76 74       		.byte	0x74
 14044 2d77 7C       		.sleb128 -4
 14045 2d78 B6040000 		.4byte	.LVL411
 14046 2d7c BA040000 		.4byte	.LVL412
 14047 2d80 0200     		.2byte	0x2
 14048 2d82 75       		.byte	0x75
 14049 2d83 7C       		.sleb128 -4
 14050 2d84 BA040000 		.4byte	.LVL412
 14051 2d88 D0040000 		.4byte	.LVL414
 14052 2d8c 0200     		.2byte	0x2
 14053 2d8e 74       		.byte	0x74
 14054 2d8f 7C       		.sleb128 -4
 14055 2d90 D0040000 		.4byte	.LVL414
 14056 2d94 D4040000 		.4byte	.LVL415
 14057 2d98 0200     		.2byte	0x2
 14058 2d9a 75       		.byte	0x75
 14059 2d9b 7C       		.sleb128 -4
 14060 2d9c D4040000 		.4byte	.LVL415
 14061 2da0 FE040000 		.4byte	.LVL418
 14062 2da4 0200     		.2byte	0x2
 14063 2da6 74       		.byte	0x74
 14064 2da7 7C       		.sleb128 -4
 14065 2da8 FE040000 		.4byte	.LVL418
 14066 2dac 02050000 		.4byte	.LVL419
 14067 2db0 0200     		.2byte	0x2
 14068 2db2 75       		.byte	0x75
 14069 2db3 7C       		.sleb128 -4
 14070 2db4 02050000 		.4byte	.LVL419
 14071 2db8 30050000 		.4byte	.LVL423
 14072 2dbc 0200     		.2byte	0x2
 14073 2dbe 74       		.byte	0x74
 14074 2dbf 7C       		.sleb128 -4
 14075 2dc0 30050000 		.4byte	.LVL423
 14076 2dc4 34050000 		.4byte	.LVL424
 14077 2dc8 0200     		.2byte	0x2
 14078 2dca 75       		.byte	0x75
 14079 2dcb 7C       		.sleb128 -4
ARM GAS  /tmp/ccvHIMcj.s 			page 249


 14080 2dcc 34050000 		.4byte	.LVL424
 14081 2dd0 E8050000 		.4byte	.LVL437
 14082 2dd4 0200     		.2byte	0x2
 14083 2dd6 74       		.byte	0x74
 14084 2dd7 7C       		.sleb128 -4
 14085 2dd8 EE050000 		.4byte	.LVL438
 14086 2ddc F0050000 		.4byte	.LVL439
 14087 2de0 0100     		.2byte	0x1
 14088 2de2 50       		.byte	0x50
 14089 2de3 F0050000 		.4byte	.LVL439
 14090 2de7 FA050000 		.4byte	.LVL440
 14091 2deb 0200     		.2byte	0x2
 14092 2ded 75       		.byte	0x75
 14093 2dee 00       		.sleb128 0
 14094 2def FA050000 		.4byte	.LVL440
 14095 2df3 1E060000 		.4byte	.LVL442
 14096 2df7 0200     		.2byte	0x2
 14097 2df9 75       		.byte	0x75
 14098 2dfa 7C       		.sleb128 -4
 14099 2dfb 1E060000 		.4byte	.LVL442
 14100 2dff 50060000 		.4byte	.LVL444
 14101 2e03 0200     		.2byte	0x2
 14102 2e05 74       		.byte	0x74
 14103 2e06 7C       		.sleb128 -4
 14104 2e07 56060000 		.4byte	.LVL445
 14105 2e0b 58060000 		.4byte	.LVL446
 14106 2e0f 0100     		.2byte	0x1
 14107 2e11 50       		.byte	0x50
 14108 2e12 58060000 		.4byte	.LVL446
 14109 2e16 60060000 		.4byte	.LVL447
 14110 2e1a 0200     		.2byte	0x2
 14111 2e1c 75       		.byte	0x75
 14112 2e1d 00       		.sleb128 0
 14113 2e1e 60060000 		.4byte	.LVL447
 14114 2e22 7A060000 		.4byte	.LVL449
 14115 2e26 0200     		.2byte	0x2
 14116 2e28 75       		.byte	0x75
 14117 2e29 7C       		.sleb128 -4
 14118 2e2a 7A060000 		.4byte	.LVL449
 14119 2e2e 6C070000 		.4byte	.LVL459
 14120 2e32 0200     		.2byte	0x2
 14121 2e34 74       		.byte	0x74
 14122 2e35 7C       		.sleb128 -4
 14123 2e36 72070000 		.4byte	.LVL460
 14124 2e3a 74070000 		.4byte	.LVL461
 14125 2e3e 0100     		.2byte	0x1
 14126 2e40 50       		.byte	0x50
 14127 2e41 74070000 		.4byte	.LVL461
 14128 2e45 7C070000 		.4byte	.LVL462
 14129 2e49 0200     		.2byte	0x2
 14130 2e4b 75       		.byte	0x75
 14131 2e4c 00       		.sleb128 0
 14132 2e4d 7C070000 		.4byte	.LVL462
 14133 2e51 96070000 		.4byte	.LVL464
 14134 2e55 0200     		.2byte	0x2
 14135 2e57 75       		.byte	0x75
 14136 2e58 7C       		.sleb128 -4
ARM GAS  /tmp/ccvHIMcj.s 			page 250


 14137 2e59 96070000 		.4byte	.LVL464
 14138 2e5d D2080000 		.4byte	.LVL488
 14139 2e61 0200     		.2byte	0x2
 14140 2e63 74       		.byte	0x74
 14141 2e64 7C       		.sleb128 -4
 14142 2e65 D2080000 		.4byte	.LVL488
 14143 2e69 D6080000 		.4byte	.LVL489
 14144 2e6d 0200     		.2byte	0x2
 14145 2e6f 75       		.byte	0x75
 14146 2e70 7C       		.sleb128 -4
 14147 2e71 D6080000 		.4byte	.LVL489
 14148 2e75 3E090000 		.4byte	.LVL496
 14149 2e79 0200     		.2byte	0x2
 14150 2e7b 74       		.byte	0x74
 14151 2e7c 7C       		.sleb128 -4
 14152 2e7d 42090000 		.4byte	.LVL497
 14153 2e81 5C090000 		.4byte	.LVL499
 14154 2e85 0100     		.2byte	0x1
 14155 2e87 50       		.byte	0x50
 14156 2e88 5C090000 		.4byte	.LVL499
 14157 2e8c 66090000 		.4byte	.LVL500
 14158 2e90 0200     		.2byte	0x2
 14159 2e92 75       		.byte	0x75
 14160 2e93 00       		.sleb128 0
 14161 2e94 66090000 		.4byte	.LVL500
 14162 2e98 BA090000 		.4byte	.LVL510
 14163 2e9c 0200     		.2byte	0x2
 14164 2e9e 74       		.byte	0x74
 14165 2e9f 7C       		.sleb128 -4
 14166 2ea0 BA090000 		.4byte	.LVL510
 14167 2ea4 C0090000 		.4byte	.LVL511
 14168 2ea8 0200     		.2byte	0x2
 14169 2eaa 75       		.byte	0x75
 14170 2eab 7C       		.sleb128 -4
 14171 2eac C0090000 		.4byte	.LVL511
 14172 2eb0 D2090000 		.4byte	.LVL512
 14173 2eb4 0200     		.2byte	0x2
 14174 2eb6 74       		.byte	0x74
 14175 2eb7 7C       		.sleb128 -4
 14176 2eb8 D2090000 		.4byte	.LVL512
 14177 2ebc DA090000 		.4byte	.LVL513
 14178 2ec0 0200     		.2byte	0x2
 14179 2ec2 75       		.byte	0x75
 14180 2ec3 7C       		.sleb128 -4
 14181 2ec4 DA090000 		.4byte	.LVL513
 14182 2ec8 F4090000 		.4byte	.LVL515
 14183 2ecc 0200     		.2byte	0x2
 14184 2ece 74       		.byte	0x74
 14185 2ecf 7C       		.sleb128 -4
 14186 2ed0 F4090000 		.4byte	.LVL515
 14187 2ed4 020A0000 		.4byte	.LVL516
 14188 2ed8 0200     		.2byte	0x2
 14189 2eda 75       		.byte	0x75
 14190 2edb 7C       		.sleb128 -4
 14191 2edc 020A0000 		.4byte	.LVL516
 14192 2ee0 400A0000 		.4byte	.LVL517
 14193 2ee4 0200     		.2byte	0x2
ARM GAS  /tmp/ccvHIMcj.s 			page 251


 14194 2ee6 74       		.byte	0x74
 14195 2ee7 7C       		.sleb128 -4
 14196 2ee8 400A0000 		.4byte	.LVL517
 14197 2eec 4A0A0000 		.4byte	.LVL518
 14198 2ef0 0200     		.2byte	0x2
 14199 2ef2 75       		.byte	0x75
 14200 2ef3 7C       		.sleb128 -4
 14201 2ef4 4A0A0000 		.4byte	.LVL518
 14202 2ef8 620A0000 		.4byte	.LVL519
 14203 2efc 0200     		.2byte	0x2
 14204 2efe 74       		.byte	0x74
 14205 2eff 7C       		.sleb128 -4
 14206 2f00 620A0000 		.4byte	.LVL519
 14207 2f04 6A0A0000 		.4byte	.LVL520
 14208 2f08 0200     		.2byte	0x2
 14209 2f0a 75       		.byte	0x75
 14210 2f0b 7C       		.sleb128 -4
 14211 2f0c 6A0A0000 		.4byte	.LVL520
 14212 2f10 7E0A0000 		.4byte	.LVL521
 14213 2f14 0200     		.2byte	0x2
 14214 2f16 74       		.byte	0x74
 14215 2f17 7C       		.sleb128 -4
 14216 2f18 7E0A0000 		.4byte	.LVL521
 14217 2f1c 880A0000 		.4byte	.LVL522
 14218 2f20 0200     		.2byte	0x2
 14219 2f22 75       		.byte	0x75
 14220 2f23 7C       		.sleb128 -4
 14221 2f24 880A0000 		.4byte	.LVL522
 14222 2f28 A80A0000 		.4byte	.LVL523
 14223 2f2c 0200     		.2byte	0x2
 14224 2f2e 74       		.byte	0x74
 14225 2f2f 7C       		.sleb128 -4
 14226 2f30 A80A0000 		.4byte	.LVL523
 14227 2f34 B20A0000 		.4byte	.LVL524
 14228 2f38 0200     		.2byte	0x2
 14229 2f3a 75       		.byte	0x75
 14230 2f3b 7C       		.sleb128 -4
 14231 2f3c B20A0000 		.4byte	.LVL524
 14232 2f40 C80A0000 		.4byte	.LVL525
 14233 2f44 0200     		.2byte	0x2
 14234 2f46 74       		.byte	0x74
 14235 2f47 7C       		.sleb128 -4
 14236 2f48 C80A0000 		.4byte	.LVL525
 14237 2f4c CE0A0000 		.4byte	.LVL526
 14238 2f50 0200     		.2byte	0x2
 14239 2f52 75       		.byte	0x75
 14240 2f53 7C       		.sleb128 -4
 14241 2f54 CE0A0000 		.4byte	.LVL526
 14242 2f58 220B0000 		.4byte	.LVL534
 14243 2f5c 0200     		.2byte	0x2
 14244 2f5e 74       		.byte	0x74
 14245 2f5f 7C       		.sleb128 -4
 14246 2f60 220B0000 		.4byte	.LVL534
 14247 2f64 340B0000 		.4byte	.LVL537
 14248 2f68 0100     		.2byte	0x1
 14249 2f6a 50       		.byte	0x50
 14250 2f6b 340B0000 		.4byte	.LVL537
ARM GAS  /tmp/ccvHIMcj.s 			page 252


 14251 2f6f 360B0000 		.4byte	.LVL538
 14252 2f73 0200     		.2byte	0x2
 14253 2f75 75       		.byte	0x75
 14254 2f76 00       		.sleb128 0
 14255 2f77 360B0000 		.4byte	.LVL538
 14256 2f7b 6E0B0000 		.4byte	.LVL546
 14257 2f7f 0200     		.2byte	0x2
 14258 2f81 74       		.byte	0x74
 14259 2f82 7C       		.sleb128 -4
 14260 2f83 6E0B0000 		.4byte	.LVL546
 14261 2f87 B60B0000 		.4byte	.LVL550
 14262 2f8b 0200     		.2byte	0x2
 14263 2f8d 75       		.byte	0x75
 14264 2f8e 78       		.sleb128 -8
 14265 2f8f BE0B0000 		.4byte	.LVL551
 14266 2f93 D00B0000 		.4byte	.LVL554
 14267 2f97 0100     		.2byte	0x1
 14268 2f99 50       		.byte	0x50
 14269 2f9a D00B0000 		.4byte	.LVL554
 14270 2f9e D40B0000 		.4byte	.LVL555
 14271 2fa2 0200     		.2byte	0x2
 14272 2fa4 75       		.byte	0x75
 14273 2fa5 00       		.sleb128 0
 14274 2fa6 D40B0000 		.4byte	.LVL555
 14275 2faa EC0B0000 		.4byte	.LVL556
 14276 2fae 0200     		.2byte	0x2
 14277 2fb0 74       		.byte	0x74
 14278 2fb1 7C       		.sleb128 -4
 14279 2fb2 EC0B0000 		.4byte	.LVL556
 14280 2fb6 F90B0000 		.4byte	.LVL557-1
 14281 2fba 0200     		.2byte	0x2
 14282 2fbc 75       		.byte	0x75
 14283 2fbd 74       		.sleb128 -12
 14284 2fbe 240C0000 		.4byte	.LVL560
 14285 2fc2 2C0C0000 		.4byte	.LVL562
 14286 2fc6 0100     		.2byte	0x1
 14287 2fc8 50       		.byte	0x50
 14288 2fc9 2C0C0000 		.4byte	.LVL562
 14289 2fcd 300C0000 		.4byte	.LVL563
 14290 2fd1 0200     		.2byte	0x2
 14291 2fd3 74       		.byte	0x74
 14292 2fd4 7C       		.sleb128 -4
 14293 2fd5 300C0000 		.4byte	.LVL563
 14294 2fd9 360C0000 		.4byte	.LVL564
 14295 2fdd 0200     		.2byte	0x2
 14296 2fdf 75       		.byte	0x75
 14297 2fe0 78       		.sleb128 -8
 14298 2fe1 360C0000 		.4byte	.LVL564
 14299 2fe5 500C0000 		.4byte	.LVL565
 14300 2fe9 0200     		.2byte	0x2
 14301 2feb 74       		.byte	0x74
 14302 2fec 7C       		.sleb128 -4
 14303 2fed 500C0000 		.4byte	.LVL565
 14304 2ff1 520C0000 		.4byte	.LVL566
 14305 2ff5 0200     		.2byte	0x2
 14306 2ff7 75       		.byte	0x75
 14307 2ff8 00       		.sleb128 0
ARM GAS  /tmp/ccvHIMcj.s 			page 253


 14308 2ff9 560C0000 		.4byte	.LVL567
 14309 2ffd 760C0000 		.4byte	.LVL573
 14310 3001 0100     		.2byte	0x1
 14311 3003 50       		.byte	0x50
 14312 3004 760C0000 		.4byte	.LVL573
 14313 3008 840C0000 		.4byte	.LVL575
 14314 300c 0200     		.2byte	0x2
 14315 300e 75       		.byte	0x75
 14316 300f 00       		.sleb128 0
 14317 3010 840C0000 		.4byte	.LVL575
 14318 3014 A40C0000 		.4byte	.LVL579
 14319 3018 0200     		.2byte	0x2
 14320 301a 74       		.byte	0x74
 14321 301b 7C       		.sleb128 -4
 14322 301c A40C0000 		.4byte	.LVL579
 14323 3020 AE0C0000 		.4byte	.LVL582
 14324 3024 0200     		.2byte	0x2
 14325 3026 75       		.byte	0x75
 14326 3027 00       		.sleb128 0
 14327 3028 B40C0000 		.4byte	.LVL584
 14328 302c BE0C0000 		.4byte	.LVL585
 14329 3030 0100     		.2byte	0x1
 14330 3032 50       		.byte	0x50
 14331 3033 BE0C0000 		.4byte	.LVL585
 14332 3037 CC0C0000 		.4byte	.LVL587
 14333 303b 0200     		.2byte	0x2
 14334 303d 75       		.byte	0x75
 14335 303e 00       		.sleb128 0
 14336 303f CC0C0000 		.4byte	.LVL587
 14337 3043 020D0000 		.4byte	.LVL598
 14338 3047 0200     		.2byte	0x2
 14339 3049 74       		.byte	0x74
 14340 304a 7C       		.sleb128 -4
 14341 304b 020D0000 		.4byte	.LVL598
 14342 304f 0C0D0000 		.4byte	.LVL599
 14343 3053 0200     		.2byte	0x2
 14344 3055 75       		.byte	0x75
 14345 3056 78       		.sleb128 -8
 14346 3057 0C0D0000 		.4byte	.LVL599
 14347 305b 1E0D0000 		.4byte	.LVL600
 14348 305f 0200     		.2byte	0x2
 14349 3061 74       		.byte	0x74
 14350 3062 7C       		.sleb128 -4
 14351 3063 1E0D0000 		.4byte	.LVL600
 14352 3067 280D0000 		.4byte	.LVL601
 14353 306b 0200     		.2byte	0x2
 14354 306d 75       		.byte	0x75
 14355 306e 7C       		.sleb128 -4
 14356 306f 280D0000 		.4byte	.LVL601
 14357 3073 2E0D0000 		.4byte	.LVL603
 14358 3077 0200     		.2byte	0x2
 14359 3079 74       		.byte	0x74
 14360 307a 7C       		.sleb128 -4
 14361 307b 2E0D0000 		.4byte	.LVL603
 14362 307f 340D0000 		.4byte	.LVL604
 14363 3083 0200     		.2byte	0x2
 14364 3085 75       		.byte	0x75
ARM GAS  /tmp/ccvHIMcj.s 			page 254


 14365 3086 78       		.sleb128 -8
 14366 3087 340D0000 		.4byte	.LVL604
 14367 308b A80D0000 		.4byte	.LVL625
 14368 308f 0200     		.2byte	0x2
 14369 3091 74       		.byte	0x74
 14370 3092 7C       		.sleb128 -4
 14371 3093 A80D0000 		.4byte	.LVL625
 14372 3097 AE0D0000 		.4byte	.LVL626
 14373 309b 0200     		.2byte	0x2
 14374 309d 75       		.byte	0x75
 14375 309e 78       		.sleb128 -8
 14376 309f AE0D0000 		.4byte	.LVL626
 14377 30a3 E00D0000 		.4byte	.LVL637
 14378 30a7 0200     		.2byte	0x2
 14379 30a9 74       		.byte	0x74
 14380 30aa 7C       		.sleb128 -4
 14381 30ab E00D0000 		.4byte	.LVL637
 14382 30af E60D0000 		.4byte	.LVL638
 14383 30b3 0200     		.2byte	0x2
 14384 30b5 75       		.byte	0x75
 14385 30b6 78       		.sleb128 -8
 14386 30b7 E60D0000 		.4byte	.LVL638
 14387 30bb 420E0000 		.4byte	.LVL645
 14388 30bf 0200     		.2byte	0x2
 14389 30c1 74       		.byte	0x74
 14390 30c2 7C       		.sleb128 -4
 14391 30c3 420E0000 		.4byte	.LVL645
 14392 30c7 500E0000 		.4byte	.LVL646
 14393 30cb 0200     		.2byte	0x2
 14394 30cd 75       		.byte	0x75
 14395 30ce 78       		.sleb128 -8
 14396 30cf 500E0000 		.4byte	.LVL646
 14397 30d3 640E0000 		.4byte	.LVL648
 14398 30d7 0200     		.2byte	0x2
 14399 30d9 74       		.byte	0x74
 14400 30da 7C       		.sleb128 -4
 14401 30db 640E0000 		.4byte	.LVL648
 14402 30df 6A0E0000 		.4byte	.LVL649
 14403 30e3 0200     		.2byte	0x2
 14404 30e5 75       		.byte	0x75
 14405 30e6 78       		.sleb128 -8
 14406 30e7 6A0E0000 		.4byte	.LVL649
 14407 30eb B40E0000 		.4byte	.LVL655
 14408 30ef 0200     		.2byte	0x2
 14409 30f1 74       		.byte	0x74
 14410 30f2 7C       		.sleb128 -4
 14411 30f3 B40E0000 		.4byte	.LVL655
 14412 30f7 BA0E0000 		.4byte	.LVL656
 14413 30fb 0200     		.2byte	0x2
 14414 30fd 75       		.byte	0x75
 14415 30fe 78       		.sleb128 -8
 14416 30ff BA0E0000 		.4byte	.LVL656
 14417 3103 0A0F0000 		.4byte	.LVL666
 14418 3107 0200     		.2byte	0x2
 14419 3109 74       		.byte	0x74
 14420 310a 7C       		.sleb128 -4
 14421 310b 0A0F0000 		.4byte	.LVL666
ARM GAS  /tmp/ccvHIMcj.s 			page 255


 14422 310f 120F0000 		.4byte	.LVL667
 14423 3113 0200     		.2byte	0x2
 14424 3115 75       		.byte	0x75
 14425 3116 7C       		.sleb128 -4
 14426 3117 120F0000 		.4byte	.LVL667
 14427 311b 6A0F0000 		.4byte	.LVL676
 14428 311f 0200     		.2byte	0x2
 14429 3121 74       		.byte	0x74
 14430 3122 7C       		.sleb128 -4
 14431 3123 6A0F0000 		.4byte	.LVL676
 14432 3127 800F0000 		.4byte	.LVL678
 14433 312b 0200     		.2byte	0x2
 14434 312d 75       		.byte	0x75
 14435 312e 00       		.sleb128 0
 14436 312f C40F0000 		.4byte	.LVL688
 14437 3133 E20F0000 		.4byte	.LVL693
 14438 3137 0100     		.2byte	0x1
 14439 3139 50       		.byte	0x50
 14440 313a 10100000 		.4byte	.LVL700
 14441 313e 20100000 		.4byte	.LVL701
 14442 3142 0100     		.2byte	0x1
 14443 3144 50       		.byte	0x50
 14444 3145 20100000 		.4byte	.LVL701
 14445 3149 39100000 		.4byte	.LVL703-1
 14446 314d 0200     		.2byte	0x2
 14447 314f 75       		.byte	0x75
 14448 3150 00       		.sleb128 0
 14449 3151 4C100000 		.4byte	.LVL705
 14450 3155 5A100000 		.4byte	.LVL706
 14451 3159 0100     		.2byte	0x1
 14452 315b 50       		.byte	0x50
 14453 315c 5A100000 		.4byte	.LVL706
 14454 3160 75100000 		.4byte	.LVL707-1
 14455 3164 0200     		.2byte	0x2
 14456 3166 75       		.byte	0x75
 14457 3167 00       		.sleb128 0
 14458 3168 86100000 		.4byte	.LVL708
 14459 316c A2100000 		.4byte	.LVL712
 14460 3170 0100     		.2byte	0x1
 14461 3172 50       		.byte	0x50
 14462 3173 A2100000 		.4byte	.LVL712
 14463 3177 BE100000 		.4byte	.LVL718
 14464 317b 0200     		.2byte	0x2
 14465 317d 74       		.byte	0x74
 14466 317e 7C       		.sleb128 -4
 14467 317f BE100000 		.4byte	.LVL718
 14468 3183 C6100000 		.4byte	.LVL720
 14469 3187 0200     		.2byte	0x2
 14470 3189 75       		.byte	0x75
 14471 318a 74       		.sleb128 -12
 14472 318b C6100000 		.4byte	.LVL720
 14473 318f DE100000 		.4byte	.LVL723
 14474 3193 0200     		.2byte	0x2
 14475 3195 74       		.byte	0x74
 14476 3196 7C       		.sleb128 -4
 14477 3197 DE100000 		.4byte	.LVL723
 14478 319b 16110000 		.4byte	.LVL728
ARM GAS  /tmp/ccvHIMcj.s 			page 256


 14479 319f 0200     		.2byte	0x2
 14480 31a1 75       		.byte	0x75
 14481 31a2 78       		.sleb128 -8
 14482 31a3 16110000 		.4byte	.LVL728
 14483 31a7 38110000 		.4byte	.LVL729
 14484 31ab 0200     		.2byte	0x2
 14485 31ad 79       		.byte	0x79
 14486 31ae 78       		.sleb128 -8
 14487 31af 38110000 		.4byte	.LVL729
 14488 31b3 42110000 		.4byte	.LVL731
 14489 31b7 0200     		.2byte	0x2
 14490 31b9 75       		.byte	0x75
 14491 31ba 78       		.sleb128 -8
 14492 31bb 4A110000 		.4byte	.LVL732
 14493 31bf 5E110000 		.4byte	.LVL736
 14494 31c3 0100     		.2byte	0x1
 14495 31c5 50       		.byte	0x50
 14496 31c6 5E110000 		.4byte	.LVL736
 14497 31ca 66110000 		.4byte	.LVL737
 14498 31ce 0200     		.2byte	0x2
 14499 31d0 74       		.byte	0x74
 14500 31d1 7C       		.sleb128 -4
 14501 31d2 66110000 		.4byte	.LVL737
 14502 31d6 A0110000 		.4byte	.LVL742
 14503 31da 0200     		.2byte	0x2
 14504 31dc 75       		.byte	0x75
 14505 31dd 78       		.sleb128 -8
 14506 31de A0110000 		.4byte	.LVL742
 14507 31e2 C6110000 		.4byte	.LVL743
 14508 31e6 0200     		.2byte	0x2
 14509 31e8 79       		.byte	0x79
 14510 31e9 78       		.sleb128 -8
 14511 31ea C6110000 		.4byte	.LVL743
 14512 31ee D0110000 		.4byte	.LVL745
 14513 31f2 0200     		.2byte	0x2
 14514 31f4 75       		.byte	0x75
 14515 31f5 78       		.sleb128 -8
 14516 31f6 D8110000 		.4byte	.LVL746
 14517 31fa F0110000 		.4byte	.LVL750
 14518 31fe 0100     		.2byte	0x1
 14519 3200 50       		.byte	0x50
 14520 3201 F0110000 		.4byte	.LVL750
 14521 3205 3C120000 		.4byte	.LVL753
 14522 3209 0200     		.2byte	0x2
 14523 320b 75       		.byte	0x75
 14524 320c 78       		.sleb128 -8
 14525 320d 44120000 		.4byte	.LVL754
 14526 3211 6C120000 		.4byte	.LVL761
 14527 3215 0100     		.2byte	0x1
 14528 3217 50       		.byte	0x50
 14529 3218 6C120000 		.4byte	.LVL761
 14530 321c BE120000 		.4byte	.LVL773
 14531 3220 0200     		.2byte	0x2
 14532 3222 74       		.byte	0x74
 14533 3223 7C       		.sleb128 -4
 14534 3224 BE120000 		.4byte	.LVL773
 14535 3228 C4120000 		.4byte	.LVL774
ARM GAS  /tmp/ccvHIMcj.s 			page 257


 14536 322c 0200     		.2byte	0x2
 14537 322e 75       		.byte	0x75
 14538 322f 7C       		.sleb128 -4
 14539 3230 C4120000 		.4byte	.LVL774
 14540 3234 1A130000 		.4byte	.LVL781
 14541 3238 0200     		.2byte	0x2
 14542 323a 74       		.byte	0x74
 14543 323b 7C       		.sleb128 -4
 14544 323c 1A130000 		.4byte	.LVL781
 14545 3240 22130000 		.4byte	.LVL784
 14546 3244 0100     		.2byte	0x1
 14547 3246 50       		.byte	0x50
 14548 3247 22130000 		.4byte	.LVL784
 14549 324b 2E130000 		.4byte	.LVL786
 14550 324f 0200     		.2byte	0x2
 14551 3251 75       		.byte	0x75
 14552 3252 00       		.sleb128 0
 14553 3253 2E130000 		.4byte	.LVL786
 14554 3257 46130000 		.4byte	.LVL790
 14555 325b 0200     		.2byte	0x2
 14556 325d 74       		.byte	0x74
 14557 325e 7C       		.sleb128 -4
 14558 325f 46130000 		.4byte	.LVL790
 14559 3263 4E130000 		.4byte	.LVL791
 14560 3267 0200     		.2byte	0x2
 14561 3269 75       		.byte	0x75
 14562 326a 78       		.sleb128 -8
 14563 326b 4E130000 		.4byte	.LVL791
 14564 326f 6E130000 		.4byte	.LVL794
 14565 3273 0200     		.2byte	0x2
 14566 3275 74       		.byte	0x74
 14567 3276 7C       		.sleb128 -4
 14568 3277 6E130000 		.4byte	.LVL794
 14569 327b 7B130000 		.4byte	.LVL795-1
 14570 327f 0200     		.2byte	0x2
 14571 3281 75       		.byte	0x75
 14572 3282 78       		.sleb128 -8
 14573 3283 A6130000 		.4byte	.LVL796
 14574 3287 AA130000 		.4byte	.LVL797
 14575 328b 0100     		.2byte	0x1
 14576 328d 50       		.byte	0x50
 14577 328e AA130000 		.4byte	.LVL797
 14578 3292 D8130000 		.4byte	.LVL804
 14579 3296 0200     		.2byte	0x2
 14580 3298 74       		.byte	0x74
 14581 3299 7C       		.sleb128 -4
 14582 329a D8130000 		.4byte	.LVL804
 14583 329e E0130000 		.4byte	.LVL807
 14584 32a2 0200     		.2byte	0x2
 14585 32a4 75       		.byte	0x75
 14586 32a5 00       		.sleb128 0
 14587 32a6 E0130000 		.4byte	.LVL807
 14588 32aa FA130000 		.4byte	.LVL815
 14589 32ae 0200     		.2byte	0x2
 14590 32b0 74       		.byte	0x74
 14591 32b1 7C       		.sleb128 -4
 14592 32b2 FA130000 		.4byte	.LVL815
ARM GAS  /tmp/ccvHIMcj.s 			page 258


 14593 32b6 02140000 		.4byte	.LVL816
 14594 32ba 0200     		.2byte	0x2
 14595 32bc 75       		.byte	0x75
 14596 32bd 7C       		.sleb128 -4
 14597 32be 02140000 		.4byte	.LVL816
 14598 32c2 30140000 		.4byte	.LVL822
 14599 32c6 0200     		.2byte	0x2
 14600 32c8 74       		.byte	0x74
 14601 32c9 7C       		.sleb128 -4
 14602 32ca 6E140000 		.4byte	.LVL833
 14603 32ce 82140000 		.4byte	.LVL836
 14604 32d2 0100     		.2byte	0x1
 14605 32d4 50       		.byte	0x50
 14606 32d5 82140000 		.4byte	.LVL836
 14607 32d9 A8140000 		.4byte	.LVL842
 14608 32dd 0200     		.2byte	0x2
 14609 32df 74       		.byte	0x74
 14610 32e0 7C       		.sleb128 -4
 14611 32e1 A8140000 		.4byte	.LVL842
 14612 32e5 AE140000 		.4byte	.LVL843
 14613 32e9 0200     		.2byte	0x2
 14614 32eb 75       		.byte	0x75
 14615 32ec 78       		.sleb128 -8
 14616 32ed AE140000 		.4byte	.LVL843
 14617 32f1 C4140000 		.4byte	.LVL846
 14618 32f5 0200     		.2byte	0x2
 14619 32f7 74       		.byte	0x74
 14620 32f8 7C       		.sleb128 -4
 14621 32f9 C4140000 		.4byte	.LVL846
 14622 32fd CA140000 		.4byte	.LVL847
 14623 3301 0200     		.2byte	0x2
 14624 3303 75       		.byte	0x75
 14625 3304 7C       		.sleb128 -4
 14626 3305 CA140000 		.4byte	.LVL847
 14627 3309 02150000 		.4byte	.LVL855
 14628 330d 0200     		.2byte	0x2
 14629 330f 74       		.byte	0x74
 14630 3310 7C       		.sleb128 -4
 14631 3311 02150000 		.4byte	.LVL855
 14632 3315 0A150000 		.4byte	.LVL856
 14633 3319 0200     		.2byte	0x2
 14634 331b 75       		.byte	0x75
 14635 331c 78       		.sleb128 -8
 14636 331d 0A150000 		.4byte	.LVL856
 14637 3321 24150000 		.4byte	.LVL861
 14638 3325 0200     		.2byte	0x2
 14639 3327 74       		.byte	0x74
 14640 3328 7C       		.sleb128 -4
 14641 3329 24150000 		.4byte	.LVL861
 14642 332d 32150000 		.4byte	.LVL862
 14643 3331 0200     		.2byte	0x2
 14644 3333 75       		.byte	0x75
 14645 3334 78       		.sleb128 -8
 14646 3335 32150000 		.4byte	.LVL862
 14647 3339 48150000 		.4byte	.LVL866
 14648 333d 0200     		.2byte	0x2
 14649 333f 74       		.byte	0x74
ARM GAS  /tmp/ccvHIMcj.s 			page 259


 14650 3340 7C       		.sleb128 -4
 14651 3341 48150000 		.4byte	.LVL866
 14652 3345 4E150000 		.4byte	.LVL867
 14653 3349 0200     		.2byte	0x2
 14654 334b 75       		.byte	0x75
 14655 334c 78       		.sleb128 -8
 14656 334d 4E150000 		.4byte	.LVL867
 14657 3351 C2150000 		.4byte	.LVL882
 14658 3355 0200     		.2byte	0x2
 14659 3357 74       		.byte	0x74
 14660 3358 7C       		.sleb128 -4
 14661 3359 C2150000 		.4byte	.LVL882
 14662 335d F6150000 		.4byte	.LVL887
 14663 3361 0200     		.2byte	0x2
 14664 3363 75       		.byte	0x75
 14665 3364 78       		.sleb128 -8
 14666 3365 F6150000 		.4byte	.LVL887
 14667 3369 18160000 		.4byte	.LVL888
 14668 336d 0200     		.2byte	0x2
 14669 336f 79       		.byte	0x79
 14670 3370 78       		.sleb128 -8
 14671 3371 18160000 		.4byte	.LVL888
 14672 3375 22160000 		.4byte	.LVL890
 14673 3379 0200     		.2byte	0x2
 14674 337b 75       		.byte	0x75
 14675 337c 78       		.sleb128 -8
 14676 337d 2A160000 		.4byte	.LVL891
 14677 3381 32160000 		.4byte	.LVL893
 14678 3385 0100     		.2byte	0x1
 14679 3387 50       		.byte	0x50
 14680 3388 38160000 		.4byte	.LVL894
 14681 338c 3E160000 		.4byte	.LVL896
 14682 3390 0200     		.2byte	0x2
 14683 3392 74       		.byte	0x74
 14684 3393 7C       		.sleb128 -4
 14685 3394 3E160000 		.4byte	.LVL896
 14686 3398 8A160000 		.4byte	.LVL901
 14687 339c 0200     		.2byte	0x2
 14688 339e 75       		.byte	0x75
 14689 339f 78       		.sleb128 -8
 14690 33a0 94160000 		.4byte	.LVL902
 14691 33a4 96160000 		.4byte	.LVL903
 14692 33a8 0100     		.2byte	0x1
 14693 33aa 50       		.byte	0x50
 14694 33ab 96160000 		.4byte	.LVL903
 14695 33af 98160000 		.4byte	.LVL904
 14696 33b3 0200     		.2byte	0x2
 14697 33b5 75       		.byte	0x75
 14698 33b6 00       		.sleb128 0
 14699 33b7 98160000 		.4byte	.LVL904
 14700 33bb A8160000 		.4byte	.LVL907
 14701 33bf 0200     		.2byte	0x2
 14702 33c1 74       		.byte	0x74
 14703 33c2 7C       		.sleb128 -4
 14704 33c3 A8160000 		.4byte	.LVL907
 14705 33c7 FA160000 		.4byte	.LVL911
 14706 33cb 0200     		.2byte	0x2
ARM GAS  /tmp/ccvHIMcj.s 			page 260


 14707 33cd 75       		.byte	0x75
 14708 33ce 78       		.sleb128 -8
 14709 33cf 02170000 		.4byte	.LVL912
 14710 33d3 20170000 		.4byte	.LVL920
 14711 33d7 0200     		.2byte	0x2
 14712 33d9 74       		.byte	0x74
 14713 33da 7C       		.sleb128 -4
 14714 33db 26170000 		.4byte	.LVL922
 14715 33df 46170000 		.4byte	.LVL923
 14716 33e3 0100     		.2byte	0x1
 14717 33e5 50       		.byte	0x50
 14718 33e6 46170000 		.4byte	.LVL923
 14719 33ea 64170000 		.4byte	.LVL924
 14720 33ee 0200     		.2byte	0x2
 14721 33f0 75       		.byte	0x75
 14722 33f1 78       		.sleb128 -8
 14723 33f2 9E170000 		.4byte	.LVL929
 14724 33f6 B4170000 		.4byte	.LVL931
 14725 33fa 0200     		.2byte	0x2
 14726 33fc 75       		.byte	0x75
 14727 33fd 00       		.sleb128 0
 14728 33fe B4170000 		.4byte	.LVL931
 14729 3402 FC170000 		.4byte	.LVL944
 14730 3406 0200     		.2byte	0x2
 14731 3408 74       		.byte	0x74
 14732 3409 7C       		.sleb128 -4
 14733 340a 06180000 		.4byte	.LVL945
 14734 340e 0C180000 		.4byte	.LVL947
 14735 3412 0100     		.2byte	0x1
 14736 3414 50       		.byte	0x50
 14737 3415 0C180000 		.4byte	.LVL947
 14738 3419 2C180000 		.4byte	.LVL951
 14739 341d 0200     		.2byte	0x2
 14740 341f 74       		.byte	0x74
 14741 3420 7C       		.sleb128 -4
 14742 3421 3E180000 		.4byte	.LVL952
 14743 3425 44180000 		.4byte	.LVL953
 14744 3429 0100     		.2byte	0x1
 14745 342b 50       		.byte	0x50
 14746 342c 44180000 		.4byte	.LVL953
 14747 3430 4C180000 		.4byte	.LVL955
 14748 3434 0200     		.2byte	0x2
 14749 3436 75       		.byte	0x75
 14750 3437 00       		.sleb128 0
 14751 3438 4C180000 		.4byte	.LVL955
 14752 343c 4E180000 		.4byte	.LVL956
 14753 3440 0200     		.2byte	0x2
 14754 3442 74       		.byte	0x74
 14755 3443 7C       		.sleb128 -4
 14756 3444 4E180000 		.4byte	.LVL956
 14757 3448 5A180000 		.4byte	.LVL960
 14758 344c 0100     		.2byte	0x1
 14759 344e 50       		.byte	0x50
 14760 344f 5A180000 		.4byte	.LVL960
 14761 3453 F0180000 		.4byte	.LVL971
 14762 3457 0200     		.2byte	0x2
 14763 3459 74       		.byte	0x74
ARM GAS  /tmp/ccvHIMcj.s 			page 261


 14764 345a 7C       		.sleb128 -4
 14765 345b 00000000 		.4byte	0x0
 14766 345f 00000000 		.4byte	0x0
 14767              	.LLST164:
 14768 3463 22030000 		.4byte	.LVL383
 14769 3467 30030000 		.4byte	.LVL384
 14770 346b 0500     		.2byte	0x5
 14771 346d 70       		.byte	0x70
 14772 346e 00       		.sleb128 0
 14773 346f 40       		.byte	0x40
 14774 3470 26       		.byte	0x26
 14775 3471 9F       		.byte	0x9f
 14776 3472 36030000 		.4byte	.LVL387
 14777 3476 66030000 		.4byte	.LVL389
 14778 347a 0100     		.2byte	0x1
 14779 347c 50       		.byte	0x50
 14780 347d 68030000 		.4byte	.LVL390
 14781 3481 C3030000 		.4byte	.LVL392-1
 14782 3485 0100     		.2byte	0x1
 14783 3487 52       		.byte	0x52
 14784 3488 CE030000 		.4byte	.LVL396
 14785 348c 29040000 		.4byte	.LVL399-1
 14786 3490 0100     		.2byte	0x1
 14787 3492 52       		.byte	0x52
 14788 3493 32040000 		.4byte	.LVL401
 14789 3497 6A040000 		.4byte	.LVL405
 14790 349b 0100     		.2byte	0x1
 14791 349d 50       		.byte	0x50
 14792 349e 6A040000 		.4byte	.LVL405
 14793 34a2 74040000 		.4byte	.LVL406
 14794 34a6 0300     		.2byte	0x3
 14795 34a8 71       		.byte	0x71
 14796 34a9 04       		.sleb128 4
 14797 34aa 9F       		.byte	0x9f
 14798 34ab AC040000 		.4byte	.LVL408
 14799 34af B0040000 		.4byte	.LVL409
 14800 34b3 0500     		.2byte	0x5
 14801 34b5 70       		.byte	0x70
 14802 34b6 00       		.sleb128 0
 14803 34b7 40       		.byte	0x40
 14804 34b8 26       		.byte	0x26
 14805 34b9 9F       		.byte	0x9f
 14806 34ba B0040000 		.4byte	.LVL409
 14807 34be B4040000 		.4byte	.LVL410
 14808 34c2 0600     		.2byte	0x6
 14809 34c4 75       		.byte	0x75
 14810 34c5 00       		.sleb128 0
 14811 34c6 06       		.byte	0x6
 14812 34c7 40       		.byte	0x40
 14813 34c8 26       		.byte	0x26
 14814 34c9 9F       		.byte	0x9f
 14815 34ca B4040000 		.4byte	.LVL410
 14816 34ce B6040000 		.4byte	.LVL411
 14817 34d2 0600     		.2byte	0x6
 14818 34d4 74       		.byte	0x74
 14819 34d5 7C       		.sleb128 -4
 14820 34d6 06       		.byte	0x6
ARM GAS  /tmp/ccvHIMcj.s 			page 262


 14821 34d7 40       		.byte	0x40
 14822 34d8 26       		.byte	0x26
 14823 34d9 9F       		.byte	0x9f
 14824 34da B6040000 		.4byte	.LVL411
 14825 34de BA040000 		.4byte	.LVL412
 14826 34e2 0600     		.2byte	0x6
 14827 34e4 75       		.byte	0x75
 14828 34e5 7C       		.sleb128 -4
 14829 34e6 06       		.byte	0x6
 14830 34e7 40       		.byte	0x40
 14831 34e8 26       		.byte	0x26
 14832 34e9 9F       		.byte	0x9f
 14833 34ea BA040000 		.4byte	.LVL412
 14834 34ee C6040000 		.4byte	.LVL413
 14835 34f2 0600     		.2byte	0x6
 14836 34f4 74       		.byte	0x74
 14837 34f5 7C       		.sleb128 -4
 14838 34f6 06       		.byte	0x6
 14839 34f7 40       		.byte	0x40
 14840 34f8 26       		.byte	0x26
 14841 34f9 9F       		.byte	0x9f
 14842 34fa C6040000 		.4byte	.LVL413
 14843 34fe D0040000 		.4byte	.LVL414
 14844 3502 0600     		.2byte	0x6
 14845 3504 74       		.byte	0x74
 14846 3505 7C       		.sleb128 -4
 14847 3506 06       		.byte	0x6
 14848 3507 40       		.byte	0x40
 14849 3508 26       		.byte	0x26
 14850 3509 9F       		.byte	0x9f
 14851 350a D0040000 		.4byte	.LVL414
 14852 350e D4040000 		.4byte	.LVL415
 14853 3512 0600     		.2byte	0x6
 14854 3514 75       		.byte	0x75
 14855 3515 7C       		.sleb128 -4
 14856 3516 06       		.byte	0x6
 14857 3517 40       		.byte	0x40
 14858 3518 26       		.byte	0x26
 14859 3519 9F       		.byte	0x9f
 14860 351a D4040000 		.4byte	.LVL415
 14861 351e E0040000 		.4byte	.LVL416
 14862 3522 0600     		.2byte	0x6
 14863 3524 74       		.byte	0x74
 14864 3525 7C       		.sleb128 -4
 14865 3526 06       		.byte	0x6
 14866 3527 40       		.byte	0x40
 14867 3528 26       		.byte	0x26
 14868 3529 9F       		.byte	0x9f
 14869 352a E0040000 		.4byte	.LVL416
 14870 352e F0040000 		.4byte	.LVL417
 14871 3532 0600     		.2byte	0x6
 14872 3534 74       		.byte	0x74
 14873 3535 7C       		.sleb128 -4
 14874 3536 06       		.byte	0x6
 14875 3537 40       		.byte	0x40
 14876 3538 26       		.byte	0x26
 14877 3539 9F       		.byte	0x9f
ARM GAS  /tmp/ccvHIMcj.s 			page 263


 14878 353a F0040000 		.4byte	.LVL417
 14879 353e FE040000 		.4byte	.LVL418
 14880 3542 0600     		.2byte	0x6
 14881 3544 74       		.byte	0x74
 14882 3545 7C       		.sleb128 -4
 14883 3546 06       		.byte	0x6
 14884 3547 40       		.byte	0x40
 14885 3548 26       		.byte	0x26
 14886 3549 9F       		.byte	0x9f
 14887 354a FE040000 		.4byte	.LVL418
 14888 354e 02050000 		.4byte	.LVL419
 14889 3552 0600     		.2byte	0x6
 14890 3554 75       		.byte	0x75
 14891 3555 7C       		.sleb128 -4
 14892 3556 06       		.byte	0x6
 14893 3557 40       		.byte	0x40
 14894 3558 26       		.byte	0x26
 14895 3559 9F       		.byte	0x9f
 14896 355a 02050000 		.4byte	.LVL419
 14897 355e 10050000 		.4byte	.LVL420
 14898 3562 0600     		.2byte	0x6
 14899 3564 74       		.byte	0x74
 14900 3565 7C       		.sleb128 -4
 14901 3566 06       		.byte	0x6
 14902 3567 40       		.byte	0x40
 14903 3568 26       		.byte	0x26
 14904 3569 9F       		.byte	0x9f
 14905 356a 10050000 		.4byte	.LVL420
 14906 356e 1A050000 		.4byte	.LVL421
 14907 3572 0600     		.2byte	0x6
 14908 3574 74       		.byte	0x74
 14909 3575 7C       		.sleb128 -4
 14910 3576 06       		.byte	0x6
 14911 3577 40       		.byte	0x40
 14912 3578 26       		.byte	0x26
 14913 3579 9F       		.byte	0x9f
 14914 357a 1A050000 		.4byte	.LVL421
 14915 357e 28050000 		.4byte	.LVL422
 14916 3582 0600     		.2byte	0x6
 14917 3584 74       		.byte	0x74
 14918 3585 7C       		.sleb128 -4
 14919 3586 06       		.byte	0x6
 14920 3587 40       		.byte	0x40
 14921 3588 26       		.byte	0x26
 14922 3589 9F       		.byte	0x9f
 14923 358a 28050000 		.4byte	.LVL422
 14924 358e 30050000 		.4byte	.LVL423
 14925 3592 0600     		.2byte	0x6
 14926 3594 74       		.byte	0x74
 14927 3595 7C       		.sleb128 -4
 14928 3596 06       		.byte	0x6
 14929 3597 40       		.byte	0x40
 14930 3598 26       		.byte	0x26
 14931 3599 9F       		.byte	0x9f
 14932 359a 30050000 		.4byte	.LVL423
 14933 359e 34050000 		.4byte	.LVL424
 14934 35a2 0600     		.2byte	0x6
ARM GAS  /tmp/ccvHIMcj.s 			page 264


 14935 35a4 75       		.byte	0x75
 14936 35a5 7C       		.sleb128 -4
 14937 35a6 06       		.byte	0x6
 14938 35a7 40       		.byte	0x40
 14939 35a8 26       		.byte	0x26
 14940 35a9 9F       		.byte	0x9f
 14941 35aa 34050000 		.4byte	.LVL424
 14942 35ae 3E050000 		.4byte	.LVL426
 14943 35b2 0600     		.2byte	0x6
 14944 35b4 74       		.byte	0x74
 14945 35b5 7C       		.sleb128 -4
 14946 35b6 06       		.byte	0x6
 14947 35b7 40       		.byte	0x40
 14948 35b8 26       		.byte	0x26
 14949 35b9 9F       		.byte	0x9f
 14950 35ba 3E050000 		.4byte	.LVL426
 14951 35be 4C050000 		.4byte	.LVL427
 14952 35c2 0600     		.2byte	0x6
 14953 35c4 74       		.byte	0x74
 14954 35c5 7C       		.sleb128 -4
 14955 35c6 06       		.byte	0x6
 14956 35c7 40       		.byte	0x40
 14957 35c8 26       		.byte	0x26
 14958 35c9 9F       		.byte	0x9f
 14959 35ca 4C050000 		.4byte	.LVL427
 14960 35ce 6C050000 		.4byte	.LVL430
 14961 35d2 0600     		.2byte	0x6
 14962 35d4 74       		.byte	0x74
 14963 35d5 7C       		.sleb128 -4
 14964 35d6 06       		.byte	0x6
 14965 35d7 40       		.byte	0x40
 14966 35d8 26       		.byte	0x26
 14967 35d9 9F       		.byte	0x9f
 14968 35da 6C050000 		.4byte	.LVL430
 14969 35de 8C050000 		.4byte	.LVL433
 14970 35e2 0600     		.2byte	0x6
 14971 35e4 74       		.byte	0x74
 14972 35e5 7C       		.sleb128 -4
 14973 35e6 06       		.byte	0x6
 14974 35e7 40       		.byte	0x40
 14975 35e8 26       		.byte	0x26
 14976 35e9 9F       		.byte	0x9f
 14977 35ea 9A050000 		.4byte	.LVL434
 14978 35ee C2050000 		.4byte	.LVL436
 14979 35f2 0200     		.2byte	0x2
 14980 35f4 74       		.byte	0x74
 14981 35f5 00       		.sleb128 0
 14982 35f6 FA050000 		.4byte	.LVL440
 14983 35fa 26060000 		.4byte	.LVL443
 14984 35fe 0200     		.2byte	0x2
 14985 3600 75       		.byte	0x75
 14986 3601 00       		.sleb128 0
 14987 3602 60060000 		.4byte	.LVL447
 14988 3606 82060000 		.4byte	.LVL450
 14989 360a 0200     		.2byte	0x2
 14990 360c 75       		.byte	0x75
 14991 360d 00       		.sleb128 0
ARM GAS  /tmp/ccvHIMcj.s 			page 265


 14992 360e BC060000 		.4byte	.LVL452
 14993 3612 E0060000 		.4byte	.LVL454
 14994 3616 0200     		.2byte	0x2
 14995 3618 74       		.byte	0x74
 14996 3619 00       		.sleb128 0
 14997 361a 1C070000 		.4byte	.LVL456
 14998 361e 46070000 		.4byte	.LVL458
 14999 3622 0200     		.2byte	0x2
 15000 3624 74       		.byte	0x74
 15001 3625 00       		.sleb128 0
 15002 3626 7C070000 		.4byte	.LVL462
 15003 362a 9E070000 		.4byte	.LVL465
 15004 362e 0200     		.2byte	0x2
 15005 3630 75       		.byte	0x75
 15006 3631 00       		.sleb128 0
 15007 3632 CE070000 		.4byte	.LVL466
 15008 3636 DE070000 		.4byte	.LVL468
 15009 363a 0600     		.2byte	0x6
 15010 363c 74       		.byte	0x74
 15011 363d 7C       		.sleb128 -4
 15012 363e 06       		.byte	0x6
 15013 363f 40       		.byte	0x40
 15014 3640 26       		.byte	0x26
 15015 3641 9F       		.byte	0x9f
 15016 3642 DE070000 		.4byte	.LVL468
 15017 3646 F2070000 		.4byte	.LVL470
 15018 364a 0600     		.2byte	0x6
 15019 364c 74       		.byte	0x74
 15020 364d 7C       		.sleb128 -4
 15021 364e 06       		.byte	0x6
 15022 364f 40       		.byte	0x40
 15023 3650 26       		.byte	0x26
 15024 3651 9F       		.byte	0x9f
 15025 3652 F2070000 		.4byte	.LVL470
 15026 3656 02080000 		.4byte	.LVL472
 15027 365a 0600     		.2byte	0x6
 15028 365c 74       		.byte	0x74
 15029 365d 7C       		.sleb128 -4
 15030 365e 06       		.byte	0x6
 15031 365f 40       		.byte	0x40
 15032 3660 26       		.byte	0x26
 15033 3661 9F       		.byte	0x9f
 15034 3662 02080000 		.4byte	.LVL472
 15035 3666 10080000 		.4byte	.LVL474
 15036 366a 0600     		.2byte	0x6
 15037 366c 74       		.byte	0x74
 15038 366d 7C       		.sleb128 -4
 15039 366e 06       		.byte	0x6
 15040 366f 40       		.byte	0x40
 15041 3670 26       		.byte	0x26
 15042 3671 9F       		.byte	0x9f
 15043 3672 10080000 		.4byte	.LVL474
 15044 3676 28080000 		.4byte	.LVL475
 15045 367a 0600     		.2byte	0x6
 15046 367c 74       		.byte	0x74
 15047 367d 7C       		.sleb128 -4
 15048 367e 06       		.byte	0x6
ARM GAS  /tmp/ccvHIMcj.s 			page 266


 15049 367f 40       		.byte	0x40
 15050 3680 26       		.byte	0x26
 15051 3681 9F       		.byte	0x9f
 15052 3682 28080000 		.4byte	.LVL475
 15053 3686 3A080000 		.4byte	.LVL476
 15054 368a 0600     		.2byte	0x6
 15055 368c 74       		.byte	0x74
 15056 368d 7C       		.sleb128 -4
 15057 368e 06       		.byte	0x6
 15058 368f 40       		.byte	0x40
 15059 3690 26       		.byte	0x26
 15060 3691 9F       		.byte	0x9f
 15061 3692 44080000 		.4byte	.LVL477
 15062 3696 64080000 		.4byte	.LVL479
 15063 369a 0200     		.2byte	0x2
 15064 369c 74       		.byte	0x74
 15065 369d 00       		.sleb128 0
 15066 369e 8E080000 		.4byte	.LVL480
 15067 36a2 A2080000 		.4byte	.LVL482
 15068 36a6 0600     		.2byte	0x6
 15069 36a8 74       		.byte	0x74
 15070 36a9 7C       		.sleb128 -4
 15071 36aa 06       		.byte	0x6
 15072 36ab 40       		.byte	0x40
 15073 36ac 26       		.byte	0x26
 15074 36ad 9F       		.byte	0x9f
 15075 36ae A2080000 		.4byte	.LVL482
 15076 36b2 B8080000 		.4byte	.LVL484
 15077 36b6 0600     		.2byte	0x6
 15078 36b8 74       		.byte	0x74
 15079 36b9 7C       		.sleb128 -4
 15080 36ba 06       		.byte	0x6
 15081 36bb 40       		.byte	0x40
 15082 36bc 26       		.byte	0x26
 15083 36bd 9F       		.byte	0x9f
 15084 36be B8080000 		.4byte	.LVL484
 15085 36c2 C8080000 		.4byte	.LVL486
 15086 36c6 0600     		.2byte	0x6
 15087 36c8 74       		.byte	0x74
 15088 36c9 7C       		.sleb128 -4
 15089 36ca 06       		.byte	0x6
 15090 36cb 40       		.byte	0x40
 15091 36cc 26       		.byte	0x26
 15092 36cd 9F       		.byte	0x9f
 15093 36ce C8080000 		.4byte	.LVL486
 15094 36d2 CC080000 		.4byte	.LVL487
 15095 36d6 0600     		.2byte	0x6
 15096 36d8 74       		.byte	0x74
 15097 36d9 7C       		.sleb128 -4
 15098 36da 06       		.byte	0x6
 15099 36db 40       		.byte	0x40
 15100 36dc 26       		.byte	0x26
 15101 36dd 9F       		.byte	0x9f
 15102 36de CC080000 		.4byte	.LVL487
 15103 36e2 D6080000 		.4byte	.LVL489
 15104 36e6 0500     		.2byte	0x5
 15105 36e8 76       		.byte	0x76
ARM GAS  /tmp/ccvHIMcj.s 			page 267


 15106 36e9 00       		.sleb128 0
 15107 36ea 70       		.byte	0x70
 15108 36eb 00       		.sleb128 0
 15109 36ec 22       		.byte	0x22
 15110 36ed D6080000 		.4byte	.LVL489
 15111 36f1 E4080000 		.4byte	.LVL490
 15112 36f5 0600     		.2byte	0x6
 15113 36f7 74       		.byte	0x74
 15114 36f8 7C       		.sleb128 -4
 15115 36f9 06       		.byte	0x6
 15116 36fa 40       		.byte	0x40
 15117 36fb 26       		.byte	0x26
 15118 36fc 9F       		.byte	0x9f
 15119 36fd E4080000 		.4byte	.LVL490
 15120 3701 EE080000 		.4byte	.LVL491
 15121 3705 0600     		.2byte	0x6
 15122 3707 74       		.byte	0x74
 15123 3708 7C       		.sleb128 -4
 15124 3709 06       		.byte	0x6
 15125 370a 40       		.byte	0x40
 15126 370b 26       		.byte	0x26
 15127 370c 9F       		.byte	0x9f
 15128 370d 12090000 		.4byte	.LVL494
 15129 3711 42090000 		.4byte	.LVL497
 15130 3715 0100     		.2byte	0x1
 15131 3717 50       		.byte	0x50
 15132 3718 42090000 		.4byte	.LVL497
 15133 371c 4E090000 		.4byte	.LVL498
 15134 3720 0500     		.2byte	0x5
 15135 3722 70       		.byte	0x70
 15136 3723 00       		.sleb128 0
 15137 3724 40       		.byte	0x40
 15138 3725 26       		.byte	0x26
 15139 3726 9F       		.byte	0x9f
 15140 3727 4E090000 		.4byte	.LVL498
 15141 372b 6C090000 		.4byte	.LVL501
 15142 372f 0100     		.2byte	0x1
 15143 3731 53       		.byte	0x53
 15144 3732 6E090000 		.4byte	.LVL502
 15145 3736 98090000 		.4byte	.LVL504
 15146 373a 0100     		.2byte	0x1
 15147 373c 50       		.byte	0x50
 15148 373d A0090000 		.4byte	.LVL505
 15149 3741 A4090000 		.4byte	.LVL506
 15150 3745 0600     		.2byte	0x6
 15151 3747 74       		.byte	0x74
 15152 3748 7C       		.sleb128 -4
 15153 3749 06       		.byte	0x6
 15154 374a 40       		.byte	0x40
 15155 374b 26       		.byte	0x26
 15156 374c 9F       		.byte	0x9f
 15157 374d A4090000 		.4byte	.LVL506
 15158 3751 B0090000 		.4byte	.LVL508
 15159 3755 0500     		.2byte	0x5
 15160 3757 76       		.byte	0x76
 15161 3758 00       		.sleb128 0
 15162 3759 73       		.byte	0x73
ARM GAS  /tmp/ccvHIMcj.s 			page 268


 15163 375a 00       		.sleb128 0
 15164 375b 22       		.byte	0x22
 15165 375c B0090000 		.4byte	.LVL508
 15166 3760 B4090000 		.4byte	.LVL509
 15167 3764 0600     		.2byte	0x6
 15168 3766 74       		.byte	0x74
 15169 3767 7C       		.sleb128 -4
 15170 3768 06       		.byte	0x6
 15171 3769 40       		.byte	0x40
 15172 376a 26       		.byte	0x26
 15173 376b 9F       		.byte	0x9f
 15174 376c B4090000 		.4byte	.LVL509
 15175 3770 C0090000 		.4byte	.LVL511
 15176 3774 0500     		.2byte	0x5
 15177 3776 76       		.byte	0x76
 15178 3777 00       		.sleb128 0
 15179 3778 70       		.byte	0x70
 15180 3779 00       		.sleb128 0
 15181 377a 22       		.byte	0x22
 15182 377b D60A0000 		.4byte	.LVL527
 15183 377f F60A0000 		.4byte	.LVL530
 15184 3783 0200     		.2byte	0x2
 15185 3785 91       		.byte	0x91
 15186 3786 54       		.sleb128 -44
 15187 3787 3A0B0000 		.4byte	.LVL539
 15188 378b 5C0B0000 		.4byte	.LVL542
 15189 378f 0200     		.2byte	0x2
 15190 3791 74       		.byte	0x74
 15191 3792 00       		.sleb128 0
 15192 3793 6C0B0000 		.4byte	.LVL545
 15193 3797 8C0B0000 		.4byte	.LVL549
 15194 379b 0200     		.2byte	0x2
 15195 379d 75       		.byte	0x75
 15196 379e 00       		.sleb128 0
 15197 379f C80B0000 		.4byte	.LVL553
 15198 37a3 D40B0000 		.4byte	.LVL555
 15199 37a7 0200     		.2byte	0x2
 15200 37a9 75       		.byte	0x75
 15201 37aa 04       		.sleb128 4
 15202 37ab D40B0000 		.4byte	.LVL555
 15203 37af F90B0000 		.4byte	.LVL557-1
 15204 37b3 0100     		.2byte	0x1
 15205 37b5 51       		.byte	0x51
 15206 37b6 9A0C0000 		.4byte	.LVL578
 15207 37ba A80C0000 		.4byte	.LVL580
 15208 37be 0500     		.2byte	0x5
 15209 37c0 76       		.byte	0x76
 15210 37c1 00       		.sleb128 0
 15211 37c2 72       		.byte	0x72
 15212 37c3 00       		.sleb128 0
 15213 37c4 22       		.byte	0x22
 15214 37c5 A80C0000 		.4byte	.LVL580
 15215 37c9 B40C0000 		.4byte	.LVL584
 15216 37cd 0100     		.2byte	0x1
 15217 37cf 53       		.byte	0x53
 15218 37d0 C20C0000 		.4byte	.LVL586
 15219 37d4 D60C0000 		.4byte	.LVL590
ARM GAS  /tmp/ccvHIMcj.s 			page 269


 15220 37d8 0500     		.2byte	0x5
 15221 37da 76       		.byte	0x76
 15222 37db 00       		.sleb128 0
 15223 37dc 72       		.byte	0x72
 15224 37dd 00       		.sleb128 0
 15225 37de 22       		.byte	0x22
 15226 37df 640D0000 		.4byte	.LVL616
 15227 37e3 680D0000 		.4byte	.LVL618
 15228 37e7 0200     		.2byte	0x2
 15229 37e9 74       		.byte	0x74
 15230 37ea 00       		.sleb128 0
 15231 37eb 900D0000 		.4byte	.LVL620
 15232 37ef 980D0000 		.4byte	.LVL621
 15233 37f3 0500     		.2byte	0x5
 15234 37f5 76       		.byte	0x76
 15235 37f6 00       		.sleb128 0
 15236 37f7 7A       		.byte	0x7a
 15237 37f8 00       		.sleb128 0
 15238 37f9 22       		.byte	0x22
 15239 37fa 980D0000 		.4byte	.LVL621
 15240 37fe 9C0D0000 		.4byte	.LVL622
 15241 3802 0100     		.2byte	0x1
 15242 3804 53       		.byte	0x53
 15243 3805 A40D0000 		.4byte	.LVL624
 15244 3809 AE0D0000 		.4byte	.LVL626
 15245 380d 0500     		.2byte	0x5
 15246 380f 76       		.byte	0x76
 15247 3810 00       		.sleb128 0
 15248 3811 71       		.byte	0x71
 15249 3812 00       		.sleb128 0
 15250 3813 22       		.byte	0x22
 15251 3814 000E0000 		.4byte	.LVL639
 15252 3818 0C0E0000 		.4byte	.LVL641
 15253 381c 0200     		.2byte	0x2
 15254 381e 91       		.byte	0x91
 15255 381f 54       		.sleb128 -44
 15256 3820 C80E0000 		.4byte	.LVL659
 15257 3824 EC0E0000 		.4byte	.LVL662
 15258 3828 0200     		.2byte	0x2
 15259 382a 74       		.byte	0x74
 15260 382b 00       		.sleb128 0
 15261 382c EE0E0000 		.4byte	.LVL663
 15262 3830 F20E0000 		.4byte	.LVL665
 15263 3834 0200     		.2byte	0x2
 15264 3836 74       		.byte	0x74
 15265 3837 00       		.sleb128 0
 15266 3838 3A0F0000 		.4byte	.LVL672
 15267 383c 580F0000 		.4byte	.LVL673
 15268 3840 0100     		.2byte	0x1
 15269 3842 53       		.byte	0x53
 15270 3843 CE0F0000 		.4byte	.LVL690
 15271 3847 D80F0000 		.4byte	.LVL691
 15272 384b 0500     		.2byte	0x5
 15273 384d 76       		.byte	0x76
 15274 384e 00       		.sleb128 0
 15275 384f 75       		.byte	0x75
 15276 3850 00       		.sleb128 0
ARM GAS  /tmp/ccvHIMcj.s 			page 270


 15277 3851 22       		.byte	0x22
 15278 3852 D80F0000 		.4byte	.LVL691
 15279 3856 E00F0000 		.4byte	.LVL692
 15280 385a 0900     		.2byte	0x9
 15281 385c 76       		.byte	0x76
 15282 385d 00       		.sleb128 0
 15283 385e 75       		.byte	0x75
 15284 385f 00       		.sleb128 0
 15285 3860 22       		.byte	0x22
 15286 3861 06       		.byte	0x6
 15287 3862 40       		.byte	0x40
 15288 3863 25       		.byte	0x25
 15289 3864 9F       		.byte	0x9f
 15290 3865 E00F0000 		.4byte	.LVL692
 15291 3869 F80F0000 		.4byte	.LVL696
 15292 386d 0500     		.2byte	0x5
 15293 386f 74       		.byte	0x74
 15294 3870 00       		.sleb128 0
 15295 3871 40       		.byte	0x40
 15296 3872 25       		.byte	0x25
 15297 3873 9F       		.byte	0x9f
 15298 3874 10100000 		.4byte	.LVL700
 15299 3878 39100000 		.4byte	.LVL703-1
 15300 387c 0900     		.2byte	0x9
 15301 387e 74       		.byte	0x74
 15302 387f 00       		.sleb128 0
 15303 3880 78       		.byte	0x78
 15304 3881 04       		.sleb128 4
 15305 3882 06       		.byte	0x6
 15306 3883 1C       		.byte	0x1c
 15307 3884 23       		.byte	0x23
 15308 3885 04       		.uleb128 0x4
 15309 3886 9F       		.byte	0x9f
 15310 3887 8A100000 		.4byte	.LVL709
 15311 388b 96100000 		.4byte	.LVL711
 15312 388f 0500     		.2byte	0x5
 15313 3891 76       		.byte	0x76
 15314 3892 00       		.sleb128 0
 15315 3893 79       		.byte	0x79
 15316 3894 00       		.sleb128 0
 15317 3895 22       		.byte	0x22
 15318 3896 96100000 		.4byte	.LVL711
 15319 389a A4100000 		.4byte	.LVL713
 15320 389e 0200     		.2byte	0x2
 15321 38a0 74       		.byte	0x74
 15322 38a1 00       		.sleb128 0
 15323 38a2 A4100000 		.4byte	.LVL713
 15324 38a6 B2100000 		.4byte	.LVL716
 15325 38aa 0200     		.2byte	0x2
 15326 38ac 74       		.byte	0x74
 15327 38ad 04       		.sleb128 4
 15328 38ae B2100000 		.4byte	.LVL716
 15329 38b2 BC100000 		.4byte	.LVL717
 15330 38b6 0200     		.2byte	0x2
 15331 38b8 74       		.byte	0x74
 15332 38b9 00       		.sleb128 0
 15333 38ba BC100000 		.4byte	.LVL717
ARM GAS  /tmp/ccvHIMcj.s 			page 271


 15334 38be BE100000 		.4byte	.LVL718
 15335 38c2 0200     		.2byte	0x2
 15336 38c4 74       		.byte	0x74
 15337 38c5 04       		.sleb128 4
 15338 38c6 BE100000 		.4byte	.LVL718
 15339 38ca C6100000 		.4byte	.LVL720
 15340 38ce 0200     		.2byte	0x2
 15341 38d0 75       		.byte	0x75
 15342 38d1 7C       		.sleb128 -4
 15343 38d2 D6100000 		.4byte	.LVL722
 15344 38d6 FC100000 		.4byte	.LVL726
 15345 38da 0200     		.2byte	0x2
 15346 38dc 75       		.byte	0x75
 15347 38dd 00       		.sleb128 0
 15348 38de 5A110000 		.4byte	.LVL735
 15349 38e2 86110000 		.4byte	.LVL740
 15350 38e6 0200     		.2byte	0x2
 15351 38e8 75       		.byte	0x75
 15352 38e9 00       		.sleb128 0
 15353 38ea E8110000 		.4byte	.LVL749
 15354 38ee 0A120000 		.4byte	.LVL752
 15355 38f2 0200     		.2byte	0x2
 15356 38f4 75       		.byte	0x75
 15357 38f5 00       		.sleb128 0
 15358 38f6 C4120000 		.4byte	.LVL774
 15359 38fa D0120000 		.4byte	.LVL775
 15360 38fe 0200     		.2byte	0x2
 15361 3900 74       		.byte	0x74
 15362 3901 00       		.sleb128 0
 15363 3902 D0120000 		.4byte	.LVL775
 15364 3906 EE120000 		.4byte	.LVL776
 15365 390a 0100     		.2byte	0x1
 15366 390c 53       		.byte	0x53
 15367 390d 54130000 		.4byte	.LVL792
 15368 3911 6E130000 		.4byte	.LVL794
 15369 3915 0200     		.2byte	0x2
 15370 3917 74       		.byte	0x74
 15371 3918 00       		.sleb128 0
 15372 3919 6E130000 		.4byte	.LVL794
 15373 391d 7B130000 		.4byte	.LVL795-1
 15374 3921 0200     		.2byte	0x2
 15375 3923 75       		.byte	0x75
 15376 3924 7C       		.sleb128 -4
 15377 3925 D6130000 		.4byte	.LVL803
 15378 3929 D8130000 		.4byte	.LVL804
 15379 392d 0200     		.2byte	0x2
 15380 392f 74       		.byte	0x74
 15381 3930 00       		.sleb128 0
 15382 3931 D8130000 		.4byte	.LVL804
 15383 3935 DC130000 		.4byte	.LVL805
 15384 3939 0200     		.2byte	0x2
 15385 393b 77       		.byte	0x77
 15386 393c 7C       		.sleb128 -4
 15387 393d DE130000 		.4byte	.LVL806
 15388 3941 E0130000 		.4byte	.LVL807
 15389 3945 0200     		.2byte	0x2
 15390 3947 75       		.byte	0x75
ARM GAS  /tmp/ccvHIMcj.s 			page 272


 15391 3948 04       		.sleb128 4
 15392 3949 E0130000 		.4byte	.LVL807
 15393 394d E4130000 		.4byte	.LVL808
 15394 3951 0100     		.2byte	0x1
 15395 3953 50       		.byte	0x50
 15396 3954 E6130000 		.4byte	.LVL809
 15397 3958 EC130000 		.4byte	.LVL811
 15398 395c 0200     		.2byte	0x2
 15399 395e 74       		.byte	0x74
 15400 395f 00       		.sleb128 0
 15401 3960 EE130000 		.4byte	.LVL812
 15402 3964 F4130000 		.4byte	.LVL814
 15403 3968 0200     		.2byte	0x2
 15404 396a 74       		.byte	0x74
 15405 396b 00       		.sleb128 0
 15406 396c 10140000 		.4byte	.LVL818
 15407 3970 1E140000 		.4byte	.LVL819
 15408 3974 0500     		.2byte	0x5
 15409 3976 76       		.byte	0x76
 15410 3977 00       		.sleb128 0
 15411 3978 79       		.byte	0x79
 15412 3979 00       		.sleb128 0
 15413 397a 22       		.byte	0x22
 15414 397b D2140000 		.4byte	.LVL848
 15415 397f F4140000 		.4byte	.LVL852
 15416 3983 0100     		.2byte	0x1
 15417 3985 5A       		.byte	0x5a
 15418 3986 4E150000 		.4byte	.LVL867
 15419 398a 5A150000 		.4byte	.LVL869
 15420 398e 0600     		.2byte	0x6
 15421 3990 74       		.byte	0x74
 15422 3991 7C       		.sleb128 -4
 15423 3992 06       		.byte	0x6
 15424 3993 40       		.byte	0x40
 15425 3994 26       		.byte	0x26
 15426 3995 9F       		.byte	0x9f
 15427 3996 5A150000 		.4byte	.LVL869
 15428 399a 66150000 		.4byte	.LVL870
 15429 399e 0600     		.2byte	0x6
 15430 39a0 74       		.byte	0x74
 15431 39a1 7C       		.sleb128 -4
 15432 39a2 06       		.byte	0x6
 15433 39a3 40       		.byte	0x40
 15434 39a4 26       		.byte	0x26
 15435 39a5 9F       		.byte	0x9f
 15436 39a6 86150000 		.4byte	.LVL874
 15437 39aa 94150000 		.4byte	.LVL877
 15438 39ae 0600     		.2byte	0x6
 15439 39b0 74       		.byte	0x74
 15440 39b1 7C       		.sleb128 -4
 15441 39b2 06       		.byte	0x6
 15442 39b3 40       		.byte	0x40
 15443 39b4 26       		.byte	0x26
 15444 39b5 9F       		.byte	0x9f
 15445 39b6 94150000 		.4byte	.LVL877
 15446 39ba A4150000 		.4byte	.LVL878
 15447 39be 0600     		.2byte	0x6
ARM GAS  /tmp/ccvHIMcj.s 			page 273


 15448 39c0 74       		.byte	0x74
 15449 39c1 7C       		.sleb128 -4
 15450 39c2 06       		.byte	0x6
 15451 39c3 40       		.byte	0x40
 15452 39c4 26       		.byte	0x26
 15453 39c5 9F       		.byte	0x9f
 15454 39c6 B4150000 		.4byte	.LVL881
 15455 39ca DC150000 		.4byte	.LVL885
 15456 39ce 0200     		.2byte	0x2
 15457 39d0 75       		.byte	0x75
 15458 39d1 00       		.sleb128 0
 15459 39d2 3A160000 		.4byte	.LVL895
 15460 39d6 5A160000 		.4byte	.LVL900
 15461 39da 0200     		.2byte	0x2
 15462 39dc 75       		.byte	0x75
 15463 39dd 00       		.sleb128 0
 15464 39de A4160000 		.4byte	.LVL906
 15465 39e2 C6160000 		.4byte	.LVL910
 15466 39e6 0200     		.2byte	0x2
 15467 39e8 75       		.byte	0x75
 15468 39e9 00       		.sleb128 0
 15469 39ea 9E170000 		.4byte	.LVL929
 15470 39ee B2170000 		.4byte	.LVL930
 15471 39f2 0100     		.2byte	0x1
 15472 39f4 50       		.byte	0x50
 15473 39f5 B2170000 		.4byte	.LVL930
 15474 39f9 B8170000 		.4byte	.LVL932
 15475 39fd 0100     		.2byte	0x1
 15476 39ff 53       		.byte	0x53
 15477 3a00 B8170000 		.4byte	.LVL932
 15478 3a04 C8170000 		.4byte	.LVL933
 15479 3a08 0100     		.2byte	0x1
 15480 3a0a 50       		.byte	0x50
 15481 3a0b DA170000 		.4byte	.LVL939
 15482 3a0f F0170000 		.4byte	.LVL940
 15483 3a13 0100     		.2byte	0x1
 15484 3a15 50       		.byte	0x50
 15485 3a16 0C180000 		.4byte	.LVL947
 15486 3a1a 10180000 		.4byte	.LVL948
 15487 3a1e 0100     		.2byte	0x1
 15488 3a20 5A       		.byte	0x5a
 15489 3a21 14180000 		.4byte	.LVL949
 15490 3a25 1A180000 		.4byte	.LVL950
 15491 3a29 0100     		.2byte	0x1
 15492 3a2b 53       		.byte	0x53
 15493 3a2c 44180000 		.4byte	.LVL953
 15494 3a30 4A180000 		.4byte	.LVL954
 15495 3a34 0100     		.2byte	0x1
 15496 3a36 50       		.byte	0x50
 15497 3a37 5A180000 		.4byte	.LVL960
 15498 3a3b 60180000 		.4byte	.LVL961
 15499 3a3f 0100     		.2byte	0x1
 15500 3a41 5A       		.byte	0x5a
 15501 3a42 66180000 		.4byte	.LVL962
 15502 3a46 72180000 		.4byte	.LVL964
 15503 3a4a 0100     		.2byte	0x1
 15504 3a4c 53       		.byte	0x53
ARM GAS  /tmp/ccvHIMcj.s 			page 274


 15505 3a4d 9C180000 		.4byte	.LVL965
 15506 3a51 9E180000 		.4byte	.LVL966
 15507 3a55 0100     		.2byte	0x1
 15508 3a57 53       		.byte	0x53
 15509 3a58 C0180000 		.4byte	.LVL967
 15510 3a5c DE180000 		.4byte	.LVL970
 15511 3a60 0600     		.2byte	0x6
 15512 3a62 74       		.byte	0x74
 15513 3a63 7C       		.sleb128 -4
 15514 3a64 06       		.byte	0x6
 15515 3a65 40       		.byte	0x40
 15516 3a66 26       		.byte	0x26
 15517 3a67 9F       		.byte	0x9f
 15518 3a68 00000000 		.4byte	0x0
 15519 3a6c 00000000 		.4byte	0x0
 15520              	.LLST165:
 15521 3a70 8C050000 		.4byte	.LVL433
 15522 3a74 AC050000 		.4byte	.LVL435
 15523 3a78 0900     		.2byte	0x9
 15524 3a7a 74       		.byte	0x74
 15525 3a7b 7C       		.sleb128 -4
 15526 3a7c 06       		.byte	0x6
 15527 3a7d 40       		.byte	0x40
 15528 3a7e 26       		.byte	0x26
 15529 3a7f 09       		.byte	0x9
 15530 3a80 FF       		.byte	0xff
 15531 3a81 22       		.byte	0x22
 15532 3a82 9F       		.byte	0x9f
 15533 3a83 EE050000 		.4byte	.LVL438
 15534 3a87 F0050000 		.4byte	.LVL439
 15535 3a8b 0800     		.2byte	0x8
 15536 3a8d 70       		.byte	0x70
 15537 3a8e 00       		.sleb128 0
 15538 3a8f 40       		.byte	0x40
 15539 3a90 26       		.byte	0x26
 15540 3a91 09       		.byte	0x9
 15541 3a92 FF       		.byte	0xff
 15542 3a93 22       		.byte	0x22
 15543 3a94 9F       		.byte	0x9f
 15544 3a95 F0050000 		.4byte	.LVL439
 15545 3a99 FA050000 		.4byte	.LVL440
 15546 3a9d 0900     		.2byte	0x9
 15547 3a9f 75       		.byte	0x75
 15548 3aa0 00       		.sleb128 0
 15549 3aa1 06       		.byte	0x6
 15550 3aa2 40       		.byte	0x40
 15551 3aa3 26       		.byte	0x26
 15552 3aa4 09       		.byte	0x9
 15553 3aa5 FF       		.byte	0xff
 15554 3aa6 22       		.byte	0x22
 15555 3aa7 9F       		.byte	0x9f
 15556 3aa8 FA050000 		.4byte	.LVL440
 15557 3aac 10060000 		.4byte	.LVL441
 15558 3ab0 0900     		.2byte	0x9
 15559 3ab2 75       		.byte	0x75
 15560 3ab3 7C       		.sleb128 -4
 15561 3ab4 06       		.byte	0x6
ARM GAS  /tmp/ccvHIMcj.s 			page 275


 15562 3ab5 40       		.byte	0x40
 15563 3ab6 26       		.byte	0x26
 15564 3ab7 09       		.byte	0x9
 15565 3ab8 FF       		.byte	0xff
 15566 3ab9 22       		.byte	0x22
 15567 3aba 9F       		.byte	0x9f
 15568 3abb 56060000 		.4byte	.LVL445
 15569 3abf 58060000 		.4byte	.LVL446
 15570 3ac3 0800     		.2byte	0x8
 15571 3ac5 70       		.byte	0x70
 15572 3ac6 00       		.sleb128 0
 15573 3ac7 40       		.byte	0x40
 15574 3ac8 26       		.byte	0x26
 15575 3ac9 09       		.byte	0x9
 15576 3aca FF       		.byte	0xff
 15577 3acb 22       		.byte	0x22
 15578 3acc 9F       		.byte	0x9f
 15579 3acd 58060000 		.4byte	.LVL446
 15580 3ad1 60060000 		.4byte	.LVL447
 15581 3ad5 0900     		.2byte	0x9
 15582 3ad7 75       		.byte	0x75
 15583 3ad8 00       		.sleb128 0
 15584 3ad9 06       		.byte	0x6
 15585 3ada 40       		.byte	0x40
 15586 3adb 26       		.byte	0x26
 15587 3adc 09       		.byte	0x9
 15588 3add FF       		.byte	0xff
 15589 3ade 22       		.byte	0x22
 15590 3adf 9F       		.byte	0x9f
 15591 3ae0 60060000 		.4byte	.LVL447
 15592 3ae4 6E060000 		.4byte	.LVL448
 15593 3ae8 0900     		.2byte	0x9
 15594 3aea 75       		.byte	0x75
 15595 3aeb 7C       		.sleb128 -4
 15596 3aec 06       		.byte	0x6
 15597 3aed 40       		.byte	0x40
 15598 3aee 26       		.byte	0x26
 15599 3aef 09       		.byte	0x9
 15600 3af0 FF       		.byte	0xff
 15601 3af1 22       		.byte	0x22
 15602 3af2 9F       		.byte	0x9f
 15603 3af3 B2060000 		.4byte	.LVL451
 15604 3af7 CC060000 		.4byte	.LVL453
 15605 3afb 0900     		.2byte	0x9
 15606 3afd 74       		.byte	0x74
 15607 3afe 7C       		.sleb128 -4
 15608 3aff 06       		.byte	0x6
 15609 3b00 40       		.byte	0x40
 15610 3b01 26       		.byte	0x26
 15611 3b02 09       		.byte	0x9
 15612 3b03 FF       		.byte	0xff
 15613 3b04 22       		.byte	0x22
 15614 3b05 9F       		.byte	0x9f
 15615 3b06 10070000 		.4byte	.LVL455
 15616 3b0a 30070000 		.4byte	.LVL457
 15617 3b0e 0900     		.2byte	0x9
 15618 3b10 74       		.byte	0x74
ARM GAS  /tmp/ccvHIMcj.s 			page 276


 15619 3b11 7C       		.sleb128 -4
 15620 3b12 06       		.byte	0x6
 15621 3b13 40       		.byte	0x40
 15622 3b14 26       		.byte	0x26
 15623 3b15 09       		.byte	0x9
 15624 3b16 FF       		.byte	0xff
 15625 3b17 22       		.byte	0x22
 15626 3b18 9F       		.byte	0x9f
 15627 3b19 72070000 		.4byte	.LVL460
 15628 3b1d 74070000 		.4byte	.LVL461
 15629 3b21 0800     		.2byte	0x8
 15630 3b23 70       		.byte	0x70
 15631 3b24 00       		.sleb128 0
 15632 3b25 40       		.byte	0x40
 15633 3b26 26       		.byte	0x26
 15634 3b27 09       		.byte	0x9
 15635 3b28 FF       		.byte	0xff
 15636 3b29 22       		.byte	0x22
 15637 3b2a 9F       		.byte	0x9f
 15638 3b2b 74070000 		.4byte	.LVL461
 15639 3b2f 7C070000 		.4byte	.LVL462
 15640 3b33 0900     		.2byte	0x9
 15641 3b35 75       		.byte	0x75
 15642 3b36 00       		.sleb128 0
 15643 3b37 06       		.byte	0x6
 15644 3b38 40       		.byte	0x40
 15645 3b39 26       		.byte	0x26
 15646 3b3a 09       		.byte	0x9
 15647 3b3b FF       		.byte	0xff
 15648 3b3c 22       		.byte	0x22
 15649 3b3d 9F       		.byte	0x9f
 15650 3b3e 7C070000 		.4byte	.LVL462
 15651 3b42 8A070000 		.4byte	.LVL463
 15652 3b46 0900     		.2byte	0x9
 15653 3b48 75       		.byte	0x75
 15654 3b49 7C       		.sleb128 -4
 15655 3b4a 06       		.byte	0x6
 15656 3b4b 40       		.byte	0x40
 15657 3b4c 26       		.byte	0x26
 15658 3b4d 09       		.byte	0x9
 15659 3b4e FF       		.byte	0xff
 15660 3b4f 22       		.byte	0x22
 15661 3b50 9F       		.byte	0x9f
 15662 3b51 3A080000 		.4byte	.LVL476
 15663 3b55 50080000 		.4byte	.LVL478
 15664 3b59 0900     		.2byte	0x9
 15665 3b5b 74       		.byte	0x74
 15666 3b5c 7C       		.sleb128 -4
 15667 3b5d 06       		.byte	0x6
 15668 3b5e 40       		.byte	0x40
 15669 3b5f 26       		.byte	0x26
 15670 3b60 09       		.byte	0x9
 15671 3b61 FF       		.byte	0xff
 15672 3b62 22       		.byte	0x22
 15673 3b63 9F       		.byte	0x9f
 15674 3b64 600B0000 		.4byte	.LVL543
 15675 3b68 640B0000 		.4byte	.LVL544
ARM GAS  /tmp/ccvHIMcj.s 			page 277


 15676 3b6c 0200     		.2byte	0x2
 15677 3b6e 74       		.byte	0x74
 15678 3b6f 00       		.sleb128 0
 15679 3b70 640B0000 		.4byte	.LVL544
 15680 3b74 6E0B0000 		.4byte	.LVL546
 15681 3b78 0700     		.2byte	0x7
 15682 3b7a 74       		.byte	0x74
 15683 3b7b 00       		.sleb128 0
 15684 3b7c 06       		.byte	0x6
 15685 3b7d 09       		.byte	0x9
 15686 3b7e FF       		.byte	0xff
 15687 3b7f 22       		.byte	0x22
 15688 3b80 9F       		.byte	0x9f
 15689 3b81 6E0B0000 		.4byte	.LVL546
 15690 3b85 760B0000 		.4byte	.LVL547
 15691 3b89 0300     		.2byte	0x3
 15692 3b8b 73       		.byte	0x73
 15693 3b8c 7F       		.sleb128 -1
 15694 3b8d 9F       		.byte	0x9f
 15695 3b8e 760B0000 		.4byte	.LVL547
 15696 3b92 800B0000 		.4byte	.LVL548
 15697 3b96 0300     		.2byte	0x3
 15698 3b98 74       		.byte	0x74
 15699 3b99 7F       		.sleb128 -1
 15700 3b9a 9F       		.byte	0x9f
 15701 3b9b C80B0000 		.4byte	.LVL553
 15702 3b9f EC0B0000 		.4byte	.LVL556
 15703 3ba3 0200     		.2byte	0x2
 15704 3ba5 74       		.byte	0x74
 15705 3ba6 04       		.sleb128 4
 15706 3ba7 EC0B0000 		.4byte	.LVL556
 15707 3bab F90B0000 		.4byte	.LVL557-1
 15708 3baf 0200     		.2byte	0x2
 15709 3bb1 75       		.byte	0x75
 15710 3bb2 7C       		.sleb128 -4
 15711 3bb3 F90B0000 		.4byte	.LVL557-1
 15712 3bb7 140C0000 		.4byte	.LVL559
 15713 3bbb 0300     		.2byte	0x3
 15714 3bbd 91       		.byte	0x91
 15715 3bbe B07F     		.sleb128 -80
 15716 3bc0 CC100000 		.4byte	.LVL721
 15717 3bc4 DE100000 		.4byte	.LVL723
 15718 3bc8 0700     		.2byte	0x7
 15719 3bca 74       		.byte	0x74
 15720 3bcb 00       		.sleb128 0
 15721 3bcc 06       		.byte	0x6
 15722 3bcd 09       		.byte	0x9
 15723 3bce FF       		.byte	0xff
 15724 3bcf 22       		.byte	0x22
 15725 3bd0 9F       		.byte	0x9f
 15726 3bd1 DE100000 		.4byte	.LVL723
 15727 3bd5 E8100000 		.4byte	.LVL724
 15728 3bd9 0300     		.2byte	0x3
 15729 3bdb 70       		.byte	0x70
 15730 3bdc 7F       		.sleb128 -1
 15731 3bdd 9F       		.byte	0x9f
 15732 3bde E8100000 		.4byte	.LVL724
ARM GAS  /tmp/ccvHIMcj.s 			page 278


 15733 3be2 EE100000 		.4byte	.LVL725
 15734 3be6 0300     		.2byte	0x3
 15735 3be8 72       		.byte	0x72
 15736 3be9 7F       		.sleb128 -1
 15737 3bea 9F       		.byte	0x9f
 15738 3beb 4E110000 		.4byte	.LVL733
 15739 3bef 52110000 		.4byte	.LVL734
 15740 3bf3 0100     		.2byte	0x1
 15741 3bf5 55       		.byte	0x55
 15742 3bf6 52110000 		.4byte	.LVL734
 15743 3bfa 70110000 		.4byte	.LVL738
 15744 3bfe 0300     		.2byte	0x3
 15745 3c00 71       		.byte	0x71
 15746 3c01 7F       		.sleb128 -1
 15747 3c02 9F       		.byte	0x9f
 15748 3c03 70110000 		.4byte	.LVL738
 15749 3c07 76110000 		.4byte	.LVL739
 15750 3c0b 0300     		.2byte	0x3
 15751 3c0d 72       		.byte	0x72
 15752 3c0e 7F       		.sleb128 -1
 15753 3c0f 9F       		.byte	0x9f
 15754 3c10 DC110000 		.4byte	.LVL747
 15755 3c14 E0110000 		.4byte	.LVL748
 15756 3c18 0100     		.2byte	0x1
 15757 3c1a 55       		.byte	0x55
 15758 3c1b E0110000 		.4byte	.LVL748
 15759 3c1f E8110000 		.4byte	.LVL749
 15760 3c23 0300     		.2byte	0x3
 15761 3c25 71       		.byte	0x71
 15762 3c26 7F       		.sleb128 -1
 15763 3c27 9F       		.byte	0x9f
 15764 3c28 E8110000 		.4byte	.LVL749
 15765 3c2c 00120000 		.4byte	.LVL751
 15766 3c30 0800     		.2byte	0x8
 15767 3c32 91       		.byte	0x91
 15768 3c33 B07F     		.sleb128 -80
 15769 3c35 06       		.byte	0x6
 15770 3c36 09       		.byte	0x9
 15771 3c37 FF       		.byte	0xff
 15772 3c38 22       		.byte	0x22
 15773 3c39 9F       		.byte	0x9f
 15774 3c3a 66150000 		.4byte	.LVL870
 15775 3c3e 78150000 		.4byte	.LVL872
 15776 3c42 0200     		.2byte	0x2
 15777 3c44 74       		.byte	0x74
 15778 3c45 04       		.sleb128 4
 15779 3c46 78150000 		.4byte	.LVL872
 15780 3c4a 86150000 		.4byte	.LVL874
 15781 3c4e 0200     		.2byte	0x2
 15782 3c50 74       		.byte	0x74
 15783 3c51 04       		.sleb128 4
 15784 3c52 A8150000 		.4byte	.LVL879
 15785 3c56 AC150000 		.4byte	.LVL880
 15786 3c5a 0200     		.2byte	0x2
 15787 3c5c 74       		.byte	0x74
 15788 3c5d 00       		.sleb128 0
 15789 3c5e AC150000 		.4byte	.LVL880
ARM GAS  /tmp/ccvHIMcj.s 			page 279


 15790 3c62 C2150000 		.4byte	.LVL882
 15791 3c66 0700     		.2byte	0x7
 15792 3c68 74       		.byte	0x74
 15793 3c69 00       		.sleb128 0
 15794 3c6a 06       		.byte	0x6
 15795 3c6b 09       		.byte	0x9
 15796 3c6c FF       		.byte	0xff
 15797 3c6d 22       		.byte	0x22
 15798 3c6e 9F       		.byte	0x9f
 15799 3c6f C2150000 		.4byte	.LVL882
 15800 3c73 C8150000 		.4byte	.LVL883
 15801 3c77 0300     		.2byte	0x3
 15802 3c79 71       		.byte	0x71
 15803 3c7a 7F       		.sleb128 -1
 15804 3c7b 9F       		.byte	0x9f
 15805 3c7c C8150000 		.4byte	.LVL883
 15806 3c80 D2150000 		.4byte	.LVL884
 15807 3c84 0300     		.2byte	0x3
 15808 3c86 72       		.byte	0x72
 15809 3c87 7F       		.sleb128 -1
 15810 3c88 9F       		.byte	0x9f
 15811 3c89 30160000 		.4byte	.LVL892
 15812 3c8d 40160000 		.4byte	.LVL897
 15813 3c91 0300     		.2byte	0x3
 15814 3c93 71       		.byte	0x71
 15815 3c94 7F       		.sleb128 -1
 15816 3c95 9F       		.byte	0x9f
 15817 3c96 40160000 		.4byte	.LVL897
 15818 3c9a 46160000 		.4byte	.LVL898
 15819 3c9e 0300     		.2byte	0x3
 15820 3ca0 70       		.byte	0x70
 15821 3ca1 7F       		.sleb128 -1
 15822 3ca2 9F       		.byte	0x9f
 15823 3ca3 46160000 		.4byte	.LVL898
 15824 3ca7 4C160000 		.4byte	.LVL899
 15825 3cab 0300     		.2byte	0x3
 15826 3cad 72       		.byte	0x72
 15827 3cae 7F       		.sleb128 -1
 15828 3caf 9F       		.byte	0x9f
 15829 3cb0 9A160000 		.4byte	.LVL905
 15830 3cb4 B0160000 		.4byte	.LVL908
 15831 3cb8 0300     		.2byte	0x3
 15832 3cba 70       		.byte	0x70
 15833 3cbb 7F       		.sleb128 -1
 15834 3cbc 9F       		.byte	0x9f
 15835 3cbd B0160000 		.4byte	.LVL908
 15836 3cc1 BC160000 		.4byte	.LVL909
 15837 3cc5 0300     		.2byte	0x3
 15838 3cc7 72       		.byte	0x72
 15839 3cc8 7F       		.sleb128 -1
 15840 3cc9 9F       		.byte	0x9f
 15841 3cca 72180000 		.4byte	.LVL964
 15842 3cce 9C180000 		.4byte	.LVL965
 15843 3cd2 0900     		.2byte	0x9
 15844 3cd4 74       		.byte	0x74
 15845 3cd5 7C       		.sleb128 -4
 15846 3cd6 06       		.byte	0x6
ARM GAS  /tmp/ccvHIMcj.s 			page 280


 15847 3cd7 40       		.byte	0x40
 15848 3cd8 26       		.byte	0x26
 15849 3cd9 09       		.byte	0x9
 15850 3cda FF       		.byte	0xff
 15851 3cdb 22       		.byte	0x22
 15852 3cdc 9F       		.byte	0x9f
 15853 3cdd F0180000 		.4byte	.LVL971
 15854 3ce1 0E190000 		.4byte	.LVL972
 15855 3ce5 0300     		.2byte	0x3
 15856 3ce7 91       		.byte	0x91
 15857 3ce8 B07F     		.sleb128 -80
 15858 3cea 00000000 		.4byte	0x0
 15859 3cee 00000000 		.4byte	0x0
 15860              	.LLST166:
 15861 3cf2 3C000000 		.4byte	.LVL352
 15862 3cf6 78000000 		.4byte	.LVL358
 15863 3cfa 0100     		.2byte	0x1
 15864 3cfc 57       		.byte	0x57
 15865 3cfd 00000000 		.4byte	0x0
 15866 3d01 00000000 		.4byte	0x0
 15867              	.LLST167:
 15868 3d05 5C0F0000 		.4byte	.LVL674
 15869 3d09 640F0000 		.4byte	.LVL675
 15870 3d0d 0100     		.2byte	0x1
 15871 3d0f 53       		.byte	0x53
 15872 3d10 640F0000 		.4byte	.LVL675
 15873 3d14 6E0F0000 		.4byte	.LVL677
 15874 3d18 0300     		.2byte	0x3
 15875 3d1a 73       		.byte	0x73
 15876 3d1b 08       		.sleb128 8
 15877 3d1c 9F       		.byte	0x9f
 15878 3d1d 6E0F0000 		.4byte	.LVL677
 15879 3d21 800F0000 		.4byte	.LVL678
 15880 3d25 0100     		.2byte	0x1
 15881 3d27 53       		.byte	0x53
 15882 3d28 800F0000 		.4byte	.LVL678
 15883 3d2c 820F0000 		.4byte	.LVL679
 15884 3d30 0300     		.2byte	0x3
 15885 3d32 73       		.byte	0x73
 15886 3d33 78       		.sleb128 -8
 15887 3d34 9F       		.byte	0x9f
 15888 3d35 8A0F0000 		.4byte	.LVL680
 15889 3d39 8E0F0000 		.4byte	.LVL681
 15890 3d3d 0300     		.2byte	0x3
 15891 3d3f 73       		.byte	0x73
 15892 3d40 08       		.sleb128 8
 15893 3d41 9F       		.byte	0x9f
 15894 3d42 8E0F0000 		.4byte	.LVL681
 15895 3d46 940F0000 		.4byte	.LVL682
 15896 3d4a 0100     		.2byte	0x1
 15897 3d4c 53       		.byte	0x53
 15898 3d4d 940F0000 		.4byte	.LVL682
 15899 3d51 980F0000 		.4byte	.LVL683
 15900 3d55 0300     		.2byte	0x3
 15901 3d57 73       		.byte	0x73
 15902 3d58 08       		.sleb128 8
 15903 3d59 9F       		.byte	0x9f
ARM GAS  /tmp/ccvHIMcj.s 			page 281


 15904 3d5a 980F0000 		.4byte	.LVL683
 15905 3d5e 9E0F0000 		.4byte	.LVL684
 15906 3d62 0100     		.2byte	0x1
 15907 3d64 53       		.byte	0x53
 15908 3d65 9E0F0000 		.4byte	.LVL684
 15909 3d69 A60F0000 		.4byte	.LVL685
 15910 3d6d 0300     		.2byte	0x3
 15911 3d6f 73       		.byte	0x73
 15912 3d70 08       		.sleb128 8
 15913 3d71 9F       		.byte	0x9f
 15914 3d72 00000000 		.4byte	0x0
 15915 3d76 00000000 		.4byte	0x0
 15916              	.LLST168:
 15917 3d7a 22140000 		.4byte	.LVL820
 15918 3d7e 2A140000 		.4byte	.LVL821
 15919 3d82 0100     		.2byte	0x1
 15920 3d84 51       		.byte	0x51
 15921 3d85 2A140000 		.4byte	.LVL821
 15922 3d89 34140000 		.4byte	.LVL823
 15923 3d8d 0300     		.2byte	0x3
 15924 3d8f 71       		.byte	0x71
 15925 3d90 08       		.sleb128 8
 15926 3d91 9F       		.byte	0x9f
 15927 3d92 34140000 		.4byte	.LVL823
 15928 3d96 44140000 		.4byte	.LVL824
 15929 3d9a 0100     		.2byte	0x1
 15930 3d9c 51       		.byte	0x51
 15931 3d9d 44140000 		.4byte	.LVL824
 15932 3da1 46140000 		.4byte	.LVL825
 15933 3da5 0300     		.2byte	0x3
 15934 3da7 71       		.byte	0x71
 15935 3da8 78       		.sleb128 -8
 15936 3da9 9F       		.byte	0x9f
 15937 3daa 4C140000 		.4byte	.LVL826
 15938 3dae 50140000 		.4byte	.LVL827
 15939 3db2 0300     		.2byte	0x3
 15940 3db4 71       		.byte	0x71
 15941 3db5 08       		.sleb128 8
 15942 3db6 9F       		.byte	0x9f
 15943 3db7 50140000 		.4byte	.LVL827
 15944 3dbb 54140000 		.4byte	.LVL828
 15945 3dbf 0100     		.2byte	0x1
 15946 3dc1 51       		.byte	0x51
 15947 3dc2 54140000 		.4byte	.LVL828
 15948 3dc6 62140000 		.4byte	.LVL829
 15949 3dca 0300     		.2byte	0x3
 15950 3dcc 71       		.byte	0x71
 15951 3dcd 08       		.sleb128 8
 15952 3dce 9F       		.byte	0x9f
 15953 3dcf 62140000 		.4byte	.LVL829
 15954 3dd3 66140000 		.4byte	.LVL830
 15955 3dd7 0100     		.2byte	0x1
 15956 3dd9 51       		.byte	0x51
 15957 3dda 00000000 		.4byte	0x0
 15958 3dde 00000000 		.4byte	0x0
 15959              	.LLST169:
 15960 3de2 00000000 		.4byte	.LVL973
ARM GAS  /tmp/ccvHIMcj.s 			page 282


 15961 3de6 04000000 		.4byte	.LVL974
 15962 3dea 0100     		.2byte	0x1
 15963 3dec 50       		.byte	0x50
 15964 3ded 00000000 		.4byte	0x0
 15965 3df1 00000000 		.4byte	0x0
 15966              	.LLST170:
 15967 3df5 00000000 		.4byte	.LVL975
 15968 3df9 04000000 		.4byte	.LVL976
 15969 3dfd 0100     		.2byte	0x1
 15970 3dff 50       		.byte	0x50
 15971 3e00 00000000 		.4byte	0x0
 15972 3e04 00000000 		.4byte	0x0
 15973              	.LLST171:
 15974 3e08 00000000 		.4byte	.LVL977
 15975 3e0c 04000000 		.4byte	.LVL978
 15976 3e10 0100     		.2byte	0x1
 15977 3e12 50       		.byte	0x50
 15978 3e13 00000000 		.4byte	0x0
 15979 3e17 00000000 		.4byte	0x0
 15980              	.LLST172:
 15981 3e1b 00000000 		.4byte	.LFB38
 15982 3e1f 02000000 		.4byte	.LCFI30
 15983 3e23 0200     		.2byte	0x2
 15984 3e25 7D       		.byte	0x7d
 15985 3e26 00       		.sleb128 0
 15986 3e27 02000000 		.4byte	.LCFI30
 15987 3e2b 34000000 		.4byte	.LFE38
 15988 3e2f 0200     		.2byte	0x2
 15989 3e31 7D       		.byte	0x7d
 15990 3e32 08       		.sleb128 8
 15991 3e33 00000000 		.4byte	0x0
 15992 3e37 00000000 		.4byte	0x0
 15993              	.LLST173:
 15994 3e3b 00000000 		.4byte	.LVL979
 15995 3e3f 26000000 		.4byte	.LVL985
 15996 3e43 0100     		.2byte	0x1
 15997 3e45 50       		.byte	0x50
 15998 3e46 2A000000 		.4byte	.LVL986
 15999 3e4a 2C000000 		.4byte	.LVL987
 16000 3e4e 0100     		.2byte	0x1
 16001 3e50 50       		.byte	0x50
 16002 3e51 2E000000 		.4byte	.LVL988
 16003 3e55 34000000 		.4byte	.LFE38
 16004 3e59 0100     		.2byte	0x1
 16005 3e5b 50       		.byte	0x50
 16006 3e5c 00000000 		.4byte	0x0
 16007 3e60 00000000 		.4byte	0x0
 16008              	.LLST174:
 16009 3e64 00000000 		.4byte	.LVL979
 16010 3e68 10000000 		.4byte	.LVL983
 16011 3e6c 0100     		.2byte	0x1
 16012 3e6e 51       		.byte	0x51
 16013 3e6f 2E000000 		.4byte	.LVL988
 16014 3e73 34000000 		.4byte	.LFE38
 16015 3e77 0100     		.2byte	0x1
 16016 3e79 51       		.byte	0x51
 16017 3e7a 00000000 		.4byte	0x0
ARM GAS  /tmp/ccvHIMcj.s 			page 283


 16018 3e7e 00000000 		.4byte	0x0
 16019              	.LLST175:
 16020 3e82 06000000 		.4byte	.LVL980
 16021 3e86 0A000000 		.4byte	.LVL982
 16022 3e8a 0100     		.2byte	0x1
 16023 3e8c 54       		.byte	0x54
 16024 3e8d 2E000000 		.4byte	.LVL988
 16025 3e91 34000000 		.4byte	.LFE38
 16026 3e95 0100     		.2byte	0x1
 16027 3e97 54       		.byte	0x54
 16028 3e98 00000000 		.4byte	0x0
 16029 3e9c 00000000 		.4byte	0x0
 16030              	.LLST176:
 16031 3ea0 08000000 		.4byte	.LVL981
 16032 3ea4 1E000000 		.4byte	.LVL984
 16033 3ea8 0100     		.2byte	0x1
 16034 3eaa 53       		.byte	0x53
 16035 3eab 2A000000 		.4byte	.LVL986
 16036 3eaf 2E000000 		.4byte	.LVL988
 16037 3eb3 0100     		.2byte	0x1
 16038 3eb5 53       		.byte	0x53
 16039 3eb6 00000000 		.4byte	0x0
 16040 3eba 00000000 		.4byte	0x0
 16041              	.LLST177:
 16042 3ebe 00000000 		.4byte	.LFB31
 16043 3ec2 04000000 		.4byte	.LCFI31
 16044 3ec6 0200     		.2byte	0x2
 16045 3ec8 7D       		.byte	0x7d
 16046 3ec9 00       		.sleb128 0
 16047 3eca 04000000 		.4byte	.LCFI31
 16048 3ece 5E000000 		.4byte	.LFE31
 16049 3ed2 0200     		.2byte	0x2
 16050 3ed4 7D       		.byte	0x7d
 16051 3ed5 20       		.sleb128 32
 16052 3ed6 00000000 		.4byte	0x0
 16053 3eda 00000000 		.4byte	0x0
 16054              	.LLST178:
 16055 3ede 00000000 		.4byte	.LVL989
 16056 3ee2 17000000 		.4byte	.LVL993-1
 16057 3ee6 0100     		.2byte	0x1
 16058 3ee8 50       		.byte	0x50
 16059 3ee9 17000000 		.4byte	.LVL993-1
 16060 3eed 5E000000 		.4byte	.LFE31
 16061 3ef1 0100     		.2byte	0x1
 16062 3ef3 55       		.byte	0x55
 16063 3ef4 00000000 		.4byte	0x0
 16064 3ef8 00000000 		.4byte	0x0
 16065              	.LLST179:
 16066 3efc 00000000 		.4byte	.LVL989
 16067 3f00 0A000000 		.4byte	.LVL990
 16068 3f04 0100     		.2byte	0x1
 16069 3f06 51       		.byte	0x51
 16070 3f07 0A000000 		.4byte	.LVL990
 16071 3f0b 5E000000 		.4byte	.LFE31
 16072 3f0f 0100     		.2byte	0x1
 16073 3f11 54       		.byte	0x54
 16074 3f12 00000000 		.4byte	0x0
ARM GAS  /tmp/ccvHIMcj.s 			page 284


 16075 3f16 00000000 		.4byte	0x0
 16076              	.LLST180:
 16077 3f1a 00000000 		.4byte	.LVL989
 16078 3f1e 0C000000 		.4byte	.LVL991
 16079 3f22 0100     		.2byte	0x1
 16080 3f24 52       		.byte	0x52
 16081 3f25 0C000000 		.4byte	.LVL991
 16082 3f29 5E000000 		.4byte	.LFE31
 16083 3f2d 0100     		.2byte	0x1
 16084 3f2f 58       		.byte	0x58
 16085 3f30 00000000 		.4byte	0x0
 16086 3f34 00000000 		.4byte	0x0
 16087              	.LLST181:
 16088 3f38 00000000 		.4byte	.LVL989
 16089 3f3c 17000000 		.4byte	.LVL993-1
 16090 3f40 0100     		.2byte	0x1
 16091 3f42 53       		.byte	0x53
 16092 3f43 17000000 		.4byte	.LVL993-1
 16093 3f47 5E000000 		.4byte	.LFE31
 16094 3f4b 0100     		.2byte	0x1
 16095 3f4d 57       		.byte	0x57
 16096 3f4e 00000000 		.4byte	0x0
 16097 3f52 00000000 		.4byte	0x0
 16098              	.LLST182:
 16099 3f56 18000000 		.4byte	.LVL993
 16100 3f5a 26000000 		.4byte	.LVL994
 16101 3f5e 0100     		.2byte	0x1
 16102 3f60 50       		.byte	0x50
 16103 3f61 26000000 		.4byte	.LVL994
 16104 3f65 52000000 		.4byte	.LVL1000
 16105 3f69 0100     		.2byte	0x1
 16106 3f6b 56       		.byte	0x56
 16107 3f6c 52000000 		.4byte	.LVL1000
 16108 3f70 5E000000 		.4byte	.LFE31
 16109 3f74 0100     		.2byte	0x1
 16110 3f76 56       		.byte	0x56
 16111 3f77 00000000 		.4byte	0x0
 16112 3f7b 00000000 		.4byte	0x0
 16113              	.LLST183:
 16114 3f7f 3A000000 		.4byte	.LVL996
 16115 3f83 42000000 		.4byte	.LVL998
 16116 3f87 0100     		.2byte	0x1
 16117 3f89 51       		.byte	0x51
 16118 3f8a 58000000 		.4byte	.LVL1001
 16119 3f8e 5E000000 		.4byte	.LFE31
 16120 3f92 0100     		.2byte	0x1
 16121 3f94 51       		.byte	0x51
 16122 3f95 00000000 		.4byte	0x0
 16123 3f99 00000000 		.4byte	0x0
 16124              	.LLST184:
 16125 3f9d 3C000000 		.4byte	.LVL997
 16126 3fa1 50000000 		.4byte	.LVL999
 16127 3fa5 0100     		.2byte	0x1
 16128 3fa7 52       		.byte	0x52
 16129 3fa8 00000000 		.4byte	0x0
 16130 3fac 00000000 		.4byte	0x0
 16131              	.LLST185:
ARM GAS  /tmp/ccvHIMcj.s 			page 285


 16132 3fb0 00000000 		.4byte	.LVL1002
 16133 3fb4 12000000 		.4byte	.LVL1007
 16134 3fb8 0100     		.2byte	0x1
 16135 3fba 50       		.byte	0x50
 16136 3fbb 14000000 		.4byte	.LVL1008
 16137 3fbf 24000000 		.4byte	.LVL1012
 16138 3fc3 0100     		.2byte	0x1
 16139 3fc5 50       		.byte	0x50
 16140 3fc6 00000000 		.4byte	0x0
 16141 3fca 00000000 		.4byte	0x0
 16142              	.LLST186:
 16143 3fce 00000000 		.4byte	.LVL1002
 16144 3fd2 0A000000 		.4byte	.LVL1006
 16145 3fd6 0100     		.2byte	0x1
 16146 3fd8 51       		.byte	0x51
 16147 3fd9 14000000 		.4byte	.LVL1008
 16148 3fdd 1C000000 		.4byte	.LVL1011
 16149 3fe1 0100     		.2byte	0x1
 16150 3fe3 51       		.byte	0x51
 16151 3fe4 00000000 		.4byte	0x0
 16152 3fe8 00000000 		.4byte	0x0
 16153              	.LLST187:
 16154 3fec 04000000 		.4byte	.LVL1003
 16155 3ff0 08000000 		.4byte	.LVL1005
 16156 3ff4 0100     		.2byte	0x1
 16157 3ff6 52       		.byte	0x52
 16158 3ff7 14000000 		.4byte	.LVL1008
 16159 3ffb 1A000000 		.4byte	.LVL1010
 16160 3fff 0100     		.2byte	0x1
 16161 4001 52       		.byte	0x52
 16162 4002 00000000 		.4byte	0x0
 16163 4006 00000000 		.4byte	0x0
 16164              	.LLST188:
 16165 400a 06000000 		.4byte	.LVL1004
 16166 400e 14000000 		.4byte	.LVL1008
 16167 4012 0100     		.2byte	0x1
 16168 4014 53       		.byte	0x53
 16169 4015 18000000 		.4byte	.LVL1009
 16170 4019 26000000 		.4byte	.LFE39
 16171 401d 0100     		.2byte	0x1
 16172 401f 53       		.byte	0x53
 16173 4020 00000000 		.4byte	0x0
 16174 4024 00000000 		.4byte	0x0
 16175              	.LLST189:
 16176 4028 0A000000 		.4byte	.LVL1006
 16177 402c 14000000 		.4byte	.LVL1008
 16178 4030 0100     		.2byte	0x1
 16179 4032 51       		.byte	0x51
 16180 4033 1C000000 		.4byte	.LVL1011
 16181 4037 26000000 		.4byte	.LFE39
 16182 403b 0100     		.2byte	0x1
 16183 403d 51       		.byte	0x51
 16184 403e 00000000 		.4byte	0x0
 16185 4042 00000000 		.4byte	0x0
 16186              	.LLST190:
 16187 4046 00000000 		.4byte	.LFB40
 16188 404a 02000000 		.4byte	.LCFI32
ARM GAS  /tmp/ccvHIMcj.s 			page 286


 16189 404e 0200     		.2byte	0x2
 16190 4050 7D       		.byte	0x7d
 16191 4051 00       		.sleb128 0
 16192 4052 02000000 		.4byte	.LCFI32
 16193 4056 4E000000 		.4byte	.LFE40
 16194 405a 0200     		.2byte	0x2
 16195 405c 7D       		.byte	0x7d
 16196 405d 10       		.sleb128 16
 16197 405e 00000000 		.4byte	0x0
 16198 4062 00000000 		.4byte	0x0
 16199              	.LLST191:
 16200 4066 00000000 		.4byte	.LVL1013
 16201 406a 1E000000 		.4byte	.LVL1017
 16202 406e 0100     		.2byte	0x1
 16203 4070 50       		.byte	0x50
 16204 4071 24000000 		.4byte	.LVL1018
 16205 4075 27000000 		.4byte	.LVL1019-1
 16206 4079 0100     		.2byte	0x1
 16207 407b 50       		.byte	0x50
 16208 407c 27000000 		.4byte	.LVL1019-1
 16209 4080 4E000000 		.4byte	.LFE40
 16210 4084 0100     		.2byte	0x1
 16211 4086 54       		.byte	0x54
 16212 4087 00000000 		.4byte	0x0
 16213 408b 00000000 		.4byte	0x0
 16214              	.LLST192:
 16215 408f 00000000 		.4byte	.LVL1013
 16216 4093 1E000000 		.4byte	.LVL1017
 16217 4097 0100     		.2byte	0x1
 16218 4099 51       		.byte	0x51
 16219 409a 1E000000 		.4byte	.LVL1017
 16220 409e 4E000000 		.4byte	.LFE40
 16221 40a2 0100     		.2byte	0x1
 16222 40a4 55       		.byte	0x55
 16223 40a5 00000000 		.4byte	0x0
 16224 40a9 00000000 		.4byte	0x0
 16225              	.LLST193:
 16226 40ad 10000000 		.4byte	.LVL1014
 16227 40b1 14000000 		.4byte	.LVL1015
 16228 40b5 0200     		.2byte	0x2
 16229 40b7 30       		.byte	0x30
 16230 40b8 9F       		.byte	0x9f
 16231 40b9 1A000000 		.4byte	.LVL1016
 16232 40bd 1E000000 		.4byte	.LVL1017
 16233 40c1 0100     		.2byte	0x1
 16234 40c3 53       		.byte	0x53
 16235 40c4 1E000000 		.4byte	.LVL1017
 16236 40c8 24000000 		.4byte	.LVL1018
 16237 40cc 0100     		.2byte	0x1
 16238 40ce 53       		.byte	0x53
 16239 40cf 28000000 		.4byte	.LVL1019
 16240 40d3 32000000 		.4byte	.LVL1021
 16241 40d7 0100     		.2byte	0x1
 16242 40d9 50       		.byte	0x50
 16243 40da 32000000 		.4byte	.LVL1021
 16244 40de 3C000000 		.4byte	.LVL1023
 16245 40e2 0100     		.2byte	0x1
ARM GAS  /tmp/ccvHIMcj.s 			page 287


 16246 40e4 53       		.byte	0x53
 16247 40e5 3C000000 		.4byte	.LVL1023
 16248 40e9 48000000 		.4byte	.LVL1024
 16249 40ed 0100     		.2byte	0x1
 16250 40ef 53       		.byte	0x53
 16251 40f0 00000000 		.4byte	0x0
 16252 40f4 00000000 		.4byte	0x0
 16253              	.LLST194:
 16254 40f8 2E000000 		.4byte	.LVL1020
 16255 40fc 32000000 		.4byte	.LVL1021
 16256 4100 0700     		.2byte	0x7
 16257 4102 73       		.byte	0x73
 16258 4103 00       		.sleb128 0
 16259 4104 32       		.byte	0x32
 16260 4105 24       		.byte	0x24
 16261 4106 74       		.byte	0x74
 16262 4107 00       		.sleb128 0
 16263 4108 22       		.byte	0x22
 16264 4109 32000000 		.4byte	.LVL1021
 16265 410d 3A000000 		.4byte	.LVL1022
 16266 4111 0100     		.2byte	0x1
 16267 4113 52       		.byte	0x52
 16268 4114 3C000000 		.4byte	.LVL1023
 16269 4118 48000000 		.4byte	.LVL1024
 16270 411c 0100     		.2byte	0x1
 16271 411e 52       		.byte	0x52
 16272 411f 00000000 		.4byte	0x0
 16273 4123 00000000 		.4byte	0x0
 16274              	.LLST195:
 16275 4127 00000000 		.4byte	.LFB41
 16276 412b 04000000 		.4byte	.LCFI33
 16277 412f 0200     		.2byte	0x2
 16278 4131 7D       		.byte	0x7d
 16279 4132 00       		.sleb128 0
 16280 4133 04000000 		.4byte	.LCFI33
 16281 4137 88010000 		.4byte	.LFE41
 16282 413b 0200     		.2byte	0x2
 16283 413d 7D       		.byte	0x7d
 16284 413e 18       		.sleb128 24
 16285 413f 00000000 		.4byte	0x0
 16286 4143 00000000 		.4byte	0x0
 16287              	.LLST196:
 16288 4147 00000000 		.4byte	.LVL1025
 16289 414b 16000000 		.4byte	.LVL1026
 16290 414f 0100     		.2byte	0x1
 16291 4151 50       		.byte	0x50
 16292 4152 16000000 		.4byte	.LVL1026
 16293 4156 86000000 		.4byte	.LVL1039
 16294 415a 0100     		.2byte	0x1
 16295 415c 54       		.byte	0x54
 16296 415d CA000000 		.4byte	.LVL1041
 16297 4161 88010000 		.4byte	.LFE41
 16298 4165 0100     		.2byte	0x1
 16299 4167 54       		.byte	0x54
 16300 4168 00000000 		.4byte	0x0
 16301 416c 00000000 		.4byte	0x0
 16302              	.LLST197:
ARM GAS  /tmp/ccvHIMcj.s 			page 288


 16303 4170 00000000 		.4byte	.LVL1025
 16304 4174 19000000 		.4byte	.LVL1027-1
 16305 4178 0100     		.2byte	0x1
 16306 417a 51       		.byte	0x51
 16307 417b 19000000 		.4byte	.LVL1027-1
 16308 417f 46000000 		.4byte	.LVL1032
 16309 4183 0100     		.2byte	0x1
 16310 4185 58       		.byte	0x58
 16311 4186 46000000 		.4byte	.LVL1032
 16312 418a 60000000 		.4byte	.LVL1036
 16313 418e 0300     		.2byte	0x3
 16314 4190 78       		.byte	0x78
 16315 4191 7C       		.sleb128 -4
 16316 4192 9F       		.byte	0x9f
 16317 4193 60000000 		.4byte	.LVL1036
 16318 4197 68000000 		.4byte	.LVL1037
 16319 419b 0300     		.2byte	0x3
 16320 419d 78       		.byte	0x78
 16321 419e 78       		.sleb128 -8
 16322 419f 9F       		.byte	0x9f
 16323 41a0 CA000000 		.4byte	.LVL1041
 16324 41a4 88010000 		.4byte	.LFE41
 16325 41a8 0100     		.2byte	0x1
 16326 41aa 58       		.byte	0x58
 16327 41ab 00000000 		.4byte	0x0
 16328 41af 00000000 		.4byte	0x0
 16329              	.LLST198:
 16330 41b3 00000000 		.4byte	.LVL1025
 16331 41b7 19000000 		.4byte	.LVL1027-1
 16332 41bb 0100     		.2byte	0x1
 16333 41bd 52       		.byte	0x52
 16334 41be 19000000 		.4byte	.LVL1027-1
 16335 41c2 34000000 		.4byte	.LVL1030
 16336 41c6 0100     		.2byte	0x1
 16337 41c8 57       		.byte	0x57
 16338 41c9 CA000000 		.4byte	.LVL1041
 16339 41cd 72010000 		.4byte	.LVL1051
 16340 41d1 0100     		.2byte	0x1
 16341 41d3 57       		.byte	0x57
 16342 41d4 00000000 		.4byte	0x0
 16343 41d8 00000000 		.4byte	0x0
 16344              	.LLST199:
 16345 41dc 00000000 		.4byte	.LVL1025
 16346 41e0 19000000 		.4byte	.LVL1027-1
 16347 41e4 0100     		.2byte	0x1
 16348 41e6 53       		.byte	0x53
 16349 41e7 19000000 		.4byte	.LVL1027-1
 16350 41eb 4C000000 		.4byte	.LVL1034
 16351 41ef 0100     		.2byte	0x1
 16352 41f1 55       		.byte	0x55
 16353 41f2 CA000000 		.4byte	.LVL1041
 16354 41f6 00010000 		.4byte	.LVL1045
 16355 41fa 0100     		.2byte	0x1
 16356 41fc 55       		.byte	0x55
 16357 41fd 22010000 		.4byte	.LVL1046
 16358 4201 2C010000 		.4byte	.LVL1048
 16359 4205 0100     		.2byte	0x1
ARM GAS  /tmp/ccvHIMcj.s 			page 289


 16360 4207 55       		.byte	0x55
 16361 4208 68010000 		.4byte	.LVL1049
 16362 420c 6D010000 		.4byte	.LVL1050-1
 16363 4210 0100     		.2byte	0x1
 16364 4212 53       		.byte	0x53
 16365 4213 6D010000 		.4byte	.LVL1050-1
 16366 4217 88010000 		.4byte	.LFE41
 16367 421b 0100     		.2byte	0x1
 16368 421d 55       		.byte	0x55
 16369 421e 00000000 		.4byte	0x0
 16370 4222 00000000 		.4byte	0x0
 16371              	.LLST200:
 16372 4226 1C000000 		.4byte	.LVL1028
 16373 422a 2E000000 		.4byte	.LVL1029
 16374 422e 0100     		.2byte	0x1
 16375 4230 53       		.byte	0x53
 16376 4231 2E000000 		.4byte	.LVL1029
 16377 4235 4A000000 		.4byte	.LVL1033
 16378 4239 0100     		.2byte	0x1
 16379 423b 53       		.byte	0x53
 16380 423c 84000000 		.4byte	.LVL1038
 16381 4240 8A000000 		.4byte	.LVL1040
 16382 4244 0100     		.2byte	0x1
 16383 4246 56       		.byte	0x56
 16384 4247 CA000000 		.4byte	.LVL1041
 16385 424b D6000000 		.4byte	.LVL1042
 16386 424f 0100     		.2byte	0x1
 16387 4251 53       		.byte	0x53
 16388 4252 D6000000 		.4byte	.LVL1042
 16389 4256 68010000 		.4byte	.LVL1049
 16390 425a 0100     		.2byte	0x1
 16391 425c 53       		.byte	0x53
 16392 425d 72010000 		.4byte	.LVL1051
 16393 4261 7B010000 		.4byte	.LVL1052-1
 16394 4265 0100     		.2byte	0x1
 16395 4267 53       		.byte	0x53
 16396 4268 00000000 		.4byte	0x0
 16397 426c 00000000 		.4byte	0x0
 16398              	.LLST201:
 16399 4270 3E000000 		.4byte	.LVL1031
 16400 4274 50000000 		.4byte	.LVL1035
 16401 4278 0200     		.2byte	0x2
 16402 427a 30       		.byte	0x30
 16403 427b 9F       		.byte	0x9f
 16404 427c D8000000 		.4byte	.LVL1043
 16405 4280 E4000000 		.4byte	.LVL1044
 16406 4284 0200     		.2byte	0x2
 16407 4286 30       		.byte	0x30
 16408 4287 9F       		.byte	0x9f
 16409 4288 22010000 		.4byte	.LVL1046
 16410 428c 28010000 		.4byte	.LVL1047
 16411 4290 0200     		.2byte	0x2
 16412 4292 30       		.byte	0x30
 16413 4293 9F       		.byte	0x9f
 16414 4294 00000000 		.4byte	0x0
 16415 4298 00000000 		.4byte	0x0
 16416              	.LLST202:
ARM GAS  /tmp/ccvHIMcj.s 			page 290


 16417 429c 00000000 		.4byte	.LFB32
 16418 42a0 04000000 		.4byte	.LCFI34
 16419 42a4 0200     		.2byte	0x2
 16420 42a6 7D       		.byte	0x7d
 16421 42a7 00       		.sleb128 0
 16422 42a8 04000000 		.4byte	.LCFI34
 16423 42ac 06000000 		.4byte	.LCFI35
 16424 42b0 0200     		.2byte	0x2
 16425 42b2 7D       		.byte	0x7d
 16426 42b3 24       		.sleb128 36
 16427 42b4 06000000 		.4byte	.LCFI35
 16428 42b8 86000000 		.4byte	.LFE32
 16429 42bc 0200     		.2byte	0x2
 16430 42be 7D       		.byte	0x7d
 16431 42bf 30       		.sleb128 48
 16432 42c0 00000000 		.4byte	0x0
 16433 42c4 00000000 		.4byte	0x0
 16434              	.LLST203:
 16435 42c8 00000000 		.4byte	.LVL1053
 16436 42cc 1A000000 		.4byte	.LVL1054
 16437 42d0 0100     		.2byte	0x1
 16438 42d2 50       		.byte	0x50
 16439 42d3 1A000000 		.4byte	.LVL1054
 16440 42d7 86000000 		.4byte	.LFE32
 16441 42db 0100     		.2byte	0x1
 16442 42dd 54       		.byte	0x54
 16443 42de 00000000 		.4byte	0x0
 16444 42e2 00000000 		.4byte	0x0
 16445              	.LLST204:
 16446 42e6 00000000 		.4byte	.LVL1053
 16447 42ea 1D000000 		.4byte	.LVL1055-1
 16448 42ee 0100     		.2byte	0x1
 16449 42f0 51       		.byte	0x51
 16450 42f1 1D000000 		.4byte	.LVL1055-1
 16451 42f5 86000000 		.4byte	.LFE32
 16452 42f9 0100     		.2byte	0x1
 16453 42fb 57       		.byte	0x57
 16454 42fc 00000000 		.4byte	0x0
 16455 4300 00000000 		.4byte	0x0
 16456              	.LLST205:
 16457 4304 00000000 		.4byte	.LVL1053
 16458 4308 1D000000 		.4byte	.LVL1055-1
 16459 430c 0100     		.2byte	0x1
 16460 430e 52       		.byte	0x52
 16461 430f 1D000000 		.4byte	.LVL1055-1
 16462 4313 86000000 		.4byte	.LFE32
 16463 4317 0100     		.2byte	0x1
 16464 4319 58       		.byte	0x58
 16465 431a 00000000 		.4byte	0x0
 16466 431e 00000000 		.4byte	0x0
 16467              	.LLST206:
 16468 4322 00000000 		.4byte	.LVL1053
 16469 4326 1D000000 		.4byte	.LVL1055-1
 16470 432a 0100     		.2byte	0x1
 16471 432c 53       		.byte	0x53
 16472 432d 1D000000 		.4byte	.LVL1055-1
 16473 4331 86000000 		.4byte	.LFE32
ARM GAS  /tmp/ccvHIMcj.s 			page 291


 16474 4335 0100     		.2byte	0x1
 16475 4337 59       		.byte	0x59
 16476 4338 00000000 		.4byte	0x0
 16477 433c 00000000 		.4byte	0x0
 16478              	.LLST207:
 16479 4340 34000000 		.4byte	.LVL1059
 16480 4344 72000000 		.4byte	.LVL1068
 16481 4348 0100     		.2byte	0x1
 16482 434a 5B       		.byte	0x5b
 16483 434b 7C000000 		.4byte	.LVL1069
 16484 434f 86000000 		.4byte	.LFE32
 16485 4353 0100     		.2byte	0x1
 16486 4355 5B       		.byte	0x5b
 16487 4356 00000000 		.4byte	0x0
 16488 435a 00000000 		.4byte	0x0
 16489              	.LLST208:
 16490 435e 20000000 		.4byte	.LVL1056
 16491 4362 28000000 		.4byte	.LVL1057
 16492 4366 0100     		.2byte	0x1
 16493 4368 55       		.byte	0x55
 16494 4369 28000000 		.4byte	.LVL1057
 16495 436d 2A000000 		.4byte	.LVL1058
 16496 4371 0300     		.2byte	0x3
 16497 4373 75       		.byte	0x75
 16498 4374 7D       		.sleb128 -3
 16499 4375 9F       		.byte	0x9f
 16500 4376 2A000000 		.4byte	.LVL1058
 16501 437a 72000000 		.4byte	.LVL1068
 16502 437e 0100     		.2byte	0x1
 16503 4380 55       		.byte	0x55
 16504 4381 7C000000 		.4byte	.LVL1069
 16505 4385 86000000 		.4byte	.LFE32
 16506 4389 0100     		.2byte	0x1
 16507 438b 55       		.byte	0x55
 16508 438c 00000000 		.4byte	0x0
 16509 4390 00000000 		.4byte	0x0
 16510              	.LLST209:
 16511 4394 38000000 		.4byte	.LVL1060
 16512 4398 3C000000 		.4byte	.LVL1061
 16513 439c 0100     		.2byte	0x1
 16514 439e 50       		.byte	0x50
 16515 439f 3C000000 		.4byte	.LVL1061
 16516 43a3 44000000 		.4byte	.LVL1062
 16517 43a7 0100     		.2byte	0x1
 16518 43a9 56       		.byte	0x56
 16519 43aa 44000000 		.4byte	.LVL1062
 16520 43ae 46000000 		.4byte	.LVL1063
 16521 43b2 0100     		.2byte	0x1
 16522 43b4 50       		.byte	0x50
 16523 43b5 46000000 		.4byte	.LVL1063
 16524 43b9 72000000 		.4byte	.LVL1068
 16525 43bd 0100     		.2byte	0x1
 16526 43bf 56       		.byte	0x56
 16527 43c0 7C000000 		.4byte	.LVL1069
 16528 43c4 7E000000 		.4byte	.LVL1070
 16529 43c8 0100     		.2byte	0x1
 16530 43ca 56       		.byte	0x56
ARM GAS  /tmp/ccvHIMcj.s 			page 292


 16531 43cb 80000000 		.4byte	.LVL1071
 16532 43cf 86000000 		.4byte	.LFE32
 16533 43d3 0100     		.2byte	0x1
 16534 43d5 56       		.byte	0x56
 16535 43d6 00000000 		.4byte	0x0
 16536 43da 00000000 		.4byte	0x0
 16537              	.LLST210:
 16538 43de 52000000 		.4byte	.LVL1064
 16539 43e2 72000000 		.4byte	.LVL1068
 16540 43e6 0100     		.2byte	0x1
 16541 43e8 5B       		.byte	0x5b
 16542 43e9 7C000000 		.4byte	.LVL1069
 16543 43ed 86000000 		.4byte	.LFE32
 16544 43f1 0100     		.2byte	0x1
 16545 43f3 5B       		.byte	0x5b
 16546 43f4 00000000 		.4byte	0x0
 16547 43f8 00000000 		.4byte	0x0
 16548              	.LLST211:
 16549 43fc 52000000 		.4byte	.LVL1064
 16550 4400 72000000 		.4byte	.LVL1068
 16551 4404 0100     		.2byte	0x1
 16552 4406 54       		.byte	0x54
 16553 4407 7C000000 		.4byte	.LVL1069
 16554 440b 86000000 		.4byte	.LFE32
 16555 440f 0100     		.2byte	0x1
 16556 4411 54       		.byte	0x54
 16557 4412 00000000 		.4byte	0x0
 16558 4416 00000000 		.4byte	0x0
 16559              	.LLST212:
 16560 441a 60000000 		.4byte	.LVL1065
 16561 441e 68000000 		.4byte	.LVL1067
 16562 4422 0100     		.2byte	0x1
 16563 4424 51       		.byte	0x51
 16564 4425 80000000 		.4byte	.LVL1071
 16565 4429 86000000 		.4byte	.LFE32
 16566 442d 0100     		.2byte	0x1
 16567 442f 51       		.byte	0x51
 16568 4430 00000000 		.4byte	0x0
 16569 4434 00000000 		.4byte	0x0
 16570              	.LLST213:
 16571 4438 62000000 		.4byte	.LVL1066
 16572 443c 72000000 		.4byte	.LVL1068
 16573 4440 0100     		.2byte	0x1
 16574 4442 52       		.byte	0x52
 16575 4443 00000000 		.4byte	0x0
 16576 4447 00000000 		.4byte	0x0
 16577              	.LLST214:
 16578 444b 00000000 		.4byte	.LFB42
 16579 444f 04000000 		.4byte	.LCFI36
 16580 4453 0200     		.2byte	0x2
 16581 4455 7D       		.byte	0x7d
 16582 4456 00       		.sleb128 0
 16583 4457 04000000 		.4byte	.LCFI36
 16584 445b 84010000 		.4byte	.LFE42
 16585 445f 0200     		.2byte	0x2
 16586 4461 7D       		.byte	0x7d
 16587 4462 14       		.sleb128 20
ARM GAS  /tmp/ccvHIMcj.s 			page 293


 16588 4463 00000000 		.4byte	0x0
 16589 4467 00000000 		.4byte	0x0
 16590              	.LLST215:
 16591 446b 00000000 		.4byte	.LVL1072
 16592 446f A6000000 		.4byte	.LVL1089
 16593 4473 0100     		.2byte	0x1
 16594 4475 50       		.byte	0x50
 16595 4476 AC000000 		.4byte	.LVL1090
 16596 447a 84010000 		.4byte	.LFE42
 16597 447e 0100     		.2byte	0x1
 16598 4480 50       		.byte	0x50
 16599 4481 00000000 		.4byte	0x0
 16600 4485 00000000 		.4byte	0x0
 16601              	.LLST216:
 16602 4489 00000000 		.4byte	.LVL1072
 16603 448d 24000000 		.4byte	.LVL1075
 16604 4491 0100     		.2byte	0x1
 16605 4493 51       		.byte	0x51
 16606 4494 24000000 		.4byte	.LVL1075
 16607 4498 7E000000 		.4byte	.LVL1082
 16608 449c 0100     		.2byte	0x1
 16609 449e 51       		.byte	0x51
 16610 449f 7E000000 		.4byte	.LVL1082
 16611 44a3 9A000000 		.4byte	.LVL1085
 16612 44a7 0100     		.2byte	0x1
 16613 44a9 51       		.byte	0x51
 16614 44aa AC000000 		.4byte	.LVL1090
 16615 44ae B8000000 		.4byte	.LVL1091
 16616 44b2 0100     		.2byte	0x1
 16617 44b4 51       		.byte	0x51
 16618 44b5 B8000000 		.4byte	.LVL1091
 16619 44b9 C2000000 		.4byte	.LVL1092
 16620 44bd 0300     		.2byte	0x3
 16621 44bf 71       		.byte	0x71
 16622 44c0 7C       		.sleb128 -4
 16623 44c1 9F       		.byte	0x9f
 16624 44c2 EA000000 		.4byte	.LVL1094
 16625 44c6 F8000000 		.4byte	.LVL1095
 16626 44ca 0100     		.2byte	0x1
 16627 44cc 51       		.byte	0x51
 16628 44cd F8000000 		.4byte	.LVL1095
 16629 44d1 00010000 		.4byte	.LVL1096
 16630 44d5 0300     		.2byte	0x3
 16631 44d7 71       		.byte	0x71
 16632 44d8 7C       		.sleb128 -4
 16633 44d9 9F       		.byte	0x9f
 16634 44da 5A010000 		.4byte	.LVL1097
 16635 44de 64010000 		.4byte	.LVL1099
 16636 44e2 0100     		.2byte	0x1
 16637 44e4 51       		.byte	0x51
 16638 44e5 64010000 		.4byte	.LVL1099
 16639 44e9 84010000 		.4byte	.LFE42
 16640 44ed 0100     		.2byte	0x1
 16641 44ef 51       		.byte	0x51
 16642 44f0 00000000 		.4byte	0x0
 16643 44f4 00000000 		.4byte	0x0
 16644              	.LLST217:
ARM GAS  /tmp/ccvHIMcj.s 			page 294


 16645 44f8 00000000 		.4byte	.LVL1072
 16646 44fc 9E000000 		.4byte	.LVL1086
 16647 4500 0100     		.2byte	0x1
 16648 4502 53       		.byte	0x53
 16649 4503 A2000000 		.4byte	.LVL1087
 16650 4507 A4000000 		.4byte	.LVL1088
 16651 450b 0100     		.2byte	0x1
 16652 450d 53       		.byte	0x53
 16653 450e AC000000 		.4byte	.LVL1090
 16654 4512 E4000000 		.4byte	.LVL1093
 16655 4516 0100     		.2byte	0x1
 16656 4518 53       		.byte	0x53
 16657 4519 EA000000 		.4byte	.LVL1094
 16658 451d 84010000 		.4byte	.LFE42
 16659 4521 0100     		.2byte	0x1
 16660 4523 53       		.byte	0x53
 16661 4524 00000000 		.4byte	0x0
 16662 4528 00000000 		.4byte	0x0
 16663              	.LLST218:
 16664 452c 00000000 		.4byte	.LVL1072
 16665 4530 34000000 		.4byte	.LVL1076
 16666 4534 0200     		.2byte	0x2
 16667 4536 30       		.byte	0x30
 16668 4537 9F       		.byte	0x9f
 16669 4538 9A000000 		.4byte	.LVL1085
 16670 453c A2000000 		.4byte	.LVL1087
 16671 4540 0300     		.2byte	0x3
 16672 4542 73       		.byte	0x73
 16673 4543 7F       		.sleb128 -1
 16674 4544 9F       		.byte	0x9f
 16675 4545 AC000000 		.4byte	.LVL1090
 16676 4549 C2000000 		.4byte	.LVL1092
 16677 454d 0200     		.2byte	0x2
 16678 454f 30       		.byte	0x30
 16679 4550 9F       		.byte	0x9f
 16680 4551 EA000000 		.4byte	.LVL1094
 16681 4555 00010000 		.4byte	.LVL1096
 16682 4559 0200     		.2byte	0x2
 16683 455b 30       		.byte	0x30
 16684 455c 9F       		.byte	0x9f
 16685 455d 7A010000 		.4byte	.LVL1102
 16686 4561 84010000 		.4byte	.LFE42
 16687 4565 0200     		.2byte	0x2
 16688 4567 30       		.byte	0x30
 16689 4568 9F       		.byte	0x9f
 16690 4569 00000000 		.4byte	0x0
 16691 456d 00000000 		.4byte	0x0
 16692              	.LLST219:
 16693 4571 0C000000 		.4byte	.LVL1073
 16694 4575 22000000 		.4byte	.LVL1074
 16695 4579 0200     		.2byte	0x2
 16696 457b 30       		.byte	0x30
 16697 457c 9F       		.byte	0x9f
 16698 457d 22000000 		.4byte	.LVL1074
 16699 4581 24000000 		.4byte	.LVL1075
 16700 4585 0200     		.2byte	0x2
 16701 4587 71       		.byte	0x71
ARM GAS  /tmp/ccvHIMcj.s 			page 295


 16702 4588 00       		.sleb128 0
 16703 4589 24000000 		.4byte	.LVL1075
 16704 458d 3E000000 		.4byte	.LVL1077
 16705 4591 0200     		.2byte	0x2
 16706 4593 71       		.byte	0x71
 16707 4594 7C       		.sleb128 -4
 16708 4595 3E000000 		.4byte	.LVL1077
 16709 4599 76000000 		.4byte	.LVL1081
 16710 459d 0100     		.2byte	0x1
 16711 459f 57       		.byte	0x57
 16712 45a0 7E000000 		.4byte	.LVL1082
 16713 45a4 9A000000 		.4byte	.LVL1085
 16714 45a8 0100     		.2byte	0x1
 16715 45aa 57       		.byte	0x57
 16716 45ab 5A010000 		.4byte	.LVL1097
 16717 45af 64010000 		.4byte	.LVL1099
 16718 45b3 0100     		.2byte	0x1
 16719 45b5 57       		.byte	0x57
 16720 45b6 64010000 		.4byte	.LVL1099
 16721 45ba 72010000 		.4byte	.LVL1101
 16722 45be 0200     		.2byte	0x2
 16723 45c0 71       		.byte	0x71
 16724 45c1 7C       		.sleb128 -4
 16725 45c2 72010000 		.4byte	.LVL1101
 16726 45c6 80010000 		.4byte	.LVL1103
 16727 45ca 0100     		.2byte	0x1
 16728 45cc 57       		.byte	0x57
 16729 45cd 00000000 		.4byte	0x0
 16730 45d1 00000000 		.4byte	0x0
 16731              	.LLST220:
 16732 45d5 0C000000 		.4byte	.LVL1073
 16733 45d9 34000000 		.4byte	.LVL1076
 16734 45dd 0200     		.2byte	0x2
 16735 45df 33       		.byte	0x33
 16736 45e0 9F       		.byte	0x9f
 16737 45e1 44000000 		.4byte	.LVL1078
 16738 45e5 46000000 		.4byte	.LVL1079
 16739 45e9 0500     		.2byte	0x5
 16740 45eb 76       		.byte	0x76
 16741 45ec 03       		.sleb128 3
 16742 45ed 33       		.byte	0x33
 16743 45ee 1A       		.byte	0x1a
 16744 45ef 9F       		.byte	0x9f
 16745 45f0 98000000 		.4byte	.LVL1084
 16746 45f4 9A000000 		.4byte	.LVL1085
 16747 45f8 0500     		.2byte	0x5
 16748 45fa 76       		.byte	0x76
 16749 45fb 03       		.sleb128 3
 16750 45fc 33       		.byte	0x33
 16751 45fd 1A       		.byte	0x1a
 16752 45fe 9F       		.byte	0x9f
 16753 45ff 7A010000 		.4byte	.LVL1102
 16754 4603 80010000 		.4byte	.LVL1103
 16755 4607 0200     		.2byte	0x2
 16756 4609 33       		.byte	0x33
 16757 460a 9F       		.byte	0x9f
 16758 460b 00000000 		.4byte	0x0
ARM GAS  /tmp/ccvHIMcj.s 			page 296


 16759 460f 00000000 		.4byte	0x0
 16760              	.LLST221:
 16761 4613 3E000000 		.4byte	.LVL1077
 16762 4617 5A000000 		.4byte	.LVL1080
 16763 461b 0100     		.2byte	0x1
 16764 461d 54       		.byte	0x54
 16765 461e 86000000 		.4byte	.LVL1083
 16766 4622 9A000000 		.4byte	.LVL1085
 16767 4626 0100     		.2byte	0x1
 16768 4628 54       		.byte	0x54
 16769 4629 60010000 		.4byte	.LVL1098
 16770 462d 66010000 		.4byte	.LVL1100
 16771 4631 0100     		.2byte	0x1
 16772 4633 54       		.byte	0x54
 16773 4634 00000000 		.4byte	0x0
 16774 4638 00000000 		.4byte	0x0
 16775              	.LLST222:
 16776 463c 00000000 		.4byte	.LFB43
 16777 4640 02000000 		.4byte	.LCFI37
 16778 4644 0200     		.2byte	0x2
 16779 4646 7D       		.byte	0x7d
 16780 4647 00       		.sleb128 0
 16781 4648 02000000 		.4byte	.LCFI37
 16782 464c F0000000 		.4byte	.LFE43
 16783 4650 0200     		.2byte	0x2
 16784 4652 7D       		.byte	0x7d
 16785 4653 0C       		.sleb128 12
 16786 4654 00000000 		.4byte	0x0
 16787 4658 00000000 		.4byte	0x0
 16788              	.LLST223:
 16789 465c 00000000 		.4byte	.LVL1104
 16790 4660 12000000 		.4byte	.LVL1105
 16791 4664 0100     		.2byte	0x1
 16792 4666 50       		.byte	0x50
 16793 4667 12000000 		.4byte	.LVL1105
 16794 466b 24000000 		.4byte	.LVL1107
 16795 466f 0100     		.2byte	0x1
 16796 4671 53       		.byte	0x53
 16797 4672 28000000 		.4byte	.LVL1108
 16798 4676 54000000 		.4byte	.LVL1112
 16799 467a 0100     		.2byte	0x1
 16800 467c 53       		.byte	0x53
 16801 467d 54000000 		.4byte	.LVL1112
 16802 4681 62000000 		.4byte	.LVL1113
 16803 4685 0300     		.2byte	0x3
 16804 4687 73       		.byte	0x73
 16805 4688 01       		.sleb128 1
 16806 4689 9F       		.byte	0x9f
 16807 468a 62000000 		.4byte	.LVL1113
 16808 468e 68000000 		.4byte	.LVL1115
 16809 4692 0100     		.2byte	0x1
 16810 4694 53       		.byte	0x53
 16811 4695 68000000 		.4byte	.LVL1115
 16812 4699 76000000 		.4byte	.LVL1116
 16813 469d 0300     		.2byte	0x3
 16814 469f 73       		.byte	0x73
 16815 46a0 01       		.sleb128 1
ARM GAS  /tmp/ccvHIMcj.s 			page 297


 16816 46a1 9F       		.byte	0x9f
 16817 46a2 76000000 		.4byte	.LVL1116
 16818 46a6 7C000000 		.4byte	.LVL1118
 16819 46aa 0100     		.2byte	0x1
 16820 46ac 53       		.byte	0x53
 16821 46ad 7C000000 		.4byte	.LVL1118
 16822 46b1 8A000000 		.4byte	.LVL1119
 16823 46b5 0300     		.2byte	0x3
 16824 46b7 73       		.byte	0x73
 16825 46b8 01       		.sleb128 1
 16826 46b9 9F       		.byte	0x9f
 16827 46ba 8A000000 		.4byte	.LVL1119
 16828 46be 90000000 		.4byte	.LVL1121
 16829 46c2 0100     		.2byte	0x1
 16830 46c4 53       		.byte	0x53
 16831 46c5 90000000 		.4byte	.LVL1121
 16832 46c9 9E000000 		.4byte	.LVL1122
 16833 46cd 0300     		.2byte	0x3
 16834 46cf 73       		.byte	0x73
 16835 46d0 01       		.sleb128 1
 16836 46d1 9F       		.byte	0x9f
 16837 46d2 9E000000 		.4byte	.LVL1122
 16838 46d6 A4000000 		.4byte	.LVL1124
 16839 46da 0100     		.2byte	0x1
 16840 46dc 53       		.byte	0x53
 16841 46dd A4000000 		.4byte	.LVL1124
 16842 46e1 AC000000 		.4byte	.LVL1125
 16843 46e5 0300     		.2byte	0x3
 16844 46e7 73       		.byte	0x73
 16845 46e8 01       		.sleb128 1
 16846 46e9 9F       		.byte	0x9f
 16847 46ea B0000000 		.4byte	.LVL1126
 16848 46ee B6000000 		.4byte	.LVL1127
 16849 46f2 0300     		.2byte	0x3
 16850 46f4 73       		.byte	0x73
 16851 46f5 01       		.sleb128 1
 16852 46f6 9F       		.byte	0x9f
 16853 46f7 B6000000 		.4byte	.LVL1127
 16854 46fb BA000000 		.4byte	.LVL1128
 16855 46ff 0100     		.2byte	0x1
 16856 4701 53       		.byte	0x53
 16857 4702 BA000000 		.4byte	.LVL1128
 16858 4706 F0000000 		.4byte	.LFE43
 16859 470a 0100     		.2byte	0x1
 16860 470c 53       		.byte	0x53
 16861 470d 00000000 		.4byte	0x0
 16862 4711 00000000 		.4byte	0x0
 16863              	.LLST224:
 16864 4715 12000000 		.4byte	.LVL1105
 16865 4719 18000000 		.4byte	.LVL1106
 16866 471d 0100     		.2byte	0x1
 16867 471f 54       		.byte	0x54
 16868 4720 28000000 		.4byte	.LVL1108
 16869 4724 44000000 		.4byte	.LVL1110
 16870 4728 0100     		.2byte	0x1
 16871 472a 54       		.byte	0x54
 16872 472b 52000000 		.4byte	.LVL1111
ARM GAS  /tmp/ccvHIMcj.s 			page 298


 16873 472f 54000000 		.4byte	.LVL1112
 16874 4733 0200     		.2byte	0x2
 16875 4735 70       		.byte	0x70
 16876 4736 01       		.sleb128 1
 16877 4737 54000000 		.4byte	.LVL1112
 16878 473b 62000000 		.4byte	.LVL1113
 16879 473f 0200     		.2byte	0x2
 16880 4741 73       		.byte	0x73
 16881 4742 00       		.sleb128 0
 16882 4743 66000000 		.4byte	.LVL1114
 16883 4747 76000000 		.4byte	.LVL1116
 16884 474b 0200     		.2byte	0x2
 16885 474d 73       		.byte	0x73
 16886 474e 00       		.sleb128 0
 16887 474f 76000000 		.4byte	.LVL1116
 16888 4753 7A000000 		.4byte	.LVL1117
 16889 4757 0200     		.2byte	0x2
 16890 4759 73       		.byte	0x73
 16891 475a 7F       		.sleb128 -1
 16892 475b 7A000000 		.4byte	.LVL1117
 16893 475f 8A000000 		.4byte	.LVL1119
 16894 4763 0200     		.2byte	0x2
 16895 4765 73       		.byte	0x73
 16896 4766 00       		.sleb128 0
 16897 4767 8E000000 		.4byte	.LVL1120
 16898 476b 9E000000 		.4byte	.LVL1122
 16899 476f 0200     		.2byte	0x2
 16900 4771 73       		.byte	0x73
 16901 4772 00       		.sleb128 0
 16902 4773 A2000000 		.4byte	.LVL1123
 16903 4777 AC000000 		.4byte	.LVL1125
 16904 477b 0200     		.2byte	0x2
 16905 477d 73       		.byte	0x73
 16906 477e 00       		.sleb128 0
 16907 477f B0000000 		.4byte	.LVL1126
 16908 4783 B6000000 		.4byte	.LVL1127
 16909 4787 0200     		.2byte	0x2
 16910 4789 73       		.byte	0x73
 16911 478a 00       		.sleb128 0
 16912 478b B6000000 		.4byte	.LVL1127
 16913 478f BA000000 		.4byte	.LVL1128
 16914 4793 0200     		.2byte	0x2
 16915 4795 73       		.byte	0x73
 16916 4796 7F       		.sleb128 -1
 16917 4797 00000000 		.4byte	0x0
 16918 479b 00000000 		.4byte	0x0
 16919              	.LLST225:
 16920 479f 18000000 		.4byte	.LVL1106
 16921 47a3 24000000 		.4byte	.LVL1107
 16922 47a7 0100     		.2byte	0x1
 16923 47a9 54       		.byte	0x54
 16924 47aa 44000000 		.4byte	.LVL1110
 16925 47ae 66000000 		.4byte	.LVL1114
 16926 47b2 0100     		.2byte	0x1
 16927 47b4 54       		.byte	0x54
 16928 47b5 66000000 		.4byte	.LVL1114
 16929 47b9 7A000000 		.4byte	.LVL1117
ARM GAS  /tmp/ccvHIMcj.s 			page 299


 16930 47bd 0100     		.2byte	0x1
 16931 47bf 54       		.byte	0x54
 16932 47c0 7A000000 		.4byte	.LVL1117
 16933 47c4 8E000000 		.4byte	.LVL1120
 16934 47c8 0100     		.2byte	0x1
 16935 47ca 54       		.byte	0x54
 16936 47cb 8E000000 		.4byte	.LVL1120
 16937 47cf A2000000 		.4byte	.LVL1123
 16938 47d3 0100     		.2byte	0x1
 16939 47d5 54       		.byte	0x54
 16940 47d6 A2000000 		.4byte	.LVL1123
 16941 47da AC000000 		.4byte	.LVL1125
 16942 47de 0100     		.2byte	0x1
 16943 47e0 54       		.byte	0x54
 16944 47e1 B0000000 		.4byte	.LVL1126
 16945 47e5 BA000000 		.4byte	.LVL1128
 16946 47e9 0100     		.2byte	0x1
 16947 47eb 54       		.byte	0x54
 16948 47ec BA000000 		.4byte	.LVL1128
 16949 47f0 F0000000 		.4byte	.LFE43
 16950 47f4 0100     		.2byte	0x1
 16951 47f6 54       		.byte	0x54
 16952 47f7 00000000 		.4byte	0x0
 16953 47fb 00000000 		.4byte	0x0
 16954              	.LLST226:
 16955 47ff 3C000000 		.4byte	.LVL1109
 16956 4803 AC000000 		.4byte	.LVL1125
 16957 4807 0100     		.2byte	0x1
 16958 4809 55       		.byte	0x55
 16959 480a B0000000 		.4byte	.LVL1126
 16960 480e E2000000 		.4byte	.LVL1129
 16961 4812 0100     		.2byte	0x1
 16962 4814 55       		.byte	0x55
 16963 4815 00000000 		.4byte	0x0
 16964 4819 00000000 		.4byte	0x0
 16965              	.LLST227:
 16966 481d 00000000 		.4byte	.LFB44
 16967 4821 04000000 		.4byte	.LCFI38
 16968 4825 0200     		.2byte	0x2
 16969 4827 7D       		.byte	0x7d
 16970 4828 00       		.sleb128 0
 16971 4829 04000000 		.4byte	.LCFI38
 16972 482d 66010000 		.4byte	.LFE44
 16973 4831 0200     		.2byte	0x2
 16974 4833 7D       		.byte	0x7d
 16975 4834 18       		.sleb128 24
 16976 4835 00000000 		.4byte	0x0
 16977 4839 00000000 		.4byte	0x0
 16978              	.LLST228:
 16979 483d 00000000 		.4byte	.LVL1130
 16980 4841 14000000 		.4byte	.LVL1131
 16981 4845 0100     		.2byte	0x1
 16982 4847 50       		.byte	0x50
 16983 4848 14000000 		.4byte	.LVL1131
 16984 484c 1C000000 		.4byte	.LVL1132
 16985 4850 0100     		.2byte	0x1
 16986 4852 50       		.byte	0x50
ARM GAS  /tmp/ccvHIMcj.s 			page 300


 16987 4853 22000000 		.4byte	.LVL1133
 16988 4857 40000000 		.4byte	.LVL1135
 16989 485b 0100     		.2byte	0x1
 16990 485d 50       		.byte	0x50
 16991 485e 40000000 		.4byte	.LVL1135
 16992 4862 48000000 		.4byte	.LVL1137
 16993 4866 0100     		.2byte	0x1
 16994 4868 52       		.byte	0x52
 16995 4869 48000000 		.4byte	.LVL1137
 16996 486d 58000000 		.4byte	.LVL1140
 16997 4871 0100     		.2byte	0x1
 16998 4873 50       		.byte	0x50
 16999 4874 5A000000 		.4byte	.LVL1141
 17000 4878 5C000000 		.4byte	.LVL1142
 17001 487c 0100     		.2byte	0x1
 17002 487e 50       		.byte	0x50
 17003 487f 5E000000 		.4byte	.LVL1143
 17004 4883 88000000 		.4byte	.LVL1145
 17005 4887 0100     		.2byte	0x1
 17006 4889 50       		.byte	0x50
 17007 488a 88000000 		.4byte	.LVL1145
 17008 488e 94000000 		.4byte	.LVL1147
 17009 4892 0300     		.2byte	0x3
 17010 4894 72       		.byte	0x72
 17011 4895 01       		.sleb128 1
 17012 4896 9F       		.byte	0x9f
 17013 4897 94000000 		.4byte	.LVL1147
 17014 489b BC000000 		.4byte	.LVL1150
 17015 489f 0100     		.2byte	0x1
 17016 48a1 50       		.byte	0x50
 17017 48a2 BC000000 		.4byte	.LVL1150
 17018 48a6 CC000000 		.4byte	.LVL1152
 17019 48aa 0300     		.2byte	0x3
 17020 48ac 74       		.byte	0x74
 17021 48ad 01       		.sleb128 1
 17022 48ae 9F       		.byte	0x9f
 17023 48af CC000000 		.4byte	.LVL1152
 17024 48b3 FA000000 		.4byte	.LVL1156
 17025 48b7 0100     		.2byte	0x1
 17026 48b9 50       		.byte	0x50
 17027 48ba FA000000 		.4byte	.LVL1156
 17028 48be 10010000 		.4byte	.LVL1157
 17029 48c2 0300     		.2byte	0x3
 17030 48c4 74       		.byte	0x74
 17031 48c5 01       		.sleb128 1
 17032 48c6 9F       		.byte	0x9f
 17033 48c7 10010000 		.4byte	.LVL1157
 17034 48cb 3E010000 		.4byte	.LVL1161
 17035 48cf 0100     		.2byte	0x1
 17036 48d1 50       		.byte	0x50
 17037 48d2 3E010000 		.4byte	.LVL1161
 17038 48d6 64010000 		.4byte	.LVL1162
 17039 48da 0300     		.2byte	0x3
 17040 48dc 74       		.byte	0x74
 17041 48dd 01       		.sleb128 1
 17042 48de 9F       		.byte	0x9f
 17043 48df 64010000 		.4byte	.LVL1162
ARM GAS  /tmp/ccvHIMcj.s 			page 301


 17044 48e3 66010000 		.4byte	.LFE44
 17045 48e7 0100     		.2byte	0x1
 17046 48e9 50       		.byte	0x50
 17047 48ea 00000000 		.4byte	0x0
 17048 48ee 00000000 		.4byte	0x0
 17049              	.LLST229:
 17050 48f2 00000000 		.4byte	.LVL1130
 17051 48f6 14000000 		.4byte	.LVL1131
 17052 48fa 0100     		.2byte	0x1
 17053 48fc 52       		.byte	0x52
 17054 48fd 22000000 		.4byte	.LVL1133
 17055 4901 34000000 		.4byte	.LVL1134
 17056 4905 0100     		.2byte	0x1
 17057 4907 52       		.byte	0x52
 17058 4908 4A000000 		.4byte	.LVL1138
 17059 490c 56000000 		.4byte	.LVL1139
 17060 4910 0100     		.2byte	0x1
 17061 4912 52       		.byte	0x52
 17062 4913 5E000000 		.4byte	.LVL1143
 17063 4917 62000000 		.4byte	.LVL1144
 17064 491b 0100     		.2byte	0x1
 17065 491d 52       		.byte	0x52
 17066 491e 98000000 		.4byte	.LVL1148
 17067 4922 A8000000 		.4byte	.LVL1149
 17068 4926 0100     		.2byte	0x1
 17069 4928 52       		.byte	0x52
 17070 4929 D2000000 		.4byte	.LVL1153
 17071 492d E2000000 		.4byte	.LVL1154
 17072 4931 0100     		.2byte	0x1
 17073 4933 52       		.byte	0x52
 17074 4934 18010000 		.4byte	.LVL1158
 17075 4938 22010000 		.4byte	.LVL1159
 17076 493c 0100     		.2byte	0x1
 17077 493e 52       		.byte	0x52
 17078 493f 00000000 		.4byte	0x0
 17079 4943 00000000 		.4byte	0x0
 17080              	.LLST230:
 17081 4947 00000000 		.4byte	.LVL1130
 17082 494b 14000000 		.4byte	.LVL1131
 17083 494f 0100     		.2byte	0x1
 17084 4951 53       		.byte	0x53
 17085 4952 22000000 		.4byte	.LVL1133
 17086 4956 44000000 		.4byte	.LVL1136
 17087 495a 0100     		.2byte	0x1
 17088 495c 53       		.byte	0x53
 17089 495d 4A000000 		.4byte	.LVL1138
 17090 4961 5A000000 		.4byte	.LVL1141
 17091 4965 0100     		.2byte	0x1
 17092 4967 53       		.byte	0x53
 17093 4968 5E000000 		.4byte	.LVL1143
 17094 496c 90000000 		.4byte	.LVL1146
 17095 4970 0100     		.2byte	0x1
 17096 4972 53       		.byte	0x53
 17097 4973 98000000 		.4byte	.LVL1148
 17098 4977 C8000000 		.4byte	.LVL1151
 17099 497b 0100     		.2byte	0x1
 17100 497d 53       		.byte	0x53
ARM GAS  /tmp/ccvHIMcj.s 			page 302


 17101 497e D2000000 		.4byte	.LVL1153
 17102 4982 F6000000 		.4byte	.LVL1155
 17103 4986 0100     		.2byte	0x1
 17104 4988 53       		.byte	0x53
 17105 4989 18010000 		.4byte	.LVL1158
 17106 498d 3A010000 		.4byte	.LVL1160
 17107 4991 0100     		.2byte	0x1
 17108 4993 53       		.byte	0x53
 17109 4994 00000000 		.4byte	0x0
 17110 4998 00000000 		.4byte	0x0
 17111              	.LLST231:
 17112 499c 00000000 		.4byte	.LFB45
 17113 49a0 02000000 		.4byte	.LCFI39
 17114 49a4 0200     		.2byte	0x2
 17115 49a6 7D       		.byte	0x7d
 17116 49a7 00       		.sleb128 0
 17117 49a8 02000000 		.4byte	.LCFI39
 17118 49ac 04000000 		.4byte	.LCFI40
 17119 49b0 0200     		.2byte	0x2
 17120 49b2 7D       		.byte	0x7d
 17121 49b3 10       		.sleb128 16
 17122 49b4 04000000 		.4byte	.LCFI40
 17123 49b8 30000000 		.4byte	.LFE45
 17124 49bc 0200     		.2byte	0x2
 17125 49be 7D       		.byte	0x7d
 17126 49bf 18       		.sleb128 24
 17127 49c0 00000000 		.4byte	0x0
 17128 49c4 00000000 		.4byte	0x0
 17129              	.LLST232:
 17130 49c8 00000000 		.4byte	.LVL1163
 17131 49cc 14000000 		.4byte	.LVL1165
 17132 49d0 0100     		.2byte	0x1
 17133 49d2 50       		.byte	0x50
 17134 49d3 14000000 		.4byte	.LVL1165
 17135 49d7 30000000 		.4byte	.LFE45
 17136 49db 0200     		.2byte	0x2
 17137 49dd 91       		.byte	0x91
 17138 49de 6C       		.sleb128 -20
 17139 49df 00000000 		.4byte	0x0
 17140 49e3 00000000 		.4byte	0x0
 17141              	.LLST233:
 17142 49e7 00000000 		.4byte	.LVL1163
 17143 49eb 0E000000 		.4byte	.LVL1164
 17144 49ef 0100     		.2byte	0x1
 17145 49f1 51       		.byte	0x51
 17146 49f2 0E000000 		.4byte	.LVL1164
 17147 49f6 30000000 		.4byte	.LFE45
 17148 49fa 0100     		.2byte	0x1
 17149 49fc 56       		.byte	0x56
 17150 49fd 00000000 		.4byte	0x0
 17151 4a01 00000000 		.4byte	0x0
 17152              	.LLST234:
 17153 4a05 00000000 		.4byte	.LVL1163
 17154 4a09 0E000000 		.4byte	.LVL1164
 17155 4a0d 0200     		.2byte	0x2
 17156 4a0f 30       		.byte	0x30
 17157 4a10 9F       		.byte	0x9f
ARM GAS  /tmp/ccvHIMcj.s 			page 303


 17158 4a11 1E000000 		.4byte	.LVL1166
 17159 4a15 20000000 		.4byte	.LVL1167
 17160 4a19 0100     		.2byte	0x1
 17161 4a1b 50       		.byte	0x50
 17162 4a1c 00000000 		.4byte	0x0
 17163 4a20 00000000 		.4byte	0x0
 17164              	.LLST235:
 17165 4a24 00000000 		.4byte	.LVL1163
 17166 4a28 0E000000 		.4byte	.LVL1164
 17167 4a2c 0200     		.2byte	0x2
 17168 4a2e 30       		.byte	0x30
 17169 4a2f 9F       		.byte	0x9f
 17170 4a30 20000000 		.4byte	.LVL1167
 17171 4a34 24000000 		.4byte	.LVL1168
 17172 4a38 0100     		.2byte	0x1
 17173 4a3a 54       		.byte	0x54
 17174 4a3b 00000000 		.4byte	0x0
 17175 4a3f 00000000 		.4byte	0x0
 17176              	.LLST236:
 17177 4a43 00000000 		.4byte	.LFB46
 17178 4a47 04000000 		.4byte	.LCFI41
 17179 4a4b 0200     		.2byte	0x2
 17180 4a4d 7D       		.byte	0x7d
 17181 4a4e 00       		.sleb128 0
 17182 4a4f 04000000 		.4byte	.LCFI41
 17183 4a53 06000000 		.4byte	.LCFI42
 17184 4a57 0200     		.2byte	0x2
 17185 4a59 7D       		.byte	0x7d
 17186 4a5a 20       		.sleb128 32
 17187 4a5b 06000000 		.4byte	.LCFI42
 17188 4a5f 8A000000 		.4byte	.LFE46
 17189 4a63 0200     		.2byte	0x2
 17190 4a65 7D       		.byte	0x7d
 17191 4a66 30       		.sleb128 48
 17192 4a67 00000000 		.4byte	0x0
 17193 4a6b 00000000 		.4byte	0x0
 17194              	.LLST237:
 17195 4a6f 00000000 		.4byte	.LVL1169
 17196 4a73 0D000000 		.4byte	.LVL1170-1
 17197 4a77 0100     		.2byte	0x1
 17198 4a79 50       		.byte	0x50
 17199 4a7a 0D000000 		.4byte	.LVL1170-1
 17200 4a7e 30000000 		.4byte	.LVL1172
 17201 4a82 0100     		.2byte	0x1
 17202 4a84 55       		.byte	0x55
 17203 4a85 46000000 		.4byte	.LVL1177
 17204 4a89 4C000000 		.4byte	.LVL1178
 17205 4a8d 0100     		.2byte	0x1
 17206 4a8f 55       		.byte	0x55
 17207 4a90 00000000 		.4byte	0x0
 17208 4a94 00000000 		.4byte	0x0
 17209              	.LLST238:
 17210 4a98 00000000 		.4byte	.LVL1169
 17211 4a9c 0D000000 		.4byte	.LVL1170-1
 17212 4aa0 0100     		.2byte	0x1
 17213 4aa2 51       		.byte	0x51
 17214 4aa3 0D000000 		.4byte	.LVL1170-1
ARM GAS  /tmp/ccvHIMcj.s 			page 304


 17215 4aa7 8A000000 		.4byte	.LFE46
 17216 4aab 0100     		.2byte	0x1
 17217 4aad 5A       		.byte	0x5a
 17218 4aae 00000000 		.4byte	0x0
 17219 4ab2 00000000 		.4byte	0x0
 17220              	.LLST239:
 17221 4ab6 0E000000 		.4byte	.LVL1170
 17222 4aba 32000000 		.4byte	.LVL1173
 17223 4abe 0100     		.2byte	0x1
 17224 4ac0 50       		.byte	0x50
 17225 4ac1 32000000 		.4byte	.LVL1173
 17226 4ac5 3E000000 		.4byte	.LVL1175
 17227 4ac9 0100     		.2byte	0x1
 17228 4acb 56       		.byte	0x56
 17229 4acc 3E000000 		.4byte	.LVL1175
 17230 4ad0 8A000000 		.4byte	.LFE46
 17231 4ad4 0100     		.2byte	0x1
 17232 4ad6 58       		.byte	0x58
 17233 4ad7 00000000 		.4byte	0x0
 17234 4adb 00000000 		.4byte	0x0
 17235              	.LLST240:
 17236 4adf 3A000000 		.4byte	.LVL1174
 17237 4ae3 46000000 		.4byte	.LVL1177
 17238 4ae7 0200     		.2byte	0x2
 17239 4ae9 91       		.byte	0x91
 17240 4aea 5C       		.sleb128 -36
 17241 4aeb 4C000000 		.4byte	.LVL1178
 17242 4aef 4E000000 		.4byte	.LVL1179
 17243 4af3 0100     		.2byte	0x1
 17244 4af5 50       		.byte	0x50
 17245 4af6 4E000000 		.4byte	.LVL1179
 17246 4afa 8A000000 		.4byte	.LFE46
 17247 4afe 0200     		.2byte	0x2
 17248 4b00 91       		.byte	0x91
 17249 4b01 5C       		.sleb128 -36
 17250 4b02 00000000 		.4byte	0x0
 17251 4b06 00000000 		.4byte	0x0
 17252              	.LLST241:
 17253 4b0a 1E000000 		.4byte	.LVL1171
 17254 4b0e 39000000 		.4byte	.LVL1174-1
 17255 4b12 0700     		.2byte	0x7
 17256 4b14 7A       		.byte	0x7a
 17257 4b15 00       		.sleb128 0
 17258 4b16 06       		.byte	0x6
 17259 4b17 09       		.byte	0x9
 17260 4b18 FF       		.byte	0xff
 17261 4b19 22       		.byte	0x22
 17262 4b1a 9F       		.byte	0x9f
 17263 4b1b 39000000 		.4byte	.LVL1174-1
 17264 4b1f 40000000 		.4byte	.LVL1176
 17265 4b23 0300     		.2byte	0x3
 17266 4b25 79       		.byte	0x79
 17267 4b26 7F       		.sleb128 -1
 17268 4b27 9F       		.byte	0x9f
 17269 4b28 46000000 		.4byte	.LVL1177
 17270 4b2c 4C000000 		.4byte	.LVL1178
 17271 4b30 0300     		.2byte	0x3
ARM GAS  /tmp/ccvHIMcj.s 			page 305


 17272 4b32 79       		.byte	0x79
 17273 4b33 7F       		.sleb128 -1
 17274 4b34 9F       		.byte	0x9f
 17275 4b35 00000000 		.4byte	0x0
 17276 4b39 00000000 		.4byte	0x0
 17277              	.LLST242:
 17278 4b3d 1E000000 		.4byte	.LVL1171
 17279 4b41 40000000 		.4byte	.LVL1176
 17280 4b45 0200     		.2byte	0x2
 17281 4b47 30       		.byte	0x30
 17282 4b48 9F       		.byte	0x9f
 17283 4b49 40000000 		.4byte	.LVL1176
 17284 4b4d 46000000 		.4byte	.LVL1177
 17285 4b51 0100     		.2byte	0x1
 17286 4b53 57       		.byte	0x57
 17287 4b54 46000000 		.4byte	.LVL1177
 17288 4b58 4C000000 		.4byte	.LVL1178
 17289 4b5c 0200     		.2byte	0x2
 17290 4b5e 30       		.byte	0x30
 17291 4b5f 9F       		.byte	0x9f
 17292 4b60 00000000 		.4byte	0x0
 17293 4b64 00000000 		.4byte	0x0
 17294              		.file 2 "/home/z80/programs/code-sourcery/2011.03-42/bin/../lib/gcc/arm-none-eabi/4.5.2/include/st
 17295              		.file 3 "/home/z80/programs/code-sourcery/2011.03-42/bin/../lib/gcc/arm-none-eabi/4.5.2/../../../.
 17296              		.file 4 "pawn/amx.h"
 17297              		.section	.debug_info
 17298 0000 8C220000 		.4byte	0x228c
 17299 0004 0200     		.2byte	0x2
 17300 0006 00000000 		.4byte	.Ldebug_abbrev0
 17301 000a 04       		.byte	0x4
 17302 000b 01       		.uleb128 0x1
 17303 000c A1060000 		.4byte	.LASF369
 17304 0010 01       		.byte	0x1
 17305 0011 2B070000 		.4byte	.LASF370
 17306 0015 6C080000 		.4byte	.LASF371
 17307 0019 00000000 		.4byte	0x0
 17308 001d 00000000 		.4byte	0x0
 17309 0021 A8020000 		.4byte	.Ldebug_ranges0+0x2a8
 17310 0025 00000000 		.4byte	.Ldebug_line0
 17311 0029 02       		.uleb128 0x2
 17312 002a 04       		.byte	0x4
 17313 002b 03       		.uleb128 0x3
 17314 002c 04       		.byte	0x4
 17315 002d 05       		.byte	0x5
 17316 002e 696E7400 		.ascii	"int\000"
 17317 0032 04       		.uleb128 0x4
 17318 0033 2F050000 		.4byte	.LASF1
 17319 0037 02       		.byte	0x2
 17320 0038 D3       		.byte	0xd3
 17321 0039 3D000000 		.4byte	0x3d
 17322 003d 05       		.uleb128 0x5
 17323 003e 04       		.byte	0x4
 17324 003f 07       		.byte	0x7
 17325 0040 4A010000 		.4byte	.LASF0
 17326 0044 06       		.uleb128 0x6
 17327 0045 A3010000 		.4byte	.LASF2
 17328 0049 02       		.byte	0x2
ARM GAS  /tmp/ccvHIMcj.s 			page 306


 17329 004a 4301     		.2byte	0x143
 17330 004c 3D000000 		.4byte	0x3d
 17331 0050 05       		.uleb128 0x5
 17332 0051 01       		.byte	0x1
 17333 0052 06       		.byte	0x6
 17334 0053 AC0E0000 		.4byte	.LASF3
 17335 0057 05       		.uleb128 0x5
 17336 0058 01       		.byte	0x1
 17337 0059 08       		.byte	0x8
 17338 005a BC0D0000 		.4byte	.LASF4
 17339 005e 05       		.uleb128 0x5
 17340 005f 02       		.byte	0x2
 17341 0060 05       		.byte	0x5
 17342 0061 180B0000 		.4byte	.LASF5
 17343 0065 05       		.uleb128 0x5
 17344 0066 02       		.byte	0x2
 17345 0067 07       		.byte	0x7
 17346 0068 C20E0000 		.4byte	.LASF6
 17347 006c 05       		.uleb128 0x5
 17348 006d 08       		.byte	0x8
 17349 006e 05       		.byte	0x5
 17350 006f F8070000 		.4byte	.LASF7
 17351 0073 05       		.uleb128 0x5
 17352 0074 08       		.byte	0x8
 17353 0075 07       		.byte	0x7
 17354 0076 C0030000 		.4byte	.LASF8
 17355 007a 05       		.uleb128 0x5
 17356 007b 04       		.byte	0x4
 17357 007c 05       		.byte	0x5
 17358 007d 4B0B0000 		.4byte	.LASF9
 17359 0081 05       		.uleb128 0x5
 17360 0082 04       		.byte	0x4
 17361 0083 07       		.byte	0x7
 17362 0084 F40C0000 		.4byte	.LASF10
 17363 0088 07       		.uleb128 0x7
 17364 0089 04       		.byte	0x4
 17365 008a 57000000 		.4byte	0x57
 17366 008e 07       		.uleb128 0x7
 17367 008f 04       		.byte	0x4
 17368 0090 94000000 		.4byte	0x94
 17369 0094 05       		.uleb128 0x5
 17370 0095 01       		.byte	0x1
 17371 0096 08       		.byte	0x8
 17372 0097 86060000 		.4byte	.LASF11
 17373 009b 07       		.uleb128 0x7
 17374 009c 04       		.byte	0x4
 17375 009d A1000000 		.4byte	0xa1
 17376 00a1 08       		.uleb128 0x8
 17377 00a2 94000000 		.4byte	0x94
 17378 00a6 04       		.uleb128 0x4
 17379 00a7 82030000 		.4byte	.LASF12
 17380 00ab 03       		.byte	0x3
 17381 00ac 35       		.byte	0x35
 17382 00ad 5E000000 		.4byte	0x5e
 17383 00b1 04       		.uleb128 0x4
 17384 00b2 230A0000 		.4byte	.LASF13
 17385 00b6 03       		.byte	0x3
ARM GAS  /tmp/ccvHIMcj.s 			page 307


 17386 00b7 36       		.byte	0x36
 17387 00b8 65000000 		.4byte	0x65
 17388 00bc 04       		.uleb128 0x4
 17389 00bd 2A0D0000 		.4byte	.LASF14
 17390 00c1 03       		.byte	0x3
 17391 00c2 4F       		.byte	0x4f
 17392 00c3 7A000000 		.4byte	0x7a
 17393 00c7 04       		.uleb128 0x4
 17394 00c8 2B030000 		.4byte	.LASF15
 17395 00cc 03       		.byte	0x3
 17396 00cd 50       		.byte	0x50
 17397 00ce 81000000 		.4byte	0x81
 17398 00d2 04       		.uleb128 0x4
 17399 00d3 090A0000 		.4byte	.LASF16
 17400 00d7 03       		.byte	0x3
 17401 00d8 F3       		.byte	0xf3
 17402 00d9 2B000000 		.4byte	0x2b
 17403 00dd 04       		.uleb128 0x4
 17404 00de F9060000 		.4byte	.LASF17
 17405 00e2 04       		.byte	0x4
 17406 00e3 B8       		.byte	0xb8
 17407 00e4 C7000000 		.4byte	0xc7
 17408 00e8 04       		.uleb128 0x4
 17409 00e9 2F0F0000 		.4byte	.LASF18
 17410 00ed 04       		.byte	0x4
 17411 00ee B9       		.byte	0xb9
 17412 00ef BC000000 		.4byte	0xbc
 17413 00f3 04       		.uleb128 0x4
 17414 00f4 BD070000 		.4byte	.LASF19
 17415 00f8 04       		.byte	0x4
 17416 00f9 C5       		.byte	0xc5
 17417 00fa FE000000 		.4byte	0xfe
 17418 00fe 07       		.uleb128 0x7
 17419 00ff 04       		.byte	0x4
 17420 0100 04010000 		.4byte	0x104
 17421 0104 09       		.uleb128 0x9
 17422 0105 01       		.byte	0x1
 17423 0106 E8000000 		.4byte	0xe8
 17424 010a 19010000 		.4byte	0x119
 17425 010e 0A       		.uleb128 0xa
 17426 010f 19010000 		.4byte	0x119
 17427 0113 0A       		.uleb128 0xa
 17428 0114 95020000 		.4byte	0x295
 17429 0118 00       		.byte	0x0
 17430 0119 07       		.uleb128 0x7
 17431 011a 04       		.byte	0x4
 17432 011b 1F010000 		.4byte	0x11f
 17433 011f 0B       		.uleb128 0xb
 17434 0120 DC040000 		.4byte	.LASF39
 17435 0124 78       		.byte	0x78
 17436 0125 04       		.byte	0x4
 17437 0126 0901     		.2byte	0x109
 17438 0128 95020000 		.4byte	0x295
 17439 012c 0C       		.uleb128 0xc
 17440 012d 67030000 		.4byte	.LASF20
 17441 0131 04       		.byte	0x4
 17442 0132 0A01     		.2byte	0x10a
ARM GAS  /tmp/ccvHIMcj.s 			page 308


 17443 0134 88000000 		.4byte	0x88
 17444 0138 02       		.byte	0x2
 17445 0139 23       		.byte	0x23
 17446 013a 00       		.uleb128 0x0
 17447 013b 0C       		.uleb128 0xc
 17448 013c DE050000 		.4byte	.LASF21
 17449 0140 04       		.byte	0x4
 17450 0141 0B01     		.2byte	0x10b
 17451 0143 88000000 		.4byte	0x88
 17452 0147 02       		.byte	0x2
 17453 0148 23       		.byte	0x23
 17454 0149 04       		.uleb128 0x4
 17455 014a 0C       		.uleb128 0xc
 17456 014b 17070000 		.4byte	.LASF22
 17457 014f 04       		.byte	0x4
 17458 0150 0C01     		.2byte	0x10c
 17459 0152 88000000 		.4byte	0x88
 17460 0156 02       		.byte	0x2
 17461 0157 23       		.byte	0x23
 17462 0158 08       		.uleb128 0x8
 17463 0159 0C       		.uleb128 0xc
 17464 015a 370E0000 		.4byte	.LASF23
 17465 015e 04       		.byte	0x4
 17466 015f 0D01     		.2byte	0x10d
 17467 0161 A0020000 		.4byte	0x2a0
 17468 0165 02       		.byte	0x2
 17469 0166 23       		.byte	0x23
 17470 0167 0C       		.uleb128 0xc
 17471 0168 0C       		.uleb128 0xc
 17472 0169 7A000000 		.4byte	.LASF24
 17473 016d 04       		.byte	0x4
 17474 016e 0E01     		.2byte	0x10e
 17475 0170 D6020000 		.4byte	0x2d6
 17476 0174 02       		.byte	0x2
 17477 0175 23       		.byte	0x23
 17478 0176 10       		.uleb128 0x10
 17479 0177 0C       		.uleb128 0xc
 17480 0178 760B0000 		.4byte	.LASF25
 17481 017c 04       		.byte	0x4
 17482 017d 0F01     		.2byte	0x10f
 17483 017f F7020000 		.4byte	0x2f7
 17484 0183 02       		.byte	0x2
 17485 0184 23       		.byte	0x23
 17486 0185 14       		.uleb128 0x14
 17487 0186 0D       		.uleb128 0xd
 17488 0187 63697000 		.ascii	"cip\000"
 17489 018b 04       		.byte	0x4
 17490 018c 1101     		.2byte	0x111
 17491 018e E8000000 		.4byte	0xe8
 17492 0192 02       		.byte	0x2
 17493 0193 23       		.byte	0x23
 17494 0194 18       		.uleb128 0x18
 17495 0195 0D       		.uleb128 0xd
 17496 0196 66726D00 		.ascii	"frm\000"
 17497 019a 04       		.byte	0x4
 17498 019b 1201     		.2byte	0x112
 17499 019d E8000000 		.4byte	0xe8
ARM GAS  /tmp/ccvHIMcj.s 			page 309


 17500 01a1 02       		.byte	0x2
 17501 01a2 23       		.byte	0x23
 17502 01a3 1C       		.uleb128 0x1c
 17503 01a4 0D       		.uleb128 0xd
 17504 01a5 68656100 		.ascii	"hea\000"
 17505 01a9 04       		.byte	0x4
 17506 01aa 1301     		.2byte	0x113
 17507 01ac E8000000 		.4byte	0xe8
 17508 01b0 02       		.byte	0x2
 17509 01b1 23       		.byte	0x23
 17510 01b2 20       		.uleb128 0x20
 17511 01b3 0D       		.uleb128 0xd
 17512 01b4 686C7700 		.ascii	"hlw\000"
 17513 01b8 04       		.byte	0x4
 17514 01b9 1401     		.2byte	0x114
 17515 01bb E8000000 		.4byte	0xe8
 17516 01bf 02       		.byte	0x2
 17517 01c0 23       		.byte	0x23
 17518 01c1 24       		.uleb128 0x24
 17519 01c2 0D       		.uleb128 0xd
 17520 01c3 73746B00 		.ascii	"stk\000"
 17521 01c7 04       		.byte	0x4
 17522 01c8 1501     		.2byte	0x115
 17523 01ca E8000000 		.4byte	0xe8
 17524 01ce 02       		.byte	0x2
 17525 01cf 23       		.byte	0x23
 17526 01d0 28       		.uleb128 0x28
 17527 01d1 0D       		.uleb128 0xd
 17528 01d2 73747000 		.ascii	"stp\000"
 17529 01d6 04       		.byte	0x4
 17530 01d7 1601     		.2byte	0x116
 17531 01d9 E8000000 		.4byte	0xe8
 17532 01dd 02       		.byte	0x2
 17533 01de 23       		.byte	0x23
 17534 01df 2C       		.uleb128 0x2c
 17535 01e0 0C       		.uleb128 0xc
 17536 01e1 0C010000 		.4byte	.LASF26
 17537 01e5 04       		.byte	0x4
 17538 01e6 1701     		.2byte	0x117
 17539 01e8 2B000000 		.4byte	0x2b
 17540 01ec 02       		.byte	0x2
 17541 01ed 23       		.byte	0x23
 17542 01ee 30       		.uleb128 0x30
 17543 01ef 0C       		.uleb128 0xc
 17544 01f0 B10C0000 		.4byte	.LASF27
 17545 01f4 04       		.byte	0x4
 17546 01f5 1A01     		.2byte	0x11a
 17547 01f7 85030000 		.4byte	0x385
 17548 01fb 02       		.byte	0x2
 17549 01fc 23       		.byte	0x23
 17550 01fd 34       		.uleb128 0x34
 17551 01fe 0C       		.uleb128 0xc
 17552 01ff 03060000 		.4byte	.LASF28
 17553 0203 04       		.byte	0x4
 17554 0204 1B01     		.2byte	0x11b
 17555 0206 95030000 		.4byte	0x395
 17556 020a 02       		.byte	0x2
ARM GAS  /tmp/ccvHIMcj.s 			page 310


 17557 020b 23       		.byte	0x23
 17558 020c 44       		.uleb128 0x44
 17559 020d 0C       		.uleb128 0xc
 17560 020e 4E020000 		.4byte	.LASF29
 17561 0212 04       		.byte	0x4
 17562 0213 1E01     		.2byte	0x11e
 17563 0215 2B000000 		.4byte	0x2b
 17564 0219 02       		.byte	0x2
 17565 021a 23       		.byte	0x23
 17566 021b 54       		.uleb128 0x54
 17567 021c 0C       		.uleb128 0xc
 17568 021d 96060000 		.4byte	.LASF30
 17569 0221 04       		.byte	0x4
 17570 0222 2001     		.2byte	0x120
 17571 0224 2B000000 		.4byte	0x2b
 17572 0228 02       		.byte	0x2
 17573 0229 23       		.byte	0x23
 17574 022a 58       		.uleb128 0x58
 17575 022b 0D       		.uleb128 0xd
 17576 022c 70726900 		.ascii	"pri\000"
 17577 0230 04       		.byte	0x4
 17578 0231 2201     		.2byte	0x122
 17579 0233 E8000000 		.4byte	0xe8
 17580 0237 02       		.byte	0x2
 17581 0238 23       		.byte	0x23
 17582 0239 5C       		.uleb128 0x5c
 17583 023a 0D       		.uleb128 0xd
 17584 023b 616C7400 		.ascii	"alt\000"
 17585 023f 04       		.byte	0x4
 17586 0240 2301     		.2byte	0x123
 17587 0242 E8000000 		.4byte	0xe8
 17588 0246 02       		.byte	0x2
 17589 0247 23       		.byte	0x23
 17590 0248 60       		.uleb128 0x60
 17591 0249 0C       		.uleb128 0xc
 17592 024a 0D070000 		.4byte	.LASF31
 17593 024e 04       		.byte	0x4
 17594 024f 2401     		.2byte	0x124
 17595 0251 E8000000 		.4byte	0xe8
 17596 0255 02       		.byte	0x2
 17597 0256 23       		.byte	0x23
 17598 0257 64       		.uleb128 0x64
 17599 0258 0C       		.uleb128 0xc
 17600 0259 66010000 		.4byte	.LASF32
 17601 025d 04       		.byte	0x4
 17602 025e 2501     		.2byte	0x125
 17603 0260 E8000000 		.4byte	0xe8
 17604 0264 02       		.byte	0x2
 17605 0265 23       		.byte	0x23
 17606 0266 68       		.uleb128 0x68
 17607 0267 0C       		.uleb128 0xc
 17608 0268 AB0F0000 		.4byte	.LASF33
 17609 026c 04       		.byte	0x4
 17610 026d 2701     		.2byte	0x127
 17611 026f E8000000 		.4byte	0xe8
 17612 0273 02       		.byte	0x2
 17613 0274 23       		.byte	0x23
ARM GAS  /tmp/ccvHIMcj.s 			page 311


 17614 0275 6C       		.uleb128 0x6c
 17615 0276 0C       		.uleb128 0xc
 17616 0277 360C0000 		.4byte	.LASF34
 17617 027b 04       		.byte	0x4
 17618 027c 2901     		.2byte	0x129
 17619 027e 2B000000 		.4byte	0x2b
 17620 0282 02       		.byte	0x2
 17621 0283 23       		.byte	0x23
 17622 0284 70       		.uleb128 0x70
 17623 0285 0C       		.uleb128 0xc
 17624 0286 870B0000 		.4byte	.LASF35
 17625 028a 04       		.byte	0x4
 17626 028b 2A01     		.2byte	0x12a
 17627 028d 7A000000 		.4byte	0x7a
 17628 0291 02       		.byte	0x2
 17629 0292 23       		.byte	0x23
 17630 0293 74       		.uleb128 0x74
 17631 0294 00       		.byte	0x0
 17632 0295 07       		.uleb128 0x7
 17633 0296 04       		.byte	0x4
 17634 0297 9B020000 		.4byte	0x29b
 17635 029b 08       		.uleb128 0x8
 17636 029c E8000000 		.4byte	0xe8
 17637 02a0 04       		.uleb128 0x4
 17638 02a1 82040000 		.4byte	.LASF36
 17639 02a5 04       		.byte	0x4
 17640 02a6 C6       		.byte	0xc6
 17641 02a7 AB020000 		.4byte	0x2ab
 17642 02ab 07       		.uleb128 0x7
 17643 02ac 04       		.byte	0x4
 17644 02ad B1020000 		.4byte	0x2b1
 17645 02b1 09       		.uleb128 0x9
 17646 02b2 01       		.byte	0x1
 17647 02b3 2B000000 		.4byte	0x2b
 17648 02b7 D0020000 		.4byte	0x2d0
 17649 02bb 0A       		.uleb128 0xa
 17650 02bc 19010000 		.4byte	0x119
 17651 02c0 0A       		.uleb128 0xa
 17652 02c1 E8000000 		.4byte	0xe8
 17653 02c5 0A       		.uleb128 0xa
 17654 02c6 D0020000 		.4byte	0x2d0
 17655 02ca 0A       		.uleb128 0xa
 17656 02cb 95020000 		.4byte	0x295
 17657 02cf 00       		.byte	0x0
 17658 02d0 07       		.uleb128 0x7
 17659 02d1 04       		.byte	0x4
 17660 02d2 E8000000 		.4byte	0xe8
 17661 02d6 04       		.uleb128 0x4
 17662 02d7 B7020000 		.4byte	.LASF37
 17663 02db 04       		.byte	0x4
 17664 02dc C8       		.byte	0xc8
 17665 02dd E1020000 		.4byte	0x2e1
 17666 02e1 07       		.uleb128 0x7
 17667 02e2 04       		.byte	0x4
 17668 02e3 E7020000 		.4byte	0x2e7
 17669 02e7 09       		.uleb128 0x9
 17670 02e8 01       		.byte	0x1
ARM GAS  /tmp/ccvHIMcj.s 			page 312


 17671 02e9 2B000000 		.4byte	0x2b
 17672 02ed F7020000 		.4byte	0x2f7
 17673 02f1 0A       		.uleb128 0xa
 17674 02f2 19010000 		.4byte	0x119
 17675 02f6 00       		.byte	0x0
 17676 02f7 04       		.uleb128 0x4
 17677 02f8 EC070000 		.4byte	.LASF38
 17678 02fc 04       		.byte	0x4
 17679 02fd C9       		.byte	0xc9
 17680 02fe 02030000 		.4byte	0x302
 17681 0302 07       		.uleb128 0x7
 17682 0303 04       		.byte	0x4
 17683 0304 08030000 		.4byte	0x308
 17684 0308 09       		.uleb128 0x9
 17685 0309 01       		.byte	0x1
 17686 030a 2B000000 		.4byte	0x2b
 17687 030e 1D030000 		.4byte	0x31d
 17688 0312 0A       		.uleb128 0xa
 17689 0313 19010000 		.4byte	0x119
 17690 0317 0A       		.uleb128 0xa
 17691 0318 2B000000 		.4byte	0x2b
 17692 031c 00       		.byte	0x0
 17693 031d 0E       		.uleb128 0xe
 17694 031e 9C050000 		.4byte	.LASF40
 17695 0322 08       		.byte	0x8
 17696 0323 04       		.byte	0x4
 17697 0324 F1       		.byte	0xf1
 17698 0325 46030000 		.4byte	0x346
 17699 0329 0F       		.uleb128 0xf
 17700 032a 6B0C0000 		.4byte	.LASF41
 17701 032e 04       		.byte	0x4
 17702 032f F2       		.byte	0xf2
 17703 0330 9B000000 		.4byte	0x9b
 17704 0334 02       		.byte	0x2
 17705 0335 23       		.byte	0x23
 17706 0336 00       		.uleb128 0x0
 17707 0337 0F       		.uleb128 0xf
 17708 0338 54020000 		.4byte	.LASF42
 17709 033c 04       		.byte	0x4
 17710 033d F3       		.byte	0xf3
 17711 033e F3000000 		.4byte	0xf3
 17712 0342 02       		.byte	0x2
 17713 0343 23       		.byte	0x23
 17714 0344 04       		.uleb128 0x4
 17715 0345 00       		.byte	0x0
 17716 0346 04       		.uleb128 0x4
 17717 0347 D60D0000 		.4byte	.LASF43
 17718 034b 04       		.byte	0x4
 17719 034c F4       		.byte	0xf4
 17720 034d 1D030000 		.4byte	0x31d
 17721 0351 0E       		.uleb128 0xe
 17722 0352 CA0D0000 		.4byte	.LASF44
 17723 0356 08       		.byte	0x8
 17724 0357 04       		.byte	0x4
 17725 0358 FC       		.byte	0xfc
 17726 0359 7A030000 		.4byte	0x37a
 17727 035d 0F       		.uleb128 0xf
ARM GAS  /tmp/ccvHIMcj.s 			page 313


 17728 035e 060D0000 		.4byte	.LASF45
 17729 0362 04       		.byte	0x4
 17730 0363 FD       		.byte	0xfd
 17731 0364 C7000000 		.4byte	0xc7
 17732 0368 02       		.byte	0x2
 17733 0369 23       		.byte	0x23
 17734 036a 00       		.uleb128 0x0
 17735 036b 0F       		.uleb128 0xf
 17736 036c 0E080000 		.4byte	.LASF46
 17737 0370 04       		.byte	0x4
 17738 0371 FE       		.byte	0xfe
 17739 0372 C7000000 		.4byte	0xc7
 17740 0376 02       		.byte	0x2
 17741 0377 23       		.byte	0x23
 17742 0378 04       		.uleb128 0x4
 17743 0379 00       		.byte	0x0
 17744 037a 04       		.uleb128 0x4
 17745 037b 79060000 		.4byte	.LASF47
 17746 037f 04       		.byte	0x4
 17747 0380 FF       		.byte	0xff
 17748 0381 51030000 		.4byte	0x351
 17749 0385 10       		.uleb128 0x10
 17750 0386 7A000000 		.4byte	0x7a
 17751 038a 95030000 		.4byte	0x395
 17752 038e 11       		.uleb128 0x11
 17753 038f 3D000000 		.4byte	0x3d
 17754 0393 03       		.byte	0x3
 17755 0394 00       		.byte	0x0
 17756 0395 10       		.uleb128 0x10
 17757 0396 29000000 		.4byte	0x29
 17758 039a A5030000 		.4byte	0x3a5
 17759 039e 11       		.uleb128 0x11
 17760 039f 3D000000 		.4byte	0x3d
 17761 03a3 03       		.byte	0x3
 17762 03a4 00       		.byte	0x0
 17763 03a5 12       		.uleb128 0x12
 17764 03a6 414D5800 		.ascii	"AMX\000"
 17765 03aa 04       		.byte	0x4
 17766 03ab 2F01     		.2byte	0x12f
 17767 03ad 1F010000 		.4byte	0x11f
 17768 03b1 0B       		.uleb128 0xb
 17769 03b2 210F0000 		.4byte	.LASF48
 17770 03b6 3C       		.byte	0x3c
 17771 03b7 04       		.byte	0x4
 17772 03b8 3401     		.2byte	0x134
 17773 03ba CD040000 		.4byte	0x4cd
 17774 03be 0C       		.uleb128 0xc
 17775 03bf F8080000 		.4byte	.LASF49
 17776 03c3 04       		.byte	0x4
 17777 03c4 3501     		.2byte	0x135
 17778 03c6 BC000000 		.4byte	0xbc
 17779 03ca 02       		.byte	0x2
 17780 03cb 23       		.byte	0x23
 17781 03cc 00       		.uleb128 0x0
 17782 03cd 0C       		.uleb128 0xc
 17783 03ce 9E0C0000 		.4byte	.LASF50
 17784 03d2 04       		.byte	0x4
ARM GAS  /tmp/ccvHIMcj.s 			page 314


 17785 03d3 3601     		.2byte	0x136
 17786 03d5 B1000000 		.4byte	0xb1
 17787 03d9 02       		.byte	0x2
 17788 03da 23       		.byte	0x23
 17789 03db 04       		.uleb128 0x4
 17790 03dc 0C       		.uleb128 0xc
 17791 03dd 88070000 		.4byte	.LASF51
 17792 03e1 04       		.byte	0x4
 17793 03e2 3701     		.2byte	0x137
 17794 03e4 94000000 		.4byte	0x94
 17795 03e8 02       		.byte	0x2
 17796 03e9 23       		.byte	0x23
 17797 03ea 06       		.uleb128 0x6
 17798 03eb 0C       		.uleb128 0xc
 17799 03ec C4060000 		.4byte	.LASF52
 17800 03f0 04       		.byte	0x4
 17801 03f1 3801     		.2byte	0x138
 17802 03f3 94000000 		.4byte	0x94
 17803 03f7 02       		.byte	0x2
 17804 03f8 23       		.byte	0x23
 17805 03f9 07       		.uleb128 0x7
 17806 03fa 0C       		.uleb128 0xc
 17807 03fb 0C010000 		.4byte	.LASF26
 17808 03ff 04       		.byte	0x4
 17809 0400 3901     		.2byte	0x139
 17810 0402 A6000000 		.4byte	0xa6
 17811 0406 02       		.byte	0x2
 17812 0407 23       		.byte	0x23
 17813 0408 08       		.uleb128 0x8
 17814 0409 0C       		.uleb128 0xc
 17815 040a FC0E0000 		.4byte	.LASF53
 17816 040e 04       		.byte	0x4
 17817 040f 3A01     		.2byte	0x13a
 17818 0411 A6000000 		.4byte	0xa6
 17819 0415 02       		.byte	0x2
 17820 0416 23       		.byte	0x23
 17821 0417 0A       		.uleb128 0xa
 17822 0418 0D       		.uleb128 0xd
 17823 0419 636F6400 		.ascii	"cod\000"
 17824 041d 04       		.byte	0x4
 17825 041e 3B01     		.2byte	0x13b
 17826 0420 BC000000 		.4byte	0xbc
 17827 0424 02       		.byte	0x2
 17828 0425 23       		.byte	0x23
 17829 0426 0C       		.uleb128 0xc
 17830 0427 0D       		.uleb128 0xd
 17831 0428 64617400 		.ascii	"dat\000"
 17832 042c 04       		.byte	0x4
 17833 042d 3C01     		.2byte	0x13c
 17834 042f BC000000 		.4byte	0xbc
 17835 0433 02       		.byte	0x2
 17836 0434 23       		.byte	0x23
 17837 0435 10       		.uleb128 0x10
 17838 0436 0D       		.uleb128 0xd
 17839 0437 68656100 		.ascii	"hea\000"
 17840 043b 04       		.byte	0x4
 17841 043c 3D01     		.2byte	0x13d
ARM GAS  /tmp/ccvHIMcj.s 			page 315


 17842 043e BC000000 		.4byte	0xbc
 17843 0442 02       		.byte	0x2
 17844 0443 23       		.byte	0x23
 17845 0444 14       		.uleb128 0x14
 17846 0445 0D       		.uleb128 0xd
 17847 0446 73747000 		.ascii	"stp\000"
 17848 044a 04       		.byte	0x4
 17849 044b 3E01     		.2byte	0x13e
 17850 044d BC000000 		.4byte	0xbc
 17851 0451 02       		.byte	0x2
 17852 0452 23       		.byte	0x23
 17853 0453 18       		.uleb128 0x18
 17854 0454 0D       		.uleb128 0xd
 17855 0455 63697000 		.ascii	"cip\000"
 17856 0459 04       		.byte	0x4
 17857 045a 3F01     		.2byte	0x13f
 17858 045c BC000000 		.4byte	0xbc
 17859 0460 02       		.byte	0x2
 17860 0461 23       		.byte	0x23
 17861 0462 1C       		.uleb128 0x1c
 17862 0463 0C       		.uleb128 0xc
 17863 0464 61020000 		.4byte	.LASF54
 17864 0468 04       		.byte	0x4
 17865 0469 4001     		.2byte	0x140
 17866 046b BC000000 		.4byte	0xbc
 17867 046f 02       		.byte	0x2
 17868 0470 23       		.byte	0x23
 17869 0471 20       		.uleb128 0x20
 17870 0472 0C       		.uleb128 0xc
 17871 0473 27040000 		.4byte	.LASF55
 17872 0477 04       		.byte	0x4
 17873 0478 4101     		.2byte	0x141
 17874 047a BC000000 		.4byte	0xbc
 17875 047e 02       		.byte	0x2
 17876 047f 23       		.byte	0x23
 17877 0480 24       		.uleb128 0x24
 17878 0481 0C       		.uleb128 0xc
 17879 0482 69020000 		.4byte	.LASF56
 17880 0486 04       		.byte	0x4
 17881 0487 4201     		.2byte	0x142
 17882 0489 BC000000 		.4byte	0xbc
 17883 048d 02       		.byte	0x2
 17884 048e 23       		.byte	0x23
 17885 048f 28       		.uleb128 0x28
 17886 0490 0C       		.uleb128 0xc
 17887 0491 DF0B0000 		.4byte	.LASF57
 17888 0495 04       		.byte	0x4
 17889 0496 4301     		.2byte	0x143
 17890 0498 BC000000 		.4byte	0xbc
 17891 049c 02       		.byte	0x2
 17892 049d 23       		.byte	0x23
 17893 049e 2C       		.uleb128 0x2c
 17894 049f 0C       		.uleb128 0xc
 17895 04a0 040C0000 		.4byte	.LASF58
 17896 04a4 04       		.byte	0x4
 17897 04a5 4401     		.2byte	0x144
 17898 04a7 BC000000 		.4byte	0xbc
ARM GAS  /tmp/ccvHIMcj.s 			page 316


 17899 04ab 02       		.byte	0x2
 17900 04ac 23       		.byte	0x23
 17901 04ad 30       		.uleb128 0x30
 17902 04ae 0C       		.uleb128 0xc
 17903 04af AC040000 		.4byte	.LASF59
 17904 04b3 04       		.byte	0x4
 17905 04b4 4501     		.2byte	0x145
 17906 04b6 BC000000 		.4byte	0xbc
 17907 04ba 02       		.byte	0x2
 17908 04bb 23       		.byte	0x23
 17909 04bc 34       		.uleb128 0x34
 17910 04bd 0C       		.uleb128 0xc
 17911 04be C10C0000 		.4byte	.LASF60
 17912 04c2 04       		.byte	0x4
 17913 04c3 4601     		.2byte	0x146
 17914 04c5 BC000000 		.4byte	0xbc
 17915 04c9 02       		.byte	0x2
 17916 04ca 23       		.byte	0x23
 17917 04cb 38       		.uleb128 0x38
 17918 04cc 00       		.byte	0x0
 17919 04cd 06       		.uleb128 0x6
 17920 04ce 8B060000 		.4byte	.LASF61
 17921 04d2 04       		.byte	0x4
 17922 04d3 4701     		.2byte	0x147
 17923 04d5 B1030000 		.4byte	0x3b1
 17924 04d9 13       		.uleb128 0x13
 17925 04da 01       		.byte	0x1
 17926 04db 04       		.byte	0x4
 17927 04dc 5401     		.2byte	0x154
 17928 04de 85050000 		.4byte	0x585
 17929 04e2 14       		.uleb128 0x14
 17930 04e3 990B0000 		.4byte	.LASF62
 17931 04e7 00       		.sleb128 0
 17932 04e8 14       		.uleb128 0x14
 17933 04e9 A40C0000 		.4byte	.LASF63
 17934 04ed 01       		.sleb128 1
 17935 04ee 14       		.uleb128 0x14
 17936 04ef 1C070000 		.4byte	.LASF64
 17937 04f3 02       		.sleb128 2
 17938 04f4 14       		.uleb128 0x14
 17939 04f5 100F0000 		.4byte	.LASF65
 17940 04f9 03       		.sleb128 3
 17941 04fa 14       		.uleb128 0x14
 17942 04fb 8F040000 		.4byte	.LASF66
 17943 04ff 04       		.sleb128 4
 17944 0500 14       		.uleb128 0x14
 17945 0501 09030000 		.4byte	.LASF67
 17946 0505 05       		.sleb128 5
 17947 0506 14       		.uleb128 0x14
 17948 0507 00000000 		.4byte	.LASF68
 17949 050b 06       		.sleb128 6
 17950 050c 14       		.uleb128 0x14
 17951 050d 28080000 		.4byte	.LASF69
 17952 0511 07       		.sleb128 7
 17953 0512 14       		.uleb128 0x14
 17954 0513 9C0E0000 		.4byte	.LASF70
 17955 0517 08       		.sleb128 8
ARM GAS  /tmp/ccvHIMcj.s 			page 317


 17956 0518 14       		.uleb128 0x14
 17957 0519 4A050000 		.4byte	.LASF71
 17958 051d 09       		.sleb128 9
 17959 051e 14       		.uleb128 0x14
 17960 051f 53000000 		.4byte	.LASF72
 17961 0523 0A       		.sleb128 10
 17962 0524 14       		.uleb128 0x14
 17963 0525 19020000 		.4byte	.LASF73
 17964 0529 0B       		.sleb128 11
 17965 052a 14       		.uleb128 0x14
 17966 052b E1090000 		.4byte	.LASF74
 17967 052f 0C       		.sleb128 12
 17968 0530 14       		.uleb128 0x14
 17969 0531 9A0D0000 		.4byte	.LASF75
 17970 0535 0D       		.sleb128 13
 17971 0536 14       		.uleb128 0x14
 17972 0537 EA020000 		.4byte	.LASF76
 17973 053b 10       		.sleb128 16
 17974 053c 14       		.uleb128 0x14
 17975 053d 87010000 		.4byte	.LASF77
 17976 0541 11       		.sleb128 17
 17977 0542 14       		.uleb128 0x14
 17978 0543 F6040000 		.4byte	.LASF78
 17979 0547 12       		.sleb128 18
 17980 0548 14       		.uleb128 0x14
 17981 0549 9A020000 		.4byte	.LASF79
 17982 054d 13       		.sleb128 19
 17983 054e 14       		.uleb128 0x14
 17984 054f 290E0000 		.4byte	.LASF80
 17985 0553 14       		.sleb128 20
 17986 0554 14       		.uleb128 0x14
 17987 0555 D90A0000 		.4byte	.LASF81
 17988 0559 15       		.sleb128 21
 17989 055a 14       		.uleb128 0x14
 17990 055b C4010000 		.4byte	.LASF82
 17991 055f 16       		.sleb128 22
 17992 0560 14       		.uleb128 0x14
 17993 0561 AB0D0000 		.4byte	.LASF83
 17994 0565 17       		.sleb128 23
 17995 0566 14       		.uleb128 0x14
 17996 0567 320D0000 		.4byte	.LASF84
 17997 056b 18       		.sleb128 24
 17998 056c 14       		.uleb128 0x14
 17999 056d 0C060000 		.4byte	.LASF85
 18000 0571 19       		.sleb128 25
 18001 0572 14       		.uleb128 0x14
 18002 0573 2E000000 		.4byte	.LASF86
 18003 0577 1A       		.sleb128 26
 18004 0578 14       		.uleb128 0x14
 18005 0579 11000000 		.4byte	.LASF87
 18006 057d 1B       		.sleb128 27
 18007 057e 14       		.uleb128 0x14
 18008 057f D50E0000 		.4byte	.LASF88
 18009 0583 1C       		.sleb128 28
 18010 0584 00       		.byte	0x0
 18011 0585 15       		.uleb128 0x15
 18012 0586 01       		.byte	0x1
ARM GAS  /tmp/ccvHIMcj.s 			page 318


 18013 0587 01       		.byte	0x1
 18014 0588 C4       		.byte	0xc4
 18015 0589 1E0A0000 		.4byte	0xa1e
 18016 058d 14       		.uleb128 0x14
 18017 058e D6060000 		.4byte	.LASF89
 18018 0592 00       		.sleb128 0
 18019 0593 14       		.uleb128 0x14
 18020 0594 150C0000 		.4byte	.LASF90
 18021 0598 01       		.sleb128 1
 18022 0599 14       		.uleb128 0x14
 18023 059a 54060000 		.4byte	.LASF91
 18024 059e 02       		.sleb128 2
 18025 059f 14       		.uleb128 0x14
 18026 05a0 7E0F0000 		.4byte	.LASF92
 18027 05a4 03       		.sleb128 3
 18028 05a5 14       		.uleb128 0x14
 18029 05a6 FB090000 		.4byte	.LASF93
 18030 05aa 04       		.sleb128 4
 18031 05ab 14       		.uleb128 0x14
 18032 05ac 5B050000 		.4byte	.LASF94
 18033 05b0 05       		.sleb128 5
 18034 05b1 14       		.uleb128 0x14
 18035 05b2 3D000000 		.4byte	.LASF95
 18036 05b6 06       		.sleb128 6
 18037 05b7 14       		.uleb128 0x14
 18038 05b8 D70F0000 		.4byte	.LASF96
 18039 05bc 07       		.sleb128 7
 18040 05bd 14       		.uleb128 0x14
 18041 05be B80E0000 		.4byte	.LASF97
 18042 05c2 08       		.sleb128 8
 18043 05c3 14       		.uleb128 0x14
 18044 05c4 EF0F0000 		.4byte	.LASF98
 18045 05c8 09       		.sleb128 9
 18046 05c9 14       		.uleb128 0x14
 18047 05ca BD0A0000 		.4byte	.LASF99
 18048 05ce 0A       		.sleb128 10
 18049 05cf 14       		.uleb128 0x14
 18050 05d0 C6080000 		.4byte	.LASF100
 18051 05d4 0B       		.sleb128 11
 18052 05d5 14       		.uleb128 0x14
 18053 05d6 45030000 		.4byte	.LASF101
 18054 05da 0C       		.sleb128 12
 18055 05db 14       		.uleb128 0x14
 18056 05dc 42050000 		.4byte	.LASF102
 18057 05e0 0D       		.sleb128 13
 18058 05e1 14       		.uleb128 0x14
 18059 05e2 28020000 		.4byte	.LASF103
 18060 05e6 0E       		.sleb128 14
 18061 05e7 14       		.uleb128 0x14
 18062 05e8 D2040000 		.4byte	.LASF104
 18063 05ec 0F       		.sleb128 15
 18064 05ed 14       		.uleb128 0x14
 18065 05ee E9010000 		.4byte	.LASF105
 18066 05f2 10       		.sleb128 16
 18067 05f3 14       		.uleb128 0x14
 18068 05f4 16080000 		.4byte	.LASF106
 18069 05f8 11       		.sleb128 17
ARM GAS  /tmp/ccvHIMcj.s 			page 319


 18070 05f9 14       		.uleb128 0x14
 18071 05fa 22050000 		.4byte	.LASF107
 18072 05fe 12       		.sleb128 18
 18073 05ff 14       		.uleb128 0x14
 18074 0600 22030000 		.4byte	.LASF108
 18075 0604 13       		.sleb128 19
 18076 0605 14       		.uleb128 0x14
 18077 0606 620C0000 		.4byte	.LASF109
 18078 060a 14       		.sleb128 20
 18079 060b 14       		.uleb128 0x14
 18080 060c 03100000 		.4byte	.LASF110
 18081 0610 15       		.sleb128 21
 18082 0611 14       		.uleb128 0x14
 18083 0612 70010000 		.4byte	.LASF111
 18084 0616 16       		.sleb128 22
 18085 0617 14       		.uleb128 0x14
 18086 0618 560C0000 		.4byte	.LASF112
 18087 061c 17       		.sleb128 23
 18088 061d 14       		.uleb128 0x14
 18089 061e 0B0B0000 		.4byte	.LASF113
 18090 0622 18       		.sleb128 24
 18091 0623 14       		.uleb128 0x14
 18092 0624 12010000 		.4byte	.LASF114
 18093 0628 19       		.sleb128 25
 18094 0629 14       		.uleb128 0x14
 18095 062a F90B0000 		.4byte	.LASF115
 18096 062e 1A       		.sleb128 26
 18097 062f 14       		.uleb128 0x14
 18098 0630 FF060000 		.4byte	.LASF116
 18099 0634 1B       		.sleb128 27
 18100 0635 14       		.uleb128 0x14
 18101 0636 C0000000 		.4byte	.LASF117
 18102 063a 1C       		.sleb128 28
 18103 063b 14       		.uleb128 0x14
 18104 063c D8010000 		.4byte	.LASF118
 18105 0640 1D       		.sleb128 29
 18106 0641 14       		.uleb128 0x14
 18107 0642 EC0C0000 		.4byte	.LASF119
 18108 0646 1E       		.sleb128 30
 18109 0647 14       		.uleb128 0x14
 18110 0648 BF050000 		.4byte	.LASF120
 18111 064c 1F       		.sleb128 31
 18112 064d 14       		.uleb128 0x14
 18113 064e 07020000 		.4byte	.LASF121
 18114 0652 20       		.sleb128 32
 18115 0653 14       		.uleb128 0x14
 18116 0654 94050000 		.4byte	.LASF122
 18117 0658 21       		.sleb128 33
 18118 0659 14       		.uleb128 0x14
 18119 065a 40060000 		.4byte	.LASF123
 18120 065e 22       		.sleb128 34
 18121 065f 14       		.uleb128 0x14
 18122 0660 0A0E0000 		.4byte	.LASF124
 18123 0664 23       		.sleb128 35
 18124 0665 14       		.uleb128 0x14
 18125 0666 E50C0000 		.4byte	.LASF125
 18126 066a 24       		.sleb128 36
ARM GAS  /tmp/ccvHIMcj.s 			page 320


 18127 066b 14       		.uleb128 0x14
 18128 066c 5E0F0000 		.4byte	.LASF126
 18129 0670 25       		.sleb128 37
 18130 0671 14       		.uleb128 0x14
 18131 0672 770F0000 		.4byte	.LASF127
 18132 0676 26       		.sleb128 38
 18133 0677 14       		.uleb128 0x14
 18134 0678 A1070000 		.4byte	.LASF128
 18135 067c 27       		.sleb128 39
 18136 067d 14       		.uleb128 0x14
 18137 067e 96010000 		.4byte	.LASF129
 18138 0682 28       		.sleb128 40
 18139 0683 14       		.uleb128 0x14
 18140 0684 910C0000 		.4byte	.LASF130
 18141 0688 29       		.sleb128 41
 18142 0689 14       		.uleb128 0x14
 18143 068a CF050000 		.4byte	.LASF131
 18144 068e 2A       		.sleb128 42
 18145 068f 14       		.uleb128 0x14
 18146 0690 98090000 		.4byte	.LASF132
 18147 0694 2B       		.sleb128 43
 18148 0695 14       		.uleb128 0x14
 18149 0696 AF080000 		.4byte	.LASF133
 18150 069a 2C       		.sleb128 44
 18151 069b 14       		.uleb128 0x14
 18152 069c 0E0D0000 		.4byte	.LASF134
 18153 06a0 2D       		.sleb128 45
 18154 06a1 14       		.uleb128 0x14
 18155 06a2 1B030000 		.4byte	.LASF135
 18156 06a6 2E       		.sleb128 46
 18157 06a7 14       		.uleb128 0x14
 18158 06a8 46080000 		.4byte	.LASF136
 18159 06ac 2F       		.sleb128 47
 18160 06ad 14       		.uleb128 0x14
 18161 06ae 39060000 		.4byte	.LASF137
 18162 06b2 30       		.sleb128 48
 18163 06b3 14       		.uleb128 0x14
 18164 06b4 E4060000 		.4byte	.LASF138
 18165 06b8 31       		.sleb128 49
 18166 06b9 14       		.uleb128 0x14
 18167 06ba 8A0C0000 		.4byte	.LASF139
 18168 06be 32       		.sleb128 50
 18169 06bf 14       		.uleb128 0x14
 18170 06c0 DB020000 		.4byte	.LASF140
 18171 06c4 33       		.sleb128 51
 18172 06c5 14       		.uleb128 0x14
 18173 06c6 1E0E0000 		.4byte	.LASF141
 18174 06ca 34       		.sleb128 52
 18175 06cb 14       		.uleb128 0x14
 18176 06cc BA0C0000 		.4byte	.LASF142
 18177 06d0 35       		.sleb128 53
 18178 06d1 14       		.uleb128 0x14
 18179 06d2 24010000 		.4byte	.LASF143
 18180 06d6 36       		.sleb128 54
 18181 06d7 14       		.uleb128 0x14
 18182 06d8 06080000 		.4byte	.LASF144
 18183 06dc 37       		.sleb128 55
ARM GAS  /tmp/ccvHIMcj.s 			page 321


 18184 06dd 14       		.uleb128 0x14
 18185 06de 70060000 		.4byte	.LASF145
 18186 06e2 38       		.sleb128 56
 18187 06e3 14       		.uleb128 0x14
 18188 06e4 20080000 		.4byte	.LASF146
 18189 06e8 39       		.sleb128 57
 18190 06e9 14       		.uleb128 0x14
 18191 06ea E70A0000 		.4byte	.LASF147
 18192 06ee 3A       		.sleb128 58
 18193 06ef 14       		.uleb128 0x14
 18194 06f0 F20A0000 		.4byte	.LASF148
 18195 06f4 3B       		.sleb128 59
 18196 06f5 14       		.uleb128 0x14
 18197 06f6 660B0000 		.4byte	.LASF149
 18198 06fa 3C       		.sleb128 60
 18199 06fb 14       		.uleb128 0x14
 18200 06fc D0020000 		.4byte	.LASF150
 18201 0700 3D       		.sleb128 61
 18202 0701 14       		.uleb128 0x14
 18203 0702 4C080000 		.4byte	.LASF151
 18204 0706 3E       		.sleb128 62
 18205 0707 14       		.uleb128 0x14
 18206 0708 7E0B0000 		.4byte	.LASF152
 18207 070c 3F       		.sleb128 63
 18208 070d 14       		.uleb128 0x14
 18209 070e E70B0000 		.4byte	.LASF153
 18210 0712 C000     		.sleb128 64
 18211 0714 14       		.uleb128 0x14
 18212 0715 4B000000 		.4byte	.LASF154
 18213 0719 C100     		.sleb128 65
 18214 071b 14       		.uleb128 0x14
 18215 071c 1F040000 		.4byte	.LASF155
 18216 0720 C200     		.sleb128 66
 18217 0722 14       		.uleb128 0x14
 18218 0723 E6030000 		.4byte	.LASF156
 18219 0727 C300     		.sleb128 67
 18220 0729 14       		.uleb128 0x14
 18221 072a A10A0000 		.4byte	.LASF157
 18222 072e C400     		.sleb128 68
 18223 0730 14       		.uleb128 0x14
 18224 0731 45070000 		.4byte	.LASF158
 18225 0735 C500     		.sleb128 69
 18226 0737 14       		.uleb128 0x14
 18227 0738 20090000 		.4byte	.LASF159
 18228 073c C600     		.sleb128 70
 18229 073e 14       		.uleb128 0x14
 18230 073f 74090000 		.4byte	.LASF160
 18231 0743 C700     		.sleb128 71
 18232 0745 14       		.uleb128 0x14
 18233 0746 EE030000 		.4byte	.LASF161
 18234 074a C800     		.sleb128 72
 18235 074c 14       		.uleb128 0x14
 18236 074d 45040000 		.4byte	.LASF162
 18237 0751 C900     		.sleb128 73
 18238 0753 14       		.uleb128 0x14
 18239 0754 430D0000 		.4byte	.LASF163
 18240 0758 CA00     		.sleb128 74
ARM GAS  /tmp/ccvHIMcj.s 			page 322


 18241 075a 14       		.uleb128 0x14
 18242 075b FB010000 		.4byte	.LASF164
 18243 075f CB00     		.sleb128 75
 18244 0761 14       		.uleb128 0x14
 18245 0762 A7030000 		.4byte	.LASF165
 18246 0766 CC00     		.sleb128 76
 18247 0768 14       		.uleb128 0x14
 18248 0769 76050000 		.4byte	.LASF166
 18249 076d CD00     		.sleb128 77
 18250 076f 14       		.uleb128 0x14
 18251 0770 5B030000 		.4byte	.LASF167
 18252 0774 CE00     		.sleb128 78
 18253 0776 14       		.uleb128 0x14
 18254 0777 EB060000 		.4byte	.LASF168
 18255 077b CF00     		.sleb128 79
 18256 077d 14       		.uleb128 0x14
 18257 077e 220B0000 		.4byte	.LASF169
 18258 0782 D000     		.sleb128 80
 18259 0784 14       		.uleb128 0x14
 18260 0785 3D030000 		.4byte	.LASF170
 18261 0789 D100     		.sleb128 81
 18262 078b 14       		.uleb128 0x14
 18263 078c EF0B0000 		.4byte	.LASF171
 18264 0790 D200     		.sleb128 82
 18265 0792 14       		.uleb128 0x14
 18266 0793 540A0000 		.4byte	.LASF172
 18267 0797 D300     		.sleb128 83
 18268 0799 14       		.uleb128 0x14
 18269 079a 21000000 		.4byte	.LASF173
 18270 079e D400     		.sleb128 84
 18271 07a0 14       		.uleb128 0x14
 18272 07a1 C8040000 		.4byte	.LASF174
 18273 07a5 D500     		.sleb128 85
 18274 07a7 14       		.uleb128 0x14
 18275 07a8 1A050000 		.4byte	.LASF175
 18276 07ac D600     		.sleb128 86
 18277 07ae 14       		.uleb128 0x14
 18278 07af 10050000 		.4byte	.LASF176
 18279 07b3 D700     		.sleb128 87
 18280 07b5 14       		.uleb128 0x14
 18281 07b6 C60B0000 		.4byte	.LASF177
 18282 07ba D800     		.sleb128 88
 18283 07bc 14       		.uleb128 0x14
 18284 07bd 8A030000 		.4byte	.LASF178
 18285 07c1 D900     		.sleb128 89
 18286 07c3 14       		.uleb128 0x14
 18287 07c4 B20A0000 		.4byte	.LASF179
 18288 07c8 DA00     		.sleb128 90
 18289 07ca 14       		.uleb128 0x14
 18290 07cb 690D0000 		.4byte	.LASF180
 18291 07cf DB00     		.sleb128 91
 18292 07d1 14       		.uleb128 0x14
 18293 07d2 F9020000 		.4byte	.LASF181
 18294 07d6 DC00     		.sleb128 92
 18295 07d8 14       		.uleb128 0x14
 18296 07d9 DB070000 		.4byte	.LASF182
 18297 07dd DD00     		.sleb128 93
ARM GAS  /tmp/ccvHIMcj.s 			page 323


 18298 07df 14       		.uleb128 0x14
 18299 07e0 E3050000 		.4byte	.LASF183
 18300 07e4 DE00     		.sleb128 94
 18301 07e6 14       		.uleb128 0x14
 18302 07e7 55040000 		.4byte	.LASF184
 18303 07eb DF00     		.sleb128 95
 18304 07ed 14       		.uleb128 0x14
 18305 07ee AF0B0000 		.4byte	.LASF185
 18306 07f2 E000     		.sleb128 96
 18307 07f4 14       		.uleb128 0x14
 18308 07f5 E0010000 		.4byte	.LASF186
 18309 07f9 E100     		.sleb128 97
 18310 07fb 14       		.uleb128 0x14
 18311 07fc 730A0000 		.4byte	.LASF187
 18312 0800 E200     		.sleb128 98
 18313 0802 14       		.uleb128 0x14
 18314 0803 680A0000 		.4byte	.LASF188
 18315 0807 E300     		.sleb128 99
 18316 0809 14       		.uleb128 0x14
 18317 080a B1010000 		.4byte	.LASF189
 18318 080e E400     		.sleb128 100
 18319 0810 14       		.uleb128 0x14
 18320 0811 70000000 		.4byte	.LASF190
 18321 0815 E500     		.sleb128 101
 18322 0817 14       		.uleb128 0x14
 18323 0818 090C0000 		.4byte	.LASF191
 18324 081c E600     		.sleb128 102
 18325 081e 14       		.uleb128 0x14
 18326 081f 48060000 		.4byte	.LASF192
 18327 0823 E700     		.sleb128 103
 18328 0825 14       		.uleb128 0x14
 18329 0826 D3090000 		.4byte	.LASF193
 18330 082a E800     		.sleb128 104
 18331 082c 14       		.uleb128 0x14
 18332 082d 87020000 		.4byte	.LASF194
 18333 0831 E900     		.sleb128 105
 18334 0833 14       		.uleb128 0x14
 18335 0834 150D0000 		.4byte	.LASF195
 18336 0838 EA00     		.sleb128 106
 18337 083a 14       		.uleb128 0x14
 18338 083b 64070000 		.4byte	.LASF196
 18339 083f EB00     		.sleb128 107
 18340 0841 14       		.uleb128 0x14
 18341 0842 D7050000 		.4byte	.LASF197
 18342 0846 EC00     		.sleb128 108
 18343 0848 14       		.uleb128 0x14
 18344 0849 A60B0000 		.4byte	.LASF198
 18345 084d ED00     		.sleb128 109
 18346 084f 14       		.uleb128 0x14
 18347 0850 32020000 		.4byte	.LASF199
 18348 0854 EE00     		.sleb128 110
 18349 0856 14       		.uleb128 0x14
 18350 0857 FA030000 		.4byte	.LASF200
 18351 085b EF00     		.sleb128 111
 18352 085d 14       		.uleb128 0x14
 18353 085e 39020000 		.4byte	.LASF201
 18354 0862 F000     		.sleb128 112
ARM GAS  /tmp/ccvHIMcj.s 			page 324


 18355 0864 14       		.uleb128 0x14
 18356 0865 80000000 		.4byte	.LASF202
 18357 0869 F100     		.sleb128 113
 18358 086b 14       		.uleb128 0x14
 18359 086c 45020000 		.4byte	.LASF203
 18360 0870 F200     		.sleb128 114
 18361 0872 14       		.uleb128 0x14
 18362 0873 B5000000 		.4byte	.LASF204
 18363 0877 F300     		.sleb128 115
 18364 0879 14       		.uleb128 0x14
 18365 087a E4080000 		.4byte	.LASF205
 18366 087e F400     		.sleb128 116
 18367 0880 14       		.uleb128 0x14
 18368 0881 B4030000 		.4byte	.LASF206
 18369 0885 F500     		.sleb128 117
 18370 0887 14       		.uleb128 0x14
 18371 0888 13040000 		.4byte	.LASF207
 18372 088c F600     		.sleb128 118
 18373 088e 14       		.uleb128 0x14
 18374 088f 4B0F0000 		.4byte	.LASF208
 18375 0893 F700     		.sleb128 119
 18376 0895 14       		.uleb128 0x14
 18377 0896 5F0A0000 		.4byte	.LASF209
 18378 089a F800     		.sleb128 120
 18379 089c 14       		.uleb128 0x14
 18380 089d AD060000 		.4byte	.LASF210
 18381 08a1 F900     		.sleb128 121
 18382 08a3 14       		.uleb128 0x14
 18383 08a4 650F0000 		.4byte	.LASF211
 18384 08a8 FA00     		.sleb128 122
 18385 08aa 14       		.uleb128 0x14
 18386 08ab 8F0D0000 		.4byte	.LASF212
 18387 08af FB00     		.sleb128 123
 18388 08b1 14       		.uleb128 0x14
 18389 08b2 9E040000 		.4byte	.LASF213
 18390 08b6 FC00     		.sleb128 124
 18391 08b8 14       		.uleb128 0x14
 18392 08b9 FD0A0000 		.4byte	.LASF214
 18393 08bd FD00     		.sleb128 125
 18394 08bf 14       		.uleb128 0x14
 18395 08c0 60060000 		.4byte	.LASF215
 18396 08c4 FE00     		.sleb128 126
 18397 08c6 14       		.uleb128 0x14
 18398 08c7 2D010000 		.4byte	.LASF216
 18399 08cb FF00     		.sleb128 127
 18400 08cd 14       		.uleb128 0x14
 18401 08ce AF050000 		.4byte	.LASF217
 18402 08d2 8001     		.sleb128 128
 18403 08d4 14       		.uleb128 0x14
 18404 08d5 99000000 		.4byte	.LASF218
 18405 08d9 8101     		.sleb128 129
 18406 08db 14       		.uleb128 0x14
 18407 08dc 5B0E0000 		.4byte	.LASF219
 18408 08e0 8201     		.sleb128 130
 18409 08e2 14       		.uleb128 0x14
 18410 08e3 9C0F0000 		.4byte	.LASF220
 18411 08e7 8301     		.sleb128 131
ARM GAS  /tmp/ccvHIMcj.s 			page 325


 18412 08e9 14       		.uleb128 0x14
 18413 08ea 2C0A0000 		.4byte	.LASF221
 18414 08ee 8401     		.sleb128 132
 18415 08f0 14       		.uleb128 0x14
 18416 08f1 FE000000 		.4byte	.LASF222
 18417 08f5 8501     		.sleb128 133
 18418 08f7 14       		.uleb128 0x14
 18419 08f8 760D0000 		.4byte	.LASF223
 18420 08fc 8601     		.sleb128 134
 18421 08fe 14       		.uleb128 0x14
 18422 08ff 0F020000 		.4byte	.LASF224
 18423 0903 8701     		.sleb128 135
 18424 0905 14       		.uleb128 0x14
 18425 0906 95070000 		.4byte	.LASF225
 18426 090a 8801     		.sleb128 136
 18427 090c 14       		.uleb128 0x14
 18428 090d FD080000 		.4byte	.LASF226
 18429 0911 8901     		.sleb128 137
 18430 0913 14       		.uleb128 0x14
 18431 0914 950A0000 		.4byte	.LASF227
 18432 0918 8A01     		.sleb128 138
 18433 091a 14       		.uleb128 0x14
 18434 091b A9000000 		.4byte	.LASF228
 18435 091f 8B01     		.sleb128 139
 18436 0921 14       		.uleb128 0x14
 18437 0922 2A090000 		.4byte	.LASF229
 18438 0926 8C01     		.sleb128 140
 18439 0928 14       		.uleb128 0x14
 18440 0929 36070000 		.4byte	.LASF230
 18441 092d 8D01     		.sleb128 141
 18442 092f 14       		.uleb128 0x14
 18443 0930 040F0000 		.4byte	.LASF231
 18444 0934 8E01     		.sleb128 142
 18445 0936 14       		.uleb128 0x14
 18446 0937 06050000 		.4byte	.LASF232
 18447 093b 8F01     		.sleb128 143
 18448 093d 14       		.uleb128 0x14
 18449 093e F2000000 		.4byte	.LASF233
 18450 0942 9001     		.sleb128 144
 18451 0944 14       		.uleb128 0x14
 18452 0945 39090000 		.4byte	.LASF234
 18453 0949 9101     		.sleb128 145
 18454 094b 14       		.uleb128 0x14
 18455 094c 39080000 		.4byte	.LASF235
 18456 0950 9201     		.sleb128 146
 18457 0952 14       		.uleb128 0x14
 18458 0953 A2080000 		.4byte	.LASF236
 18459 0957 9301     		.sleb128 147
 18460 0959 14       		.uleb128 0x14
 18461 095a AC090000 		.4byte	.LASF237
 18462 095e 9401     		.sleb128 148
 18463 0960 14       		.uleb128 0x14
 18464 0961 2F040000 		.4byte	.LASF238
 18465 0965 9501     		.sleb128 149
 18466 0967 14       		.uleb128 0x14
 18467 0968 9C030000 		.4byte	.LASF239
 18468 096c 9601     		.sleb128 150
ARM GAS  /tmp/ccvHIMcj.s 			page 326


 18469 096e 14       		.uleb128 0x14
 18470 096f 75040000 		.4byte	.LASF240
 18471 0973 9701     		.sleb128 151
 18472 0975 14       		.uleb128 0x14
 18473 0976 CA0C0000 		.4byte	.LASF241
 18474 097a 9801     		.sleb128 152
 18475 097c 14       		.uleb128 0x14
 18476 097d 8B000000 		.4byte	.LASF242
 18477 0981 9901     		.sleb128 153
 18478 0983 14       		.uleb128 0x14
 18479 0984 7A070000 		.4byte	.LASF243
 18480 0988 9A01     		.sleb128 154
 18481 098a 14       		.uleb128 0x14
 18482 098b 3B0F0000 		.4byte	.LASF244
 18483 098f 9B01     		.sleb128 155
 18484 0991 14       		.uleb128 0x14
 18485 0992 540B0000 		.4byte	.LASF245
 18486 0996 9C01     		.sleb128 156
 18487 0998 14       		.uleb128 0x14
 18488 0999 670E0000 		.4byte	.LASF246
 18489 099d 9D01     		.sleb128 157
 18490 099f 14       		.uleb128 0x14
 18491 09a0 65090000 		.4byte	.LASF247
 18492 09a4 9E01     		.sleb128 158
 18493 09a6 14       		.uleb128 0x14
 18494 09a7 D7030000 		.4byte	.LASF248
 18495 09ab 9F01     		.sleb128 159
 18496 09ad 14       		.uleb128 0x14
 18497 09ae 860E0000 		.4byte	.LASF249
 18498 09b2 A001     		.sleb128 160
 18499 09b4 14       		.uleb128 0x14
 18500 09b5 36050000 		.4byte	.LASF250
 18501 09b9 A101     		.sleb128 161
 18502 09bb 14       		.uleb128 0x14
 18503 09bc 7D020000 		.4byte	.LASF251
 18504 09c0 A201     		.sleb128 162
 18505 09c2 14       		.uleb128 0x14
 18506 09c3 A0090000 		.4byte	.LASF252
 18507 09c7 A301     		.sleb128 163
 18508 09c9 14       		.uleb128 0x14
 18509 09ca 62000000 		.4byte	.LASF253
 18510 09ce A401     		.sleb128 164
 18511 09d0 14       		.uleb128 0x14
 18512 09d1 310B0000 		.4byte	.LASF254
 18513 09d5 A501     		.sleb128 165
 18514 09d7 14       		.uleb128 0x14
 18515 09d8 900B0000 		.4byte	.LASF255
 18516 09dc A601     		.sleb128 166
 18517 09de 14       		.uleb128 0x14
 18518 09df 59070000 		.4byte	.LASF256
 18519 09e3 A701     		.sleb128 167
 18520 09e5 14       		.uleb128 0x14
 18521 09e6 E60F0000 		.4byte	.LASF257
 18522 09ea A801     		.sleb128 168
 18523 09ec 14       		.uleb128 0x14
 18524 09ed 910E0000 		.4byte	.LASF258
 18525 09f1 A901     		.sleb128 169
ARM GAS  /tmp/ccvHIMcj.s 			page 327


 18526 09f3 14       		.uleb128 0x14
 18527 09f4 BB090000 		.4byte	.LASF259
 18528 09f8 AA01     		.sleb128 170
 18529 09fa 14       		.uleb128 0x14
 18530 09fb 000E0000 		.4byte	.LASF260
 18531 09ff AB01     		.sleb128 171
 18532 0a01 14       		.uleb128 0x14
 18533 0a02 BF0F0000 		.4byte	.LASF261
 18534 0a06 AC01     		.sleb128 172
 18535 0a08 14       		.uleb128 0x14
 18536 0a09 51030000 		.4byte	.LASF262
 18537 0a0d AD01     		.sleb128 173
 18538 0a0f 14       		.uleb128 0x14
 18539 0a10 B6040000 		.4byte	.LASF263
 18540 0a14 AE01     		.sleb128 174
 18541 0a16 14       		.uleb128 0x14
 18542 0a17 2A060000 		.4byte	.LASF264
 18543 0a1b AF01     		.sleb128 175
 18544 0a1d 00       		.byte	0x0
 18545 0a1e 06       		.uleb128 0x6
 18546 0a1f 340F0000 		.4byte	.LASF265
 18547 0a23 01       		.byte	0x1
 18548 0a24 7F01     		.2byte	0x17f
 18549 0a26 85050000 		.4byte	0x585
 18550 0a2a 16       		.uleb128 0x16
 18551 0a2b 01       		.byte	0x1
 18552 0a2c 7F0A0000 		.4byte	.LASF267
 18553 0a30 01       		.byte	0x1
 18554 0a31 2106     		.2byte	0x621
 18555 0a33 01       		.byte	0x1
 18556 0a34 2B000000 		.4byte	0x2b
 18557 0a38 01       		.byte	0x1
 18558 0a39 620A0000 		.4byte	0xa62
 18559 0a3d 17       		.uleb128 0x17
 18560 0a3e 616D7800 		.ascii	"amx\000"
 18561 0a42 01       		.byte	0x1
 18562 0a43 2106     		.2byte	0x621
 18563 0a45 620A0000 		.4byte	0xa62
 18564 0a49 18       		.uleb128 0x18
 18565 0a4a 4F0C0000 		.4byte	.LASF266
 18566 0a4e 01       		.byte	0x1
 18567 0a4f 2106     		.2byte	0x621
 18568 0a51 680A0000 		.4byte	0xa68
 18569 0a55 19       		.uleb128 0x19
 18570 0a56 68647200 		.ascii	"hdr\000"
 18571 0a5a 01       		.byte	0x1
 18572 0a5b 2306     		.2byte	0x623
 18573 0a5d 6E0A0000 		.4byte	0xa6e
 18574 0a61 00       		.byte	0x0
 18575 0a62 07       		.uleb128 0x7
 18576 0a63 04       		.byte	0x4
 18577 0a64 A5030000 		.4byte	0x3a5
 18578 0a68 07       		.uleb128 0x7
 18579 0a69 04       		.byte	0x4
 18580 0a6a 2B000000 		.4byte	0x2b
 18581 0a6e 07       		.uleb128 0x7
 18582 0a6f 04       		.byte	0x4
ARM GAS  /tmp/ccvHIMcj.s 			page 328


 18583 0a70 CD040000 		.4byte	0x4cd
 18584 0a74 16       		.uleb128 0x16
 18585 0a75 01       		.byte	0x1
 18586 0a76 CA0A0000 		.4byte	.LASF268
 18587 0a7a 01       		.byte	0x1
 18588 0a7b 5006     		.2byte	0x650
 18589 0a7d 01       		.byte	0x1
 18590 0a7e 2B000000 		.4byte	0x2b
 18591 0a82 01       		.byte	0x1
 18592 0a83 AC0A0000 		.4byte	0xaac
 18593 0a87 17       		.uleb128 0x17
 18594 0a88 616D7800 		.ascii	"amx\000"
 18595 0a8c 01       		.byte	0x1
 18596 0a8d 5006     		.2byte	0x650
 18597 0a8f 620A0000 		.4byte	0xa62
 18598 0a93 18       		.uleb128 0x18
 18599 0a94 4F0C0000 		.4byte	.LASF266
 18600 0a98 01       		.byte	0x1
 18601 0a99 5006     		.2byte	0x650
 18602 0a9b 680A0000 		.4byte	0xa68
 18603 0a9f 19       		.uleb128 0x19
 18604 0aa0 68647200 		.ascii	"hdr\000"
 18605 0aa4 01       		.byte	0x1
 18606 0aa5 5206     		.2byte	0x652
 18607 0aa7 6E0A0000 		.4byte	0xa6e
 18608 0aab 00       		.byte	0x0
 18609 0aac 16       		.uleb128 0x16
 18610 0aad 01       		.byte	0x1
 18611 0aae 400C0000 		.4byte	.LASF269
 18612 0ab2 01       		.byte	0x1
 18613 0ab3 8D06     		.2byte	0x68d
 18614 0ab5 01       		.byte	0x1
 18615 0ab6 2B000000 		.4byte	0x2b
 18616 0aba 01       		.byte	0x1
 18617 0abb E40A0000 		.4byte	0xae4
 18618 0abf 17       		.uleb128 0x17
 18619 0ac0 616D7800 		.ascii	"amx\000"
 18620 0ac4 01       		.byte	0x1
 18621 0ac5 8D06     		.2byte	0x68d
 18622 0ac7 620A0000 		.4byte	0xa62
 18623 0acb 18       		.uleb128 0x18
 18624 0acc 4F0C0000 		.4byte	.LASF266
 18625 0ad0 01       		.byte	0x1
 18626 0ad1 8D06     		.2byte	0x68d
 18627 0ad3 680A0000 		.4byte	0xa68
 18628 0ad7 19       		.uleb128 0x19
 18629 0ad8 68647200 		.ascii	"hdr\000"
 18630 0adc 01       		.byte	0x1
 18631 0add 8F06     		.2byte	0x68f
 18632 0adf 6E0A0000 		.4byte	0xa6e
 18633 0ae3 00       		.byte	0x0
 18634 0ae4 1A       		.uleb128 0x1a
 18635 0ae5 D20B0000 		.4byte	.LASF372
 18636 0ae9 01       		.byte	0x1
 18637 0aea 4C07     		.2byte	0x74c
 18638 0aec 01       		.byte	0x1
 18639 0aed F3000000 		.4byte	0xf3
ARM GAS  /tmp/ccvHIMcj.s 			page 329


 18640 0af1 01       		.byte	0x1
 18641 0af2 250B0000 		.4byte	0xb25
 18642 0af6 18       		.uleb128 0x18
 18643 0af7 6B0C0000 		.4byte	.LASF41
 18644 0afb 01       		.byte	0x1
 18645 0afc 4C07     		.2byte	0x74c
 18646 0afe 8E000000 		.4byte	0x8e
 18647 0b02 18       		.uleb128 0x18
 18648 0b03 E5020000 		.4byte	.LASF270
 18649 0b07 01       		.byte	0x1
 18650 0b08 4C07     		.2byte	0x74c
 18651 0b0a 250B0000 		.4byte	0xb25
 18652 0b0e 18       		.uleb128 0x18
 18653 0b0f 4F0C0000 		.4byte	.LASF266
 18654 0b13 01       		.byte	0x1
 18655 0b14 4C07     		.2byte	0x74c
 18656 0b16 2B000000 		.4byte	0x2b
 18657 0b1a 19       		.uleb128 0x19
 18658 0b1b 6900     		.ascii	"i\000"
 18659 0b1d 01       		.byte	0x1
 18660 0b1e 4E07     		.2byte	0x74e
 18661 0b20 2B000000 		.4byte	0x2b
 18662 0b24 00       		.byte	0x0
 18663 0b25 07       		.uleb128 0x7
 18664 0b26 04       		.byte	0x4
 18665 0b27 2B0B0000 		.4byte	0xb2b
 18666 0b2b 08       		.uleb128 0x8
 18667 0b2c 46030000 		.4byte	0x346
 18668 0b30 16       		.uleb128 0x16
 18669 0b31 01       		.byte	0x1
 18670 0b32 3C040000 		.4byte	.LASF271
 18671 0b36 01       		.byte	0x1
 18672 0b37 8707     		.2byte	0x787
 18673 0b39 01       		.byte	0x1
 18674 0b3a 2B000000 		.4byte	0x2b
 18675 0b3e 01       		.byte	0x1
 18676 0b3f 740B0000 		.4byte	0xb74
 18677 0b43 17       		.uleb128 0x17
 18678 0b44 616D7800 		.ascii	"amx\000"
 18679 0b48 01       		.byte	0x1
 18680 0b49 8707     		.2byte	0x787
 18681 0b4b 620A0000 		.4byte	0xa62
 18682 0b4f 18       		.uleb128 0x18
 18683 0b50 C2040000 		.4byte	.LASF272
 18684 0b54 01       		.byte	0x1
 18685 0b55 8707     		.2byte	0x787
 18686 0b57 E8000000 		.4byte	0xe8
 18687 0b5b 19       		.uleb128 0x19
 18688 0b5c 68647200 		.ascii	"hdr\000"
 18689 0b60 01       		.byte	0x1
 18690 0b61 8907     		.2byte	0x789
 18691 0b63 6E0A0000 		.4byte	0xa6e
 18692 0b67 1B       		.uleb128 0x1b
 18693 0b68 17070000 		.4byte	.LASF22
 18694 0b6c 01       		.byte	0x1
 18695 0b6d 8A07     		.2byte	0x78a
 18696 0b6f 88000000 		.4byte	0x88
ARM GAS  /tmp/ccvHIMcj.s 			page 330


 18697 0b73 00       		.byte	0x0
 18698 0b74 16       		.uleb128 0x16
 18699 0b75 01       		.byte	0x1
 18700 0b76 8A090000 		.4byte	.LASF273
 18701 0b7a 01       		.byte	0x1
 18702 0b7b 0508     		.2byte	0x805
 18703 0b7d 01       		.byte	0x1
 18704 0b7e 2B000000 		.4byte	0x2b
 18705 0b82 01       		.byte	0x1
 18706 0b83 AC0B0000 		.4byte	0xbac
 18707 0b87 17       		.uleb128 0x17
 18708 0b88 616D7800 		.ascii	"amx\000"
 18709 0b8c 01       		.byte	0x1
 18710 0b8d 0508     		.2byte	0x805
 18711 0b8f 620A0000 		.4byte	0xa62
 18712 0b93 18       		.uleb128 0x18
 18713 0b94 B2070000 		.4byte	.LASF274
 18714 0b98 01       		.byte	0x1
 18715 0b99 0508     		.2byte	0x805
 18716 0b9b AC0B0000 		.4byte	0xbac
 18717 0b9f 18       		.uleb128 0x18
 18718 0ba0 7C010000 		.4byte	.LASF275
 18719 0ba4 01       		.byte	0x1
 18720 0ba5 0508     		.2byte	0x805
 18721 0ba7 680A0000 		.4byte	0xa68
 18722 0bab 00       		.byte	0x0
 18723 0bac 07       		.uleb128 0x7
 18724 0bad 04       		.byte	0x4
 18725 0bae 95020000 		.4byte	0x295
 18726 0bb2 16       		.uleb128 0x16
 18727 0bb3 01       		.byte	0x1
 18728 0bb4 E3040000 		.4byte	.LASF276
 18729 0bb8 01       		.byte	0x1
 18730 0bb9 DF01     		.2byte	0x1df
 18731 0bbb 01       		.byte	0x1
 18732 0bbc D00B0000 		.4byte	0xbd0
 18733 0bc0 01       		.byte	0x1
 18734 0bc1 D00B0000 		.4byte	0xbd0
 18735 0bc5 17       		.uleb128 0x17
 18736 0bc6 7600     		.ascii	"v\000"
 18737 0bc8 01       		.byte	0x1
 18738 0bc9 DF01     		.2byte	0x1df
 18739 0bcb D00B0000 		.4byte	0xbd0
 18740 0bcf 00       		.byte	0x0
 18741 0bd0 07       		.uleb128 0x7
 18742 0bd1 04       		.byte	0x4
 18743 0bd2 C7000000 		.4byte	0xc7
 18744 0bd6 16       		.uleb128 0x16
 18745 0bd7 01       		.byte	0x1
 18746 0bd8 AB020000 		.4byte	.LASF277
 18747 0bdc 01       		.byte	0x1
 18748 0bdd D501     		.2byte	0x1d5
 18749 0bdf 01       		.byte	0x1
 18750 0be0 F40B0000 		.4byte	0xbf4
 18751 0be4 01       		.byte	0x1
 18752 0be5 F40B0000 		.4byte	0xbf4
 18753 0be9 17       		.uleb128 0x17
ARM GAS  /tmp/ccvHIMcj.s 			page 331


 18754 0bea 7600     		.ascii	"v\000"
 18755 0bec 01       		.byte	0x1
 18756 0bed D501     		.2byte	0x1d5
 18757 0bef F40B0000 		.4byte	0xbf4
 18758 0bf3 00       		.byte	0x0
 18759 0bf4 07       		.uleb128 0x7
 18760 0bf5 04       		.byte	0x4
 18761 0bf6 B1000000 		.4byte	0xb1
 18762 0bfa 1C       		.uleb128 0x1c
 18763 0bfb 01       		.byte	0x1
 18764 0bfc 4E0D0000 		.4byte	.LASF288
 18765 0c00 01       		.byte	0x1
 18766 0c01 0902     		.2byte	0x209
 18767 0c03 01       		.byte	0x1
 18768 0c04 2B000000 		.4byte	0x2b
 18769 0c08 00000000 		.4byte	.LFB4
 18770 0c0c 64000000 		.4byte	.LFE4
 18771 0c10 00000000 		.4byte	.LLST0
 18772 0c14 AB0C0000 		.4byte	0xcab
 18773 0c18 1D       		.uleb128 0x1d
 18774 0c19 616D7800 		.ascii	"amx\000"
 18775 0c1d 01       		.byte	0x1
 18776 0c1e 0902     		.2byte	0x209
 18777 0c20 620A0000 		.4byte	0xa62
 18778 0c24 20000000 		.4byte	.LLST1
 18779 0c28 1E       		.uleb128 0x1e
 18780 0c29 72030000 		.4byte	.LASF278
 18781 0c2d 01       		.byte	0x1
 18782 0c2e 0902     		.2byte	0x209
 18783 0c30 E8000000 		.4byte	0xe8
 18784 0c34 3E000000 		.4byte	.LLST2
 18785 0c38 1E       		.uleb128 0x1e
 18786 0c39 95030000 		.4byte	.LASF279
 18787 0c3d 01       		.byte	0x1
 18788 0c3e 0902     		.2byte	0x209
 18789 0c40 D0020000 		.4byte	0x2d0
 18790 0c44 6A000000 		.4byte	.LLST3
 18791 0c48 1E       		.uleb128 0x1e
 18792 0c49 EF040000 		.4byte	.LASF280
 18793 0c4d 01       		.byte	0x1
 18794 0c4e 0902     		.2byte	0x209
 18795 0c50 95020000 		.4byte	0x295
 18796 0c54 88000000 		.4byte	.LLST4
 18797 0c58 1F       		.uleb128 0x1f
 18798 0c59 C5090000 		.4byte	.LASF368
 18799 0c5d 01       		.byte	0x1
 18800 0c5e 0C02     		.2byte	0x20c
 18801 0c60 B60C0000 		.4byte	0xcb6
 18802 0c64 01       		.byte	0x1
 18803 0c65 01       		.byte	0x1
 18804 0c66 20       		.uleb128 0x20
 18805 0c67 68647200 		.ascii	"hdr\000"
 18806 0c6b 01       		.byte	0x1
 18807 0c6c 0E02     		.2byte	0x20e
 18808 0c6e 6E0A0000 		.4byte	0xa6e
 18809 0c72 A6000000 		.4byte	.LLST5
 18810 0c76 1B       		.uleb128 0x1b
ARM GAS  /tmp/ccvHIMcj.s 			page 332


 18811 0c77 54020000 		.4byte	.LASF42
 18812 0c7b 01       		.byte	0x1
 18813 0c7c 0F02     		.2byte	0x20f
 18814 0c7e BB0C0000 		.4byte	0xcbb
 18815 0c82 20       		.uleb128 0x20
 18816 0c83 6600     		.ascii	"f\000"
 18817 0c85 01       		.byte	0x1
 18818 0c86 1002     		.2byte	0x210
 18819 0c88 F3000000 		.4byte	0xf3
 18820 0c8c C4000000 		.4byte	.LLST6
 18821 0c90 21       		.uleb128 0x21
 18822 0c91 20000000 		.4byte	.LBB25
 18823 0c95 38000000 		.4byte	.LBE25
 18824 0c99 22       		.uleb128 0x22
 18825 0c9a DE050000 		.4byte	.LASF21
 18826 0c9e 01       		.byte	0x1
 18827 0c9f 3002     		.2byte	0x230
 18828 0ca1 88000000 		.4byte	0x88
 18829 0ca5 E8000000 		.4byte	.LLST7
 18830 0ca9 00       		.byte	0x0
 18831 0caa 00       		.byte	0x0
 18832 0cab 10       		.uleb128 0x10
 18833 0cac F3000000 		.4byte	0xf3
 18834 0cb0 B60C0000 		.4byte	0xcb6
 18835 0cb4 23       		.uleb128 0x23
 18836 0cb5 00       		.byte	0x0
 18837 0cb6 08       		.uleb128 0x8
 18838 0cb7 AB0C0000 		.4byte	0xcab
 18839 0cbb 07       		.uleb128 0x7
 18840 0cbc 04       		.byte	0x4
 18841 0cbd 7A030000 		.4byte	0x37a
 18842 0cc1 24       		.uleb128 0x24
 18843 0cc2 D90C0000 		.4byte	.LASF373
 18844 0cc6 01       		.byte	0x1
 18845 0cc7 6702     		.2byte	0x267
 18846 0cc9 01       		.byte	0x1
 18847 0cca 2B000000 		.4byte	0x2b
 18848 0cce 00000000 		.4byte	.LFB5
 18849 0cd2 CA040000 		.4byte	.LFE5
 18850 0cd6 06010000 		.4byte	.LLST8
 18851 0cda D00D0000 		.4byte	0xdd0
 18852 0cde 1D       		.uleb128 0x1d
 18853 0cdf 616D7800 		.ascii	"amx\000"
 18854 0ce3 01       		.byte	0x1
 18855 0ce4 6702     		.2byte	0x267
 18856 0ce6 620A0000 		.4byte	0xa62
 18857 0cea 32010000 		.4byte	.LLST9
 18858 0cee 20       		.uleb128 0x20
 18859 0cef 68647200 		.ascii	"hdr\000"
 18860 0cf3 01       		.byte	0x1
 18861 0cf4 6902     		.2byte	0x269
 18862 0cf6 6E0A0000 		.4byte	0xa6e
 18863 0cfa 71010000 		.4byte	.LLST10
 18864 0cfe 20       		.uleb128 0x20
 18865 0cff 6F7000   		.ascii	"op\000"
 18866 0d02 01       		.byte	0x1
 18867 0d03 6A02     		.2byte	0x26a
ARM GAS  /tmp/ccvHIMcj.s 			page 333


 18868 0d05 E8000000 		.4byte	0xe8
 18869 0d09 8F010000 		.4byte	.LLST11
 18870 0d0d 20       		.uleb128 0x20
 18871 0d0e 63697000 		.ascii	"cip\000"
 18872 0d12 01       		.byte	0x1
 18873 0d13 6A02     		.2byte	0x26a
 18874 0d15 E8000000 		.4byte	0xe8
 18875 0d19 7B020000 		.4byte	.LLST12
 18876 0d1d 20       		.uleb128 0x20
 18877 0d1e 74677400 		.ascii	"tgt\000"
 18878 0d22 01       		.byte	0x1
 18879 0d23 6A02     		.2byte	0x26a
 18880 0d25 E8000000 		.4byte	0xe8
 18881 0d29 C0030000 		.4byte	.LLST13
 18882 0d2d 25       		.uleb128 0x25
 18883 0d2e AB0A0000 		.4byte	.LASF281
 18884 0d32 01       		.byte	0x1
 18885 0d33 6A02     		.2byte	0x26a
 18886 0d35 E8000000 		.4byte	0xe8
 18887 0d39 FFFF     		.2byte	0xffff
 18888 0d3b 22       		.uleb128 0x22
 18889 0d3c 2B0C0000 		.4byte	.LASF282
 18890 0d40 01       		.byte	0x1
 18891 0d41 6B02     		.2byte	0x26b
 18892 0d43 2B000000 		.4byte	0x2b
 18893 0d47 1F050000 		.4byte	.LLST14
 18894 0d4b 26       		.uleb128 0x26
 18895 0d4c B40F0000 		.4byte	.LASF283
 18896 0d50 01       		.byte	0x1
 18897 0d51 6B02     		.2byte	0x26b
 18898 0d53 2B000000 		.4byte	0x2b
 18899 0d57 AF       		.byte	0xaf
 18900 0d58 27       		.uleb128 0x27
 18901 0d59 C6050000 		.4byte	.LASF284
 18902 0d5d 01       		.byte	0x1
 18903 0d5e 6C02     		.2byte	0x26c
 18904 0d60 2B000000 		.4byte	0x2b
 18905 0d64 01       		.byte	0x1
 18906 0d65 59       		.byte	0x59
 18907 0d66 27       		.uleb128 0x27
 18908 0d67 70070000 		.4byte	.LASF285
 18909 0d6b 01       		.byte	0x1
 18910 0d6c 6C02     		.2byte	0x26c
 18911 0d6e 2B000000 		.4byte	0x2b
 18912 0d72 01       		.byte	0x1
 18913 0d73 56       		.byte	0x56
 18914 0d74 26       		.uleb128 0x26
 18915 0d75 69040000 		.4byte	.LASF286
 18916 0d79 01       		.byte	0x1
 18917 0d7a 6D02     		.2byte	0x26d
 18918 0d7c 95020000 		.4byte	0x295
 18919 0d80 00       		.byte	0x0
 18920 0d81 28       		.uleb128 0x28
 18921 0d82 00000000 		.4byte	.Ldebug_ranges0+0x0
 18922 0d86 B90D0000 		.4byte	0xdb9
 18923 0d8a 20       		.uleb128 0x20
 18924 0d8b 6E756D00 		.ascii	"num\000"
ARM GAS  /tmp/ccvHIMcj.s 			page 334


 18925 0d8f 01       		.byte	0x1
 18926 0d90 0A04     		.2byte	0x40a
 18927 0d92 E8000000 		.4byte	0xe8
 18928 0d96 76050000 		.4byte	.LLST15
 18929 0d9a 22       		.uleb128 0x22
 18930 0d9b 240E0000 		.4byte	.LASF287
 18931 0d9f 01       		.byte	0x1
 18932 0da0 0A04     		.2byte	0x40a
 18933 0da2 E8000000 		.4byte	0xe8
 18934 0da6 B5050000 		.4byte	.LLST16
 18935 0daa 20       		.uleb128 0x20
 18936 0dab 6900     		.ascii	"i\000"
 18937 0dad 01       		.byte	0x1
 18938 0dae 0B04     		.2byte	0x40b
 18939 0db0 2B000000 		.4byte	0x2b
 18940 0db4 02060000 		.4byte	.LLST17
 18941 0db8 00       		.byte	0x0
 18942 0db9 29       		.uleb128 0x29
 18943 0dba 38000000 		.4byte	.Ldebug_ranges0+0x38
 18944 0dbe 20       		.uleb128 0x20
 18945 0dbf 6E756D00 		.ascii	"num\000"
 18946 0dc3 01       		.byte	0x1
 18947 0dc4 F503     		.2byte	0x3f5
 18948 0dc6 E8000000 		.4byte	0xe8
 18949 0dca 2C060000 		.4byte	.LLST18
 18950 0dce 00       		.byte	0x0
 18951 0dcf 00       		.byte	0x0
 18952 0dd0 2A       		.uleb128 0x2a
 18953 0dd1 01       		.byte	0x1
 18954 0dd2 490A0000 		.4byte	.LASF374
 18955 0dd6 01       		.byte	0x1
 18956 0dd7 A901     		.2byte	0x1a9
 18957 0dd9 01       		.byte	0x1
 18958 0dda 00000000 		.4byte	.LFB0
 18959 0dde 16000000 		.4byte	.LFE0
 18960 0de2 3F060000 		.4byte	.LLST19
 18961 0de6 110E0000 		.4byte	0xe11
 18962 0dea 2B       		.uleb128 0x2b
 18963 0deb 7600     		.ascii	"v\000"
 18964 0ded 01       		.byte	0x1
 18965 0dee A901     		.2byte	0x1a9
 18966 0df0 D00B0000 		.4byte	0xbd0
 18967 0df4 01       		.byte	0x1
 18968 0df5 50       		.byte	0x50
 18969 0df6 2C       		.uleb128 0x2c
 18970 0df7 7300     		.ascii	"s\000"
 18971 0df9 01       		.byte	0x1
 18972 0dfa AB01     		.2byte	0x1ab
 18973 0dfc 88000000 		.4byte	0x88
 18974 0e00 01       		.byte	0x1
 18975 0e01 50       		.byte	0x50
 18976 0e02 20       		.uleb128 0x20
 18977 0e03 7400     		.ascii	"t\000"
 18978 0e05 01       		.byte	0x1
 18979 0e06 AC01     		.2byte	0x1ac
 18980 0e08 57000000 		.4byte	0x57
 18981 0e0c 5F060000 		.4byte	.LLST20
ARM GAS  /tmp/ccvHIMcj.s 			page 335


 18982 0e10 00       		.byte	0x0
 18983 0e11 2D       		.uleb128 0x2d
 18984 0e12 D60B0000 		.4byte	0xbd6
 18985 0e16 00000000 		.4byte	.LFB1
 18986 0e1a 02000000 		.4byte	.LFE1
 18987 0e1e 02       		.byte	0x2
 18988 0e1f 7D       		.byte	0x7d
 18989 0e20 00       		.sleb128 0
 18990 0e21 2D0E0000 		.4byte	0xe2d
 18991 0e25 2E       		.uleb128 0x2e
 18992 0e26 E90B0000 		.4byte	0xbe9
 18993 0e2a 01       		.byte	0x1
 18994 0e2b 50       		.byte	0x50
 18995 0e2c 00       		.byte	0x0
 18996 0e2d 2D       		.uleb128 0x2d
 18997 0e2e B20B0000 		.4byte	0xbb2
 18998 0e32 00000000 		.4byte	.LFB2
 18999 0e36 02000000 		.4byte	.LFE2
 19000 0e3a 02       		.byte	0x2
 19001 0e3b 7D       		.byte	0x7d
 19002 0e3c 00       		.sleb128 0
 19003 0e3d 490E0000 		.4byte	0xe49
 19004 0e41 2E       		.uleb128 0x2e
 19005 0e42 C50B0000 		.4byte	0xbc5
 19006 0e46 01       		.byte	0x1
 19007 0e47 50       		.byte	0x50
 19008 0e48 00       		.byte	0x0
 19009 0e49 2F       		.uleb128 0x2f
 19010 0e4a 01       		.byte	0x1
 19011 0e4b BA010000 		.4byte	.LASF289
 19012 0e4f 01       		.byte	0x1
 19013 0e50 F701     		.2byte	0x1f7
 19014 0e52 01       		.byte	0x1
 19015 0e53 2B000000 		.4byte	0x2b
 19016 0e57 00000000 		.4byte	.LFB3
 19017 0e5b 3E000000 		.4byte	.LFE3
 19018 0e5f 02       		.byte	0x2
 19019 0e60 7D       		.byte	0x7d
 19020 0e61 00       		.sleb128 0
 19021 0e62 950E0000 		.4byte	0xe95
 19022 0e66 1D       		.uleb128 0x1d
 19023 0e67 616D7800 		.ascii	"amx\000"
 19024 0e6b 01       		.byte	0x1
 19025 0e6c F701     		.2byte	0x1f7
 19026 0e6e 620A0000 		.4byte	0xa62
 19027 0e72 7D060000 		.4byte	.LLST21
 19028 0e76 30       		.uleb128 0x30
 19029 0e77 0C010000 		.4byte	.LASF26
 19030 0e7b 01       		.byte	0x1
 19031 0e7c F701     		.2byte	0x1f7
 19032 0e7e F40B0000 		.4byte	0xbf4
 19033 0e82 01       		.byte	0x1
 19034 0e83 51       		.byte	0x51
 19035 0e84 20       		.uleb128 0x20
 19036 0e85 68647200 		.ascii	"hdr\000"
 19037 0e89 01       		.byte	0x1
 19038 0e8a F901     		.2byte	0x1f9
ARM GAS  /tmp/ccvHIMcj.s 			page 336


 19039 0e8c 6E0A0000 		.4byte	0xa6e
 19040 0e90 90060000 		.4byte	.LLST22
 19041 0e94 00       		.byte	0x0
 19042 0e95 1C       		.uleb128 0x1c
 19043 0e96 01       		.byte	0x1
 19044 0e97 6E0F0000 		.4byte	.LASF290
 19045 0e9b 01       		.byte	0x1
 19046 0e9c 4A04     		.2byte	0x44a
 19047 0e9e 01       		.byte	0x1
 19048 0e9f 2B000000 		.4byte	0x2b
 19049 0ea3 00000000 		.4byte	.LFB6
 19050 0ea7 1C010000 		.4byte	.LFE6
 19051 0eab B9060000 		.4byte	.LLST23
 19052 0eaf 280F0000 		.4byte	0xf28
 19053 0eb3 1D       		.uleb128 0x1d
 19054 0eb4 616D7800 		.ascii	"amx\000"
 19055 0eb8 01       		.byte	0x1
 19056 0eb9 4A04     		.2byte	0x44a
 19057 0ebb 620A0000 		.4byte	0xa62
 19058 0ebf D9060000 		.4byte	.LLST24
 19059 0ec3 1E       		.uleb128 0x1e
 19060 0ec4 69050000 		.4byte	.LASF291
 19061 0ec8 01       		.byte	0x1
 19062 0ec9 4A04     		.2byte	0x44a
 19063 0ecb 29000000 		.4byte	0x29
 19064 0ecf F7060000 		.4byte	.LLST25
 19065 0ed3 20       		.uleb128 0x20
 19066 0ed4 68647200 		.ascii	"hdr\000"
 19067 0ed8 01       		.byte	0x1
 19068 0ed9 4C04     		.2byte	0x44c
 19069 0edb 6E0A0000 		.4byte	0xa6e
 19070 0edf 15070000 		.4byte	.LLST26
 19071 0ee3 20       		.uleb128 0x20
 19072 0ee4 65727200 		.ascii	"err\000"
 19073 0ee8 01       		.byte	0x1
 19074 0ee9 4D04     		.2byte	0x44d
 19075 0eeb 2B000000 		.4byte	0x2b
 19076 0eef 3E070000 		.4byte	.LLST27
 19077 0ef3 22       		.uleb128 0x22
 19078 0ef4 03040000 		.4byte	.LASF292
 19079 0ef8 01       		.byte	0x1
 19080 0ef9 4E04     		.2byte	0x44e
 19081 0efb F40B0000 		.4byte	0xbf4
 19082 0eff 7F070000 		.4byte	.LLST28
 19083 0f03 22       		.uleb128 0x22
 19084 0f04 17070000 		.4byte	.LASF22
 19085 0f08 01       		.byte	0x1
 19086 0f09 4F04     		.2byte	0x44f
 19087 0f0b 88000000 		.4byte	0x88
 19088 0f0f BA070000 		.4byte	.LLST29
 19089 0f13 29       		.uleb128 0x29
 19090 0f14 60000000 		.4byte	.Ldebug_ranges0+0x60
 19091 0f18 20       		.uleb128 0x20
 19092 0f19 6900     		.ascii	"i\000"
 19093 0f1b 01       		.byte	0x1
 19094 0f1c F204     		.2byte	0x4f2
 19095 0f1e 2B000000 		.4byte	0x2b
ARM GAS  /tmp/ccvHIMcj.s 			page 337


 19096 0f22 E3070000 		.4byte	.LLST30
 19097 0f26 00       		.byte	0x0
 19098 0f27 00       		.byte	0x0
 19099 0f28 2F       		.uleb128 0x2f
 19100 0f29 01       		.byte	0x1
 19101 0f2a 3F0B0000 		.4byte	.LASF293
 19102 0f2e 01       		.byte	0x1
 19103 0f2f 9205     		.2byte	0x592
 19104 0f31 01       		.byte	0x1
 19105 0f32 2B000000 		.4byte	0x2b
 19106 0f36 00000000 		.4byte	.LFB7
 19107 0f3a 04000000 		.4byte	.LFE7
 19108 0f3e 02       		.byte	0x2
 19109 0f3f 7D       		.byte	0x7d
 19110 0f40 00       		.sleb128 0
 19111 0f41 720F0000 		.4byte	0xf72
 19112 0f45 1D       		.uleb128 0x1d
 19113 0f46 616D7800 		.ascii	"amx\000"
 19114 0f4a 01       		.byte	0x1
 19115 0f4b 9205     		.2byte	0x592
 19116 0f4d 620A0000 		.4byte	0xa62
 19117 0f51 F7070000 		.4byte	.LLST31
 19118 0f55 30       		.uleb128 0x30
 19119 0f56 120A0000 		.4byte	.LASF294
 19120 0f5a 01       		.byte	0x1
 19121 0f5b 9205     		.2byte	0x592
 19122 0f5d 29000000 		.4byte	0x29
 19123 0f61 01       		.byte	0x1
 19124 0f62 51       		.byte	0x51
 19125 0f63 30       		.uleb128 0x30
 19126 0f64 EF090000 		.4byte	.LASF295
 19127 0f68 01       		.byte	0x1
 19128 0f69 9205     		.2byte	0x592
 19129 0f6b 29000000 		.4byte	0x29
 19130 0f6f 01       		.byte	0x1
 19131 0f70 52       		.byte	0x52
 19132 0f71 00       		.byte	0x0
 19133 0f72 2F       		.uleb128 0x2f
 19134 0f73 01       		.byte	0x1
 19135 0f74 700C0000 		.4byte	.LASF296
 19136 0f78 01       		.byte	0x1
 19137 0f79 9F05     		.2byte	0x59f
 19138 0f7b 01       		.byte	0x1
 19139 0f7c 2B000000 		.4byte	0x2b
 19140 0f80 00000000 		.4byte	.LFB8
 19141 0f84 04000000 		.4byte	.LFE8
 19142 0f88 02       		.byte	0x2
 19143 0f89 7D       		.byte	0x7d
 19144 0f8a 00       		.sleb128 0
 19145 0f8b A00F0000 		.4byte	0xfa0
 19146 0f8f 1D       		.uleb128 0x1d
 19147 0f90 616D7800 		.ascii	"amx\000"
 19148 0f94 01       		.byte	0x1
 19149 0f95 9F05     		.2byte	0x59f
 19150 0f97 620A0000 		.4byte	0xa62
 19151 0f9b 0A080000 		.4byte	.LLST32
 19152 0f9f 00       		.byte	0x0
ARM GAS  /tmp/ccvHIMcj.s 			page 338


 19153 0fa0 1C       		.uleb128 0x1c
 19154 0fa1 01       		.byte	0x1
 19155 0fa2 73020000 		.4byte	.LASF297
 19156 0fa6 01       		.byte	0x1
 19157 0fa7 CA05     		.2byte	0x5ca
 19158 0fa9 01       		.byte	0x1
 19159 0faa 2B000000 		.4byte	0x2b
 19160 0fae 00000000 		.4byte	.LFB9
 19161 0fb2 A4000000 		.4byte	.LFE9
 19162 0fb6 1D080000 		.4byte	.LLST33
 19163 0fba 0F100000 		.4byte	0x100f
 19164 0fbe 1E       		.uleb128 0x1e
 19165 0fbf A9070000 		.4byte	.LASF298
 19166 0fc3 01       		.byte	0x1
 19167 0fc4 CA05     		.2byte	0x5ca
 19168 0fc6 620A0000 		.4byte	0xa62
 19169 0fca 3D080000 		.4byte	.LLST34
 19170 0fce 1E       		.uleb128 0x1e
 19171 0fcf 78030000 		.4byte	.LASF299
 19172 0fd3 01       		.byte	0x1
 19173 0fd4 CA05     		.2byte	0x5ca
 19174 0fd6 620A0000 		.4byte	0xa62
 19175 0fda 5B080000 		.4byte	.LLST35
 19176 0fde 1E       		.uleb128 0x1e
 19177 0fdf 17070000 		.4byte	.LASF22
 19178 0fe3 01       		.byte	0x1
 19179 0fe4 CA05     		.2byte	0x5ca
 19180 0fe6 29000000 		.4byte	0x29
 19181 0fea 84080000 		.4byte	.LLST36
 19182 0fee 20       		.uleb128 0x20
 19183 0fef 68647200 		.ascii	"hdr\000"
 19184 0ff3 01       		.byte	0x1
 19185 0ff4 CC05     		.2byte	0x5cc
 19186 0ff6 6E0A0000 		.4byte	0xa6e
 19187 0ffa AD080000 		.4byte	.LLST37
 19188 0ffe 22       		.uleb128 0x22
 19189 0fff 840D0000 		.4byte	.LASF300
 19190 1003 01       		.byte	0x1
 19191 1004 CD05     		.2byte	0x5cd
 19192 1006 88000000 		.4byte	0x88
 19193 100a E1080000 		.4byte	.LLST38
 19194 100e 00       		.byte	0x0
 19195 100f 1C       		.uleb128 0x1c
 19196 1010 01       		.byte	0x1
 19197 1011 4F0E0000 		.4byte	.LASF301
 19198 1015 01       		.byte	0x1
 19199 1016 F905     		.2byte	0x5f9
 19200 1018 01       		.byte	0x1
 19201 1019 2B000000 		.4byte	0x2b
 19202 101d 00000000 		.4byte	.LFB10
 19203 1021 50000000 		.4byte	.LFE10
 19204 1025 F4080000 		.4byte	.LLST39
 19205 1029 7C100000 		.4byte	0x107c
 19206 102d 1D       		.uleb128 0x1d
 19207 102e 616D7800 		.ascii	"amx\000"
 19208 1032 01       		.byte	0x1
 19209 1033 F905     		.2byte	0x5f9
ARM GAS  /tmp/ccvHIMcj.s 			page 339


 19210 1035 620A0000 		.4byte	0xa62
 19211 1039 14090000 		.4byte	.LLST40
 19212 103d 1E       		.uleb128 0x1e
 19213 103e 870B0000 		.4byte	.LASF35
 19214 1042 01       		.byte	0x1
 19215 1043 F905     		.2byte	0x5f9
 19216 1045 7C100000 		.4byte	0x107c
 19217 1049 3D090000 		.4byte	.LLST41
 19218 104d 1E       		.uleb128 0x1e
 19219 104e C6050000 		.4byte	.LASF284
 19220 1052 01       		.byte	0x1
 19221 1053 F905     		.2byte	0x5f9
 19222 1055 7C100000 		.4byte	0x107c
 19223 1059 66090000 		.4byte	.LLST42
 19224 105d 30       		.uleb128 0x30
 19225 105e 4F070000 		.4byte	.LASF302
 19226 1062 01       		.byte	0x1
 19227 1063 F905     		.2byte	0x5f9
 19228 1065 7C100000 		.4byte	0x107c
 19229 1069 01       		.byte	0x1
 19230 106a 53       		.byte	0x53
 19231 106b 20       		.uleb128 0x20
 19232 106c 68647200 		.ascii	"hdr\000"
 19233 1070 01       		.byte	0x1
 19234 1071 FB05     		.2byte	0x5fb
 19235 1073 6E0A0000 		.4byte	0xa6e
 19236 1077 8F090000 		.4byte	.LLST43
 19237 107b 00       		.byte	0x0
 19238 107c 07       		.uleb128 0x7
 19239 107d 04       		.byte	0x4
 19240 107e 7A000000 		.4byte	0x7a
 19241 1082 2F       		.uleb128 0x2f
 19242 1083 01       		.byte	0x1
 19243 1084 C9000000 		.4byte	.LASF303
 19244 1088 01       		.byte	0x1
 19245 1089 1106     		.2byte	0x611
 19246 108b 01       		.byte	0x1
 19247 108c 2B000000 		.4byte	0x2b
 19248 1090 00000000 		.4byte	.LFB11
 19249 1094 12000000 		.4byte	.LFE11
 19250 1098 02       		.byte	0x2
 19251 1099 7D       		.byte	0x7d
 19252 109a 00       		.sleb128 0
 19253 109b E0100000 		.4byte	0x10e0
 19254 109f 1D       		.uleb128 0x1d
 19255 10a0 616D7800 		.ascii	"amx\000"
 19256 10a4 01       		.byte	0x1
 19257 10a5 1106     		.2byte	0x611
 19258 10a7 620A0000 		.4byte	0xa62
 19259 10ab AD090000 		.4byte	.LLST44
 19260 10af 30       		.uleb128 0x30
 19261 10b0 6F0B0000 		.4byte	.LASF304
 19262 10b4 01       		.byte	0x1
 19263 10b5 1106     		.2byte	0x611
 19264 10b7 680A0000 		.4byte	0xa68
 19265 10bb 01       		.byte	0x1
 19266 10bc 51       		.byte	0x51
ARM GAS  /tmp/ccvHIMcj.s 			page 340


 19267 10bd 2C       		.uleb128 0x2c
 19268 10be 68647200 		.ascii	"hdr\000"
 19269 10c2 01       		.byte	0x1
 19270 10c3 1306     		.2byte	0x613
 19271 10c5 6E0A0000 		.4byte	0xa6e
 19272 10c9 01       		.byte	0x1
 19273 10ca 5C       		.byte	0x5c
 19274 10cb 27       		.uleb128 0x27
 19275 10cc 03040000 		.4byte	.LASF292
 19276 10d0 01       		.byte	0x1
 19277 10d1 1406     		.2byte	0x614
 19278 10d3 F40B0000 		.4byte	0xbf4
 19279 10d7 07       		.byte	0x7
 19280 10d8 7C       		.byte	0x7c
 19281 10d9 00       		.sleb128 0
 19282 10da 7C       		.byte	0x7c
 19283 10db 34       		.sleb128 52
 19284 10dc 06       		.byte	0x6
 19285 10dd 22       		.byte	0x22
 19286 10de 9F       		.byte	0x9f
 19287 10df 00       		.byte	0x0
 19288 10e0 31       		.uleb128 0x31
 19289 10e1 2A0A0000 		.4byte	0xa2a
 19290 10e5 00000000 		.4byte	.LFB12
 19291 10e9 1C000000 		.4byte	.LFE12
 19292 10ed C0090000 		.4byte	.LLST45
 19293 10f1 0F110000 		.4byte	0x110f
 19294 10f5 32       		.uleb128 0x32
 19295 10f6 3D0A0000 		.4byte	0xa3d
 19296 10fa E0090000 		.4byte	.LLST46
 19297 10fe 2E       		.uleb128 0x2e
 19298 10ff 490A0000 		.4byte	0xa49
 19299 1103 01       		.byte	0x1
 19300 1104 51       		.byte	0x51
 19301 1105 33       		.uleb128 0x33
 19302 1106 550A0000 		.4byte	0xa55
 19303 110a F3090000 		.4byte	.LLST47
 19304 110e 00       		.byte	0x0
 19305 110f 1C       		.uleb128 0x1c
 19306 1110 01       		.byte	0x1
 19307 1111 F20D0000 		.4byte	.LASF305
 19308 1115 01       		.byte	0x1
 19309 1116 2B06     		.2byte	0x62b
 19310 1118 01       		.byte	0x1
 19311 1119 2B000000 		.4byte	0x2b
 19312 111d 00000000 		.4byte	.LFB13
 19313 1121 30000000 		.4byte	.LFE13
 19314 1125 060A0000 		.4byte	.LLST48
 19315 1129 7A110000 		.4byte	0x117a
 19316 112d 1D       		.uleb128 0x1d
 19317 112e 616D7800 		.ascii	"amx\000"
 19318 1132 01       		.byte	0x1
 19319 1133 2B06     		.2byte	0x62b
 19320 1135 620A0000 		.4byte	0xa62
 19321 1139 260A0000 		.4byte	.LLST49
 19322 113d 1E       		.uleb128 0x1e
 19323 113e 72030000 		.4byte	.LASF278
ARM GAS  /tmp/ccvHIMcj.s 			page 341


 19324 1142 01       		.byte	0x1
 19325 1143 2B06     		.2byte	0x62b
 19326 1145 2B000000 		.4byte	0x2b
 19327 1149 390A0000 		.4byte	.LLST50
 19328 114d 1E       		.uleb128 0x1e
 19329 114e 6B0C0000 		.4byte	.LASF41
 19330 1152 01       		.byte	0x1
 19331 1153 2B06     		.2byte	0x62b
 19332 1155 8E000000 		.4byte	0x8e
 19333 1159 4C0A0000 		.4byte	.LLST51
 19334 115d 20       		.uleb128 0x20
 19335 115e 68647200 		.ascii	"hdr\000"
 19336 1162 01       		.byte	0x1
 19337 1163 2D06     		.2byte	0x62d
 19338 1165 6E0A0000 		.4byte	0xa6e
 19339 1169 5F0A0000 		.4byte	.LLST52
 19340 116d 1B       		.uleb128 0x1b
 19341 116e 54020000 		.4byte	.LASF42
 19342 1172 01       		.byte	0x1
 19343 1173 2E06     		.2byte	0x62e
 19344 1175 BB0C0000 		.4byte	0xcbb
 19345 1179 00       		.byte	0x0
 19346 117a 1C       		.uleb128 0x1c
 19347 117b 01       		.byte	0x1
 19348 117c 57010000 		.4byte	.LASF306
 19349 1180 01       		.byte	0x1
 19350 1181 3C06     		.2byte	0x63c
 19351 1183 01       		.byte	0x1
 19352 1184 2B000000 		.4byte	0x2b
 19353 1188 00000000 		.4byte	.LFB14
 19354 118c C0000000 		.4byte	.LFE14
 19355 1190 720A0000 		.4byte	.LLST53
 19356 1194 24120000 		.4byte	0x1224
 19357 1198 1D       		.uleb128 0x1d
 19358 1199 616D7800 		.ascii	"amx\000"
 19359 119d 01       		.byte	0x1
 19360 119e 3C06     		.2byte	0x63c
 19361 11a0 620A0000 		.4byte	0xa62
 19362 11a4 9F0A0000 		.4byte	.LLST54
 19363 11a8 1E       		.uleb128 0x1e
 19364 11a9 6B0C0000 		.4byte	.LASF41
 19365 11ad 01       		.byte	0x1
 19366 11ae 3C06     		.2byte	0x63c
 19367 11b0 9B000000 		.4byte	0x9b
 19368 11b4 BD0A0000 		.4byte	.LLST55
 19369 11b8 1E       		.uleb128 0x1e
 19370 11b9 72030000 		.4byte	.LASF278
 19371 11bd 01       		.byte	0x1
 19372 11be 3C06     		.2byte	0x63c
 19373 11c0 680A0000 		.4byte	0xa68
 19374 11c4 DB0A0000 		.4byte	.LLST56
 19375 11c8 20       		.uleb128 0x20
 19376 11c9 69647800 		.ascii	"idx\000"
 19377 11cd 01       		.byte	0x1
 19378 11ce 3E06     		.2byte	0x63e
 19379 11d0 2B000000 		.4byte	0x2b
 19380 11d4 F90A0000 		.4byte	.LLST57
ARM GAS  /tmp/ccvHIMcj.s 			page 342


 19381 11d8 27       		.uleb128 0x27
 19382 11d9 FE050000 		.4byte	.LASF307
 19383 11dd 01       		.byte	0x1
 19384 11de 3E06     		.2byte	0x63e
 19385 11e0 2B000000 		.4byte	0x2b
 19386 11e4 01       		.byte	0x1
 19387 11e5 57       		.byte	0x57
 19388 11e6 27       		.uleb128 0x27
 19389 11e7 AB010000 		.4byte	.LASF308
 19390 11eb 01       		.byte	0x1
 19391 11ec 3F06     		.2byte	0x63f
 19392 11ee 24120000 		.4byte	0x1224
 19393 11f2 02       		.byte	0x2
 19394 11f3 91       		.byte	0x91
 19395 11f4 40       		.sleb128 -64
 19396 11f5 34       		.uleb128 0x34
 19397 11f6 2A0A0000 		.4byte	0xa2a
 19398 11fa 04000000 		.4byte	.LBB39
 19399 11fe 80000000 		.4byte	.Ldebug_ranges0+0x80
 19400 1202 01       		.byte	0x1
 19401 1203 4106     		.2byte	0x641
 19402 1205 35       		.uleb128 0x35
 19403 1206 490A0000 		.4byte	0xa49
 19404 120a 32       		.uleb128 0x32
 19405 120b 3D0A0000 		.4byte	0xa3d
 19406 120f 390B0000 		.4byte	.LLST58
 19407 1213 29       		.uleb128 0x29
 19408 1214 98000000 		.4byte	.Ldebug_ranges0+0x98
 19409 1218 33       		.uleb128 0x33
 19410 1219 550A0000 		.4byte	0xa55
 19411 121d 570B0000 		.4byte	.LLST59
 19412 1221 00       		.byte	0x0
 19413 1222 00       		.byte	0x0
 19414 1223 00       		.byte	0x0
 19415 1224 10       		.uleb128 0x10
 19416 1225 94000000 		.4byte	0x94
 19417 1229 34120000 		.4byte	0x1234
 19418 122d 11       		.uleb128 0x11
 19419 122e 3D000000 		.4byte	0x3d
 19420 1232 1F       		.byte	0x1f
 19421 1233 00       		.byte	0x0
 19422 1234 31       		.uleb128 0x31
 19423 1235 740A0000 		.4byte	0xa74
 19424 1239 00000000 		.4byte	.LFB15
 19425 123d 1C000000 		.4byte	.LFE15
 19426 1241 6A0B0000 		.4byte	.LLST60
 19427 1245 63120000 		.4byte	0x1263
 19428 1249 32       		.uleb128 0x32
 19429 124a 870A0000 		.4byte	0xa87
 19430 124e 8A0B0000 		.4byte	.LLST61
 19431 1252 2E       		.uleb128 0x2e
 19432 1253 930A0000 		.4byte	0xa93
 19433 1257 01       		.byte	0x1
 19434 1258 51       		.byte	0x51
 19435 1259 33       		.uleb128 0x33
 19436 125a 9F0A0000 		.4byte	0xa9f
 19437 125e 9D0B0000 		.4byte	.LLST62
ARM GAS  /tmp/ccvHIMcj.s 			page 343


 19438 1262 00       		.byte	0x0
 19439 1263 1C       		.uleb128 0x1c
 19440 1264 01       		.byte	0x1
 19441 1265 0B100000 		.4byte	.LASF309
 19442 1269 01       		.byte	0x1
 19443 126a 5A06     		.2byte	0x65a
 19444 126c 01       		.byte	0x1
 19445 126d 2B000000 		.4byte	0x2b
 19446 1271 00000000 		.4byte	.LFB16
 19447 1275 3C000000 		.4byte	.LFE16
 19448 1279 B00B0000 		.4byte	.LLST63
 19449 127d E0120000 		.4byte	0x12e0
 19450 1281 1D       		.uleb128 0x1d
 19451 1282 616D7800 		.ascii	"amx\000"
 19452 1286 01       		.byte	0x1
 19453 1287 5A06     		.2byte	0x65a
 19454 1289 620A0000 		.4byte	0xa62
 19455 128d D00B0000 		.4byte	.LLST64
 19456 1291 1E       		.uleb128 0x1e
 19457 1292 72030000 		.4byte	.LASF278
 19458 1296 01       		.byte	0x1
 19459 1297 5A06     		.2byte	0x65a
 19460 1299 2B000000 		.4byte	0x2b
 19461 129d E30B0000 		.4byte	.LLST65
 19462 12a1 1E       		.uleb128 0x1e
 19463 12a2 6B0C0000 		.4byte	.LASF41
 19464 12a6 01       		.byte	0x1
 19465 12a7 5A06     		.2byte	0x65a
 19466 12a9 8E000000 		.4byte	0x8e
 19467 12ad 010C0000 		.4byte	.LLST66
 19468 12b1 1E       		.uleb128 0x1e
 19469 12b2 060D0000 		.4byte	.LASF45
 19470 12b6 01       		.byte	0x1
 19471 12b7 5A06     		.2byte	0x65a
 19472 12b9 E0120000 		.4byte	0x12e0
 19473 12bd 1F0C0000 		.4byte	.LLST67
 19474 12c1 2C       		.uleb128 0x2c
 19475 12c2 68647200 		.ascii	"hdr\000"
 19476 12c6 01       		.byte	0x1
 19477 12c7 5C06     		.2byte	0x65c
 19478 12c9 6E0A0000 		.4byte	0xa6e
 19479 12cd 01       		.byte	0x1
 19480 12ce 54       		.byte	0x54
 19481 12cf 22       		.uleb128 0x22
 19482 12d0 54020000 		.4byte	.LASF42
 19483 12d4 01       		.byte	0x1
 19484 12d5 5D06     		.2byte	0x65d
 19485 12d7 BB0C0000 		.4byte	0xcbb
 19486 12db 3D0C0000 		.4byte	.LLST68
 19487 12df 00       		.byte	0x0
 19488 12e0 07       		.uleb128 0x7
 19489 12e1 04       		.byte	0x4
 19490 12e2 DD000000 		.4byte	0xdd
 19491 12e6 1C       		.uleb128 0x1c
 19492 12e7 01       		.byte	0x1
 19493 12e8 770E0000 		.4byte	.LASF310
 19494 12ec 01       		.byte	0x1
ARM GAS  /tmp/ccvHIMcj.s 			page 344


 19495 12ed 6E06     		.2byte	0x66e
 19496 12ef 01       		.byte	0x1
 19497 12f0 2B000000 		.4byte	0x2b
 19498 12f4 00000000 		.4byte	.LFB17
 19499 12f8 70000000 		.4byte	.LFE17
 19500 12fc 5B0C0000 		.4byte	.LLST69
 19501 1300 B2130000 		.4byte	0x13b2
 19502 1304 1D       		.uleb128 0x1d
 19503 1305 616D7800 		.ascii	"amx\000"
 19504 1309 01       		.byte	0x1
 19505 130a 6E06     		.2byte	0x66e
 19506 130c 620A0000 		.4byte	0xa62
 19507 1310 880C0000 		.4byte	.LLST70
 19508 1314 1E       		.uleb128 0x1e
 19509 1315 6B0C0000 		.4byte	.LASF41
 19510 1319 01       		.byte	0x1
 19511 131a 6E06     		.2byte	0x66e
 19512 131c 9B000000 		.4byte	0x9b
 19513 1320 A60C0000 		.4byte	.LLST71
 19514 1324 1E       		.uleb128 0x1e
 19515 1325 72030000 		.4byte	.LASF278
 19516 1329 01       		.byte	0x1
 19517 132a 6E06     		.2byte	0x66e
 19518 132c 680A0000 		.4byte	0xa68
 19519 1330 C40C0000 		.4byte	.LLST72
 19520 1334 22       		.uleb128 0x22
 19521 1335 710E0000 		.4byte	.LASF311
 19522 1339 01       		.byte	0x1
 19523 133a 7006     		.2byte	0x670
 19524 133c 2B000000 		.4byte	0x2b
 19525 1340 E20C0000 		.4byte	.LLST73
 19526 1344 22       		.uleb128 0x22
 19527 1345 FE050000 		.4byte	.LASF307
 19528 1349 01       		.byte	0x1
 19529 134a 7006     		.2byte	0x670
 19530 134c 2B000000 		.4byte	0x2b
 19531 1350 0C0D0000 		.4byte	.LLST74
 19532 1354 20       		.uleb128 0x20
 19533 1355 6D696400 		.ascii	"mid\000"
 19534 1359 01       		.byte	0x1
 19535 135a 7006     		.2byte	0x670
 19536 135c 2B000000 		.4byte	0x2b
 19537 1360 520D0000 		.4byte	.LLST75
 19538 1364 22       		.uleb128 0x22
 19539 1365 95030000 		.4byte	.LASF279
 19540 1369 01       		.byte	0x1
 19541 136a 7006     		.2byte	0x670
 19542 136c 2B000000 		.4byte	0x2b
 19543 1370 7B0D0000 		.4byte	.LLST76
 19544 1374 27       		.uleb128 0x27
 19545 1375 AB010000 		.4byte	.LASF308
 19546 1379 01       		.byte	0x1
 19547 137a 7106     		.2byte	0x671
 19548 137c 24120000 		.4byte	0x1224
 19549 1380 02       		.byte	0x2
 19550 1381 91       		.byte	0x91
 19551 1382 40       		.sleb128 -64
ARM GAS  /tmp/ccvHIMcj.s 			page 345


 19552 1383 34       		.uleb128 0x34
 19553 1384 740A0000 		.4byte	0xa74
 19554 1388 04000000 		.4byte	.LBB43
 19555 138c B0000000 		.4byte	.Ldebug_ranges0+0xb0
 19556 1390 01       		.byte	0x1
 19557 1391 7306     		.2byte	0x673
 19558 1393 35       		.uleb128 0x35
 19559 1394 930A0000 		.4byte	0xa93
 19560 1398 32       		.uleb128 0x32
 19561 1399 870A0000 		.4byte	0xa87
 19562 139d A40D0000 		.4byte	.LLST77
 19563 13a1 29       		.uleb128 0x29
 19564 13a2 D0000000 		.4byte	.Ldebug_ranges0+0xd0
 19565 13a6 33       		.uleb128 0x33
 19566 13a7 9F0A0000 		.4byte	0xa9f
 19567 13ab C20D0000 		.4byte	.LLST78
 19568 13af 00       		.byte	0x0
 19569 13b0 00       		.byte	0x0
 19570 13b1 00       		.byte	0x0
 19571 13b2 31       		.uleb128 0x31
 19572 13b3 AC0A0000 		.4byte	0xaac
 19573 13b7 00000000 		.4byte	.LFB18
 19574 13bb 1C000000 		.4byte	.LFE18
 19575 13bf D50D0000 		.4byte	.LLST79
 19576 13c3 E1130000 		.4byte	0x13e1
 19577 13c7 32       		.uleb128 0x32
 19578 13c8 BF0A0000 		.4byte	0xabf
 19579 13cc F50D0000 		.4byte	.LLST80
 19580 13d0 2E       		.uleb128 0x2e
 19581 13d1 CB0A0000 		.4byte	0xacb
 19582 13d5 01       		.byte	0x1
 19583 13d6 51       		.byte	0x51
 19584 13d7 33       		.uleb128 0x33
 19585 13d8 D70A0000 		.4byte	0xad7
 19586 13dc 080E0000 		.4byte	.LLST81
 19587 13e0 00       		.byte	0x0
 19588 13e1 1C       		.uleb128 0x1c
 19589 13e2 01       		.byte	0x1
 19590 13e3 7C0C0000 		.4byte	.LASF312
 19591 13e7 01       		.byte	0x1
 19592 13e8 9A06     		.2byte	0x69a
 19593 13ea 01       		.byte	0x1
 19594 13eb 2B000000 		.4byte	0x2b
 19595 13ef 00000000 		.4byte	.LFB19
 19596 13f3 54000000 		.4byte	.LFE19
 19597 13f7 1B0E0000 		.4byte	.LLST82
 19598 13fb 6C140000 		.4byte	0x146c
 19599 13ff 1D       		.uleb128 0x1d
 19600 1400 616D7800 		.ascii	"amx\000"
 19601 1404 01       		.byte	0x1
 19602 1405 9A06     		.2byte	0x69a
 19603 1407 620A0000 		.4byte	0xa62
 19604 140b 3B0E0000 		.4byte	.LLST83
 19605 140f 1E       		.uleb128 0x1e
 19606 1410 72030000 		.4byte	.LASF278
 19607 1414 01       		.byte	0x1
 19608 1415 9A06     		.2byte	0x69a
ARM GAS  /tmp/ccvHIMcj.s 			page 346


 19609 1417 2B000000 		.4byte	0x2b
 19610 141b 590E0000 		.4byte	.LLST84
 19611 141f 1E       		.uleb128 0x1e
 19612 1420 6B0C0000 		.4byte	.LASF41
 19613 1424 01       		.byte	0x1
 19614 1425 9A06     		.2byte	0x69a
 19615 1427 8E000000 		.4byte	0x8e
 19616 142b 6C0E0000 		.4byte	.LLST85
 19617 142f 1E       		.uleb128 0x1e
 19618 1430 060D0000 		.4byte	.LASF45
 19619 1434 01       		.byte	0x1
 19620 1435 9A06     		.2byte	0x69a
 19621 1437 6C140000 		.4byte	0x146c
 19622 143b 7F0E0000 		.4byte	.LLST86
 19623 143f 2C       		.uleb128 0x2c
 19624 1440 68647200 		.ascii	"hdr\000"
 19625 1444 01       		.byte	0x1
 19626 1445 9C06     		.2byte	0x69c
 19627 1447 6E0A0000 		.4byte	0xa6e
 19628 144b 01       		.byte	0x1
 19629 144c 54       		.byte	0x54
 19630 144d 2C       		.uleb128 0x2c
 19631 144e 76617200 		.ascii	"var\000"
 19632 1452 01       		.byte	0x1
 19633 1453 9D06     		.2byte	0x69d
 19634 1455 BB0C0000 		.4byte	0xcbb
 19635 1459 01       		.byte	0x1
 19636 145a 56       		.byte	0x56
 19637 145b 22       		.uleb128 0x22
 19638 145c 17070000 		.4byte	.LASF22
 19639 1460 01       		.byte	0x1
 19640 1461 9E06     		.2byte	0x69e
 19641 1463 88000000 		.4byte	0x88
 19642 1467 9D0E0000 		.4byte	.LLST87
 19643 146b 00       		.byte	0x0
 19644 146c 07       		.uleb128 0x7
 19645 146d 04       		.byte	0x4
 19646 146e D0020000 		.4byte	0x2d0
 19647 1472 1C       		.uleb128 0x1c
 19648 1473 01       		.byte	0x1
 19649 1474 1B060000 		.4byte	.LASF313
 19650 1478 01       		.byte	0x1
 19651 1479 B006     		.2byte	0x6b0
 19652 147b 01       		.byte	0x1
 19653 147c 2B000000 		.4byte	0x2b
 19654 1480 00000000 		.4byte	.LFB20
 19655 1484 68000000 		.4byte	.LFE20
 19656 1488 B00E0000 		.4byte	.LLST88
 19657 148c 3E150000 		.4byte	0x153e
 19658 1490 1D       		.uleb128 0x1d
 19659 1491 616D7800 		.ascii	"amx\000"
 19660 1495 01       		.byte	0x1
 19661 1496 B006     		.2byte	0x6b0
 19662 1498 620A0000 		.4byte	0xa62
 19663 149c DD0E0000 		.4byte	.LLST89
 19664 14a0 1E       		.uleb128 0x1e
 19665 14a1 6B0C0000 		.4byte	.LASF41
ARM GAS  /tmp/ccvHIMcj.s 			page 347


 19666 14a5 01       		.byte	0x1
 19667 14a6 B006     		.2byte	0x6b0
 19668 14a8 9B000000 		.4byte	0x9b
 19669 14ac FB0E0000 		.4byte	.LLST90
 19670 14b0 1E       		.uleb128 0x1e
 19671 14b1 060D0000 		.4byte	.LASF45
 19672 14b5 01       		.byte	0x1
 19673 14b6 B006     		.2byte	0x6b0
 19674 14b8 6C140000 		.4byte	0x146c
 19675 14bc 190F0000 		.4byte	.LLST91
 19676 14c0 22       		.uleb128 0x22
 19677 14c1 710E0000 		.4byte	.LASF311
 19678 14c5 01       		.byte	0x1
 19679 14c6 B206     		.2byte	0x6b2
 19680 14c8 2B000000 		.4byte	0x2b
 19681 14cc 370F0000 		.4byte	.LLST92
 19682 14d0 22       		.uleb128 0x22
 19683 14d1 FE050000 		.4byte	.LASF307
 19684 14d5 01       		.byte	0x1
 19685 14d6 B206     		.2byte	0x6b2
 19686 14d8 2B000000 		.4byte	0x2b
 19687 14dc 610F0000 		.4byte	.LLST93
 19688 14e0 20       		.uleb128 0x20
 19689 14e1 6D696400 		.ascii	"mid\000"
 19690 14e5 01       		.byte	0x1
 19691 14e6 B206     		.2byte	0x6b2
 19692 14e8 2B000000 		.4byte	0x2b
 19693 14ec A70F0000 		.4byte	.LLST94
 19694 14f0 22       		.uleb128 0x22
 19695 14f1 95030000 		.4byte	.LASF279
 19696 14f5 01       		.byte	0x1
 19697 14f6 B206     		.2byte	0x6b2
 19698 14f8 2B000000 		.4byte	0x2b
 19699 14fc C50F0000 		.4byte	.LLST95
 19700 1500 27       		.uleb128 0x27
 19701 1501 AB010000 		.4byte	.LASF308
 19702 1505 01       		.byte	0x1
 19703 1506 B306     		.2byte	0x6b3
 19704 1508 24120000 		.4byte	0x1224
 19705 150c 02       		.byte	0x2
 19706 150d 91       		.byte	0x91
 19707 150e 40       		.sleb128 -64
 19708 150f 34       		.uleb128 0x34
 19709 1510 AC0A0000 		.4byte	0xaac
 19710 1514 04000000 		.4byte	.LBB49
 19711 1518 F0000000 		.4byte	.Ldebug_ranges0+0xf0
 19712 151c 01       		.byte	0x1
 19713 151d B506     		.2byte	0x6b5
 19714 151f 35       		.uleb128 0x35
 19715 1520 CB0A0000 		.4byte	0xacb
 19716 1524 32       		.uleb128 0x32
 19717 1525 BF0A0000 		.4byte	0xabf
 19718 1529 E30F0000 		.4byte	.LLST96
 19719 152d 29       		.uleb128 0x29
 19720 152e 10010000 		.4byte	.Ldebug_ranges0+0x110
 19721 1532 33       		.uleb128 0x33
 19722 1533 D70A0000 		.4byte	0xad7
ARM GAS  /tmp/ccvHIMcj.s 			page 348


 19723 1537 01100000 		.4byte	.LLST97
 19724 153b 00       		.byte	0x0
 19725 153c 00       		.byte	0x0
 19726 153d 00       		.byte	0x0
 19727 153e 1C       		.uleb128 0x1c
 19728 153f 01       		.byte	0x1
 19729 1540 E50E0000 		.4byte	.LASF314
 19730 1544 01       		.byte	0x1
 19731 1545 CC06     		.2byte	0x6cc
 19732 1547 01       		.byte	0x1
 19733 1548 2B000000 		.4byte	0x2b
 19734 154c 00000000 		.4byte	.LFB21
 19735 1550 30000000 		.4byte	.LFE21
 19736 1554 14100000 		.4byte	.LLST98
 19737 1558 8B150000 		.4byte	0x158b
 19738 155c 1D       		.uleb128 0x1d
 19739 155d 616D7800 		.ascii	"amx\000"
 19740 1561 01       		.byte	0x1
 19741 1562 CC06     		.2byte	0x6cc
 19742 1564 620A0000 		.4byte	0xa62
 19743 1568 34100000 		.4byte	.LLST99
 19744 156c 30       		.uleb128 0x30
 19745 156d 4F0C0000 		.4byte	.LASF266
 19746 1571 01       		.byte	0x1
 19747 1572 CC06     		.2byte	0x6cc
 19748 1574 680A0000 		.4byte	0xa68
 19749 1578 01       		.byte	0x1
 19750 1579 51       		.byte	0x51
 19751 157a 20       		.uleb128 0x20
 19752 157b 68647200 		.ascii	"hdr\000"
 19753 157f 01       		.byte	0x1
 19754 1580 CE06     		.2byte	0x6ce
 19755 1582 6E0A0000 		.4byte	0xa6e
 19756 1586 52100000 		.4byte	.LLST100
 19757 158a 00       		.byte	0x0
 19758 158b 1C       		.uleb128 0x1c
 19759 158c 01       		.byte	0x1
 19760 158d E7000000 		.4byte	.LASF315
 19761 1591 01       		.byte	0x1
 19762 1592 DF06     		.2byte	0x6df
 19763 1594 01       		.byte	0x1
 19764 1595 2B000000 		.4byte	0x2b
 19765 1599 00000000 		.4byte	.LFB22
 19766 159d 6E000000 		.4byte	.LFE22
 19767 15a1 70100000 		.4byte	.LLST101
 19768 15a5 08160000 		.4byte	0x1608
 19769 15a9 1D       		.uleb128 0x1d
 19770 15aa 616D7800 		.ascii	"amx\000"
 19771 15ae 01       		.byte	0x1
 19772 15af DF06     		.2byte	0x6df
 19773 15b1 620A0000 		.4byte	0xa62
 19774 15b5 90100000 		.4byte	.LLST102
 19775 15b9 1E       		.uleb128 0x1e
 19776 15ba 72030000 		.4byte	.LASF278
 19777 15be 01       		.byte	0x1
 19778 15bf DF06     		.2byte	0x6df
 19779 15c1 2B000000 		.4byte	0x2b
ARM GAS  /tmp/ccvHIMcj.s 			page 349


 19780 15c5 B9100000 		.4byte	.LLST103
 19781 15c9 1E       		.uleb128 0x1e
 19782 15ca 59020000 		.4byte	.LASF316
 19783 15ce 01       		.byte	0x1
 19784 15cf DF06     		.2byte	0x6df
 19785 15d1 8E000000 		.4byte	0x8e
 19786 15d5 D7100000 		.4byte	.LLST104
 19787 15d9 1E       		.uleb128 0x1e
 19788 15da F1080000 		.4byte	.LASF317
 19789 15de 01       		.byte	0x1
 19790 15df DF06     		.2byte	0x6df
 19791 15e1 D0020000 		.4byte	0x2d0
 19792 15e5 F5100000 		.4byte	.LLST105
 19793 15e9 2C       		.uleb128 0x2c
 19794 15ea 68647200 		.ascii	"hdr\000"
 19795 15ee 01       		.byte	0x1
 19796 15ef E106     		.2byte	0x6e1
 19797 15f1 6E0A0000 		.4byte	0xa6e
 19798 15f5 01       		.byte	0x1
 19799 15f6 54       		.byte	0x54
 19800 15f7 20       		.uleb128 0x20
 19801 15f8 74616700 		.ascii	"tag\000"
 19802 15fc 01       		.byte	0x1
 19803 15fd E206     		.2byte	0x6e2
 19804 15ff BB0C0000 		.4byte	0xcbb
 19805 1603 13110000 		.4byte	.LLST106
 19806 1607 00       		.byte	0x0
 19807 1608 1C       		.uleb128 0x1c
 19808 1609 01       		.byte	0x1
 19809 160a 5B0D0000 		.4byte	.LASF318
 19810 160e 01       		.byte	0x1
 19811 160f FE06     		.2byte	0x6fe
 19812 1611 01       		.byte	0x1
 19813 1612 2B000000 		.4byte	0x2b
 19814 1616 00000000 		.4byte	.LFB23
 19815 161a 58000000 		.4byte	.LFE23
 19816 161e 26110000 		.4byte	.LLST107
 19817 1622 95160000 		.4byte	0x1695
 19818 1626 1D       		.uleb128 0x1d
 19819 1627 616D7800 		.ascii	"amx\000"
 19820 162b 01       		.byte	0x1
 19821 162c FE06     		.2byte	0x6fe
 19822 162e 620A0000 		.4byte	0xa62
 19823 1632 52110000 		.4byte	.LLST108
 19824 1636 1E       		.uleb128 0x1e
 19825 1637 F1080000 		.4byte	.LASF317
 19826 163b 01       		.byte	0x1
 19827 163c FE06     		.2byte	0x6fe
 19828 163e E8000000 		.4byte	0xe8
 19829 1642 70110000 		.4byte	.LLST109
 19830 1646 1E       		.uleb128 0x1e
 19831 1647 59020000 		.4byte	.LASF316
 19832 164b 01       		.byte	0x1
 19833 164c FE06     		.2byte	0x6fe
 19834 164e 8E000000 		.4byte	0x8e
 19835 1652 8E110000 		.4byte	.LLST110
 19836 1656 22       		.uleb128 0x22
ARM GAS  /tmp/ccvHIMcj.s 			page 350


 19837 1657 710E0000 		.4byte	.LASF311
 19838 165b 01       		.byte	0x1
 19839 165c 0007     		.2byte	0x700
 19840 165e 2B000000 		.4byte	0x2b
 19841 1662 AC110000 		.4byte	.LLST111
 19842 1666 27       		.uleb128 0x27
 19843 1667 FE050000 		.4byte	.LASF307
 19844 166b 01       		.byte	0x1
 19845 166c 0007     		.2byte	0x700
 19846 166e 2B000000 		.4byte	0x2b
 19847 1672 02       		.byte	0x2
 19848 1673 91       		.byte	0x91
 19849 1674 5C       		.sleb128 -36
 19850 1675 20       		.uleb128 0x20
 19851 1676 6D696400 		.ascii	"mid\000"
 19852 167a 01       		.byte	0x1
 19853 167b 0007     		.2byte	0x700
 19854 167d 2B000000 		.4byte	0x2b
 19855 1681 CA110000 		.4byte	.LLST112
 19856 1685 27       		.uleb128 0x27
 19857 1686 4E040000 		.4byte	.LASF319
 19858 168a 01       		.byte	0x1
 19859 168b 0107     		.2byte	0x701
 19860 168d E8000000 		.4byte	0xe8
 19861 1691 02       		.byte	0x2
 19862 1692 91       		.byte	0x91
 19863 1693 58       		.sleb128 -40
 19864 1694 00       		.byte	0x0
 19865 1695 2F       		.uleb128 0x2f
 19866 1696 01       		.byte	0x1
 19867 1697 10090000 		.4byte	.LASF320
 19868 169b 01       		.byte	0x1
 19869 169c 2607     		.2byte	0x726
 19870 169e 01       		.byte	0x1
 19871 169f 2B000000 		.4byte	0x2b
 19872 16a3 00000000 		.4byte	.LFB24
 19873 16a7 3C000000 		.4byte	.LFE24
 19874 16ab 02       		.byte	0x2
 19875 16ac 7D       		.byte	0x7d
 19876 16ad 00       		.sleb128 0
 19877 16ae F1160000 		.4byte	0x16f1
 19878 16b2 1D       		.uleb128 0x1d
 19879 16b3 616D7800 		.ascii	"amx\000"
 19880 16b7 01       		.byte	0x1
 19881 16b8 2607     		.2byte	0x726
 19882 16ba 620A0000 		.4byte	0xa62
 19883 16be E8110000 		.4byte	.LLST113
 19884 16c2 1D       		.uleb128 0x1d
 19885 16c3 74616700 		.ascii	"tag\000"
 19886 16c7 01       		.byte	0x1
 19887 16c8 2607     		.2byte	0x726
 19888 16ca 7A000000 		.4byte	0x7a
 19889 16ce 11120000 		.4byte	.LLST114
 19890 16d2 2B       		.uleb128 0x2b
 19891 16d3 70747200 		.ascii	"ptr\000"
 19892 16d7 01       		.byte	0x1
 19893 16d8 2607     		.2byte	0x726
ARM GAS  /tmp/ccvHIMcj.s 			page 351


 19894 16da F1160000 		.4byte	0x16f1
 19895 16de 01       		.byte	0x1
 19896 16df 52       		.byte	0x52
 19897 16e0 22       		.uleb128 0x22
 19898 16e1 72030000 		.4byte	.LASF278
 19899 16e5 01       		.byte	0x1
 19900 16e6 2807     		.2byte	0x728
 19901 16e8 2B000000 		.4byte	0x2b
 19902 16ec 2F120000 		.4byte	.LLST115
 19903 16f0 00       		.byte	0x0
 19904 16f1 07       		.uleb128 0x7
 19905 16f2 04       		.byte	0x4
 19906 16f3 29000000 		.4byte	0x29
 19907 16f7 1C       		.uleb128 0x1c
 19908 16f8 01       		.byte	0x1
 19909 16f9 55090000 		.4byte	.LASF321
 19910 16fd 01       		.byte	0x1
 19911 16fe 3407     		.2byte	0x734
 19912 1700 01       		.byte	0x1
 19913 1701 2B000000 		.4byte	0x2b
 19914 1705 00000000 		.4byte	.LFB25
 19915 1709 42000000 		.4byte	.LFE25
 19916 170d 97120000 		.4byte	.LLST116
 19917 1711 52170000 		.4byte	0x1752
 19918 1715 1D       		.uleb128 0x1d
 19919 1716 616D7800 		.ascii	"amx\000"
 19920 171a 01       		.byte	0x1
 19921 171b 3407     		.2byte	0x734
 19922 171d 620A0000 		.4byte	0xa62
 19923 1721 B7120000 		.4byte	.LLST117
 19924 1725 2B       		.uleb128 0x2b
 19925 1726 74616700 		.ascii	"tag\000"
 19926 172a 01       		.byte	0x1
 19927 172b 3407     		.2byte	0x734
 19928 172d 7A000000 		.4byte	0x7a
 19929 1731 01       		.byte	0x1
 19930 1732 51       		.byte	0x51
 19931 1733 2B       		.uleb128 0x2b
 19932 1734 70747200 		.ascii	"ptr\000"
 19933 1738 01       		.byte	0x1
 19934 1739 3407     		.2byte	0x734
 19935 173b 29000000 		.4byte	0x29
 19936 173f 01       		.byte	0x1
 19937 1740 52       		.byte	0x52
 19938 1741 22       		.uleb128 0x22
 19939 1742 72030000 		.4byte	.LASF278
 19940 1746 01       		.byte	0x1
 19941 1747 3607     		.2byte	0x736
 19942 1749 2B000000 		.4byte	0x2b
 19943 174d E0120000 		.4byte	.LLST118
 19944 1751 00       		.byte	0x0
 19945 1752 1C       		.uleb128 0x1c
 19946 1753 01       		.byte	0x1
 19947 1754 3D010000 		.4byte	.LASF322
 19948 1758 01       		.byte	0x1
 19949 1759 5707     		.2byte	0x757
 19950 175b 01       		.byte	0x1
ARM GAS  /tmp/ccvHIMcj.s 			page 352


 19951 175c 2B000000 		.4byte	0x2b
 19952 1760 00000000 		.4byte	.LFB27
 19953 1764 CA000000 		.4byte	.LFE27
 19954 1768 83130000 		.4byte	.LLST119
 19955 176c 36180000 		.4byte	0x1836
 19956 1770 1D       		.uleb128 0x1d
 19957 1771 616D7800 		.ascii	"amx\000"
 19958 1775 01       		.byte	0x1
 19959 1776 5707     		.2byte	0x757
 19960 1778 620A0000 		.4byte	0xa62
 19961 177c B0130000 		.4byte	.LLST120
 19962 1780 1E       		.uleb128 0x1e
 19963 1781 E5020000 		.4byte	.LASF270
 19964 1785 01       		.byte	0x1
 19965 1786 5707     		.2byte	0x757
 19966 1788 250B0000 		.4byte	0xb25
 19967 178c CF130000 		.4byte	.LLST121
 19968 1790 1E       		.uleb128 0x1e
 19969 1791 4F0C0000 		.4byte	.LASF266
 19970 1795 01       		.byte	0x1
 19971 1796 5707     		.2byte	0x757
 19972 1798 2B000000 		.4byte	0x2b
 19973 179c ED130000 		.4byte	.LLST122
 19974 17a0 22       		.uleb128 0x22
 19975 17a1 54020000 		.4byte	.LASF42
 19976 17a5 01       		.byte	0x1
 19977 17a6 5907     		.2byte	0x759
 19978 17a8 BB0C0000 		.4byte	0xcbb
 19979 17ac 0B140000 		.4byte	.LLST123
 19980 17b0 20       		.uleb128 0x20
 19981 17b1 68647200 		.ascii	"hdr\000"
 19982 17b5 01       		.byte	0x1
 19983 17b6 5A07     		.2byte	0x75a
 19984 17b8 6E0A0000 		.4byte	0xa6e
 19985 17bc 38140000 		.4byte	.LLST124
 19986 17c0 20       		.uleb128 0x20
 19987 17c1 6900     		.ascii	"i\000"
 19988 17c3 01       		.byte	0x1
 19989 17c4 5B07     		.2byte	0x75b
 19990 17c6 2B000000 		.4byte	0x2b
 19991 17ca 57140000 		.4byte	.LLST125
 19992 17ce 22       		.uleb128 0x22
 19993 17cf F10E0000 		.4byte	.LASF323
 19994 17d3 01       		.byte	0x1
 19995 17d4 5B07     		.2byte	0x75b
 19996 17d6 2B000000 		.4byte	0x2b
 19997 17da 81140000 		.4byte	.LLST126
 19998 17de 20       		.uleb128 0x20
 19999 17df 65727200 		.ascii	"err\000"
 20000 17e3 01       		.byte	0x1
 20001 17e4 5B07     		.2byte	0x75b
 20002 17e6 2B000000 		.4byte	0x2b
 20003 17ea A0140000 		.4byte	.LLST127
 20004 17ee 22       		.uleb128 0x22
 20005 17ef F3010000 		.4byte	.LASF324
 20006 17f3 01       		.byte	0x1
 20007 17f4 5C07     		.2byte	0x75c
ARM GAS  /tmp/ccvHIMcj.s 			page 353


 20008 17f6 F3000000 		.4byte	0xf3
 20009 17fa B4140000 		.4byte	.LLST128
 20010 17fe 34       		.uleb128 0x34
 20011 17ff E40A0000 		.4byte	0xae4
 20012 1803 4C000000 		.4byte	.LBB55
 20013 1807 30010000 		.4byte	.Ldebug_ranges0+0x130
 20014 180b 01       		.byte	0x1
 20015 180c 6A07     		.2byte	0x76a
 20016 180e 35       		.uleb128 0x35
 20017 180f 0E0B0000 		.4byte	0xb0e
 20018 1813 32       		.uleb128 0x32
 20019 1814 020B0000 		.4byte	0xb02
 20020 1818 C7140000 		.4byte	.LLST129
 20021 181c 32       		.uleb128 0x32
 20022 181d F60A0000 		.4byte	0xaf6
 20023 1821 DA140000 		.4byte	.LLST130
 20024 1825 29       		.uleb128 0x29
 20025 1826 60010000 		.4byte	.Ldebug_ranges0+0x160
 20026 182a 33       		.uleb128 0x33
 20027 182b 1A0B0000 		.4byte	0xb1a
 20028 182f ED140000 		.4byte	.LLST131
 20029 1833 00       		.byte	0x0
 20030 1834 00       		.byte	0x0
 20031 1835 00       		.byte	0x0
 20032 1836 2F       		.uleb128 0x2f
 20033 1837 01       		.byte	0x1
 20034 1838 400E0000 		.4byte	.LASF325
 20035 183c 01       		.byte	0x1
 20036 183d 7907     		.2byte	0x779
 20037 183f 01       		.byte	0x1
 20038 1840 82180000 		.4byte	0x1882
 20039 1844 00000000 		.4byte	.LFB28
 20040 1848 10000000 		.4byte	.LFE28
 20041 184c 02       		.byte	0x2
 20042 184d 7D       		.byte	0x7d
 20043 184e 00       		.sleb128 0
 20044 184f 82180000 		.4byte	0x1882
 20045 1853 1E       		.uleb128 0x1e
 20046 1854 6B0C0000 		.4byte	.LASF41
 20047 1858 01       		.byte	0x1
 20048 1859 7907     		.2byte	0x779
 20049 185b 9B000000 		.4byte	0x9b
 20050 185f 0C150000 		.4byte	.LLST132
 20051 1863 30       		.uleb128 0x30
 20052 1864 54020000 		.4byte	.LASF42
 20053 1868 01       		.byte	0x1
 20054 1869 7907     		.2byte	0x779
 20055 186b F3000000 		.4byte	0xf3
 20056 186f 01       		.byte	0x1
 20057 1870 51       		.byte	0x51
 20058 1871 2C       		.uleb128 0x2c
 20059 1872 6E00     		.ascii	"n\000"
 20060 1874 01       		.byte	0x1
 20061 1875 7B07     		.2byte	0x77b
 20062 1877 46030000 		.4byte	0x346
 20063 187b 05       		.byte	0x5
 20064 187c 03       		.byte	0x3
ARM GAS  /tmp/ccvHIMcj.s 			page 354


 20065 187d 00000000 		.4byte	n.6308
 20066 1881 00       		.byte	0x0
 20067 1882 07       		.uleb128 0x7
 20068 1883 04       		.byte	0x4
 20069 1884 46030000 		.4byte	0x346
 20070 1888 31       		.uleb128 0x31
 20071 1889 300B0000 		.4byte	0xb30
 20072 188d 00000000 		.4byte	.LFB29
 20073 1891 32000000 		.4byte	.LFE29
 20074 1895 2E150000 		.4byte	.LLST133
 20075 1899 C0180000 		.4byte	0x18c0
 20076 189d 32       		.uleb128 0x32
 20077 189e 430B0000 		.4byte	0xb43
 20078 18a2 4E150000 		.4byte	.LLST134
 20079 18a6 2E       		.uleb128 0x2e
 20080 18a7 4F0B0000 		.4byte	0xb4f
 20081 18ab 01       		.byte	0x1
 20082 18ac 51       		.byte	0x51
 20083 18ad 33       		.uleb128 0x33
 20084 18ae 5B0B0000 		.4byte	0xb5b
 20085 18b2 77150000 		.4byte	.LLST135
 20086 18b6 33       		.uleb128 0x33
 20087 18b7 670B0000 		.4byte	0xb67
 20088 18bb 95150000 		.4byte	.LLST136
 20089 18bf 00       		.byte	0x0
 20090 18c0 1C       		.uleb128 0x1c
 20091 18c1 01       		.byte	0x1
 20092 18c2 8C0F0000 		.4byte	.LASF326
 20093 18c6 01       		.byte	0x1
 20094 18c7 9607     		.2byte	0x796
 20095 18c9 01       		.byte	0x1
 20096 18ca 2B000000 		.4byte	0x2b
 20097 18ce 00000000 		.4byte	.LFB30
 20098 18d2 44000000 		.4byte	.LFE30
 20099 18d6 A8150000 		.4byte	.LLST137
 20100 18da 68190000 		.4byte	0x1968
 20101 18de 1D       		.uleb128 0x1d
 20102 18df 616D7800 		.ascii	"amx\000"
 20103 18e3 01       		.byte	0x1
 20104 18e4 9607     		.2byte	0x796
 20105 18e6 620A0000 		.4byte	0xa62
 20106 18ea C8150000 		.4byte	.LLST138
 20107 18ee 1E       		.uleb128 0x1e
 20108 18ef 060D0000 		.4byte	.LASF45
 20109 18f3 01       		.byte	0x1
 20110 18f4 9607     		.2byte	0x796
 20111 18f6 D0020000 		.4byte	0x2d0
 20112 18fa FC150000 		.4byte	.LLST139
 20113 18fe 2C       		.uleb128 0x2c
 20114 18ff 68647200 		.ascii	"hdr\000"
 20115 1903 01       		.byte	0x1
 20116 1904 9807     		.2byte	0x798
 20117 1906 6E0A0000 		.4byte	0xa6e
 20118 190a 01       		.byte	0x1
 20119 190b 55       		.byte	0x55
 20120 190c 22       		.uleb128 0x22
 20121 190d 17070000 		.4byte	.LASF22
ARM GAS  /tmp/ccvHIMcj.s 			page 355


 20122 1911 01       		.byte	0x1
 20123 1912 9907     		.2byte	0x799
 20124 1914 88000000 		.4byte	0x88
 20125 1918 1A160000 		.4byte	.LLST140
 20126 191c 22       		.uleb128 0x22
 20127 191d 07070000 		.4byte	.LASF327
 20128 1921 01       		.byte	0x1
 20129 1922 9A07     		.2byte	0x79a
 20130 1924 E8000000 		.4byte	0xe8
 20131 1928 38160000 		.4byte	.LLST141
 20132 192c 34       		.uleb128 0x34
 20133 192d 300B0000 		.4byte	0xb30
 20134 1931 12000000 		.4byte	.LBB65
 20135 1935 90010000 		.4byte	.Ldebug_ranges0+0x190
 20136 1939 01       		.byte	0x1
 20137 193a A507     		.2byte	0x7a5
 20138 193c 32       		.uleb128 0x32
 20139 193d 4F0B0000 		.4byte	0xb4f
 20140 1941 56160000 		.4byte	.LLST142
 20141 1945 32       		.uleb128 0x32
 20142 1946 430B0000 		.4byte	0xb43
 20143 194a 7F160000 		.4byte	.LLST143
 20144 194e 29       		.uleb128 0x29
 20145 194f B0010000 		.4byte	.Ldebug_ranges0+0x1b0
 20146 1953 33       		.uleb128 0x33
 20147 1954 5B0B0000 		.4byte	0xb5b
 20148 1958 A8160000 		.4byte	.LLST144
 20149 195c 33       		.uleb128 0x33
 20150 195d 670B0000 		.4byte	0xb67
 20151 1961 C6160000 		.4byte	.LLST145
 20152 1965 00       		.byte	0x0
 20153 1966 00       		.byte	0x0
 20154 1967 00       		.byte	0x0
 20155 1968 2D       		.uleb128 0x2d
 20156 1969 740B0000 		.4byte	0xb74
 20157 196d 00000000 		.4byte	.LFB33
 20158 1971 0A000000 		.4byte	.LFE33
 20159 1975 02       		.byte	0x2
 20160 1976 7D       		.byte	0x7d
 20161 1977 00       		.sleb128 0
 20162 1978 94190000 		.4byte	0x1994
 20163 197c 32       		.uleb128 0x32
 20164 197d 870B0000 		.4byte	0xb87
 20165 1981 D9160000 		.4byte	.LLST146
 20166 1985 2E       		.uleb128 0x2e
 20167 1986 930B0000 		.4byte	0xb93
 20168 198a 01       		.byte	0x1
 20169 198b 51       		.byte	0x51
 20170 198c 2E       		.uleb128 0x2e
 20171 198d 9F0B0000 		.4byte	0xb9f
 20172 1991 01       		.byte	0x1
 20173 1992 52       		.byte	0x52
 20174 1993 00       		.byte	0x0
 20175 1994 1C       		.uleb128 0x1c
 20176 1995 01       		.byte	0x1
 20177 1996 00030000 		.4byte	.LASF328
 20178 199a 01       		.byte	0x1
ARM GAS  /tmp/ccvHIMcj.s 			page 356


 20179 199b 1008     		.2byte	0x810
 20180 199d 01       		.byte	0x1
 20181 199e 2B000000 		.4byte	0x2b
 20182 19a2 00000000 		.4byte	.LFB34
 20183 19a6 3C190000 		.4byte	.LFE34
 20184 19aa EC160000 		.4byte	.LLST147
 20185 19ae 6A1B0000 		.4byte	0x1b6a
 20186 19b2 1D       		.uleb128 0x1d
 20187 19b3 616D7800 		.ascii	"amx\000"
 20188 19b7 01       		.byte	0x1
 20189 19b8 1008     		.2byte	0x810
 20190 19ba 620A0000 		.4byte	0xa62
 20191 19be 19170000 		.4byte	.LLST148
 20192 19c2 1E       		.uleb128 0x1e
 20193 19c3 D4070000 		.4byte	.LASF329
 20194 19c7 01       		.byte	0x1
 20195 19c8 1008     		.2byte	0x810
 20196 19ca D0020000 		.4byte	0x2d0
 20197 19ce 84170000 		.4byte	.LLST149
 20198 19d2 1E       		.uleb128 0x1e
 20199 19d3 72030000 		.4byte	.LASF278
 20200 19d7 01       		.byte	0x1
 20201 19d8 1008     		.2byte	0x810
 20202 19da 2B000000 		.4byte	0x2b
 20203 19de A4170000 		.4byte	.LLST150
 20204 19e2 20       		.uleb128 0x20
 20205 19e3 68647200 		.ascii	"hdr\000"
 20206 19e7 01       		.byte	0x1
 20207 19e8 1208     		.2byte	0x812
 20208 19ea 6E0A0000 		.4byte	0xa6e
 20209 19ee EE170000 		.4byte	.LLST151
 20210 19f2 22       		.uleb128 0x22
 20211 19f3 54020000 		.4byte	.LASF42
 20212 19f7 01       		.byte	0x1
 20213 19f8 1308     		.2byte	0x813
 20214 19fa BB0C0000 		.4byte	0xcbb
 20215 19fe 7A180000 		.4byte	.LLST152
 20216 1a02 22       		.uleb128 0x22
 20217 1a03 17070000 		.4byte	.LASF22
 20218 1a07 01       		.byte	0x1
 20219 1a08 1408     		.2byte	0x814
 20220 1a0a 88000000 		.4byte	0x88
 20221 1a0e 92180000 		.4byte	.LLST153
 20222 1a12 22       		.uleb128 0x22
 20223 1a13 0D070000 		.4byte	.LASF31
 20224 1a17 01       		.byte	0x1
 20225 1a18 1508     		.2byte	0x815
 20226 1a1a E8000000 		.4byte	0xe8
 20227 1a1e BB180000 		.4byte	.LLST154
 20228 1a22 22       		.uleb128 0x22
 20229 1a23 66010000 		.4byte	.LASF32
 20230 1a27 01       		.byte	0x1
 20231 1a28 1508     		.2byte	0x815
 20232 1a2a E8000000 		.4byte	0xe8
 20233 1a2e 25190000 		.4byte	.LLST155
 20234 1a32 20       		.uleb128 0x20
 20235 1a33 6900     		.ascii	"i\000"
ARM GAS  /tmp/ccvHIMcj.s 			page 357


 20236 1a35 01       		.byte	0x1
 20237 1a36 1608     		.2byte	0x816
 20238 1a38 2B000000 		.4byte	0x2b
 20239 1a3c 82190000 		.4byte	.LLST156
 20240 1a40 20       		.uleb128 0x20
 20241 1a41 70726900 		.ascii	"pri\000"
 20242 1a45 01       		.byte	0x1
 20243 1a46 1808     		.2byte	0x818
 20244 1a48 E8000000 		.4byte	0xe8
 20245 1a4c 8E1A0000 		.4byte	.LLST157
 20246 1a50 20       		.uleb128 0x20
 20247 1a51 616C7400 		.ascii	"alt\000"
 20248 1a55 01       		.byte	0x1
 20249 1a56 1808     		.2byte	0x818
 20250 1a58 E8000000 		.4byte	0xe8
 20251 1a5c 241B0000 		.4byte	.LLST158
 20252 1a60 20       		.uleb128 0x20
 20253 1a61 73746B00 		.ascii	"stk\000"
 20254 1a65 01       		.byte	0x1
 20255 1a66 1808     		.2byte	0x818
 20256 1a68 E8000000 		.4byte	0xe8
 20257 1a6c B41D0000 		.4byte	.LLST159
 20258 1a70 20       		.uleb128 0x20
 20259 1a71 66726D00 		.ascii	"frm\000"
 20260 1a75 01       		.byte	0x1
 20261 1a76 1808     		.2byte	0x818
 20262 1a78 E8000000 		.4byte	0xe8
 20263 1a7c C9200000 		.4byte	.LLST160
 20264 1a80 20       		.uleb128 0x20
 20265 1a81 68656100 		.ascii	"hea\000"
 20266 1a85 01       		.byte	0x1
 20267 1a86 1808     		.2byte	0x818
 20268 1a88 E8000000 		.4byte	0xe8
 20269 1a8c 2E220000 		.4byte	.LLST161
 20270 1a90 20       		.uleb128 0x20
 20271 1a91 63697000 		.ascii	"cip\000"
 20272 1a95 01       		.byte	0x1
 20273 1a96 1908     		.2byte	0x819
 20274 1a98 D0020000 		.4byte	0x2d0
 20275 1a9c 9A220000 		.4byte	.LLST162
 20276 1aa0 20       		.uleb128 0x20
 20277 1aa1 6F7000   		.ascii	"op\000"
 20278 1aa4 01       		.byte	0x1
 20279 1aa5 1908     		.2byte	0x819
 20280 1aa7 E8000000 		.4byte	0xe8
 20281 1aab EC2C0000 		.4byte	.LLST163
 20282 1aaf 22       		.uleb128 0x22
 20283 1ab0 240E0000 		.4byte	.LASF287
 20284 1ab4 01       		.byte	0x1
 20285 1ab5 1908     		.2byte	0x819
 20286 1ab7 E8000000 		.4byte	0xe8
 20287 1abb 63340000 		.4byte	.LLST164
 20288 1abf 20       		.uleb128 0x20
 20289 1ac0 76616C00 		.ascii	"val\000"
 20290 1ac4 01       		.byte	0x1
 20291 1ac5 1908     		.2byte	0x819
 20292 1ac7 E8000000 		.4byte	0xe8
ARM GAS  /tmp/ccvHIMcj.s 			page 358


 20293 1acb 703A0000 		.4byte	.LLST165
 20294 1acf 36       		.uleb128 0x36
 20295 1ad0 E3070000 		.4byte	.LASF330
 20296 1ad4 01       		.byte	0x1
 20297 1ad5 E408     		.2byte	0x8e4
 20298 1ad7 14090000 		.4byte	.L476
 20299 1adb 36       		.uleb128 0x36
 20300 1adc 91020000 		.4byte	.LASF331
 20301 1ae0 01       		.byte	0x1
 20302 1ae1 1709     		.2byte	0x917
 20303 1ae3 70090000 		.4byte	.L486
 20304 1ae7 36       		.uleb128 0x36
 20305 1ae8 8E0A0000 		.4byte	.LASF332
 20306 1aec 01       		.byte	0x1
 20307 1aed 200A     		.2byte	0xa20
 20308 1aef D0030000 		.4byte	.L511
 20309 1af3 36       		.uleb128 0x36
 20310 1af4 5F0B0000 		.4byte	.LASF333
 20311 1af8 01       		.byte	0x1
 20312 1af9 3B0A     		.2byte	0xa3b
 20313 1afb 6A030000 		.4byte	.L524
 20314 1aff 36       		.uleb128 0x36
 20315 1b00 09090000 		.4byte	.LASF334
 20316 1b04 01       		.byte	0x1
 20317 1b05 530A     		.2byte	0xa53
 20318 1b07 34040000 		.4byte	.L537
 20319 1b0b 36       		.uleb128 0x36
 20320 1b0c DD080000 		.4byte	.LASF335
 20321 1b10 01       		.byte	0x1
 20322 1b11 5E0A     		.2byte	0xa5e
 20323 1b13 36030000 		.4byte	.L545
 20324 1b17 37       		.uleb128 0x37
 20325 1b18 26000000 		.4byte	.LBB71
 20326 1b1c 78000000 		.4byte	.LBE71
 20327 1b20 351B0000 		.4byte	0x1b35
 20328 1b24 22       		.uleb128 0x22
 20329 1b25 F10E0000 		.4byte	.LASF323
 20330 1b29 01       		.byte	0x1
 20331 1b2a 2A08     		.2byte	0x82a
 20332 1b2c 2B000000 		.4byte	0x2b
 20333 1b30 F23C0000 		.4byte	.LLST166
 20334 1b34 00       		.byte	0x0
 20335 1b35 28       		.uleb128 0x28
 20336 1b36 D0010000 		.4byte	.Ldebug_ranges0+0x1d0
 20337 1b3a 4F1B0000 		.4byte	0x1b4f
 20338 1b3e 22       		.uleb128 0x22
 20339 1b3f 590F0000 		.4byte	.LASF336
 20340 1b43 01       		.byte	0x1
 20341 1b44 FB0A     		.2byte	0xafb
 20342 1b46 D0020000 		.4byte	0x2d0
 20343 1b4a 053D0000 		.4byte	.LLST167
 20344 1b4e 00       		.byte	0x0
 20345 1b4f 21       		.uleb128 0x21
 20346 1b50 1E140000 		.4byte	.LBB73
 20347 1b54 6E140000 		.4byte	.LBE73
 20348 1b58 22       		.uleb128 0x22
 20349 1b59 590F0000 		.4byte	.LASF336
ARM GAS  /tmp/ccvHIMcj.s 			page 359


 20350 1b5d 01       		.byte	0x1
 20351 1b5e 890A     		.2byte	0xa89
 20352 1b60 D0020000 		.4byte	0x2d0
 20353 1b64 7A3D0000 		.4byte	.LLST168
 20354 1b68 00       		.byte	0x0
 20355 1b69 00       		.byte	0x0
 20356 1b6a 2F       		.uleb128 0x2f
 20357 1b6b 01       		.byte	0x1
 20358 1b6c B6080000 		.4byte	.LASF337
 20359 1b70 01       		.byte	0x1
 20360 1b71 2A0D     		.2byte	0xd2a
 20361 1b73 01       		.byte	0x1
 20362 1b74 2B000000 		.4byte	0x2b
 20363 1b78 00000000 		.4byte	.LFB35
 20364 1b7c 06000000 		.4byte	.LFE35
 20365 1b80 02       		.byte	0x2
 20366 1b81 7D       		.byte	0x7d
 20367 1b82 00       		.sleb128 0
 20368 1b83 A61B0000 		.4byte	0x1ba6
 20369 1b87 1D       		.uleb128 0x1d
 20370 1b88 616D7800 		.ascii	"amx\000"
 20371 1b8c 01       		.byte	0x1
 20372 1b8d 2A0D     		.2byte	0xd2a
 20373 1b8f 620A0000 		.4byte	0xa62
 20374 1b93 E23D0000 		.4byte	.LLST169
 20375 1b97 30       		.uleb128 0x30
 20376 1b98 370E0000 		.4byte	.LASF23
 20377 1b9c 01       		.byte	0x1
 20378 1b9d 2A0D     		.2byte	0xd2a
 20379 1b9f A0020000 		.4byte	0x2a0
 20380 1ba3 01       		.byte	0x1
 20381 1ba4 51       		.byte	0x51
 20382 1ba5 00       		.byte	0x0
 20383 1ba6 2F       		.uleb128 0x2f
 20384 1ba7 01       		.byte	0x1
 20385 1ba8 ED050000 		.4byte	.LASF338
 20386 1bac 01       		.byte	0x1
 20387 1bad 340D     		.2byte	0xd34
 20388 1baf 01       		.byte	0x1
 20389 1bb0 2B000000 		.4byte	0x2b
 20390 1bb4 00000000 		.4byte	.LFB36
 20391 1bb8 06000000 		.4byte	.LFE36
 20392 1bbc 02       		.byte	0x2
 20393 1bbd 7D       		.byte	0x7d
 20394 1bbe 00       		.sleb128 0
 20395 1bbf E21B0000 		.4byte	0x1be2
 20396 1bc3 1D       		.uleb128 0x1d
 20397 1bc4 616D7800 		.ascii	"amx\000"
 20398 1bc8 01       		.byte	0x1
 20399 1bc9 340D     		.2byte	0xd34
 20400 1bcb 620A0000 		.4byte	0xa62
 20401 1bcf F53D0000 		.4byte	.LLST170
 20402 1bd3 30       		.uleb128 0x30
 20403 1bd4 7A000000 		.4byte	.LASF24
 20404 1bd8 01       		.byte	0x1
 20405 1bd9 340D     		.2byte	0xd34
 20406 1bdb D6020000 		.4byte	0x2d6
ARM GAS  /tmp/ccvHIMcj.s 			page 360


 20407 1bdf 01       		.byte	0x1
 20408 1be0 51       		.byte	0x51
 20409 1be1 00       		.byte	0x0
 20410 1be2 2F       		.uleb128 0x2f
 20411 1be3 01       		.byte	0x1
 20412 1be4 C1020000 		.4byte	.LASF339
 20413 1be8 01       		.byte	0x1
 20414 1be9 3D0D     		.2byte	0xd3d
 20415 1beb 01       		.byte	0x1
 20416 1bec 2B000000 		.4byte	0x2b
 20417 1bf0 00000000 		.4byte	.LFB37
 20418 1bf4 06000000 		.4byte	.LFE37
 20419 1bf8 02       		.byte	0x2
 20420 1bf9 7D       		.byte	0x7d
 20421 1bfa 00       		.sleb128 0
 20422 1bfb 1E1C0000 		.4byte	0x1c1e
 20423 1bff 1D       		.uleb128 0x1d
 20424 1c00 616D7800 		.ascii	"amx\000"
 20425 1c04 01       		.byte	0x1
 20426 1c05 3D0D     		.2byte	0xd3d
 20427 1c07 620A0000 		.4byte	0xa62
 20428 1c0b 083E0000 		.4byte	.LLST171
 20429 1c0f 30       		.uleb128 0x30
 20430 1c10 4E020000 		.4byte	.LASF29
 20431 1c14 01       		.byte	0x1
 20432 1c15 3D0D     		.2byte	0xd3d
 20433 1c17 2B000000 		.4byte	0x2b
 20434 1c1b 01       		.byte	0x1
 20435 1c1c 51       		.byte	0x51
 20436 1c1d 00       		.byte	0x0
 20437 1c1e 1C       		.uleb128 0x1c
 20438 1c1f 01       		.byte	0x1
 20439 1c20 210C0000 		.4byte	.LASF340
 20440 1c24 01       		.byte	0x1
 20441 1c25 460D     		.2byte	0xd46
 20442 1c27 01       		.byte	0x1
 20443 1c28 2B000000 		.4byte	0x2b
 20444 1c2c 00000000 		.4byte	.LFB38
 20445 1c30 34000000 		.4byte	.LFE38
 20446 1c34 1B3E0000 		.4byte	.LLST172
 20447 1c38 8B1C0000 		.4byte	0x1c8b
 20448 1c3c 1D       		.uleb128 0x1d
 20449 1c3d 616D7800 		.ascii	"amx\000"
 20450 1c41 01       		.byte	0x1
 20451 1c42 460D     		.2byte	0xd46
 20452 1c44 620A0000 		.4byte	0xa62
 20453 1c48 3B3E0000 		.4byte	.LLST173
 20454 1c4c 1E       		.uleb128 0x1e
 20455 1c4d D0060000 		.4byte	.LASF341
 20456 1c51 01       		.byte	0x1
 20457 1c52 460D     		.2byte	0xd46
 20458 1c54 2B000000 		.4byte	0x2b
 20459 1c58 643E0000 		.4byte	.LLST174
 20460 1c5c 30       		.uleb128 0x30
 20461 1c5d 060D0000 		.4byte	.LASF45
 20462 1c61 01       		.byte	0x1
 20463 1c62 460D     		.2byte	0xd46
ARM GAS  /tmp/ccvHIMcj.s 			page 361


 20464 1c64 6C140000 		.4byte	0x146c
 20465 1c68 01       		.byte	0x1
 20466 1c69 52       		.byte	0x52
 20467 1c6a 20       		.uleb128 0x20
 20468 1c6b 68647200 		.ascii	"hdr\000"
 20469 1c6f 01       		.byte	0x1
 20470 1c70 480D     		.2byte	0xd48
 20471 1c72 6E0A0000 		.4byte	0xa6e
 20472 1c76 823E0000 		.4byte	.LLST175
 20473 1c7a 22       		.uleb128 0x22
 20474 1c7b 17070000 		.4byte	.LASF22
 20475 1c7f 01       		.byte	0x1
 20476 1c80 490D     		.2byte	0xd49
 20477 1c82 88000000 		.4byte	0x88
 20478 1c86 A03E0000 		.4byte	.LLST176
 20479 1c8a 00       		.byte	0x0
 20480 1c8b 1C       		.uleb128 0x1c
 20481 1c8c 01       		.byte	0x1
 20482 1c8d 3B0A0000 		.4byte	.LASF342
 20483 1c91 01       		.byte	0x1
 20484 1c92 A807     		.2byte	0x7a8
 20485 1c94 01       		.byte	0x1
 20486 1c95 2B000000 		.4byte	0x2b
 20487 1c99 00000000 		.4byte	.LFB31
 20488 1c9d 5E000000 		.4byte	.LFE31
 20489 1ca1 BE3E0000 		.4byte	.LLST177
 20490 1ca5 3F1D0000 		.4byte	0x1d3f
 20491 1ca9 1D       		.uleb128 0x1d
 20492 1caa 616D7800 		.ascii	"amx\000"
 20493 1cae 01       		.byte	0x1
 20494 1caf A807     		.2byte	0x7a8
 20495 1cb1 620A0000 		.4byte	0xa62
 20496 1cb5 DE3E0000 		.4byte	.LLST178
 20497 1cb9 1E       		.uleb128 0x1e
 20498 1cba 060D0000 		.4byte	.LASF45
 20499 1cbe 01       		.byte	0x1
 20500 1cbf A807     		.2byte	0x7a8
 20501 1cc1 6C140000 		.4byte	0x146c
 20502 1cc5 FC3E0000 		.4byte	.LLST179
 20503 1cc9 1E       		.uleb128 0x1e
 20504 1cca DB090000 		.4byte	.LASF343
 20505 1cce 01       		.byte	0x1
 20506 1ccf A807     		.2byte	0x7a8
 20507 1cd1 95020000 		.4byte	0x295
 20508 1cd5 1A3F0000 		.4byte	.LLST180
 20509 1cd9 1E       		.uleb128 0x1e
 20510 1cda 210D0000 		.4byte	.LASF344
 20511 1cde 01       		.byte	0x1
 20512 1cdf A807     		.2byte	0x7a8
 20513 1ce1 2B000000 		.4byte	0x2b
 20514 1ce5 383F0000 		.4byte	.LLST181
 20515 1ce9 27       		.uleb128 0x27
 20516 1cea 07070000 		.4byte	.LASF327
 20517 1cee 01       		.byte	0x1
 20518 1cef AA07     		.2byte	0x7aa
 20519 1cf1 E8000000 		.4byte	0xe8
 20520 1cf5 01       		.byte	0x1
ARM GAS  /tmp/ccvHIMcj.s 			page 362


 20521 1cf6 59       		.byte	0x59
 20522 1cf7 20       		.uleb128 0x20
 20523 1cf8 65727200 		.ascii	"err\000"
 20524 1cfc 01       		.byte	0x1
 20525 1cfd AB07     		.2byte	0x7ab
 20526 1cff 2B000000 		.4byte	0x2b
 20527 1d03 563F0000 		.4byte	.LLST182
 20528 1d07 34       		.uleb128 0x34
 20529 1d08 300B0000 		.4byte	0xb30
 20530 1d0c 2C000000 		.4byte	.LBB75
 20531 1d10 E8010000 		.4byte	.Ldebug_ranges0+0x1e8
 20532 1d14 01       		.byte	0x1
 20533 1d15 B407     		.2byte	0x7b4
 20534 1d17 2E       		.uleb128 0x2e
 20535 1d18 4F0B0000 		.4byte	0xb4f
 20536 1d1c 01       		.byte	0x1
 20537 1d1d 59       		.byte	0x59
 20538 1d1e 2E       		.uleb128 0x2e
 20539 1d1f 430B0000 		.4byte	0xb43
 20540 1d23 01       		.byte	0x1
 20541 1d24 55       		.byte	0x55
 20542 1d25 29       		.uleb128 0x29
 20543 1d26 10020000 		.4byte	.Ldebug_ranges0+0x210
 20544 1d2a 33       		.uleb128 0x33
 20545 1d2b 5B0B0000 		.4byte	0xb5b
 20546 1d2f 7F3F0000 		.4byte	.LLST183
 20547 1d33 33       		.uleb128 0x33
 20548 1d34 670B0000 		.4byte	0xb67
 20549 1d38 9D3F0000 		.4byte	.LLST184
 20550 1d3c 00       		.byte	0x0
 20551 1d3d 00       		.byte	0x0
 20552 1d3e 00       		.byte	0x0
 20553 1d3f 2F       		.uleb128 0x2f
 20554 1d40 01       		.byte	0x1
 20555 1d41 B8060000 		.4byte	.LASF345
 20556 1d45 01       		.byte	0x1
 20557 1d46 590D     		.2byte	0xd59
 20558 1d48 01       		.byte	0x1
 20559 1d49 2B000000 		.4byte	0x2b
 20560 1d4d 00000000 		.4byte	.LFB39
 20561 1d51 26000000 		.4byte	.LFE39
 20562 1d55 02       		.byte	0x2
 20563 1d56 7D       		.byte	0x7d
 20564 1d57 00       		.sleb128 0
 20565 1d58 AD1D0000 		.4byte	0x1dad
 20566 1d5c 1D       		.uleb128 0x1d
 20567 1d5d 616D7800 		.ascii	"amx\000"
 20568 1d61 01       		.byte	0x1
 20569 1d62 590D     		.2byte	0xd59
 20570 1d64 620A0000 		.4byte	0xa62
 20571 1d68 B03F0000 		.4byte	.LLST185
 20572 1d6c 1E       		.uleb128 0x1e
 20573 1d6d 060D0000 		.4byte	.LASF45
 20574 1d71 01       		.byte	0x1
 20575 1d72 590D     		.2byte	0xd59
 20576 1d74 D0020000 		.4byte	0x2d0
 20577 1d78 CE3F0000 		.4byte	.LLST186
ARM GAS  /tmp/ccvHIMcj.s 			page 363


 20578 1d7c 20       		.uleb128 0x20
 20579 1d7d 68647200 		.ascii	"hdr\000"
 20580 1d81 01       		.byte	0x1
 20581 1d82 5B0D     		.2byte	0xd5b
 20582 1d84 6E0A0000 		.4byte	0xa6e
 20583 1d88 EC3F0000 		.4byte	.LLST187
 20584 1d8c 22       		.uleb128 0x22
 20585 1d8d 17070000 		.4byte	.LASF22
 20586 1d91 01       		.byte	0x1
 20587 1d92 5C0D     		.2byte	0xd5c
 20588 1d94 88000000 		.4byte	0x88
 20589 1d98 0A400000 		.4byte	.LLST188
 20590 1d9c 22       		.uleb128 0x22
 20591 1d9d 8B050000 		.4byte	.LASF346
 20592 1da1 01       		.byte	0x1
 20593 1da2 5D0D     		.2byte	0xd5d
 20594 1da4 E8000000 		.4byte	0xe8
 20595 1da8 28400000 		.4byte	.LLST189
 20596 1dac 00       		.byte	0x0
 20597 1dad 1C       		.uleb128 0x1c
 20598 1dae 01       		.byte	0x1
 20599 1daf D2080000 		.4byte	.LASF347
 20600 1db3 01       		.byte	0x1
 20601 1db4 780D     		.2byte	0xd78
 20602 1db6 01       		.byte	0x1
 20603 1db7 2B000000 		.4byte	0x2b
 20604 1dbb 00000000 		.4byte	.LFB40
 20605 1dbf 4E000000 		.4byte	.LFE40
 20606 1dc3 46400000 		.4byte	.LLST190
 20607 1dc7 0A1E0000 		.4byte	0x1e0a
 20608 1dcb 1E       		.uleb128 0x1e
 20609 1dcc 71050000 		.4byte	.LASF348
 20610 1dd0 01       		.byte	0x1
 20611 1dd1 780D     		.2byte	0xd78
 20612 1dd3 95020000 		.4byte	0x295
 20613 1dd7 66400000 		.4byte	.LLST191
 20614 1ddb 1E       		.uleb128 0x1e
 20615 1ddc 6F0B0000 		.4byte	.LASF304
 20616 1de0 01       		.byte	0x1
 20617 1de1 780D     		.2byte	0xd78
 20618 1de3 680A0000 		.4byte	0xa68
 20619 1de7 8F400000 		.4byte	.LLST192
 20620 1deb 20       		.uleb128 0x20
 20621 1dec 6C656E00 		.ascii	"len\000"
 20622 1df0 01       		.byte	0x1
 20623 1df1 7A0D     		.2byte	0xd7a
 20624 1df3 2B000000 		.4byte	0x2b
 20625 1df7 AD400000 		.4byte	.LLST193
 20626 1dfb 20       		.uleb128 0x20
 20627 1dfc 6300     		.ascii	"c\000"
 20628 1dfe 01       		.byte	0x1
 20629 1dff 7C0D     		.2byte	0xd7c
 20630 1e01 E8000000 		.4byte	0xe8
 20631 1e05 F8400000 		.4byte	.LLST194
 20632 1e09 00       		.byte	0x0
 20633 1e0a 1C       		.uleb128 0x1c
 20634 1e0b 01       		.byte	0x1
ARM GAS  /tmp/ccvHIMcj.s 			page 364


 20635 1e0c C90F0000 		.4byte	.LASF349
 20636 1e10 01       		.byte	0x1
 20637 1e11 9D0D     		.2byte	0xd9d
 20638 1e13 01       		.byte	0x1
 20639 1e14 2B000000 		.4byte	0x2b
 20640 1e18 00000000 		.4byte	.LFB41
 20641 1e1c 88010000 		.4byte	.LFE41
 20642 1e20 27410000 		.4byte	.LLST195
 20643 1e24 A61E0000 		.4byte	0x1ea6
 20644 1e28 1E       		.uleb128 0x1e
 20645 1e29 E10F0000 		.4byte	.LASF350
 20646 1e2d 01       		.byte	0x1
 20647 1e2e 9D0D     		.2byte	0xd9d
 20648 1e30 D0020000 		.4byte	0x2d0
 20649 1e34 47410000 		.4byte	.LLST196
 20650 1e38 1E       		.uleb128 0x1e
 20651 1e39 65080000 		.4byte	.LASF351
 20652 1e3d 01       		.byte	0x1
 20653 1e3e 9D0D     		.2byte	0xd9d
 20654 1e40 9B000000 		.4byte	0x9b
 20655 1e44 70410000 		.4byte	.LLST197
 20656 1e48 1E       		.uleb128 0x1e
 20657 1e49 0E040000 		.4byte	.LASF352
 20658 1e4d 01       		.byte	0x1
 20659 1e4e 9D0D     		.2byte	0xd9d
 20660 1e50 2B000000 		.4byte	0x2b
 20661 1e54 B3410000 		.4byte	.LLST198
 20662 1e58 1E       		.uleb128 0x1e
 20663 1e59 80090000 		.4byte	.LASF353
 20664 1e5d 01       		.byte	0x1
 20665 1e5e 9D0D     		.2byte	0xd9d
 20666 1e60 2B000000 		.4byte	0x2b
 20667 1e64 DC410000 		.4byte	.LLST199
 20668 1e68 30       		.uleb128 0x30
 20669 1e69 F8080000 		.4byte	.LASF49
 20670 1e6d 01       		.byte	0x1
 20671 1e6e 9D0D     		.2byte	0xd9d
 20672 1e70 32000000 		.4byte	0x32
 20673 1e74 02       		.byte	0x2
 20674 1e75 91       		.byte	0x91
 20675 1e76 00       		.sleb128 0
 20676 1e77 20       		.uleb128 0x20
 20677 1e78 6C656E00 		.ascii	"len\000"
 20678 1e7c 01       		.byte	0x1
 20679 1e7d 9F0D     		.2byte	0xd9f
 20680 1e7f 2B000000 		.4byte	0x2b
 20681 1e83 26420000 		.4byte	.LLST200
 20682 1e87 20       		.uleb128 0x20
 20683 1e88 6900     		.ascii	"i\000"
 20684 1e8a 01       		.byte	0x1
 20685 1e8b 9F0D     		.2byte	0xd9f
 20686 1e8d 2B000000 		.4byte	0x2b
 20687 1e91 70420000 		.4byte	.LLST201
 20688 1e95 38       		.uleb128 0x38
 20689 1e96 01       		.byte	0x1
 20690 1e97 FC0F0000 		.4byte	.LASF375
 20691 1e9b 01       		.byte	0x1
ARM GAS  /tmp/ccvHIMcj.s 			page 365


 20692 1e9c C407     		.2byte	0x7c4
 20693 1e9e 2B000000 		.4byte	0x2b
 20694 1ea2 01       		.byte	0x1
 20695 1ea3 39       		.uleb128 0x39
 20696 1ea4 00       		.byte	0x0
 20697 1ea5 00       		.byte	0x0
 20698 1ea6 1C       		.uleb128 0x1c
 20699 1ea7 01       		.byte	0x1
 20700 1ea8 D8000000 		.4byte	.LASF354
 20701 1eac 01       		.byte	0x1
 20702 1ead B907     		.2byte	0x7b9
 20703 1eaf 01       		.byte	0x1
 20704 1eb0 2B000000 		.4byte	0x2b
 20705 1eb4 00000000 		.4byte	.LFB32
 20706 1eb8 86000000 		.4byte	.LFE32
 20707 1ebc 9C420000 		.4byte	.LLST202
 20708 1ec0 931F0000 		.4byte	0x1f93
 20709 1ec4 1D       		.uleb128 0x1d
 20710 1ec5 616D7800 		.ascii	"amx\000"
 20711 1ec9 01       		.byte	0x1
 20712 1eca B907     		.2byte	0x7b9
 20713 1ecc 620A0000 		.4byte	0xa62
 20714 1ed0 C8420000 		.4byte	.LLST203
 20715 1ed4 1E       		.uleb128 0x1e
 20716 1ed5 060D0000 		.4byte	.LASF45
 20717 1ed9 01       		.byte	0x1
 20718 1eda B907     		.2byte	0x7b9
 20719 1edc 6C140000 		.4byte	0x146c
 20720 1ee0 E6420000 		.4byte	.LLST204
 20721 1ee4 1E       		.uleb128 0x1e
 20722 1ee5 DD060000 		.4byte	.LASF355
 20723 1ee9 01       		.byte	0x1
 20724 1eea B907     		.2byte	0x7b9
 20725 1eec 9B000000 		.4byte	0x9b
 20726 1ef0 04430000 		.4byte	.LLST205
 20727 1ef4 1E       		.uleb128 0x1e
 20728 1ef5 0E040000 		.4byte	.LASF352
 20729 1ef9 01       		.byte	0x1
 20730 1efa B907     		.2byte	0x7b9
 20731 1efc 2B000000 		.4byte	0x2b
 20732 1f00 22430000 		.4byte	.LLST206
 20733 1f04 30       		.uleb128 0x30
 20734 1f05 80090000 		.4byte	.LASF353
 20735 1f09 01       		.byte	0x1
 20736 1f0a B907     		.2byte	0x7b9
 20737 1f0c 2B000000 		.4byte	0x2b
 20738 1f10 02       		.byte	0x2
 20739 1f11 91       		.byte	0x91
 20740 1f12 00       		.sleb128 0
 20741 1f13 22       		.uleb128 0x22
 20742 1f14 07070000 		.4byte	.LASF327
 20743 1f18 01       		.byte	0x1
 20744 1f19 BB07     		.2byte	0x7bb
 20745 1f1b E8000000 		.4byte	0xe8
 20746 1f1f 40430000 		.4byte	.LLST207
 20747 1f23 22       		.uleb128 0x22
 20748 1f24 210D0000 		.4byte	.LASF344
ARM GAS  /tmp/ccvHIMcj.s 			page 366


 20749 1f28 01       		.byte	0x1
 20750 1f29 BC07     		.2byte	0x7bc
 20751 1f2b 2B000000 		.4byte	0x2b
 20752 1f2f 5E430000 		.4byte	.LLST208
 20753 1f33 20       		.uleb128 0x20
 20754 1f34 65727200 		.ascii	"err\000"
 20755 1f38 01       		.byte	0x1
 20756 1f39 BC07     		.2byte	0x7bc
 20757 1f3b 2B000000 		.4byte	0x2b
 20758 1f3f 94430000 		.4byte	.LLST209
 20759 1f43 3A       		.uleb128 0x3a
 20760 1f44 01       		.byte	0x1
 20761 1f45 FC0F0000 		.4byte	.LASF375
 20762 1f49 01       		.byte	0x1
 20763 1f4a C407     		.2byte	0x7c4
 20764 1f4c 2B000000 		.4byte	0x2b
 20765 1f50 01       		.byte	0x1
 20766 1f51 571F0000 		.4byte	0x1f57
 20767 1f55 39       		.uleb128 0x39
 20768 1f56 00       		.byte	0x0
 20769 1f57 34       		.uleb128 0x34
 20770 1f58 300B0000 		.4byte	0xb30
 20771 1f5c 52000000 		.4byte	.LBB83
 20772 1f60 38020000 		.4byte	.Ldebug_ranges0+0x238
 20773 1f64 01       		.byte	0x1
 20774 1f65 CC07     		.2byte	0x7cc
 20775 1f67 32       		.uleb128 0x32
 20776 1f68 4F0B0000 		.4byte	0xb4f
 20777 1f6c DE430000 		.4byte	.LLST210
 20778 1f70 32       		.uleb128 0x32
 20779 1f71 430B0000 		.4byte	0xb43
 20780 1f75 FC430000 		.4byte	.LLST211
 20781 1f79 29       		.uleb128 0x29
 20782 1f7a 50020000 		.4byte	.Ldebug_ranges0+0x250
 20783 1f7e 33       		.uleb128 0x33
 20784 1f7f 5B0B0000 		.4byte	0xb5b
 20785 1f83 1A440000 		.4byte	.LLST212
 20786 1f87 33       		.uleb128 0x33
 20787 1f88 670B0000 		.4byte	0xb67
 20788 1f8c 38440000 		.4byte	.LLST213
 20789 1f90 00       		.byte	0x0
 20790 1f91 00       		.byte	0x0
 20791 1f92 00       		.byte	0x0
 20792 1f93 1C       		.uleb128 0x1c
 20793 1f94 01       		.byte	0x1
 20794 1f95 57080000 		.4byte	.LASF356
 20795 1f99 01       		.byte	0x1
 20796 1f9a D70D     		.2byte	0xdd7
 20797 1f9c 01       		.byte	0x1
 20798 1f9d 2B000000 		.4byte	0x2b
 20799 1fa1 00000000 		.4byte	.LFB42
 20800 1fa5 84010000 		.4byte	.LFE42
 20801 1fa9 4B440000 		.4byte	.LLST214
 20802 1fad 31200000 		.4byte	0x2031
 20803 1fb1 1E       		.uleb128 0x1e
 20804 1fb2 E10F0000 		.4byte	.LASF350
 20805 1fb6 01       		.byte	0x1
ARM GAS  /tmp/ccvHIMcj.s 			page 367


 20806 1fb7 D70D     		.2byte	0xdd7
 20807 1fb9 8E000000 		.4byte	0x8e
 20808 1fbd 6B440000 		.4byte	.LLST215
 20809 1fc1 1E       		.uleb128 0x1e
 20810 1fc2 65080000 		.4byte	.LASF351
 20811 1fc6 01       		.byte	0x1
 20812 1fc7 D70D     		.2byte	0xdd7
 20813 1fc9 95020000 		.4byte	0x295
 20814 1fcd 89440000 		.4byte	.LLST216
 20815 1fd1 30       		.uleb128 0x30
 20816 1fd2 80090000 		.4byte	.LASF353
 20817 1fd6 01       		.byte	0x1
 20818 1fd7 D70D     		.2byte	0xdd7
 20819 1fd9 2B000000 		.4byte	0x2b
 20820 1fdd 01       		.byte	0x1
 20821 1fde 52       		.byte	0x52
 20822 1fdf 1E       		.uleb128 0x1e
 20823 1fe0 F8080000 		.4byte	.LASF49
 20824 1fe4 01       		.byte	0x1
 20825 1fe5 D70D     		.2byte	0xdd7
 20826 1fe7 32000000 		.4byte	0x32
 20827 1feb F8440000 		.4byte	.LLST217
 20828 1fef 20       		.uleb128 0x20
 20829 1ff0 6C656E00 		.ascii	"len\000"
 20830 1ff4 01       		.byte	0x1
 20831 1ff5 D90D     		.2byte	0xdd9
 20832 1ff7 2B000000 		.4byte	0x2b
 20833 1ffb 2C450000 		.4byte	.LLST218
 20834 1fff 29       		.uleb128 0x29
 20835 2000 68020000 		.4byte	.Ldebug_ranges0+0x268
 20836 2004 20       		.uleb128 0x20
 20837 2005 6300     		.ascii	"c\000"
 20838 2007 01       		.byte	0x1
 20839 2008 DF0D     		.2byte	0xddf
 20840 200a E8000000 		.4byte	0xe8
 20841 200e 71450000 		.4byte	.LLST219
 20842 2012 20       		.uleb128 0x20
 20843 2013 6900     		.ascii	"i\000"
 20844 2015 01       		.byte	0x1
 20845 2016 E00D     		.2byte	0xde0
 20846 2018 2B000000 		.4byte	0x2b
 20847 201c D5450000 		.4byte	.LLST220
 20848 2020 20       		.uleb128 0x20
 20849 2021 636800   		.ascii	"ch\000"
 20850 2024 01       		.byte	0x1
 20851 2025 E10D     		.2byte	0xde1
 20852 2027 94000000 		.4byte	0x94
 20853 202b 13460000 		.4byte	.LLST221
 20854 202f 00       		.byte	0x0
 20855 2030 00       		.byte	0x0
 20856 2031 1C       		.uleb128 0x1c
 20857 2032 01       		.byte	0x1
 20858 2033 120E0000 		.4byte	.LASF357
 20859 2037 01       		.byte	0x1
 20860 2038 1D0E     		.2byte	0xe1d
 20861 203a 01       		.byte	0x1
 20862 203b 2B000000 		.4byte	0x2b
ARM GAS  /tmp/ccvHIMcj.s 			page 368


 20863 203f 00000000 		.4byte	.LFB43
 20864 2043 F0000000 		.4byte	.LFE43
 20865 2047 3C460000 		.4byte	.LLST222
 20866 204b DA200000 		.4byte	0x20da
 20867 204f 1E       		.uleb128 0x1e
 20868 2050 DD060000 		.4byte	.LASF355
 20869 2054 01       		.byte	0x1
 20870 2055 1D0E     		.2byte	0xe1d
 20871 2057 9B000000 		.4byte	0x9b
 20872 205b 5C460000 		.4byte	.LLST223
 20873 205f 30       		.uleb128 0x30
 20874 2060 D1010000 		.4byte	.LASF358
 20875 2064 01       		.byte	0x1
 20876 2065 1D0E     		.2byte	0xe1d
 20877 2067 DA200000 		.4byte	0x20da
 20878 206b 01       		.byte	0x1
 20879 206c 51       		.byte	0x51
 20880 206d 30       		.uleb128 0x30
 20881 206e C2040000 		.4byte	.LASF272
 20882 2072 01       		.byte	0x1
 20883 2073 1D0E     		.2byte	0xe1d
 20884 2075 D0020000 		.4byte	0x2d0
 20885 2079 01       		.byte	0x1
 20886 207a 52       		.byte	0x52
 20887 207b 27       		.uleb128 0x27
 20888 207c 5E040000 		.4byte	.LASF359
 20889 2080 01       		.byte	0x1
 20890 2081 1F0E     		.2byte	0xe1f
 20891 2083 F0200000 		.4byte	0x20f0
 20892 2087 05       		.byte	0x5
 20893 2088 03       		.byte	0x3
 20894 2089 00000000 		.4byte	utf8_count.6724
 20895 208d 27       		.uleb128 0x27
 20896 208e B90B0000 		.4byte	.LASF360
 20897 2092 01       		.byte	0x1
 20898 2093 200E     		.2byte	0xe20
 20899 2095 05210000 		.4byte	0x2105
 20900 2099 05       		.byte	0x5
 20901 209a 03       		.byte	0x3
 20902 209b 00000000 		.4byte	utf8_lowmark.6725
 20903 209f 20       		.uleb128 0x20
 20904 20a0 6300     		.ascii	"c\000"
 20905 20a2 01       		.byte	0x1
 20906 20a3 210E     		.2byte	0xe21
 20907 20a5 57000000 		.4byte	0x57
 20908 20a9 15470000 		.4byte	.LLST224
 20909 20ad 22       		.uleb128 0x22
 20910 20ae 95030000 		.4byte	.LASF279
 20911 20b2 01       		.byte	0x1
 20912 20b3 220E     		.2byte	0xe22
 20913 20b5 E8000000 		.4byte	0xe8
 20914 20b9 9F470000 		.4byte	.LLST225
 20915 20bd 22       		.uleb128 0x22
 20916 20be 34030000 		.4byte	.LASF361
 20917 20c2 01       		.byte	0x1
 20918 20c3 230E     		.2byte	0xe23
 20919 20c5 2B000000 		.4byte	0x2b
ARM GAS  /tmp/ccvHIMcj.s 			page 369


 20920 20c9 FF470000 		.4byte	.LLST226
 20921 20cd 36       		.uleb128 0x36
 20922 20ce 4E020000 		.4byte	.LASF29
 20923 20d2 01       		.byte	0x1
 20924 20d3 650E     		.2byte	0xe65
 20925 20d5 24000000 		.4byte	.L978
 20926 20d9 00       		.byte	0x0
 20927 20da 07       		.uleb128 0x7
 20928 20db 04       		.byte	0x4
 20929 20dc 9B000000 		.4byte	0x9b
 20930 20e0 10       		.uleb128 0x10
 20931 20e1 94000000 		.4byte	0x94
 20932 20e5 F0200000 		.4byte	0x20f0
 20933 20e9 11       		.uleb128 0x11
 20934 20ea 3D000000 		.4byte	0x3d
 20935 20ee 0F       		.byte	0xf
 20936 20ef 00       		.byte	0x0
 20937 20f0 08       		.uleb128 0x8
 20938 20f1 E0200000 		.4byte	0x20e0
 20939 20f5 10       		.uleb128 0x10
 20940 20f6 7A000000 		.4byte	0x7a
 20941 20fa 05210000 		.4byte	0x2105
 20942 20fe 11       		.uleb128 0x11
 20943 20ff 3D000000 		.4byte	0x3d
 20944 2103 04       		.byte	0x4
 20945 2104 00       		.byte	0x0
 20946 2105 08       		.uleb128 0x8
 20947 2106 F5200000 		.4byte	0x20f5
 20948 210a 1C       		.uleb128 0x1c
 20949 210b 01       		.byte	0x1
 20950 210c C8070000 		.4byte	.LASF362
 20951 2110 01       		.byte	0x1
 20952 2111 700E     		.2byte	0xe70
 20953 2113 01       		.byte	0x1
 20954 2114 2B000000 		.4byte	0x2b
 20955 2118 00000000 		.4byte	.LFB44
 20956 211c 66010000 		.4byte	.LFE44
 20957 2120 1D480000 		.4byte	.LLST227
 20958 2124 73210000 		.4byte	0x2173
 20959 2128 1E       		.uleb128 0x1e
 20960 2129 DD060000 		.4byte	.LASF355
 20961 212d 01       		.byte	0x1
 20962 212e 700E     		.2byte	0xe70
 20963 2130 8E000000 		.4byte	0x8e
 20964 2134 3D480000 		.4byte	.LLST228
 20965 2138 30       		.uleb128 0x30
 20966 2139 D1010000 		.4byte	.LASF358
 20967 213d 01       		.byte	0x1
 20968 213e 700E     		.2byte	0xe70
 20969 2140 73210000 		.4byte	0x2173
 20970 2144 01       		.byte	0x1
 20971 2145 51       		.byte	0x51
 20972 2146 1E       		.uleb128 0x1e
 20973 2147 82050000 		.4byte	.LASF363
 20974 214b 01       		.byte	0x1
 20975 214c 700E     		.2byte	0xe70
 20976 214e 2B000000 		.4byte	0x2b
ARM GAS  /tmp/ccvHIMcj.s 			page 370


 20977 2152 F2480000 		.4byte	.LLST229
 20978 2156 1E       		.uleb128 0x1e
 20979 2157 C2040000 		.4byte	.LASF272
 20980 215b 01       		.byte	0x1
 20981 215c 700E     		.2byte	0xe70
 20982 215e E8000000 		.4byte	0xe8
 20983 2162 47490000 		.4byte	.LLST230
 20984 2166 36       		.uleb128 0x36
 20985 2167 4E020000 		.4byte	.LASF29
 20986 216b 01       		.byte	0x1
 20987 216c A50E     		.2byte	0xea5
 20988 216e 1C000000 		.4byte	.L1006
 20989 2172 00       		.byte	0x0
 20990 2173 07       		.uleb128 0x7
 20991 2174 04       		.byte	0x4
 20992 2175 8E000000 		.4byte	0x8e
 20993 2179 1C       		.uleb128 0x1c
 20994 217a 01       		.byte	0x1
 20995 217b 47090000 		.4byte	.LASF364
 20996 217f 01       		.byte	0x1
 20997 2180 AE0E     		.2byte	0xeae
 20998 2182 01       		.byte	0x1
 20999 2183 2B000000 		.4byte	0x2b
 21000 2187 00000000 		.4byte	.LFB45
 21001 218b 30000000 		.4byte	.LFE45
 21002 218f 9C490000 		.4byte	.LLST231
 21003 2193 D8210000 		.4byte	0x21d8
 21004 2197 1E       		.uleb128 0x1e
 21005 2198 DD060000 		.4byte	.LASF355
 21006 219c 01       		.byte	0x1
 21007 219d AE0E     		.2byte	0xeae
 21008 219f 9B000000 		.4byte	0x9b
 21009 21a3 C8490000 		.4byte	.LLST232
 21010 21a7 1E       		.uleb128 0x1e
 21011 21a8 6F0B0000 		.4byte	.LASF304
 21012 21ac 01       		.byte	0x1
 21013 21ad AE0E     		.2byte	0xeae
 21014 21af 680A0000 		.4byte	0xa68
 21015 21b3 E7490000 		.4byte	.LLST233
 21016 21b7 20       		.uleb128 0x20
 21017 21b8 65727200 		.ascii	"err\000"
 21018 21bc 01       		.byte	0x1
 21019 21bd B00E     		.2byte	0xeb0
 21020 21bf 2B000000 		.4byte	0x2b
 21021 21c3 054A0000 		.4byte	.LLST234
 21022 21c7 20       		.uleb128 0x20
 21023 21c8 6C656E00 		.ascii	"len\000"
 21024 21cc 01       		.byte	0x1
 21025 21cd B10E     		.2byte	0xeb1
 21026 21cf 2B000000 		.4byte	0x2b
 21027 21d3 244A0000 		.4byte	.LLST235
 21028 21d7 00       		.byte	0x0
 21029 21d8 1C       		.uleb128 0x1c
 21030 21d9 01       		.byte	0x1
 21031 21da E60D0000 		.4byte	.LASF365
 21032 21de 01       		.byte	0x1
 21033 21df C00E     		.2byte	0xec0
ARM GAS  /tmp/ccvHIMcj.s 			page 371


 21034 21e1 01       		.byte	0x1
 21035 21e2 2B000000 		.4byte	0x2b
 21036 21e6 00000000 		.4byte	.LFB46
 21037 21ea 8A000000 		.4byte	.LFE46
 21038 21ee 434A0000 		.4byte	.LLST236
 21039 21f2 6C220000 		.4byte	0x226c
 21040 21f6 1E       		.uleb128 0x1e
 21041 21f7 71050000 		.4byte	.LASF348
 21042 21fb 01       		.byte	0x1
 21043 21fc C00E     		.2byte	0xec0
 21044 21fe 95020000 		.4byte	0x295
 21045 2202 6F4A0000 		.4byte	.LLST237
 21046 2206 1E       		.uleb128 0x1e
 21047 2207 6F0B0000 		.4byte	.LASF304
 21048 220b 01       		.byte	0x1
 21049 220c C00E     		.2byte	0xec0
 21050 220e 680A0000 		.4byte	0xa68
 21051 2212 984A0000 		.4byte	.LLST238
 21052 2216 20       		.uleb128 0x20
 21053 2217 65727200 		.ascii	"err\000"
 21054 221b 01       		.byte	0x1
 21055 221c C20E     		.2byte	0xec2
 21056 221e 2B000000 		.4byte	0x2b
 21057 2222 B64A0000 		.4byte	.LLST239
 21058 2226 29       		.uleb128 0x29
 21059 2227 88020000 		.4byte	.Ldebug_ranges0+0x288
 21060 222b 27       		.uleb128 0x27
 21061 222c 1D010000 		.4byte	.LASF366
 21062 2230 01       		.byte	0x1
 21063 2231 C70E     		.2byte	0xec7
 21064 2233 6C220000 		.4byte	0x226c
 21065 2237 02       		.byte	0x2
 21066 2238 91       		.byte	0x91
 21067 2239 50       		.sleb128 -48
 21068 223a 22       		.uleb128 0x22
 21069 223b D1010000 		.4byte	.LASF358
 21070 223f 01       		.byte	0x1
 21071 2240 C80E     		.2byte	0xec8
 21072 2242 8E000000 		.4byte	0x8e
 21073 2246 DF4A0000 		.4byte	.LLST240
 21074 224a 20       		.uleb128 0x20
 21075 224b 6C656E00 		.ascii	"len\000"
 21076 224f 01       		.byte	0x1
 21077 2250 C90E     		.2byte	0xec9
 21078 2252 2B000000 		.4byte	0x2b
 21079 2256 0A4B0000 		.4byte	.LLST241
 21080 225a 22       		.uleb128 0x22
 21081 225b 6C030000 		.4byte	.LASF367
 21082 225f 01       		.byte	0x1
 21083 2260 C90E     		.2byte	0xec9
 21084 2262 2B000000 		.4byte	0x2b
 21085 2266 3D4B0000 		.4byte	.LLST242
 21086 226a 00       		.byte	0x0
 21087 226b 00       		.byte	0x0
 21088 226c 10       		.uleb128 0x10
 21089 226d 94000000 		.4byte	0x94
 21090 2271 7C220000 		.4byte	0x227c
ARM GAS  /tmp/ccvHIMcj.s 			page 372


 21091 2275 11       		.uleb128 0x11
 21092 2276 3D000000 		.4byte	0x3d
 21093 227a 09       		.byte	0x9
 21094 227b 00       		.byte	0x0
 21095 227c 1F       		.uleb128 0x1f
 21096 227d C5090000 		.4byte	.LASF368
 21097 2281 01       		.byte	0x1
 21098 2282 0C02     		.2byte	0x20c
 21099 2284 8A220000 		.4byte	0x228a
 21100 2288 01       		.byte	0x1
 21101 2289 01       		.byte	0x1
 21102 228a 08       		.uleb128 0x8
 21103 228b AB0C0000 		.4byte	0xcab
 21104 228f 00       		.byte	0x0
 21105              		.section	.debug_abbrev
 21106 0000 01       		.uleb128 0x1
 21107 0001 11       		.uleb128 0x11
 21108 0002 01       		.byte	0x1
 21109 0003 25       		.uleb128 0x25
 21110 0004 0E       		.uleb128 0xe
 21111 0005 13       		.uleb128 0x13
 21112 0006 0B       		.uleb128 0xb
 21113 0007 03       		.uleb128 0x3
 21114 0008 0E       		.uleb128 0xe
 21115 0009 1B       		.uleb128 0x1b
 21116 000a 0E       		.uleb128 0xe
 21117 000b 11       		.uleb128 0x11
 21118 000c 01       		.uleb128 0x1
 21119 000d 52       		.uleb128 0x52
 21120 000e 01       		.uleb128 0x1
 21121 000f 55       		.uleb128 0x55
 21122 0010 06       		.uleb128 0x6
 21123 0011 10       		.uleb128 0x10
 21124 0012 06       		.uleb128 0x6
 21125 0013 00       		.byte	0x0
 21126 0014 00       		.byte	0x0
 21127 0015 02       		.uleb128 0x2
 21128 0016 0F       		.uleb128 0xf
 21129 0017 00       		.byte	0x0
 21130 0018 0B       		.uleb128 0xb
 21131 0019 0B       		.uleb128 0xb
 21132 001a 00       		.byte	0x0
 21133 001b 00       		.byte	0x0
 21134 001c 03       		.uleb128 0x3
 21135 001d 24       		.uleb128 0x24
 21136 001e 00       		.byte	0x0
 21137 001f 0B       		.uleb128 0xb
 21138 0020 0B       		.uleb128 0xb
 21139 0021 3E       		.uleb128 0x3e
 21140 0022 0B       		.uleb128 0xb
 21141 0023 03       		.uleb128 0x3
 21142 0024 08       		.uleb128 0x8
 21143 0025 00       		.byte	0x0
 21144 0026 00       		.byte	0x0
 21145 0027 04       		.uleb128 0x4
 21146 0028 16       		.uleb128 0x16
 21147 0029 00       		.byte	0x0
ARM GAS  /tmp/ccvHIMcj.s 			page 373


 21148 002a 03       		.uleb128 0x3
 21149 002b 0E       		.uleb128 0xe
 21150 002c 3A       		.uleb128 0x3a
 21151 002d 0B       		.uleb128 0xb
 21152 002e 3B       		.uleb128 0x3b
 21153 002f 0B       		.uleb128 0xb
 21154 0030 49       		.uleb128 0x49
 21155 0031 13       		.uleb128 0x13
 21156 0032 00       		.byte	0x0
 21157 0033 00       		.byte	0x0
 21158 0034 05       		.uleb128 0x5
 21159 0035 24       		.uleb128 0x24
 21160 0036 00       		.byte	0x0
 21161 0037 0B       		.uleb128 0xb
 21162 0038 0B       		.uleb128 0xb
 21163 0039 3E       		.uleb128 0x3e
 21164 003a 0B       		.uleb128 0xb
 21165 003b 03       		.uleb128 0x3
 21166 003c 0E       		.uleb128 0xe
 21167 003d 00       		.byte	0x0
 21168 003e 00       		.byte	0x0
 21169 003f 06       		.uleb128 0x6
 21170 0040 16       		.uleb128 0x16
 21171 0041 00       		.byte	0x0
 21172 0042 03       		.uleb128 0x3
 21173 0043 0E       		.uleb128 0xe
 21174 0044 3A       		.uleb128 0x3a
 21175 0045 0B       		.uleb128 0xb
 21176 0046 3B       		.uleb128 0x3b
 21177 0047 05       		.uleb128 0x5
 21178 0048 49       		.uleb128 0x49
 21179 0049 13       		.uleb128 0x13
 21180 004a 00       		.byte	0x0
 21181 004b 00       		.byte	0x0
 21182 004c 07       		.uleb128 0x7
 21183 004d 0F       		.uleb128 0xf
 21184 004e 00       		.byte	0x0
 21185 004f 0B       		.uleb128 0xb
 21186 0050 0B       		.uleb128 0xb
 21187 0051 49       		.uleb128 0x49
 21188 0052 13       		.uleb128 0x13
 21189 0053 00       		.byte	0x0
 21190 0054 00       		.byte	0x0
 21191 0055 08       		.uleb128 0x8
 21192 0056 26       		.uleb128 0x26
 21193 0057 00       		.byte	0x0
 21194 0058 49       		.uleb128 0x49
 21195 0059 13       		.uleb128 0x13
 21196 005a 00       		.byte	0x0
 21197 005b 00       		.byte	0x0
 21198 005c 09       		.uleb128 0x9
 21199 005d 15       		.uleb128 0x15
 21200 005e 01       		.byte	0x1
 21201 005f 27       		.uleb128 0x27
 21202 0060 0C       		.uleb128 0xc
 21203 0061 49       		.uleb128 0x49
 21204 0062 13       		.uleb128 0x13
ARM GAS  /tmp/ccvHIMcj.s 			page 374


 21205 0063 01       		.uleb128 0x1
 21206 0064 13       		.uleb128 0x13
 21207 0065 00       		.byte	0x0
 21208 0066 00       		.byte	0x0
 21209 0067 0A       		.uleb128 0xa
 21210 0068 05       		.uleb128 0x5
 21211 0069 00       		.byte	0x0
 21212 006a 49       		.uleb128 0x49
 21213 006b 13       		.uleb128 0x13
 21214 006c 00       		.byte	0x0
 21215 006d 00       		.byte	0x0
 21216 006e 0B       		.uleb128 0xb
 21217 006f 13       		.uleb128 0x13
 21218 0070 01       		.byte	0x1
 21219 0071 03       		.uleb128 0x3
 21220 0072 0E       		.uleb128 0xe
 21221 0073 0B       		.uleb128 0xb
 21222 0074 0B       		.uleb128 0xb
 21223 0075 3A       		.uleb128 0x3a
 21224 0076 0B       		.uleb128 0xb
 21225 0077 3B       		.uleb128 0x3b
 21226 0078 05       		.uleb128 0x5
 21227 0079 01       		.uleb128 0x1
 21228 007a 13       		.uleb128 0x13
 21229 007b 00       		.byte	0x0
 21230 007c 00       		.byte	0x0
 21231 007d 0C       		.uleb128 0xc
 21232 007e 0D       		.uleb128 0xd
 21233 007f 00       		.byte	0x0
 21234 0080 03       		.uleb128 0x3
 21235 0081 0E       		.uleb128 0xe
 21236 0082 3A       		.uleb128 0x3a
 21237 0083 0B       		.uleb128 0xb
 21238 0084 3B       		.uleb128 0x3b
 21239 0085 05       		.uleb128 0x5
 21240 0086 49       		.uleb128 0x49
 21241 0087 13       		.uleb128 0x13
 21242 0088 38       		.uleb128 0x38
 21243 0089 0A       		.uleb128 0xa
 21244 008a 00       		.byte	0x0
 21245 008b 00       		.byte	0x0
 21246 008c 0D       		.uleb128 0xd
 21247 008d 0D       		.uleb128 0xd
 21248 008e 00       		.byte	0x0
 21249 008f 03       		.uleb128 0x3
 21250 0090 08       		.uleb128 0x8
 21251 0091 3A       		.uleb128 0x3a
 21252 0092 0B       		.uleb128 0xb
 21253 0093 3B       		.uleb128 0x3b
 21254 0094 05       		.uleb128 0x5
 21255 0095 49       		.uleb128 0x49
 21256 0096 13       		.uleb128 0x13
 21257 0097 38       		.uleb128 0x38
 21258 0098 0A       		.uleb128 0xa
 21259 0099 00       		.byte	0x0
 21260 009a 00       		.byte	0x0
 21261 009b 0E       		.uleb128 0xe
ARM GAS  /tmp/ccvHIMcj.s 			page 375


 21262 009c 13       		.uleb128 0x13
 21263 009d 01       		.byte	0x1
 21264 009e 03       		.uleb128 0x3
 21265 009f 0E       		.uleb128 0xe
 21266 00a0 0B       		.uleb128 0xb
 21267 00a1 0B       		.uleb128 0xb
 21268 00a2 3A       		.uleb128 0x3a
 21269 00a3 0B       		.uleb128 0xb
 21270 00a4 3B       		.uleb128 0x3b
 21271 00a5 0B       		.uleb128 0xb
 21272 00a6 01       		.uleb128 0x1
 21273 00a7 13       		.uleb128 0x13
 21274 00a8 00       		.byte	0x0
 21275 00a9 00       		.byte	0x0
 21276 00aa 0F       		.uleb128 0xf
 21277 00ab 0D       		.uleb128 0xd
 21278 00ac 00       		.byte	0x0
 21279 00ad 03       		.uleb128 0x3
 21280 00ae 0E       		.uleb128 0xe
 21281 00af 3A       		.uleb128 0x3a
 21282 00b0 0B       		.uleb128 0xb
 21283 00b1 3B       		.uleb128 0x3b
 21284 00b2 0B       		.uleb128 0xb
 21285 00b3 49       		.uleb128 0x49
 21286 00b4 13       		.uleb128 0x13
 21287 00b5 38       		.uleb128 0x38
 21288 00b6 0A       		.uleb128 0xa
 21289 00b7 00       		.byte	0x0
 21290 00b8 00       		.byte	0x0
 21291 00b9 10       		.uleb128 0x10
 21292 00ba 01       		.uleb128 0x1
 21293 00bb 01       		.byte	0x1
 21294 00bc 49       		.uleb128 0x49
 21295 00bd 13       		.uleb128 0x13
 21296 00be 01       		.uleb128 0x1
 21297 00bf 13       		.uleb128 0x13
 21298 00c0 00       		.byte	0x0
 21299 00c1 00       		.byte	0x0
 21300 00c2 11       		.uleb128 0x11
 21301 00c3 21       		.uleb128 0x21
 21302 00c4 00       		.byte	0x0
 21303 00c5 49       		.uleb128 0x49
 21304 00c6 13       		.uleb128 0x13
 21305 00c7 2F       		.uleb128 0x2f
 21306 00c8 0B       		.uleb128 0xb
 21307 00c9 00       		.byte	0x0
 21308 00ca 00       		.byte	0x0
 21309 00cb 12       		.uleb128 0x12
 21310 00cc 16       		.uleb128 0x16
 21311 00cd 00       		.byte	0x0
 21312 00ce 03       		.uleb128 0x3
 21313 00cf 08       		.uleb128 0x8
 21314 00d0 3A       		.uleb128 0x3a
 21315 00d1 0B       		.uleb128 0xb
 21316 00d2 3B       		.uleb128 0x3b
 21317 00d3 05       		.uleb128 0x5
 21318 00d4 49       		.uleb128 0x49
ARM GAS  /tmp/ccvHIMcj.s 			page 376


 21319 00d5 13       		.uleb128 0x13
 21320 00d6 00       		.byte	0x0
 21321 00d7 00       		.byte	0x0
 21322 00d8 13       		.uleb128 0x13
 21323 00d9 04       		.uleb128 0x4
 21324 00da 01       		.byte	0x1
 21325 00db 0B       		.uleb128 0xb
 21326 00dc 0B       		.uleb128 0xb
 21327 00dd 3A       		.uleb128 0x3a
 21328 00de 0B       		.uleb128 0xb
 21329 00df 3B       		.uleb128 0x3b
 21330 00e0 05       		.uleb128 0x5
 21331 00e1 01       		.uleb128 0x1
 21332 00e2 13       		.uleb128 0x13
 21333 00e3 00       		.byte	0x0
 21334 00e4 00       		.byte	0x0
 21335 00e5 14       		.uleb128 0x14
 21336 00e6 28       		.uleb128 0x28
 21337 00e7 00       		.byte	0x0
 21338 00e8 03       		.uleb128 0x3
 21339 00e9 0E       		.uleb128 0xe
 21340 00ea 1C       		.uleb128 0x1c
 21341 00eb 0D       		.uleb128 0xd
 21342 00ec 00       		.byte	0x0
 21343 00ed 00       		.byte	0x0
 21344 00ee 15       		.uleb128 0x15
 21345 00ef 04       		.uleb128 0x4
 21346 00f0 01       		.byte	0x1
 21347 00f1 0B       		.uleb128 0xb
 21348 00f2 0B       		.uleb128 0xb
 21349 00f3 3A       		.uleb128 0x3a
 21350 00f4 0B       		.uleb128 0xb
 21351 00f5 3B       		.uleb128 0x3b
 21352 00f6 0B       		.uleb128 0xb
 21353 00f7 01       		.uleb128 0x1
 21354 00f8 13       		.uleb128 0x13
 21355 00f9 00       		.byte	0x0
 21356 00fa 00       		.byte	0x0
 21357 00fb 16       		.uleb128 0x16
 21358 00fc 2E       		.uleb128 0x2e
 21359 00fd 01       		.byte	0x1
 21360 00fe 3F       		.uleb128 0x3f
 21361 00ff 0C       		.uleb128 0xc
 21362 0100 03       		.uleb128 0x3
 21363 0101 0E       		.uleb128 0xe
 21364 0102 3A       		.uleb128 0x3a
 21365 0103 0B       		.uleb128 0xb
 21366 0104 3B       		.uleb128 0x3b
 21367 0105 05       		.uleb128 0x5
 21368 0106 27       		.uleb128 0x27
 21369 0107 0C       		.uleb128 0xc
 21370 0108 49       		.uleb128 0x49
 21371 0109 13       		.uleb128 0x13
 21372 010a 20       		.uleb128 0x20
 21373 010b 0B       		.uleb128 0xb
 21374 010c 01       		.uleb128 0x1
 21375 010d 13       		.uleb128 0x13
ARM GAS  /tmp/ccvHIMcj.s 			page 377


 21376 010e 00       		.byte	0x0
 21377 010f 00       		.byte	0x0
 21378 0110 17       		.uleb128 0x17
 21379 0111 05       		.uleb128 0x5
 21380 0112 00       		.byte	0x0
 21381 0113 03       		.uleb128 0x3
 21382 0114 08       		.uleb128 0x8
 21383 0115 3A       		.uleb128 0x3a
 21384 0116 0B       		.uleb128 0xb
 21385 0117 3B       		.uleb128 0x3b
 21386 0118 05       		.uleb128 0x5
 21387 0119 49       		.uleb128 0x49
 21388 011a 13       		.uleb128 0x13
 21389 011b 00       		.byte	0x0
 21390 011c 00       		.byte	0x0
 21391 011d 18       		.uleb128 0x18
 21392 011e 05       		.uleb128 0x5
 21393 011f 00       		.byte	0x0
 21394 0120 03       		.uleb128 0x3
 21395 0121 0E       		.uleb128 0xe
 21396 0122 3A       		.uleb128 0x3a
 21397 0123 0B       		.uleb128 0xb
 21398 0124 3B       		.uleb128 0x3b
 21399 0125 05       		.uleb128 0x5
 21400 0126 49       		.uleb128 0x49
 21401 0127 13       		.uleb128 0x13
 21402 0128 00       		.byte	0x0
 21403 0129 00       		.byte	0x0
 21404 012a 19       		.uleb128 0x19
 21405 012b 34       		.uleb128 0x34
 21406 012c 00       		.byte	0x0
 21407 012d 03       		.uleb128 0x3
 21408 012e 08       		.uleb128 0x8
 21409 012f 3A       		.uleb128 0x3a
 21410 0130 0B       		.uleb128 0xb
 21411 0131 3B       		.uleb128 0x3b
 21412 0132 05       		.uleb128 0x5
 21413 0133 49       		.uleb128 0x49
 21414 0134 13       		.uleb128 0x13
 21415 0135 00       		.byte	0x0
 21416 0136 00       		.byte	0x0
 21417 0137 1A       		.uleb128 0x1a
 21418 0138 2E       		.uleb128 0x2e
 21419 0139 01       		.byte	0x1
 21420 013a 03       		.uleb128 0x3
 21421 013b 0E       		.uleb128 0xe
 21422 013c 3A       		.uleb128 0x3a
 21423 013d 0B       		.uleb128 0xb
 21424 013e 3B       		.uleb128 0x3b
 21425 013f 05       		.uleb128 0x5
 21426 0140 27       		.uleb128 0x27
 21427 0141 0C       		.uleb128 0xc
 21428 0142 49       		.uleb128 0x49
 21429 0143 13       		.uleb128 0x13
 21430 0144 20       		.uleb128 0x20
 21431 0145 0B       		.uleb128 0xb
 21432 0146 01       		.uleb128 0x1
ARM GAS  /tmp/ccvHIMcj.s 			page 378


 21433 0147 13       		.uleb128 0x13
 21434 0148 00       		.byte	0x0
 21435 0149 00       		.byte	0x0
 21436 014a 1B       		.uleb128 0x1b
 21437 014b 34       		.uleb128 0x34
 21438 014c 00       		.byte	0x0
 21439 014d 03       		.uleb128 0x3
 21440 014e 0E       		.uleb128 0xe
 21441 014f 3A       		.uleb128 0x3a
 21442 0150 0B       		.uleb128 0xb
 21443 0151 3B       		.uleb128 0x3b
 21444 0152 05       		.uleb128 0x5
 21445 0153 49       		.uleb128 0x49
 21446 0154 13       		.uleb128 0x13
 21447 0155 00       		.byte	0x0
 21448 0156 00       		.byte	0x0
 21449 0157 1C       		.uleb128 0x1c
 21450 0158 2E       		.uleb128 0x2e
 21451 0159 01       		.byte	0x1
 21452 015a 3F       		.uleb128 0x3f
 21453 015b 0C       		.uleb128 0xc
 21454 015c 03       		.uleb128 0x3
 21455 015d 0E       		.uleb128 0xe
 21456 015e 3A       		.uleb128 0x3a
 21457 015f 0B       		.uleb128 0xb
 21458 0160 3B       		.uleb128 0x3b
 21459 0161 05       		.uleb128 0x5
 21460 0162 27       		.uleb128 0x27
 21461 0163 0C       		.uleb128 0xc
 21462 0164 49       		.uleb128 0x49
 21463 0165 13       		.uleb128 0x13
 21464 0166 11       		.uleb128 0x11
 21465 0167 01       		.uleb128 0x1
 21466 0168 12       		.uleb128 0x12
 21467 0169 01       		.uleb128 0x1
 21468 016a 40       		.uleb128 0x40
 21469 016b 06       		.uleb128 0x6
 21470 016c 01       		.uleb128 0x1
 21471 016d 13       		.uleb128 0x13
 21472 016e 00       		.byte	0x0
 21473 016f 00       		.byte	0x0
 21474 0170 1D       		.uleb128 0x1d
 21475 0171 05       		.uleb128 0x5
 21476 0172 00       		.byte	0x0
 21477 0173 03       		.uleb128 0x3
 21478 0174 08       		.uleb128 0x8
 21479 0175 3A       		.uleb128 0x3a
 21480 0176 0B       		.uleb128 0xb
 21481 0177 3B       		.uleb128 0x3b
 21482 0178 05       		.uleb128 0x5
 21483 0179 49       		.uleb128 0x49
 21484 017a 13       		.uleb128 0x13
 21485 017b 02       		.uleb128 0x2
 21486 017c 06       		.uleb128 0x6
 21487 017d 00       		.byte	0x0
 21488 017e 00       		.byte	0x0
 21489 017f 1E       		.uleb128 0x1e
ARM GAS  /tmp/ccvHIMcj.s 			page 379


 21490 0180 05       		.uleb128 0x5
 21491 0181 00       		.byte	0x0
 21492 0182 03       		.uleb128 0x3
 21493 0183 0E       		.uleb128 0xe
 21494 0184 3A       		.uleb128 0x3a
 21495 0185 0B       		.uleb128 0xb
 21496 0186 3B       		.uleb128 0x3b
 21497 0187 05       		.uleb128 0x5
 21498 0188 49       		.uleb128 0x49
 21499 0189 13       		.uleb128 0x13
 21500 018a 02       		.uleb128 0x2
 21501 018b 06       		.uleb128 0x6
 21502 018c 00       		.byte	0x0
 21503 018d 00       		.byte	0x0
 21504 018e 1F       		.uleb128 0x1f
 21505 018f 34       		.uleb128 0x34
 21506 0190 00       		.byte	0x0
 21507 0191 03       		.uleb128 0x3
 21508 0192 0E       		.uleb128 0xe
 21509 0193 3A       		.uleb128 0x3a
 21510 0194 0B       		.uleb128 0xb
 21511 0195 3B       		.uleb128 0x3b
 21512 0196 05       		.uleb128 0x5
 21513 0197 49       		.uleb128 0x49
 21514 0198 13       		.uleb128 0x13
 21515 0199 3F       		.uleb128 0x3f
 21516 019a 0C       		.uleb128 0xc
 21517 019b 3C       		.uleb128 0x3c
 21518 019c 0C       		.uleb128 0xc
 21519 019d 00       		.byte	0x0
 21520 019e 00       		.byte	0x0
 21521 019f 20       		.uleb128 0x20
 21522 01a0 34       		.uleb128 0x34
 21523 01a1 00       		.byte	0x0
 21524 01a2 03       		.uleb128 0x3
 21525 01a3 08       		.uleb128 0x8
 21526 01a4 3A       		.uleb128 0x3a
 21527 01a5 0B       		.uleb128 0xb
 21528 01a6 3B       		.uleb128 0x3b
 21529 01a7 05       		.uleb128 0x5
 21530 01a8 49       		.uleb128 0x49
 21531 01a9 13       		.uleb128 0x13
 21532 01aa 02       		.uleb128 0x2
 21533 01ab 06       		.uleb128 0x6
 21534 01ac 00       		.byte	0x0
 21535 01ad 00       		.byte	0x0
 21536 01ae 21       		.uleb128 0x21
 21537 01af 0B       		.uleb128 0xb
 21538 01b0 01       		.byte	0x1
 21539 01b1 11       		.uleb128 0x11
 21540 01b2 01       		.uleb128 0x1
 21541 01b3 12       		.uleb128 0x12
 21542 01b4 01       		.uleb128 0x1
 21543 01b5 00       		.byte	0x0
 21544 01b6 00       		.byte	0x0
 21545 01b7 22       		.uleb128 0x22
 21546 01b8 34       		.uleb128 0x34
ARM GAS  /tmp/ccvHIMcj.s 			page 380


 21547 01b9 00       		.byte	0x0
 21548 01ba 03       		.uleb128 0x3
 21549 01bb 0E       		.uleb128 0xe
 21550 01bc 3A       		.uleb128 0x3a
 21551 01bd 0B       		.uleb128 0xb
 21552 01be 3B       		.uleb128 0x3b
 21553 01bf 05       		.uleb128 0x5
 21554 01c0 49       		.uleb128 0x49
 21555 01c1 13       		.uleb128 0x13
 21556 01c2 02       		.uleb128 0x2
 21557 01c3 06       		.uleb128 0x6
 21558 01c4 00       		.byte	0x0
 21559 01c5 00       		.byte	0x0
 21560 01c6 23       		.uleb128 0x23
 21561 01c7 21       		.uleb128 0x21
 21562 01c8 00       		.byte	0x0
 21563 01c9 00       		.byte	0x0
 21564 01ca 00       		.byte	0x0
 21565 01cb 24       		.uleb128 0x24
 21566 01cc 2E       		.uleb128 0x2e
 21567 01cd 01       		.byte	0x1
 21568 01ce 03       		.uleb128 0x3
 21569 01cf 0E       		.uleb128 0xe
 21570 01d0 3A       		.uleb128 0x3a
 21571 01d1 0B       		.uleb128 0xb
 21572 01d2 3B       		.uleb128 0x3b
 21573 01d3 05       		.uleb128 0x5
 21574 01d4 27       		.uleb128 0x27
 21575 01d5 0C       		.uleb128 0xc
 21576 01d6 49       		.uleb128 0x49
 21577 01d7 13       		.uleb128 0x13
 21578 01d8 11       		.uleb128 0x11
 21579 01d9 01       		.uleb128 0x1
 21580 01da 12       		.uleb128 0x12
 21581 01db 01       		.uleb128 0x1
 21582 01dc 40       		.uleb128 0x40
 21583 01dd 06       		.uleb128 0x6
 21584 01de 01       		.uleb128 0x1
 21585 01df 13       		.uleb128 0x13
 21586 01e0 00       		.byte	0x0
 21587 01e1 00       		.byte	0x0
 21588 01e2 25       		.uleb128 0x25
 21589 01e3 34       		.uleb128 0x34
 21590 01e4 00       		.byte	0x0
 21591 01e5 03       		.uleb128 0x3
 21592 01e6 0E       		.uleb128 0xe
 21593 01e7 3A       		.uleb128 0x3a
 21594 01e8 0B       		.uleb128 0xb
 21595 01e9 3B       		.uleb128 0x3b
 21596 01ea 05       		.uleb128 0x5
 21597 01eb 49       		.uleb128 0x49
 21598 01ec 13       		.uleb128 0x13
 21599 01ed 1C       		.uleb128 0x1c
 21600 01ee 05       		.uleb128 0x5
 21601 01ef 00       		.byte	0x0
 21602 01f0 00       		.byte	0x0
 21603 01f1 26       		.uleb128 0x26
ARM GAS  /tmp/ccvHIMcj.s 			page 381


 21604 01f2 34       		.uleb128 0x34
 21605 01f3 00       		.byte	0x0
 21606 01f4 03       		.uleb128 0x3
 21607 01f5 0E       		.uleb128 0xe
 21608 01f6 3A       		.uleb128 0x3a
 21609 01f7 0B       		.uleb128 0xb
 21610 01f8 3B       		.uleb128 0x3b
 21611 01f9 05       		.uleb128 0x5
 21612 01fa 49       		.uleb128 0x49
 21613 01fb 13       		.uleb128 0x13
 21614 01fc 1C       		.uleb128 0x1c
 21615 01fd 0B       		.uleb128 0xb
 21616 01fe 00       		.byte	0x0
 21617 01ff 00       		.byte	0x0
 21618 0200 27       		.uleb128 0x27
 21619 0201 34       		.uleb128 0x34
 21620 0202 00       		.byte	0x0
 21621 0203 03       		.uleb128 0x3
 21622 0204 0E       		.uleb128 0xe
 21623 0205 3A       		.uleb128 0x3a
 21624 0206 0B       		.uleb128 0xb
 21625 0207 3B       		.uleb128 0x3b
 21626 0208 05       		.uleb128 0x5
 21627 0209 49       		.uleb128 0x49
 21628 020a 13       		.uleb128 0x13
 21629 020b 02       		.uleb128 0x2
 21630 020c 0A       		.uleb128 0xa
 21631 020d 00       		.byte	0x0
 21632 020e 00       		.byte	0x0
 21633 020f 28       		.uleb128 0x28
 21634 0210 0B       		.uleb128 0xb
 21635 0211 01       		.byte	0x1
 21636 0212 55       		.uleb128 0x55
 21637 0213 06       		.uleb128 0x6
 21638 0214 01       		.uleb128 0x1
 21639 0215 13       		.uleb128 0x13
 21640 0216 00       		.byte	0x0
 21641 0217 00       		.byte	0x0
 21642 0218 29       		.uleb128 0x29
 21643 0219 0B       		.uleb128 0xb
 21644 021a 01       		.byte	0x1
 21645 021b 55       		.uleb128 0x55
 21646 021c 06       		.uleb128 0x6
 21647 021d 00       		.byte	0x0
 21648 021e 00       		.byte	0x0
 21649 021f 2A       		.uleb128 0x2a
 21650 0220 2E       		.uleb128 0x2e
 21651 0221 01       		.byte	0x1
 21652 0222 3F       		.uleb128 0x3f
 21653 0223 0C       		.uleb128 0xc
 21654 0224 03       		.uleb128 0x3
 21655 0225 0E       		.uleb128 0xe
 21656 0226 3A       		.uleb128 0x3a
 21657 0227 0B       		.uleb128 0xb
 21658 0228 3B       		.uleb128 0x3b
 21659 0229 05       		.uleb128 0x5
 21660 022a 27       		.uleb128 0x27
ARM GAS  /tmp/ccvHIMcj.s 			page 382


 21661 022b 0C       		.uleb128 0xc
 21662 022c 11       		.uleb128 0x11
 21663 022d 01       		.uleb128 0x1
 21664 022e 12       		.uleb128 0x12
 21665 022f 01       		.uleb128 0x1
 21666 0230 40       		.uleb128 0x40
 21667 0231 06       		.uleb128 0x6
 21668 0232 01       		.uleb128 0x1
 21669 0233 13       		.uleb128 0x13
 21670 0234 00       		.byte	0x0
 21671 0235 00       		.byte	0x0
 21672 0236 2B       		.uleb128 0x2b
 21673 0237 05       		.uleb128 0x5
 21674 0238 00       		.byte	0x0
 21675 0239 03       		.uleb128 0x3
 21676 023a 08       		.uleb128 0x8
 21677 023b 3A       		.uleb128 0x3a
 21678 023c 0B       		.uleb128 0xb
 21679 023d 3B       		.uleb128 0x3b
 21680 023e 05       		.uleb128 0x5
 21681 023f 49       		.uleb128 0x49
 21682 0240 13       		.uleb128 0x13
 21683 0241 02       		.uleb128 0x2
 21684 0242 0A       		.uleb128 0xa
 21685 0243 00       		.byte	0x0
 21686 0244 00       		.byte	0x0
 21687 0245 2C       		.uleb128 0x2c
 21688 0246 34       		.uleb128 0x34
 21689 0247 00       		.byte	0x0
 21690 0248 03       		.uleb128 0x3
 21691 0249 08       		.uleb128 0x8
 21692 024a 3A       		.uleb128 0x3a
 21693 024b 0B       		.uleb128 0xb
 21694 024c 3B       		.uleb128 0x3b
 21695 024d 05       		.uleb128 0x5
 21696 024e 49       		.uleb128 0x49
 21697 024f 13       		.uleb128 0x13
 21698 0250 02       		.uleb128 0x2
 21699 0251 0A       		.uleb128 0xa
 21700 0252 00       		.byte	0x0
 21701 0253 00       		.byte	0x0
 21702 0254 2D       		.uleb128 0x2d
 21703 0255 2E       		.uleb128 0x2e
 21704 0256 01       		.byte	0x1
 21705 0257 31       		.uleb128 0x31
 21706 0258 13       		.uleb128 0x13
 21707 0259 11       		.uleb128 0x11
 21708 025a 01       		.uleb128 0x1
 21709 025b 12       		.uleb128 0x12
 21710 025c 01       		.uleb128 0x1
 21711 025d 40       		.uleb128 0x40
 21712 025e 0A       		.uleb128 0xa
 21713 025f 01       		.uleb128 0x1
 21714 0260 13       		.uleb128 0x13
 21715 0261 00       		.byte	0x0
 21716 0262 00       		.byte	0x0
 21717 0263 2E       		.uleb128 0x2e
ARM GAS  /tmp/ccvHIMcj.s 			page 383


 21718 0264 05       		.uleb128 0x5
 21719 0265 00       		.byte	0x0
 21720 0266 31       		.uleb128 0x31
 21721 0267 13       		.uleb128 0x13
 21722 0268 02       		.uleb128 0x2
 21723 0269 0A       		.uleb128 0xa
 21724 026a 00       		.byte	0x0
 21725 026b 00       		.byte	0x0
 21726 026c 2F       		.uleb128 0x2f
 21727 026d 2E       		.uleb128 0x2e
 21728 026e 01       		.byte	0x1
 21729 026f 3F       		.uleb128 0x3f
 21730 0270 0C       		.uleb128 0xc
 21731 0271 03       		.uleb128 0x3
 21732 0272 0E       		.uleb128 0xe
 21733 0273 3A       		.uleb128 0x3a
 21734 0274 0B       		.uleb128 0xb
 21735 0275 3B       		.uleb128 0x3b
 21736 0276 05       		.uleb128 0x5
 21737 0277 27       		.uleb128 0x27
 21738 0278 0C       		.uleb128 0xc
 21739 0279 49       		.uleb128 0x49
 21740 027a 13       		.uleb128 0x13
 21741 027b 11       		.uleb128 0x11
 21742 027c 01       		.uleb128 0x1
 21743 027d 12       		.uleb128 0x12
 21744 027e 01       		.uleb128 0x1
 21745 027f 40       		.uleb128 0x40
 21746 0280 0A       		.uleb128 0xa
 21747 0281 01       		.uleb128 0x1
 21748 0282 13       		.uleb128 0x13
 21749 0283 00       		.byte	0x0
 21750 0284 00       		.byte	0x0
 21751 0285 30       		.uleb128 0x30
 21752 0286 05       		.uleb128 0x5
 21753 0287 00       		.byte	0x0
 21754 0288 03       		.uleb128 0x3
 21755 0289 0E       		.uleb128 0xe
 21756 028a 3A       		.uleb128 0x3a
 21757 028b 0B       		.uleb128 0xb
 21758 028c 3B       		.uleb128 0x3b
 21759 028d 05       		.uleb128 0x5
 21760 028e 49       		.uleb128 0x49
 21761 028f 13       		.uleb128 0x13
 21762 0290 02       		.uleb128 0x2
 21763 0291 0A       		.uleb128 0xa
 21764 0292 00       		.byte	0x0
 21765 0293 00       		.byte	0x0
 21766 0294 31       		.uleb128 0x31
 21767 0295 2E       		.uleb128 0x2e
 21768 0296 01       		.byte	0x1
 21769 0297 31       		.uleb128 0x31
 21770 0298 13       		.uleb128 0x13
 21771 0299 11       		.uleb128 0x11
 21772 029a 01       		.uleb128 0x1
 21773 029b 12       		.uleb128 0x12
 21774 029c 01       		.uleb128 0x1
ARM GAS  /tmp/ccvHIMcj.s 			page 384


 21775 029d 40       		.uleb128 0x40
 21776 029e 06       		.uleb128 0x6
 21777 029f 01       		.uleb128 0x1
 21778 02a0 13       		.uleb128 0x13
 21779 02a1 00       		.byte	0x0
 21780 02a2 00       		.byte	0x0
 21781 02a3 32       		.uleb128 0x32
 21782 02a4 05       		.uleb128 0x5
 21783 02a5 00       		.byte	0x0
 21784 02a6 31       		.uleb128 0x31
 21785 02a7 13       		.uleb128 0x13
 21786 02a8 02       		.uleb128 0x2
 21787 02a9 06       		.uleb128 0x6
 21788 02aa 00       		.byte	0x0
 21789 02ab 00       		.byte	0x0
 21790 02ac 33       		.uleb128 0x33
 21791 02ad 34       		.uleb128 0x34
 21792 02ae 00       		.byte	0x0
 21793 02af 31       		.uleb128 0x31
 21794 02b0 13       		.uleb128 0x13
 21795 02b1 02       		.uleb128 0x2
 21796 02b2 06       		.uleb128 0x6
 21797 02b3 00       		.byte	0x0
 21798 02b4 00       		.byte	0x0
 21799 02b5 34       		.uleb128 0x34
 21800 02b6 1D       		.uleb128 0x1d
 21801 02b7 01       		.byte	0x1
 21802 02b8 31       		.uleb128 0x31
 21803 02b9 13       		.uleb128 0x13
 21804 02ba 52       		.uleb128 0x52
 21805 02bb 01       		.uleb128 0x1
 21806 02bc 55       		.uleb128 0x55
 21807 02bd 06       		.uleb128 0x6
 21808 02be 58       		.uleb128 0x58
 21809 02bf 0B       		.uleb128 0xb
 21810 02c0 59       		.uleb128 0x59
 21811 02c1 05       		.uleb128 0x5
 21812 02c2 00       		.byte	0x0
 21813 02c3 00       		.byte	0x0
 21814 02c4 35       		.uleb128 0x35
 21815 02c5 05       		.uleb128 0x5
 21816 02c6 00       		.byte	0x0
 21817 02c7 31       		.uleb128 0x31
 21818 02c8 13       		.uleb128 0x13
 21819 02c9 00       		.byte	0x0
 21820 02ca 00       		.byte	0x0
 21821 02cb 36       		.uleb128 0x36
 21822 02cc 0A       		.uleb128 0xa
 21823 02cd 00       		.byte	0x0
 21824 02ce 03       		.uleb128 0x3
 21825 02cf 0E       		.uleb128 0xe
 21826 02d0 3A       		.uleb128 0x3a
 21827 02d1 0B       		.uleb128 0xb
 21828 02d2 3B       		.uleb128 0x3b
 21829 02d3 05       		.uleb128 0x5
 21830 02d4 11       		.uleb128 0x11
 21831 02d5 01       		.uleb128 0x1
ARM GAS  /tmp/ccvHIMcj.s 			page 385


 21832 02d6 00       		.byte	0x0
 21833 02d7 00       		.byte	0x0
 21834 02d8 37       		.uleb128 0x37
 21835 02d9 0B       		.uleb128 0xb
 21836 02da 01       		.byte	0x1
 21837 02db 11       		.uleb128 0x11
 21838 02dc 01       		.uleb128 0x1
 21839 02dd 12       		.uleb128 0x12
 21840 02de 01       		.uleb128 0x1
 21841 02df 01       		.uleb128 0x1
 21842 02e0 13       		.uleb128 0x13
 21843 02e1 00       		.byte	0x0
 21844 02e2 00       		.byte	0x0
 21845 02e3 38       		.uleb128 0x38
 21846 02e4 2E       		.uleb128 0x2e
 21847 02e5 01       		.byte	0x1
 21848 02e6 3F       		.uleb128 0x3f
 21849 02e7 0C       		.uleb128 0xc
 21850 02e8 03       		.uleb128 0x3
 21851 02e9 0E       		.uleb128 0xe
 21852 02ea 3A       		.uleb128 0x3a
 21853 02eb 0B       		.uleb128 0xb
 21854 02ec 3B       		.uleb128 0x3b
 21855 02ed 05       		.uleb128 0x5
 21856 02ee 49       		.uleb128 0x49
 21857 02ef 13       		.uleb128 0x13
 21858 02f0 3C       		.uleb128 0x3c
 21859 02f1 0C       		.uleb128 0xc
 21860 02f2 00       		.byte	0x0
 21861 02f3 00       		.byte	0x0
 21862 02f4 39       		.uleb128 0x39
 21863 02f5 18       		.uleb128 0x18
 21864 02f6 00       		.byte	0x0
 21865 02f7 00       		.byte	0x0
 21866 02f8 00       		.byte	0x0
 21867 02f9 3A       		.uleb128 0x3a
 21868 02fa 2E       		.uleb128 0x2e
 21869 02fb 01       		.byte	0x1
 21870 02fc 3F       		.uleb128 0x3f
 21871 02fd 0C       		.uleb128 0xc
 21872 02fe 03       		.uleb128 0x3
 21873 02ff 0E       		.uleb128 0xe
 21874 0300 3A       		.uleb128 0x3a
 21875 0301 0B       		.uleb128 0xb
 21876 0302 3B       		.uleb128 0x3b
 21877 0303 05       		.uleb128 0x5
 21878 0304 49       		.uleb128 0x49
 21879 0305 13       		.uleb128 0x13
 21880 0306 3C       		.uleb128 0x3c
 21881 0307 0C       		.uleb128 0xc
 21882 0308 01       		.uleb128 0x1
 21883 0309 13       		.uleb128 0x13
 21884 030a 00       		.byte	0x0
 21885 030b 00       		.byte	0x0
 21886 030c 00       		.byte	0x0
 21887              		.section	.debug_pubnames,"",%progbits
 21888 0000 13030000 		.4byte	0x313
ARM GAS  /tmp/ccvHIMcj.s 			page 386


 21889 0004 0200     		.2byte	0x2
 21890 0006 00000000 		.4byte	.Ldebug_info0
 21891 000a 90220000 		.4byte	0x2290
 21892 000e FA0B0000 		.4byte	0xbfa
 21893 0012 616D785F 		.ascii	"amx_Callback\000"
 21893      43616C6C 
 21893      6261636B 
 21893      00
 21894 001f D00D0000 		.4byte	0xdd0
 21895 0023 616D785F 		.ascii	"amx_Swap32\000"
 21895      53776170 
 21895      333200
 21896 002e 110E0000 		.4byte	0xe11
 21897 0032 616D785F 		.ascii	"amx_Align16\000"
 21897      416C6967 
 21897      6E313600 
 21898 003e 2D0E0000 		.4byte	0xe2d
 21899 0042 616D785F 		.ascii	"amx_Align32\000"
 21899      416C6967 
 21899      6E333200 
 21900 004e 490E0000 		.4byte	0xe49
 21901 0052 616D785F 		.ascii	"amx_Flags\000"
 21901      466C6167 
 21901      7300
 21902 005c 950E0000 		.4byte	0xe95
 21903 0060 616D785F 		.ascii	"amx_Init\000"
 21903      496E6974 
 21903      00
 21904 0069 280F0000 		.4byte	0xf28
 21905 006d 616D785F 		.ascii	"amx_InitJIT\000"
 21905      496E6974 
 21905      4A495400 
 21906 0079 720F0000 		.4byte	0xf72
 21907 007d 616D785F 		.ascii	"amx_Cleanup\000"
 21907      436C6561 
 21907      6E757000 
 21908 0089 A00F0000 		.4byte	0xfa0
 21909 008d 616D785F 		.ascii	"amx_Clone\000"
 21909      436C6F6E 
 21909      6500
 21910 0097 0F100000 		.4byte	0x100f
 21911 009b 616D785F 		.ascii	"amx_MemInfo\000"
 21911      4D656D49 
 21911      6E666F00 
 21912 00a7 82100000 		.4byte	0x1082
 21913 00ab 616D785F 		.ascii	"amx_NameLength\000"
 21913      4E616D65 
 21913      4C656E67 
 21913      746800
 21914 00ba E0100000 		.4byte	0x10e0
 21915 00be 616D785F 		.ascii	"amx_NumNatives\000"
 21915      4E756D4E 
 21915      61746976 
 21915      657300
 21916 00cd 0F110000 		.4byte	0x110f
 21917 00d1 616D785F 		.ascii	"amx_GetNative\000"
 21917      4765744E 
ARM GAS  /tmp/ccvHIMcj.s 			page 387


 21917      61746976 
 21917      6500
 21918 00df 7A110000 		.4byte	0x117a
 21919 00e3 616D785F 		.ascii	"amx_FindNative\000"
 21919      46696E64 
 21919      4E617469 
 21919      766500
 21920 00f2 34120000 		.4byte	0x1234
 21921 00f6 616D785F 		.ascii	"amx_NumPublics\000"
 21921      4E756D50 
 21921      75626C69 
 21921      637300
 21922 0105 63120000 		.4byte	0x1263
 21923 0109 616D785F 		.ascii	"amx_GetPublic\000"
 21923      47657450 
 21923      75626C69 
 21923      6300
 21924 0117 E6120000 		.4byte	0x12e6
 21925 011b 616D785F 		.ascii	"amx_FindPublic\000"
 21925      46696E64 
 21925      5075626C 
 21925      696300
 21926 012a B2130000 		.4byte	0x13b2
 21927 012e 616D785F 		.ascii	"amx_NumPubVars\000"
 21927      4E756D50 
 21927      75625661 
 21927      727300
 21928 013d E1130000 		.4byte	0x13e1
 21929 0141 616D785F 		.ascii	"amx_GetPubVar\000"
 21929      47657450 
 21929      75625661 
 21929      7200
 21930 014f 72140000 		.4byte	0x1472
 21931 0153 616D785F 		.ascii	"amx_FindPubVar\000"
 21931      46696E64 
 21931      50756256 
 21931      617200
 21932 0162 3E150000 		.4byte	0x153e
 21933 0166 616D785F 		.ascii	"amx_NumTags\000"
 21933      4E756D54 
 21933      61677300 
 21934 0172 8B150000 		.4byte	0x158b
 21935 0176 616D785F 		.ascii	"amx_GetTag\000"
 21935      47657454 
 21935      616700
 21936 0181 08160000 		.4byte	0x1608
 21937 0185 616D785F 		.ascii	"amx_FindTagId\000"
 21937      46696E64 
 21937      54616749 
 21937      6400
 21938 0193 95160000 		.4byte	0x1695
 21939 0197 616D785F 		.ascii	"amx_GetUserData\000"
 21939      47657455 
 21939      73657244 
 21939      61746100 
 21940 01a7 F7160000 		.4byte	0x16f7
 21941 01ab 616D785F 		.ascii	"amx_SetUserData\000"
ARM GAS  /tmp/ccvHIMcj.s 			page 388


 21941      53657455 
 21941      73657244 
 21941      61746100 
 21942 01bb 52170000 		.4byte	0x1752
 21943 01bf 616D785F 		.ascii	"amx_Register\000"
 21943      52656769 
 21943      73746572 
 21943      00
 21944 01cc 36180000 		.4byte	0x1836
 21945 01d0 616D785F 		.ascii	"amx_NativeInfo\000"
 21945      4E617469 
 21945      7665496E 
 21945      666F00
 21946 01df 88180000 		.4byte	0x1888
 21947 01e3 616D785F 		.ascii	"amx_Push\000"
 21947      50757368 
 21947      00
 21948 01ec C0180000 		.4byte	0x18c0
 21949 01f0 616D785F 		.ascii	"amx_PushAddress\000"
 21949      50757368 
 21949      41646472 
 21949      65737300 
 21950 0200 68190000 		.4byte	0x1968
 21951 0204 616D785F 		.ascii	"amx_exec_list\000"
 21951      65786563 
 21951      5F6C6973 
 21951      7400
 21952 0212 94190000 		.4byte	0x1994
 21953 0216 616D785F 		.ascii	"amx_Exec\000"
 21953      45786563 
 21953      00
 21954 021f 6A1B0000 		.4byte	0x1b6a
 21955 0223 616D785F 		.ascii	"amx_SetCallback\000"
 21955      53657443 
 21955      616C6C62 
 21955      61636B00 
 21956 0233 A61B0000 		.4byte	0x1ba6
 21957 0237 616D785F 		.ascii	"amx_SetDebugHook\000"
 21957      53657444 
 21957      65627567 
 21957      486F6F6B 
 21957      00
 21958 0248 E21B0000 		.4byte	0x1be2
 21959 024c 616D785F 		.ascii	"amx_RaiseError\000"
 21959      52616973 
 21959      65457272 
 21959      6F7200
 21960 025b 1E1C0000 		.4byte	0x1c1e
 21961 025f 616D785F 		.ascii	"amx_Allot\000"
 21961      416C6C6F 
 21961      7400
 21962 0269 8B1C0000 		.4byte	0x1c8b
 21963 026d 616D785F 		.ascii	"amx_PushArray\000"
 21963      50757368 
 21963      41727261 
 21963      7900
 21964 027b 3F1D0000 		.4byte	0x1d3f
ARM GAS  /tmp/ccvHIMcj.s 			page 389


 21965 027f 616D785F 		.ascii	"amx_Release\000"
 21965      52656C65 
 21965      61736500 
 21966 028b AD1D0000 		.4byte	0x1dad
 21967 028f 616D785F 		.ascii	"amx_StrLen\000"
 21967      5374724C 
 21967      656E00
 21968 029a 0A1E0000 		.4byte	0x1e0a
 21969 029e 616D785F 		.ascii	"amx_SetString\000"
 21969      53657453 
 21969      7472696E 
 21969      6700
 21970 02ac A61E0000 		.4byte	0x1ea6
 21971 02b0 616D785F 		.ascii	"amx_PushString\000"
 21971      50757368 
 21971      53747269 
 21971      6E6700
 21972 02bf 931F0000 		.4byte	0x1f93
 21973 02c3 616D785F 		.ascii	"amx_GetString\000"
 21973      47657453 
 21973      7472696E 
 21973      6700
 21974 02d1 31200000 		.4byte	0x2031
 21975 02d5 616D785F 		.ascii	"amx_UTF8Get\000"
 21975      55544638 
 21975      47657400 
 21976 02e1 0A210000 		.4byte	0x210a
 21977 02e5 616D785F 		.ascii	"amx_UTF8Put\000"
 21977      55544638 
 21977      50757400 
 21978 02f1 79210000 		.4byte	0x2179
 21979 02f5 616D785F 		.ascii	"amx_UTF8Check\000"
 21979      55544638 
 21979      43686563 
 21979      6B00
 21980 0303 D8210000 		.4byte	0x21d8
 21981 0307 616D785F 		.ascii	"amx_UTF8Len\000"
 21981      55544638 
 21981      4C656E00 
 21982 0313 00000000 		.4byte	0x0
 21983              		.section	.debug_pubtypes,"",%progbits
 21984 0000 40010000 		.4byte	0x140
 21985 0004 0200     		.2byte	0x2
 21986 0006 00000000 		.4byte	.Ldebug_info0
 21987 000a 90220000 		.4byte	0x2290
 21988 000e 32000000 		.4byte	0x32
 21989 0012 73697A65 		.ascii	"size_t\000"
 21989      5F7400
 21990 0019 44000000 		.4byte	0x44
 21991 001d 77636861 		.ascii	"wchar_t\000"
 21991      725F7400 
 21992 0025 A6000000 		.4byte	0xa6
 21993 0029 696E7431 		.ascii	"int16_t\000"
 21993      365F7400 
 21994 0031 B1000000 		.4byte	0xb1
 21995 0035 75696E74 		.ascii	"uint16_t\000"
 21995      31365F74 
ARM GAS  /tmp/ccvHIMcj.s 			page 390


 21995      00
 21996 003e BC000000 		.4byte	0xbc
 21997 0042 696E7433 		.ascii	"int32_t\000"
 21997      325F7400 
 21998 004a C7000000 		.4byte	0xc7
 21999 004e 75696E74 		.ascii	"uint32_t\000"
 21999      33325F74 
 21999      00
 22000 0057 D2000000 		.4byte	0xd2
 22001 005b 696E7470 		.ascii	"intptr_t\000"
 22001      74725F74 
 22001      00
 22002 0064 DD000000 		.4byte	0xdd
 22003 0068 7563656C 		.ascii	"ucell\000"
 22003      6C00
 22004 006e E8000000 		.4byte	0xe8
 22005 0072 63656C6C 		.ascii	"cell\000"
 22005      00
 22006 0077 F3000000 		.4byte	0xf3
 22007 007b 414D585F 		.ascii	"AMX_NATIVE\000"
 22007      4E415449 
 22007      564500
 22008 0086 A0020000 		.4byte	0x2a0
 22009 008a 414D585F 		.ascii	"AMX_CALLBACK\000"
 22009      43414C4C 
 22009      4241434B 
 22009      00
 22010 0097 D6020000 		.4byte	0x2d6
 22011 009b 414D585F 		.ascii	"AMX_DEBUG\000"
 22011      44454255 
 22011      4700
 22012 00a5 F7020000 		.4byte	0x2f7
 22013 00a9 414D585F 		.ascii	"AMX_OVERLAY\000"
 22013      4F564552 
 22013      4C415900 
 22014 00b5 1D030000 		.4byte	0x31d
 22015 00b9 74616741 		.ascii	"tagAMX_NATIVE_INFO\000"
 22015      4D585F4E 
 22015      41544956 
 22015      455F494E 
 22015      464F00
 22016 00cc 46030000 		.4byte	0x346
 22017 00d0 414D585F 		.ascii	"AMX_NATIVE_INFO\000"
 22017      4E415449 
 22017      56455F49 
 22017      4E464F00 
 22018 00e0 51030000 		.4byte	0x351
 22019 00e4 74616746 		.ascii	"tagFUNCSTUB\000"
 22019      554E4353 
 22019      54554200 
 22020 00f0 7A030000 		.4byte	0x37a
 22021 00f4 414D585F 		.ascii	"AMX_FUNCSTUB\000"
 22021      46554E43 
 22021      53545542 
 22021      00
 22022 0101 1F010000 		.4byte	0x11f
 22023 0105 74616741 		.ascii	"tagAMX\000"
ARM GAS  /tmp/ccvHIMcj.s 			page 391


 22023      4D5800
 22024 010c A5030000 		.4byte	0x3a5
 22025 0110 414D5800 		.ascii	"AMX\000"
 22026 0114 B1030000 		.4byte	0x3b1
 22027 0118 74616741 		.ascii	"tagAMX_HEADER\000"
 22027      4D585F48 
 22027      45414445 
 22027      5200
 22028 0126 CD040000 		.4byte	0x4cd
 22029 012a 414D585F 		.ascii	"AMX_HEADER\000"
 22029      48454144 
 22029      455200
 22030 0135 1E0A0000 		.4byte	0xa1e
 22031 0139 4F50434F 		.ascii	"OPCODE\000"
 22031      444500
 22032 0140 00000000 		.4byte	0x0
 22033              		.section	.debug_aranges,"",%progbits
 22034 0000 84010000 		.4byte	0x184
 22035 0004 0200     		.2byte	0x2
 22036 0006 00000000 		.4byte	.Ldebug_info0
 22037 000a 04       		.byte	0x4
 22038 000b 00       		.byte	0x0
 22039 000c 0000     		.2byte	0x0
 22040 000e 0000     		.2byte	0x0
 22041 0010 00000000 		.4byte	.LFB4
 22042 0014 64000000 		.4byte	.LFE4-.LFB4
 22043 0018 00000000 		.4byte	.LFB5
 22044 001c CA040000 		.4byte	.LFE5-.LFB5
 22045 0020 00000000 		.4byte	.LFB0
 22046 0024 16000000 		.4byte	.LFE0-.LFB0
 22047 0028 00000000 		.4byte	.LFB1
 22048 002c 02000000 		.4byte	.LFE1-.LFB1
 22049 0030 00000000 		.4byte	.LFB2
 22050 0034 02000000 		.4byte	.LFE2-.LFB2
 22051 0038 00000000 		.4byte	.LFB3
 22052 003c 3E000000 		.4byte	.LFE3-.LFB3
 22053 0040 00000000 		.4byte	.LFB6
 22054 0044 1C010000 		.4byte	.LFE6-.LFB6
 22055 0048 00000000 		.4byte	.LFB7
 22056 004c 04000000 		.4byte	.LFE7-.LFB7
 22057 0050 00000000 		.4byte	.LFB8
 22058 0054 04000000 		.4byte	.LFE8-.LFB8
 22059 0058 00000000 		.4byte	.LFB9
 22060 005c A4000000 		.4byte	.LFE9-.LFB9
 22061 0060 00000000 		.4byte	.LFB10
 22062 0064 50000000 		.4byte	.LFE10-.LFB10
 22063 0068 00000000 		.4byte	.LFB11
 22064 006c 12000000 		.4byte	.LFE11-.LFB11
 22065 0070 00000000 		.4byte	.LFB12
 22066 0074 1C000000 		.4byte	.LFE12-.LFB12
 22067 0078 00000000 		.4byte	.LFB13
 22068 007c 30000000 		.4byte	.LFE13-.LFB13
 22069 0080 00000000 		.4byte	.LFB14
 22070 0084 C0000000 		.4byte	.LFE14-.LFB14
 22071 0088 00000000 		.4byte	.LFB15
 22072 008c 1C000000 		.4byte	.LFE15-.LFB15
 22073 0090 00000000 		.4byte	.LFB16
ARM GAS  /tmp/ccvHIMcj.s 			page 392


 22074 0094 3C000000 		.4byte	.LFE16-.LFB16
 22075 0098 00000000 		.4byte	.LFB17
 22076 009c 70000000 		.4byte	.LFE17-.LFB17
 22077 00a0 00000000 		.4byte	.LFB18
 22078 00a4 1C000000 		.4byte	.LFE18-.LFB18
 22079 00a8 00000000 		.4byte	.LFB19
 22080 00ac 54000000 		.4byte	.LFE19-.LFB19
 22081 00b0 00000000 		.4byte	.LFB20
 22082 00b4 68000000 		.4byte	.LFE20-.LFB20
 22083 00b8 00000000 		.4byte	.LFB21
 22084 00bc 30000000 		.4byte	.LFE21-.LFB21
 22085 00c0 00000000 		.4byte	.LFB22
 22086 00c4 6E000000 		.4byte	.LFE22-.LFB22
 22087 00c8 00000000 		.4byte	.LFB23
 22088 00cc 58000000 		.4byte	.LFE23-.LFB23
 22089 00d0 00000000 		.4byte	.LFB24
 22090 00d4 3C000000 		.4byte	.LFE24-.LFB24
 22091 00d8 00000000 		.4byte	.LFB25
 22092 00dc 42000000 		.4byte	.LFE25-.LFB25
 22093 00e0 00000000 		.4byte	.LFB27
 22094 00e4 CA000000 		.4byte	.LFE27-.LFB27
 22095 00e8 00000000 		.4byte	.LFB28
 22096 00ec 10000000 		.4byte	.LFE28-.LFB28
 22097 00f0 00000000 		.4byte	.LFB29
 22098 00f4 32000000 		.4byte	.LFE29-.LFB29
 22099 00f8 00000000 		.4byte	.LFB30
 22100 00fc 44000000 		.4byte	.LFE30-.LFB30
 22101 0100 00000000 		.4byte	.LFB33
 22102 0104 0A000000 		.4byte	.LFE33-.LFB33
 22103 0108 00000000 		.4byte	.LFB34
 22104 010c 3C190000 		.4byte	.LFE34-.LFB34
 22105 0110 00000000 		.4byte	.LFB35
 22106 0114 06000000 		.4byte	.LFE35-.LFB35
 22107 0118 00000000 		.4byte	.LFB36
 22108 011c 06000000 		.4byte	.LFE36-.LFB36
 22109 0120 00000000 		.4byte	.LFB37
 22110 0124 06000000 		.4byte	.LFE37-.LFB37
 22111 0128 00000000 		.4byte	.LFB38
 22112 012c 34000000 		.4byte	.LFE38-.LFB38
 22113 0130 00000000 		.4byte	.LFB31
 22114 0134 5E000000 		.4byte	.LFE31-.LFB31
 22115 0138 00000000 		.4byte	.LFB39
 22116 013c 26000000 		.4byte	.LFE39-.LFB39
 22117 0140 00000000 		.4byte	.LFB40
 22118 0144 4E000000 		.4byte	.LFE40-.LFB40
 22119 0148 00000000 		.4byte	.LFB41
 22120 014c 88010000 		.4byte	.LFE41-.LFB41
 22121 0150 00000000 		.4byte	.LFB32
 22122 0154 86000000 		.4byte	.LFE32-.LFB32
 22123 0158 00000000 		.4byte	.LFB42
 22124 015c 84010000 		.4byte	.LFE42-.LFB42
 22125 0160 00000000 		.4byte	.LFB43
 22126 0164 F0000000 		.4byte	.LFE43-.LFB43
 22127 0168 00000000 		.4byte	.LFB44
 22128 016c 66010000 		.4byte	.LFE44-.LFB44
 22129 0170 00000000 		.4byte	.LFB45
 22130 0174 30000000 		.4byte	.LFE45-.LFB45
ARM GAS  /tmp/ccvHIMcj.s 			page 393


 22131 0178 00000000 		.4byte	.LFB46
 22132 017c 8A000000 		.4byte	.LFE46-.LFB46
 22133 0180 00000000 		.4byte	0x0
 22134 0184 00000000 		.4byte	0x0
 22135              		.section	.debug_ranges,"",%progbits
 22136              	.Ldebug_ranges0:
 22137 0000 38030000 		.4byte	.LBB26
 22138 0004 6A030000 		.4byte	.LBE26
 22139 0008 5A040000 		.4byte	.LBB33
 22140 000c 5E040000 		.4byte	.LBE33
 22141 0010 4C040000 		.4byte	.LBB32
 22142 0014 50040000 		.4byte	.LBE32
 22143 0018 3E040000 		.4byte	.LBB31
 22144 001c 42040000 		.4byte	.LBE31
 22145 0020 EA030000 		.4byte	.LBB30
 22146 0024 2A040000 		.4byte	.LBE30
 22147 0028 C4030000 		.4byte	.LBB28
 22148 002c CE030000 		.4byte	.LBE28
 22149 0030 00000000 		.4byte	0x0
 22150 0034 00000000 		.4byte	0x0
 22151 0038 A2030000 		.4byte	.LBB27
 22152 003c A6030000 		.4byte	.LBE27
 22153 0040 9A040000 		.4byte	.LBB35
 22154 0044 9E040000 		.4byte	.LBE35
 22155 0048 7C040000 		.4byte	.LBB34
 22156 004c 80040000 		.4byte	.LBE34
 22157 0050 DA030000 		.4byte	.LBB29
 22158 0054 EA030000 		.4byte	.LBE29
 22159 0058 00000000 		.4byte	0x0
 22160 005c 00000000 		.4byte	0x0
 22161 0060 A0000000 		.4byte	.LBB36
 22162 0064 BE000000 		.4byte	.LBE36
 22163 0068 0A010000 		.4byte	.LBB38
 22164 006c 0E010000 		.4byte	.LBE38
 22165 0070 C8000000 		.4byte	.LBB37
 22166 0074 E6000000 		.4byte	.LBE37
 22167 0078 00000000 		.4byte	0x0
 22168 007c 00000000 		.4byte	0x0
 22169 0080 04000000 		.4byte	.LBB39
 22170 0084 08000000 		.4byte	.LBE39
 22171 0088 0A000000 		.4byte	.LBB42
 22172 008c 1E000000 		.4byte	.LBE42
 22173 0090 00000000 		.4byte	0x0
 22174 0094 00000000 		.4byte	0x0
 22175 0098 04000000 		.4byte	.LBB40
 22176 009c 08000000 		.4byte	.LBE40
 22177 00a0 0A000000 		.4byte	.LBB41
 22178 00a4 1E000000 		.4byte	.LBE41
 22179 00a8 00000000 		.4byte	0x0
 22180 00ac 00000000 		.4byte	0x0
 22181 00b0 04000000 		.4byte	.LBB43
 22182 00b4 08000000 		.4byte	.LBE43
 22183 00b8 18000000 		.4byte	.LBB48
 22184 00bc 20000000 		.4byte	.LBE48
 22185 00c0 0A000000 		.4byte	.LBB47
 22186 00c4 16000000 		.4byte	.LBE47
 22187 00c8 00000000 		.4byte	0x0
ARM GAS  /tmp/ccvHIMcj.s 			page 394


 22188 00cc 00000000 		.4byte	0x0
 22189 00d0 04000000 		.4byte	.LBB45
 22190 00d4 08000000 		.4byte	.LBE45
 22191 00d8 18000000 		.4byte	.LBB46
 22192 00dc 20000000 		.4byte	.LBE46
 22193 00e0 0A000000 		.4byte	.LBB44
 22194 00e4 16000000 		.4byte	.LBE44
 22195 00e8 00000000 		.4byte	0x0
 22196 00ec 00000000 		.4byte	0x0
 22197 00f0 04000000 		.4byte	.LBB49
 22198 00f4 08000000 		.4byte	.LBE49
 22199 00f8 18000000 		.4byte	.LBB54
 22200 00fc 20000000 		.4byte	.LBE54
 22201 0100 0A000000 		.4byte	.LBB53
 22202 0104 16000000 		.4byte	.LBE53
 22203 0108 00000000 		.4byte	0x0
 22204 010c 00000000 		.4byte	0x0
 22205 0110 04000000 		.4byte	.LBB51
 22206 0114 08000000 		.4byte	.LBE51
 22207 0118 18000000 		.4byte	.LBB52
 22208 011c 20000000 		.4byte	.LBE52
 22209 0120 0A000000 		.4byte	.LBB50
 22210 0124 16000000 		.4byte	.LBE50
 22211 0128 00000000 		.4byte	0x0
 22212 012c 00000000 		.4byte	0x0
 22213 0130 4C000000 		.4byte	.LBB55
 22214 0134 4E000000 		.4byte	.LBE55
 22215 0138 A6000000 		.4byte	.LBB64
 22216 013c AA000000 		.4byte	.LBE64
 22217 0140 A2000000 		.4byte	.LBB63
 22218 0144 A4000000 		.4byte	.LBE63
 22219 0148 5A000000 		.4byte	.LBB62
 22220 014c 7C000000 		.4byte	.LBE62
 22221 0150 50000000 		.4byte	.LBB61
 22222 0154 56000000 		.4byte	.LBE61
 22223 0158 00000000 		.4byte	0x0
 22224 015c 00000000 		.4byte	0x0
 22225 0160 4C000000 		.4byte	.LBB58
 22226 0164 4E000000 		.4byte	.LBE58
 22227 0168 A6000000 		.4byte	.LBB60
 22228 016c AA000000 		.4byte	.LBE60
 22229 0170 A2000000 		.4byte	.LBB56
 22230 0174 A4000000 		.4byte	.LBE56
 22231 0178 5A000000 		.4byte	.LBB59
 22232 017c 7C000000 		.4byte	.LBE59
 22233 0180 50000000 		.4byte	.LBB57
 22234 0184 56000000 		.4byte	.LBE57
 22235 0188 00000000 		.4byte	0x0
 22236 018c 00000000 		.4byte	0x0
 22237 0190 12000000 		.4byte	.LBB65
 22238 0194 2C000000 		.4byte	.LBE65
 22239 0198 3E000000 		.4byte	.LBB70
 22240 019c 44000000 		.4byte	.LBE70
 22241 01a0 30000000 		.4byte	.LBB69
 22242 01a4 34000000 		.4byte	.LBE69
 22243 01a8 00000000 		.4byte	0x0
 22244 01ac 00000000 		.4byte	0x0
ARM GAS  /tmp/ccvHIMcj.s 			page 395


 22245 01b0 12000000 		.4byte	.LBB67
 22246 01b4 2C000000 		.4byte	.LBE67
 22247 01b8 3E000000 		.4byte	.LBB68
 22248 01bc 44000000 		.4byte	.LBE68
 22249 01c0 30000000 		.4byte	.LBB66
 22250 01c4 34000000 		.4byte	.LBE66
 22251 01c8 00000000 		.4byte	0x0
 22252 01cc 00000000 		.4byte	0x0
 22253 01d0 580F0000 		.4byte	.LBB72
 22254 01d4 C40F0000 		.4byte	.LBE72
 22255 01d8 FC170000 		.4byte	.LBB74
 22256 01dc 06180000 		.4byte	.LBE74
 22257 01e0 00000000 		.4byte	0x0
 22258 01e4 00000000 		.4byte	0x0
 22259 01e8 2C000000 		.4byte	.LBB75
 22260 01ec 46000000 		.4byte	.LBE75
 22261 01f0 58000000 		.4byte	.LBB82
 22262 01f4 5E000000 		.4byte	.LBE82
 22263 01f8 50000000 		.4byte	.LBB81
 22264 01fc 52000000 		.4byte	.LBE81
 22265 0200 48000000 		.4byte	.LBB80
 22266 0204 4C000000 		.4byte	.LBE80
 22267 0208 00000000 		.4byte	0x0
 22268 020c 00000000 		.4byte	0x0
 22269 0210 2C000000 		.4byte	.LBB77
 22270 0214 46000000 		.4byte	.LBE77
 22271 0218 58000000 		.4byte	.LBB79
 22272 021c 5E000000 		.4byte	.LBE79
 22273 0220 50000000 		.4byte	.LBB76
 22274 0224 52000000 		.4byte	.LBE76
 22275 0228 48000000 		.4byte	.LBB78
 22276 022c 4C000000 		.4byte	.LBE78
 22277 0230 00000000 		.4byte	0x0
 22278 0234 00000000 		.4byte	0x0
 22279 0238 52000000 		.4byte	.LBB83
 22280 023c 72000000 		.4byte	.LBE83
 22281 0240 7C000000 		.4byte	.LBB86
 22282 0244 86000000 		.4byte	.LBE86
 22283 0248 00000000 		.4byte	0x0
 22284 024c 00000000 		.4byte	0x0
 22285 0250 52000000 		.4byte	.LBB84
 22286 0254 72000000 		.4byte	.LBE84
 22287 0258 7C000000 		.4byte	.LBB85
 22288 025c 86000000 		.4byte	.LBE85
 22289 0260 00000000 		.4byte	0x0
 22290 0264 00000000 		.4byte	0x0
 22291 0268 0C000000 		.4byte	.LBB87
 22292 026c 9A000000 		.4byte	.LBE87
 22293 0270 7A010000 		.4byte	.LBB89
 22294 0274 80010000 		.4byte	.LBE89
 22295 0278 5A010000 		.4byte	.LBB88
 22296 027c 72010000 		.4byte	.LBE88
 22297 0280 00000000 		.4byte	0x0
 22298 0284 00000000 		.4byte	0x0
 22299 0288 1A000000 		.4byte	.LBB90
 22300 028c 2A000000 		.4byte	.LBE90
 22301 0290 54000000 		.4byte	.LBB92
ARM GAS  /tmp/ccvHIMcj.s 			page 396


 22302 0294 8A000000 		.4byte	.LBE92
 22303 0298 30000000 		.4byte	.LBB91
 22304 029c 4C000000 		.4byte	.LBE91
 22305 02a0 00000000 		.4byte	0x0
 22306 02a4 00000000 		.4byte	0x0
 22307 02a8 00000000 		.4byte	.LFB4
 22308 02ac 64000000 		.4byte	.LFE4
 22309 02b0 00000000 		.4byte	.LFB5
 22310 02b4 CA040000 		.4byte	.LFE5
 22311 02b8 00000000 		.4byte	.LFB0
 22312 02bc 16000000 		.4byte	.LFE0
 22313 02c0 00000000 		.4byte	.LFB1
 22314 02c4 02000000 		.4byte	.LFE1
 22315 02c8 00000000 		.4byte	.LFB2
 22316 02cc 02000000 		.4byte	.LFE2
 22317 02d0 00000000 		.4byte	.LFB3
 22318 02d4 3E000000 		.4byte	.LFE3
 22319 02d8 00000000 		.4byte	.LFB6
 22320 02dc 1C010000 		.4byte	.LFE6
 22321 02e0 00000000 		.4byte	.LFB7
 22322 02e4 04000000 		.4byte	.LFE7
 22323 02e8 00000000 		.4byte	.LFB8
 22324 02ec 04000000 		.4byte	.LFE8
 22325 02f0 00000000 		.4byte	.LFB9
 22326 02f4 A4000000 		.4byte	.LFE9
 22327 02f8 00000000 		.4byte	.LFB10
 22328 02fc 50000000 		.4byte	.LFE10
 22329 0300 00000000 		.4byte	.LFB11
 22330 0304 12000000 		.4byte	.LFE11
 22331 0308 00000000 		.4byte	.LFB12
 22332 030c 1C000000 		.4byte	.LFE12
 22333 0310 00000000 		.4byte	.LFB13
 22334 0314 30000000 		.4byte	.LFE13
 22335 0318 00000000 		.4byte	.LFB14
 22336 031c C0000000 		.4byte	.LFE14
 22337 0320 00000000 		.4byte	.LFB15
 22338 0324 1C000000 		.4byte	.LFE15
 22339 0328 00000000 		.4byte	.LFB16
 22340 032c 3C000000 		.4byte	.LFE16
 22341 0330 00000000 		.4byte	.LFB17
 22342 0334 70000000 		.4byte	.LFE17
 22343 0338 00000000 		.4byte	.LFB18
 22344 033c 1C000000 		.4byte	.LFE18
 22345 0340 00000000 		.4byte	.LFB19
 22346 0344 54000000 		.4byte	.LFE19
 22347 0348 00000000 		.4byte	.LFB20
 22348 034c 68000000 		.4byte	.LFE20
 22349 0350 00000000 		.4byte	.LFB21
 22350 0354 30000000 		.4byte	.LFE21
 22351 0358 00000000 		.4byte	.LFB22
 22352 035c 6E000000 		.4byte	.LFE22
 22353 0360 00000000 		.4byte	.LFB23
 22354 0364 58000000 		.4byte	.LFE23
 22355 0368 00000000 		.4byte	.LFB24
 22356 036c 3C000000 		.4byte	.LFE24
 22357 0370 00000000 		.4byte	.LFB25
 22358 0374 42000000 		.4byte	.LFE25
ARM GAS  /tmp/ccvHIMcj.s 			page 397


 22359 0378 00000000 		.4byte	.LFB27
 22360 037c CA000000 		.4byte	.LFE27
 22361 0380 00000000 		.4byte	.LFB28
 22362 0384 10000000 		.4byte	.LFE28
 22363 0388 00000000 		.4byte	.LFB29
 22364 038c 32000000 		.4byte	.LFE29
 22365 0390 00000000 		.4byte	.LFB30
 22366 0394 44000000 		.4byte	.LFE30
 22367 0398 00000000 		.4byte	.LFB33
 22368 039c 0A000000 		.4byte	.LFE33
 22369 03a0 00000000 		.4byte	.LFB34
 22370 03a4 3C190000 		.4byte	.LFE34
 22371 03a8 00000000 		.4byte	.LFB35
 22372 03ac 06000000 		.4byte	.LFE35
 22373 03b0 00000000 		.4byte	.LFB36
 22374 03b4 06000000 		.4byte	.LFE36
 22375 03b8 00000000 		.4byte	.LFB37
 22376 03bc 06000000 		.4byte	.LFE37
 22377 03c0 00000000 		.4byte	.LFB38
 22378 03c4 34000000 		.4byte	.LFE38
 22379 03c8 00000000 		.4byte	.LFB31
 22380 03cc 5E000000 		.4byte	.LFE31
 22381 03d0 00000000 		.4byte	.LFB39
 22382 03d4 26000000 		.4byte	.LFE39
 22383 03d8 00000000 		.4byte	.LFB40
 22384 03dc 4E000000 		.4byte	.LFE40
 22385 03e0 00000000 		.4byte	.LFB41
 22386 03e4 88010000 		.4byte	.LFE41
 22387 03e8 00000000 		.4byte	.LFB32
 22388 03ec 86000000 		.4byte	.LFE32
 22389 03f0 00000000 		.4byte	.LFB42
 22390 03f4 84010000 		.4byte	.LFE42
 22391 03f8 00000000 		.4byte	.LFB43
 22392 03fc F0000000 		.4byte	.LFE43
 22393 0400 00000000 		.4byte	.LFB44
 22394 0404 66010000 		.4byte	.LFE44
 22395 0408 00000000 		.4byte	.LFB45
 22396 040c 30000000 		.4byte	.LFE45
 22397 0410 00000000 		.4byte	.LFB46
 22398 0414 8A000000 		.4byte	.LFE46
 22399 0418 00000000 		.4byte	0x0
 22400 041c 00000000 		.4byte	0x0
 22401              		.section	.debug_str,"MS",%progbits,1
 22402              	.LASF68:
 22403 0000 414D585F 		.ascii	"AMX_ERR_INVINSTR\000"
 22403      4552525F 
 22403      494E5649 
 22403      4E535452 
 22403      00
 22404              	.LASF87:
 22405 0011 414D585F 		.ascii	"AMX_ERR_GENERAL\000"
 22405      4552525F 
 22405      47454E45 
 22405      52414C00 
 22406              	.LASF173:
 22407 0021 4F505F49 		.ascii	"OP_IDXADDR_B\000"
 22407      44584144 
ARM GAS  /tmp/ccvHIMcj.s 			page 398


 22407      44525F42 
 22407      00
 22408              	.LASF86:
 22409 002e 414D585F 		.ascii	"AMX_ERR_DOMAIN\000"
 22409      4552525F 
 22409      444F4D41 
 22409      494E00
 22410              	.LASF95:
 22411 003d 4F505F4C 		.ascii	"OP_LREF_S_ALT\000"
 22411      5245465F 
 22411      535F414C 
 22411      5400
 22412              	.LASF154:
 22413 004b 4F505F43 		.ascii	"OP_CMPS\000"
 22413      4D505300 
 22414              	.LASF72:
 22415 0053 414D585F 		.ascii	"AMX_ERR_NATIVE\000"
 22415      4552525F 
 22415      4E415449 
 22415      564500
 22416              	.LASF253:
 22417 0062 4F505F45 		.ascii	"OP_EQ_P_C_PRI\000"
 22417      515F505F 
 22417      435F5052 
 22417      4900
 22418              	.LASF190:
 22419 0070 4F505F53 		.ascii	"OP_SMUL_C\000"
 22419      4D554C5F 
 22419      4300
 22420              	.LASF24:
 22421 007a 64656275 		.ascii	"debug\000"
 22421      6700
 22422              	.LASF202:
 22423 0080 4F505F50 		.ascii	"OP_PUSHM_C\000"
 22423      5553484D 
 22423      5F4300
 22424              	.LASF242:
 22425 008b 4F505F50 		.ascii	"OP_PUSHRM_P_C\000"
 22425      55534852 
 22425      4D5F505F 
 22425      4300
 22426              	.LASF218:
 22427 0099 4F505F4C 		.ascii	"OP_LREF_P_S_ALT\000"
 22427      5245465F 
 22427      505F535F 
 22427      414C5400 
 22428              	.LASF228:
 22429 00a9 4F505F4C 		.ascii	"OP_LIDX_P_B\000"
 22429      4944585F 
 22429      505F4200 
 22430              	.LASF204:
 22431 00b5 4F505F50 		.ascii	"OP_PUSHM_S\000"
 22431      5553484D 
 22431      5F5300
 22432              	.LASF117:
 22433 00c0 4F505F53 		.ascii	"OP_STACK\000"
 22433      5441434B 
ARM GAS  /tmp/ccvHIMcj.s 			page 399


 22433      00
 22434              	.LASF303:
 22435 00c9 616D785F 		.ascii	"amx_NameLength\000"
 22435      4E616D65 
 22435      4C656E67 
 22435      746800
 22436              	.LASF354:
 22437 00d8 616D785F 		.ascii	"amx_PushString\000"
 22437      50757368 
 22437      53747269 
 22437      6E6700
 22438              	.LASF315:
 22439 00e7 616D785F 		.ascii	"amx_GetTag\000"
 22439      47657454 
 22439      616700
 22440              	.LASF233:
 22441 00f2 4F505F50 		.ascii	"OP_PUSH_P_S\000"
 22441      5553485F 
 22441      505F5300 
 22442              	.LASF222:
 22443 00fe 4F505F41 		.ascii	"OP_ADDR_P_PRI\000"
 22443      4444525F 
 22443      505F5052 
 22443      4900
 22444              	.LASF26:
 22445 010c 666C6167 		.ascii	"flags\000"
 22445      7300
 22446              	.LASF114:
 22447 0112 4F505F50 		.ascii	"OP_POP_PRI\000"
 22447      4F505F50 
 22447      524900
 22448              	.LASF366:
 22449 011d 62756666 		.ascii	"buffer\000"
 22449      657200
 22450              	.LASF143:
 22451 0124 4F505F53 		.ascii	"OP_SLESS\000"
 22451      4C455353 
 22451      00
 22452              	.LASF216:
 22453 012d 4F505F4C 		.ascii	"OP_LOAD_P_S_ALT\000"
 22453      4F41445F 
 22453      505F535F 
 22453      414C5400 
 22454              	.LASF322:
 22455 013d 616D785F 		.ascii	"amx_Register\000"
 22455      52656769 
 22455      73746572 
 22455      00
 22456              	.LASF0:
 22457 014a 756E7369 		.ascii	"unsigned int\000"
 22457      676E6564 
 22457      20696E74 
 22457      00
 22458              	.LASF306:
 22459 0157 616D785F 		.ascii	"amx_FindNative\000"
 22459      46696E64 
 22459      4E617469 
ARM GAS  /tmp/ccvHIMcj.s 			page 400


 22459      766500
 22460              	.LASF32:
 22461 0166 72657365 		.ascii	"reset_hea\000"
 22461      745F6865 
 22461      6100
 22462              	.LASF111:
 22463 0170 4F505F50 		.ascii	"OP_PUSH_PRI\000"
 22463      5553485F 
 22463      50524900 
 22464              	.LASF275:
 22465 017c 6E756D6F 		.ascii	"numopcodes\000"
 22465      70636F64 
 22465      657300
 22466              	.LASF77:
 22467 0187 414D585F 		.ascii	"AMX_ERR_FORMAT\000"
 22467      4552525F 
 22467      464F524D 
 22467      415400
 22468              	.LASF129:
 22469 0196 4F505F53 		.ascii	"OP_SHL_C_PRI\000"
 22469      484C5F43 
 22469      5F505249 
 22469      00
 22470              	.LASF2:
 22471 01a3 77636861 		.ascii	"wchar_t\000"
 22471      725F7400 
 22472              	.LASF308:
 22473 01ab 706E616D 		.ascii	"pname\000"
 22473      6500
 22474              	.LASF189:
 22475 01b1 4F505F41 		.ascii	"OP_ADD_C\000"
 22475      44445F43 
 22475      00
 22476              	.LASF289:
 22477 01ba 616D785F 		.ascii	"amx_Flags\000"
 22477      466C6167 
 22477      7300
 22478              	.LASF82:
 22479 01c4 414D585F 		.ascii	"AMX_ERR_INIT\000"
 22479      4552525F 
 22479      494E4954 
 22479      00
 22480              	.LASF358:
 22481 01d1 656E6470 		.ascii	"endptr\000"
 22481      747200
 22482              	.LASF118:
 22483 01d8 4F505F48 		.ascii	"OP_HEAP\000"
 22483      45415000 
 22484              	.LASF186:
 22485 01e0 4F505F4A 		.ascii	"OP_JSGEQ\000"
 22485      53474551 
 22485      00
 22486              	.LASF105:
 22487 01e9 4F505F53 		.ascii	"OP_STOR_I\000"
 22487      544F525F 
 22487      4900
 22488              	.LASF324:
ARM GAS  /tmp/ccvHIMcj.s 			page 401


 22489 01f3 66756E63 		.ascii	"funcptr\000"
 22489      70747200 
 22490              	.LASF164:
 22491 01fb 4F505F53 		.ascii	"OP_SYSREQ_D\000"
 22491      59535245 
 22491      515F4400 
 22492              	.LASF121:
 22493 0207 4F505F52 		.ascii	"OP_RETN\000"
 22493      45544E00 
 22494              	.LASF224:
 22495 020f 4F505F53 		.ascii	"OP_STOR_P\000"
 22495      544F525F 
 22495      5000
 22496              	.LASF73:
 22497 0219 414D585F 		.ascii	"AMX_ERR_DIVIDE\000"
 22497      4552525F 
 22497      44495649 
 22497      444500
 22498              	.LASF103:
 22499 0228 4F505F53 		.ascii	"OP_STOR_S\000"
 22499      544F525F 
 22499      5300
 22500              	.LASF199:
 22501 0232 4F505F44 		.ascii	"OP_DEC\000"
 22501      454300
 22502              	.LASF201:
 22503 0239 4F505F53 		.ascii	"OP_SYSREQ_N\000"
 22503      59535245 
 22503      515F4E00 
 22504              	.LASF203:
 22505 0245 4F505F50 		.ascii	"OP_PUSHM\000"
 22505      5553484D 
 22505      00
 22506              	.LASF29:
 22507 024e 6572726F 		.ascii	"error\000"
 22507      7200
 22508              	.LASF42:
 22509 0254 66756E63 		.ascii	"func\000"
 22509      00
 22510              	.LASF316:
 22511 0259 7461676E 		.ascii	"tagname\000"
 22511      616D6500 
 22512              	.LASF54:
 22513 0261 7075626C 		.ascii	"publics\000"
 22513      69637300 
 22514              	.LASF56:
 22515 0269 6C696272 		.ascii	"libraries\000"
 22515      61726965 
 22515      7300
 22516              	.LASF297:
 22517 0273 616D785F 		.ascii	"amx_Clone\000"
 22517      436C6F6E 
 22517      6500
 22518              	.LASF251:
 22519 027d 4F505F5A 		.ascii	"OP_ZERO_P\000"
 22519      45524F5F 
 22519      5000
ARM GAS  /tmp/ccvHIMcj.s 			page 402


 22520              	.LASF194:
 22521 0287 4F505F5A 		.ascii	"OP_ZERO_S\000"
 22521      45524F5F 
 22521      5300
 22522              	.LASF331:
 22523 0291 5F5F7374 		.ascii	"__strb_i\000"
 22523      72625F69 
 22523      00
 22524              	.LASF79:
 22525 029a 414D585F 		.ascii	"AMX_ERR_NOTFOUND\000"
 22525      4552525F 
 22525      4E4F5446 
 22525      4F554E44 
 22525      00
 22526              	.LASF277:
 22527 02ab 616D785F 		.ascii	"amx_Align16\000"
 22527      416C6967 
 22527      6E313600 
 22528              	.LASF37:
 22529 02b7 414D585F 		.ascii	"AMX_DEBUG\000"
 22529      44454255 
 22529      4700
 22530              	.LASF339:
 22531 02c1 616D785F 		.ascii	"amx_RaiseError\000"
 22531      52616973 
 22531      65457272 
 22531      6F7200
 22532              	.LASF150:
 22533 02d0 4F505F44 		.ascii	"OP_DEC_PRI\000"
 22533      45435F50 
 22533      524900
 22534              	.LASF140:
 22535 02db 4F505F49 		.ascii	"OP_INVERT\000"
 22535      4E564552 
 22535      5400
 22536              	.LASF270:
 22537 02e5 6C697374 		.ascii	"list\000"
 22537      00
 22538              	.LASF76:
 22539 02ea 414D585F 		.ascii	"AMX_ERR_MEMORY\000"
 22539      4552525F 
 22539      4D454D4F 
 22539      525900
 22540              	.LASF181:
 22541 02f9 4F505F4A 		.ascii	"OP_JEQ\000"
 22541      455100
 22542              	.LASF328:
 22543 0300 616D785F 		.ascii	"amx_Exec\000"
 22543      45786563 
 22543      00
 22544              	.LASF67:
 22545 0309 414D585F 		.ascii	"AMX_ERR_MEMACCESS\000"
 22545      4552525F 
 22545      4D454D41 
 22545      43434553 
 22545      5300
 22546              	.LASF135:
ARM GAS  /tmp/ccvHIMcj.s 			page 403


 22547 031b 4F505F41 		.ascii	"OP_AND\000"
 22547      4E4400
 22548              	.LASF108:
 22549 0322 4F505F4C 		.ascii	"OP_LCTRL\000"
 22549      4354524C 
 22549      00
 22550              	.LASF15:
 22551 032b 75696E74 		.ascii	"uint32_t\000"
 22551      33325F74 
 22551      00
 22552              	.LASF361:
 22553 0334 666F6C6C 		.ascii	"followup\000"
 22553      6F777570 
 22553      00
 22554              	.LASF170:
 22555 033d 4F505F4C 		.ascii	"OP_LIDX\000"
 22555      49445800 
 22556              	.LASF101:
 22557 0345 4F505F41 		.ascii	"OP_ADDR_ALT\000"
 22557      4444525F 
 22557      414C5400 
 22558              	.LASF262:
 22559 0351 4F505F48 		.ascii	"OP_HALT_P\000"
 22559      414C545F 
 22559      5000
 22560              	.LASF167:
 22561 035b 4F505F52 		.ascii	"OP_RETN_OVL\000"
 22561      45544E5F 
 22561      4F564C00 
 22562              	.LASF20:
 22563 0367 62617365 		.ascii	"base\000"
 22563      00
 22564              	.LASF367:
 22565 036c 636F756E 		.ascii	"count\000"
 22565      7400
 22566              	.LASF278:
 22567 0372 696E6465 		.ascii	"index\000"
 22567      7800
 22568              	.LASF299:
 22569 0378 616D7853 		.ascii	"amxSource\000"
 22569      6F757263 
 22569      6500
 22570              	.LASF12:
 22571 0382 696E7431 		.ascii	"int16_t\000"
 22571      365F7400 
 22572              	.LASF178:
 22573 038a 4F505F50 		.ascii	"OP_PUSHR_C\000"
 22573      55534852 
 22573      5F4300
 22574              	.LASF279:
 22575 0395 72657375 		.ascii	"result\000"
 22575      6C7400
 22576              	.LASF239:
 22577 039c 4F505F50 		.ascii	"OP_PUSHM_P\000"
 22577      5553484D 
 22577      5F5000
 22578              	.LASF165:
ARM GAS  /tmp/ccvHIMcj.s 			page 404


 22579 03a7 4F505F53 		.ascii	"OP_SYSREQ_ND\000"
 22579      59535245 
 22579      515F4E44 
 22579      00
 22580              	.LASF206:
 22581 03b4 4F505F50 		.ascii	"OP_PUSHRM_C\000"
 22581      55534852 
 22581      4D5F4300 
 22582              	.LASF8:
 22583 03c0 6C6F6E67 		.ascii	"long long unsigned int\000"
 22583      206C6F6E 
 22583      6720756E 
 22583      7369676E 
 22583      65642069 
 22584              	.LASF248:
 22585 03d7 4F505F53 		.ascii	"OP_SHL_P_C_ALT\000"
 22585      484C5F50 
 22585      5F435F41 
 22585      4C5400
 22586              	.LASF156:
 22587 03e6 4F505F48 		.ascii	"OP_HALT\000"
 22587      414C5400 
 22588              	.LASF161:
 22589 03ee 4F505F53 		.ascii	"OP_SWAP_ALT\000"
 22589      5741505F 
 22589      414C5400 
 22590              	.LASF200:
 22591 03fa 4F505F44 		.ascii	"OP_DEC_S\000"
 22591      45435F53 
 22591      00
 22592              	.LASF292:
 22593 0403 6E616D65 		.ascii	"namelength\000"
 22593      6C656E67 
 22593      746800
 22594              	.LASF352:
 22595 040e 7061636B 		.ascii	"pack\000"
 22595      00
 22596              	.LASF207:
 22597 0413 4F505F50 		.ascii	"OP_PUSHRM_S\000"
 22597      55534852 
 22597      4D5F5300 
 22598              	.LASF155:
 22599 041f 4F505F46 		.ascii	"OP_FILL\000"
 22599      494C4C00 
 22600              	.LASF55:
 22601 0427 6E617469 		.ascii	"natives\000"
 22601      76657300 
 22602              	.LASF238:
 22603 042f 4F505F50 		.ascii	"OP_PUSHM_P_C\000"
 22603      5553484D 
 22603      5F505F43 
 22603      00
 22604              	.LASF271:
 22605 043c 616D785F 		.ascii	"amx_Push\000"
 22605      50757368 
 22605      00
 22606              	.LASF162:
ARM GAS  /tmp/ccvHIMcj.s 			page 405


 22607 0445 4F505F42 		.ascii	"OP_BREAK\000"
 22607      5245414B 
 22607      00
 22608              	.LASF319:
 22609 044e 6D69645F 		.ascii	"mid_id\000"
 22609      696400
 22610              	.LASF184:
 22611 0455 4F505F4A 		.ascii	"OP_JSLEQ\000"
 22611      534C4551 
 22611      00
 22612              	.LASF359:
 22613 045e 75746638 		.ascii	"utf8_count\000"
 22613      5F636F75 
 22613      6E7400
 22614              	.LASF286:
 22615 0469 6F70636F 		.ascii	"opcode_list\000"
 22615      64655F6C 
 22615      69737400 
 22616              	.LASF240:
 22617 0475 4F505F50 		.ascii	"OP_PUSHM_P_S\000"
 22617      5553484D 
 22617      5F505F53 
 22617      00
 22618              	.LASF36:
 22619 0482 414D585F 		.ascii	"AMX_CALLBACK\000"
 22619      43414C4C 
 22619      4241434B 
 22619      00
 22620              	.LASF66:
 22621 048f 414D585F 		.ascii	"AMX_ERR_BOUNDS\000"
 22621      4552525F 
 22621      424F554E 
 22621      445300
 22622              	.LASF213:
 22623 049e 4F505F4C 		.ascii	"OP_LOAD_P_PRI\000"
 22623      4F41445F 
 22623      505F5052 
 22623      4900
 22624              	.LASF59:
 22625 04ac 6E616D65 		.ascii	"nametable\000"
 22625      7461626C 
 22625      6500
 22626              	.LASF263:
 22627 04b6 4F505F42 		.ascii	"OP_BOUNDS_P\000"
 22627      4F554E44 
 22627      535F5000 
 22628              	.LASF272:
 22629 04c2 76616C75 		.ascii	"value\000"
 22629      6500
 22630              	.LASF174:
 22631 04c8 4F505F50 		.ascii	"OP_PUSH_C\000"
 22631      5553485F 
 22631      4300
 22632              	.LASF104:
 22633 04d2 4F505F53 		.ascii	"OP_SREF_S\000"
 22633      5245465F 
 22633      5300
ARM GAS  /tmp/ccvHIMcj.s 			page 406


 22634              	.LASF39:
 22635 04dc 74616741 		.ascii	"tagAMX\000"
 22635      4D5800
 22636              	.LASF276:
 22637 04e3 616D785F 		.ascii	"amx_Align32\000"
 22637      416C6967 
 22637      6E333200 
 22638              	.LASF280:
 22639 04ef 70617261 		.ascii	"params\000"
 22639      6D7300
 22640              	.LASF78:
 22641 04f6 414D585F 		.ascii	"AMX_ERR_VERSION\000"
 22641      4552525F 
 22641      56455253 
 22641      494F4E00 
 22642              	.LASF232:
 22643 0506 4F505F50 		.ascii	"OP_PUSH_P\000"
 22643      5553485F 
 22643      5000
 22644              	.LASF176:
 22645 0510 4F505F50 		.ascii	"OP_PUSH_S\000"
 22645      5553485F 
 22645      5300
 22646              	.LASF175:
 22647 051a 4F505F50 		.ascii	"OP_PUSH\000"
 22647      55534800 
 22648              	.LASF107:
 22649 0522 4F505F41 		.ascii	"OP_ALIGN_PRI\000"
 22649      4C49474E 
 22649      5F505249 
 22649      00
 22650              	.LASF1:
 22651 052f 73697A65 		.ascii	"size_t\000"
 22651      5F7400
 22652              	.LASF250:
 22653 0536 4F505F53 		.ascii	"OP_SMUL_P_C\000"
 22653      4D554C5F 
 22653      505F4300 
 22654              	.LASF102:
 22655 0542 4F505F53 		.ascii	"OP_STOR\000"
 22655      544F5200 
 22656              	.LASF71:
 22657 054a 414D585F 		.ascii	"AMX_ERR_CALLBACK\000"
 22657      4552525F 
 22657      43414C4C 
 22657      4241434B 
 22657      00
 22658              	.LASF94:
 22659 055b 4F505F4C 		.ascii	"OP_LREF_S_PRI\000"
 22659      5245465F 
 22659      535F5052 
 22659      4900
 22660              	.LASF291:
 22661 0569 70726F67 		.ascii	"program\000"
 22661      72616D00 
 22662              	.LASF348:
 22663 0571 63737472 		.ascii	"cstr\000"
ARM GAS  /tmp/ccvHIMcj.s 			page 407


 22663      00
 22664              	.LASF166:
 22665 0576 4F505F43 		.ascii	"OP_CALL_OVL\000"
 22665      414C4C5F 
 22665      4F564C00 
 22666              	.LASF363:
 22667 0582 6D617863 		.ascii	"maxchars\000"
 22667      68617273 
 22667      00
 22668              	.LASF346:
 22669 058b 616D785F 		.ascii	"amx_addr\000"
 22669      61646472 
 22669      00
 22670              	.LASF122:
 22671 0594 4F505F43 		.ascii	"OP_CALL\000"
 22671      414C4C00 
 22672              	.LASF40:
 22673 059c 74616741 		.ascii	"tagAMX_NATIVE_INFO\000"
 22673      4D585F4E 
 22673      41544956 
 22673      455F494E 
 22673      464F00
 22674              	.LASF217:
 22675 05af 4F505F4C 		.ascii	"OP_LREF_P_S_PRI\000"
 22675      5245465F 
 22675      505F535F 
 22675      50524900 
 22676              	.LASF120:
 22677 05bf 4F505F52 		.ascii	"OP_RET\000"
 22677      455400
 22678              	.LASF284:
 22679 05c6 64617461 		.ascii	"datasize\000"
 22679      73697A65 
 22679      00
 22680              	.LASF131:
 22681 05cf 4F505F53 		.ascii	"OP_SMUL\000"
 22681      4D554C00 
 22682              	.LASF197:
 22683 05d7 4F505F49 		.ascii	"OP_INC\000"
 22683      4E4300
 22684              	.LASF21:
 22685 05de 636F6465 		.ascii	"code\000"
 22685      00
 22686              	.LASF183:
 22687 05e3 4F505F4A 		.ascii	"OP_JSLESS\000"
 22687      534C4553 
 22687      5300
 22688              	.LASF338:
 22689 05ed 616D785F 		.ascii	"amx_SetDebugHook\000"
 22689      53657444 
 22689      65627567 
 22689      486F6F6B 
 22689      00
 22690              	.LASF307:
 22691 05fe 6C617374 		.ascii	"last\000"
 22691      00
 22692              	.LASF28:
ARM GAS  /tmp/ccvHIMcj.s 			page 408


 22693 0603 75736572 		.ascii	"userdata\000"
 22693      64617461 
 22693      00
 22694              	.LASF85:
 22695 060c 414D585F 		.ascii	"AMX_ERR_PARAMS\000"
 22695      4552525F 
 22695      50415241 
 22695      4D5300
 22696              	.LASF313:
 22697 061b 616D785F 		.ascii	"amx_FindPubVar\000"
 22697      46696E64 
 22697      50756256 
 22697      617200
 22698              	.LASF264:
 22699 062a 4F505F4E 		.ascii	"OP_NUM_OPCODES\000"
 22699      554D5F4F 
 22699      50434F44 
 22699      455300
 22700              	.LASF137:
 22701 0639 4F505F58 		.ascii	"OP_XOR\000"
 22701      4F5200
 22702              	.LASF123:
 22703 0640 4F505F4A 		.ascii	"OP_JUMP\000"
 22703      554D5000 
 22704              	.LASF192:
 22705 0648 4F505F5A 		.ascii	"OP_ZERO_ALT\000"
 22705      45524F5F 
 22705      414C5400 
 22706              	.LASF91:
 22707 0654 4F505F4C 		.ascii	"OP_LOAD_ALT\000"
 22707      4F41445F 
 22707      414C5400 
 22708              	.LASF215:
 22709 0660 4F505F4C 		.ascii	"OP_LOAD_P_S_PRI\000"
 22709      4F41445F 
 22709      505F535F 
 22709      50524900 
 22710              	.LASF145:
 22711 0670 4F505F53 		.ascii	"OP_SGRTR\000"
 22711      47525452 
 22711      00
 22712              	.LASF47:
 22713 0679 414D585F 		.ascii	"AMX_FUNCSTUB\000"
 22713      46554E43 
 22713      53545542 
 22713      00
 22714              	.LASF11:
 22715 0686 63686172 		.ascii	"char\000"
 22715      00
 22716              	.LASF61:
 22717 068b 414D585F 		.ascii	"AMX_HEADER\000"
 22717      48454144 
 22717      455200
 22718              	.LASF30:
 22719 0696 70617261 		.ascii	"paramcount\000"
 22719      6D636F75 
 22719      6E7400
ARM GAS  /tmp/ccvHIMcj.s 			page 409


 22720              	.LASF369:
 22721 06a1 474E5520 		.ascii	"GNU C 4.5.2\000"
 22721      4320342E 
 22721      352E3200 
 22722              	.LASF210:
 22723 06ad 4F505F4C 		.ascii	"OP_LOAD2_S\000"
 22723      4F414432 
 22723      5F5300
 22724              	.LASF345:
 22725 06b8 616D785F 		.ascii	"amx_Release\000"
 22725      52656C65 
 22725      61736500 
 22726              	.LASF52:
 22727 06c4 616D785F 		.ascii	"amx_version\000"
 22727      76657273 
 22727      696F6E00 
 22728              	.LASF341:
 22729 06d0 63656C6C 		.ascii	"cells\000"
 22729      7300
 22730              	.LASF89:
 22731 06d6 4F505F4E 		.ascii	"OP_NOP\000"
 22731      4F5000
 22732              	.LASF355:
 22733 06dd 73747269 		.ascii	"string\000"
 22733      6E6700
 22734              	.LASF138:
 22735 06e4 4F505F4E 		.ascii	"OP_NOT\000"
 22735      4F5400
 22736              	.LASF168:
 22737 06eb 4F505F53 		.ascii	"OP_SWITCH_OVL\000"
 22737      57495443 
 22737      485F4F56 
 22737      4C00
 22738              	.LASF17:
 22739 06f9 7563656C 		.ascii	"ucell\000"
 22739      6C00
 22740              	.LASF116:
 22741 06ff 4F505F50 		.ascii	"OP_PICK\000"
 22741      49434B00 
 22742              	.LASF327:
 22743 0707 78616464 		.ascii	"xaddr\000"
 22743      7200
 22744              	.LASF31:
 22745 070d 72657365 		.ascii	"reset_stk\000"
 22745      745F7374 
 22745      6B00
 22746              	.LASF22:
 22747 0717 64617461 		.ascii	"data\000"
 22747      00
 22748              	.LASF64:
 22749 071c 414D585F 		.ascii	"AMX_ERR_ASSERT\000"
 22749      4552525F 
 22749      41535345 
 22749      525400
 22750              	.LASF370:
 22751 072b 7061776E 		.ascii	"pawn/amx.c\000"
 22751      2F616D78 
ARM GAS  /tmp/ccvHIMcj.s 			page 410


 22751      2E6300
 22752              	.LASF230:
 22753 0736 4F505F41 		.ascii	"OP_ALIGN_P_PRI\000"
 22753      4C49474E 
 22753      5F505F50 
 22753      524900
 22754              	.LASF158:
 22755 0745 4F505F53 		.ascii	"OP_SYSREQ\000"
 22755      59535245 
 22755      5100
 22756              	.LASF302:
 22757 074f 73746163 		.ascii	"stackheap\000"
 22757      6B686561 
 22757      7000
 22758              	.LASF256:
 22759 0759 4F505F49 		.ascii	"OP_INC_P_S\000"
 22759      4E435F50 
 22759      5F5300
 22760              	.LASF196:
 22761 0764 4F505F45 		.ascii	"OP_EQ_C_ALT\000"
 22761      515F435F 
 22761      414C5400 
 22762              	.LASF285:
 22763 0770 73746163 		.ascii	"stacksize\000"
 22763      6B73697A 
 22763      6500
 22764              	.LASF243:
 22765 077a 4F505F50 		.ascii	"OP_PUSHRM_P_S\000"
 22765      55534852 
 22765      4D5F505F 
 22765      5300
 22766              	.LASF51:
 22767 0788 66696C65 		.ascii	"file_version\000"
 22767      5F766572 
 22767      73696F6E 
 22767      00
 22768              	.LASF225:
 22769 0795 4F505F53 		.ascii	"OP_STOR_P_S\000"
 22769      544F525F 
 22769      505F5300 
 22770              	.LASF128:
 22771 07a1 4F505F53 		.ascii	"OP_SSHR\000"
 22771      53485200 
 22772              	.LASF298:
 22773 07a9 616D7843 		.ascii	"amxClone\000"
 22773      6C6F6E65 
 22773      00
 22774              	.LASF274:
 22775 07b2 6F70636F 		.ascii	"opcodelist\000"
 22775      64656C69 
 22775      737400
 22776              	.LASF19:
 22777 07bd 414D585F 		.ascii	"AMX_NATIVE\000"
 22777      4E415449 
 22777      564500
 22778              	.LASF362:
 22779 07c8 616D785F 		.ascii	"amx_UTF8Put\000"
ARM GAS  /tmp/ccvHIMcj.s 			page 411


 22779      55544638 
 22779      50757400 
 22780              	.LASF329:
 22781 07d4 72657476 		.ascii	"retval\000"
 22781      616C00
 22782              	.LASF182:
 22783 07db 4F505F4A 		.ascii	"OP_JNEQ\000"
 22783      4E455100 
 22784              	.LASF330:
 22785 07e3 5F5F6C6F 		.ascii	"__lodb_i\000"
 22785      64625F69 
 22785      00
 22786              	.LASF38:
 22787 07ec 414D585F 		.ascii	"AMX_OVERLAY\000"
 22787      4F564552 
 22787      4C415900 
 22788              	.LASF7:
 22789 07f8 6C6F6E67 		.ascii	"long long int\000"
 22789      206C6F6E 
 22789      6720696E 
 22789      7400
 22790              	.LASF144:
 22791 0806 4F505F53 		.ascii	"OP_SLEQ\000"
 22791      4C455100 
 22792              	.LASF46:
 22793 080e 6E616D65 		.ascii	"nameofs\000"
 22793      6F667300 
 22794              	.LASF106:
 22795 0816 4F505F53 		.ascii	"OP_STRB_I\000"
 22795      5452425F 
 22795      4900
 22796              	.LASF146:
 22797 0820 4F505F53 		.ascii	"OP_SGEQ\000"
 22797      47455100 
 22798              	.LASF69:
 22799 0828 414D585F 		.ascii	"AMX_ERR_STACKLOW\000"
 22799      4552525F 
 22799      53544143 
 22799      4B4C4F57 
 22799      00
 22800              	.LASF235:
 22801 0839 4F505F50 		.ascii	"OP_PUSHR_P_C\000"
 22801      55534852 
 22801      5F505F43 
 22801      00
 22802              	.LASF136:
 22803 0846 4F505F4F 		.ascii	"OP_OR\000"
 22803      5200
 22804              	.LASF151:
 22805 084c 4F505F44 		.ascii	"OP_DEC_ALT\000"
 22805      45435F41 
 22805      4C5400
 22806              	.LASF356:
 22807 0857 616D785F 		.ascii	"amx_GetString\000"
 22807      47657453 
 22807      7472696E 
 22807      6700
ARM GAS  /tmp/ccvHIMcj.s 			page 412


 22808              	.LASF351:
 22809 0865 736F7572 		.ascii	"source\000"
 22809      636500
 22810              	.LASF371:
 22811 086c 2F686F6D 		.ascii	"/home/z80/projects/dfu.git/firmware-pawn-dev/firmwa"
 22811      652F7A38 
 22811      302F7072 
 22811      6F6A6563 
 22811      74732F64 
 22812 089f 726500   		.ascii	"re\000"
 22813              	.LASF236:
 22814 08a2 4F505F50 		.ascii	"OP_PUSHR_P_S\000"
 22814      55534852 
 22814      5F505F53 
 22814      00
 22815              	.LASF133:
 22816 08af 4F505F41 		.ascii	"OP_ADD\000"
 22816      444400
 22817              	.LASF337:
 22818 08b6 616D785F 		.ascii	"amx_SetCallback\000"
 22818      53657443 
 22818      616C6C62 
 22818      61636B00 
 22819              	.LASF100:
 22820 08c6 4F505F41 		.ascii	"OP_ADDR_PRI\000"
 22820      4444525F 
 22820      50524900 
 22821              	.LASF347:
 22822 08d2 616D785F 		.ascii	"amx_StrLen\000"
 22822      5374724C 
 22822      656E00
 22823              	.LASF335:
 22824 08dd 5F5F6861 		.ascii	"__halt\000"
 22824      6C7400
 22825              	.LASF205:
 22826 08e4 4F505F50 		.ascii	"OP_PUSHM_ADR\000"
 22826      5553484D 
 22826      5F414452 
 22826      00
 22827              	.LASF317:
 22828 08f1 7461675F 		.ascii	"tag_id\000"
 22828      696400
 22829              	.LASF49:
 22830 08f8 73697A65 		.ascii	"size\000"
 22830      00
 22831              	.LASF226:
 22832 08fd 4F505F53 		.ascii	"OP_SREF_P_S\000"
 22832      5245465F 
 22832      505F5300 
 22833              	.LASF334:
 22834 0909 5F5F6669 		.ascii	"__fill\000"
 22834      6C6C00
 22835              	.LASF320:
 22836 0910 616D785F 		.ascii	"amx_GetUserData\000"
 22836      47657455 
 22836      73657244 
 22836      61746100 
ARM GAS  /tmp/ccvHIMcj.s 			page 413


 22837              	.LASF159:
 22838 0920 4F505F53 		.ascii	"OP_SWITCH\000"
 22838      57495443 
 22838      4800
 22839              	.LASF229:
 22840 092a 4F505F49 		.ascii	"OP_IDXADDR_P_B\000"
 22840      44584144 
 22840      44525F50 
 22840      5F4200
 22841              	.LASF234:
 22842 0939 4F505F50 		.ascii	"OP_PUSH_P_ADR\000"
 22842      5553485F 
 22842      505F4144 
 22842      5200
 22843              	.LASF364:
 22844 0947 616D785F 		.ascii	"amx_UTF8Check\000"
 22844      55544638 
 22844      43686563 
 22844      6B00
 22845              	.LASF321:
 22846 0955 616D785F 		.ascii	"amx_SetUserData\000"
 22846      53657455 
 22846      73657244 
 22846      61746100 
 22847              	.LASF247:
 22848 0965 4F505F53 		.ascii	"OP_SHL_P_C_PRI\000"
 22848      484C5F50 
 22848      5F435F50 
 22848      524900
 22849              	.LASF160:
 22850 0974 4F505F53 		.ascii	"OP_SWAP_PRI\000"
 22850      5741505F 
 22850      50524900 
 22851              	.LASF353:
 22852 0980 7573655F 		.ascii	"use_wchar\000"
 22852      77636861 
 22852      7200
 22853              	.LASF273:
 22854 098a 616D785F 		.ascii	"amx_exec_list\000"
 22854      65786563 
 22854      5F6C6973 
 22854      7400
 22855              	.LASF132:
 22856 0998 4F505F53 		.ascii	"OP_SDIV\000"
 22856      44495600 
 22857              	.LASF252:
 22858 09a0 4F505F5A 		.ascii	"OP_ZERO_P_S\000"
 22858      45524F5F 
 22858      505F5300 
 22859              	.LASF237:
 22860 09ac 4F505F50 		.ascii	"OP_PUSHR_P_ADR\000"
 22860      55534852 
 22860      5F505F41 
 22860      445200
 22861              	.LASF259:
 22862 09bb 4F505F4D 		.ascii	"OP_MOVS_P\000"
 22862      4F56535F 
ARM GAS  /tmp/ccvHIMcj.s 			page 414


 22862      5000
 22863              	.LASF368:
 22864 09c5 675F6E61 		.ascii	"g_nativetable\000"
 22864      74697665 
 22864      7461626C 
 22864      6500
 22865              	.LASF193:
 22866 09d3 4F505F5A 		.ascii	"OP_ZERO\000"
 22866      45524F00 
 22867              	.LASF343:
 22868 09db 61727261 		.ascii	"array\000"
 22868      7900
 22869              	.LASF74:
 22870 09e1 414D585F 		.ascii	"AMX_ERR_SLEEP\000"
 22870      4552525F 
 22870      534C4545 
 22870      5000
 22871              	.LASF295:
 22872 09ef 72656C6F 		.ascii	"reloc_table\000"
 22872      635F7461 
 22872      626C6500 
 22873              	.LASF93:
 22874 09fb 4F505F4C 		.ascii	"OP_LOAD_S_ALT\000"
 22874      4F41445F 
 22874      535F414C 
 22874      5400
 22875              	.LASF16:
 22876 0a09 696E7470 		.ascii	"intptr_t\000"
 22876      74725F74 
 22876      00
 22877              	.LASF294:
 22878 0a12 636F6D70 		.ascii	"compiled_program\000"
 22878      696C6564 
 22878      5F70726F 
 22878      6772616D 
 22878      00
 22879              	.LASF13:
 22880 0a23 75696E74 		.ascii	"uint16_t\000"
 22880      31365F74 
 22880      00
 22881              	.LASF221:
 22882 0a2c 4F505F43 		.ascii	"OP_CONST_P_ALT\000"
 22882      4F4E5354 
 22882      5F505F41 
 22882      4C5400
 22883              	.LASF342:
 22884 0a3b 616D785F 		.ascii	"amx_PushArray\000"
 22884      50757368 
 22884      41727261 
 22884      7900
 22885              	.LASF374:
 22886 0a49 616D785F 		.ascii	"amx_Swap32\000"
 22886      53776170 
 22886      333200
 22887              	.LASF172:
 22888 0a54 4F505F49 		.ascii	"OP_IDXADDR\000"
 22888      44584144 
ARM GAS  /tmp/ccvHIMcj.s 			page 415


 22888      445200
 22889              	.LASF209:
 22890 0a5f 4F505F4C 		.ascii	"OP_LOAD2\000"
 22890      4F414432 
 22890      00
 22891              	.LASF188:
 22892 0a68 4F505F53 		.ascii	"OP_SUB_INV\000"
 22892      55425F49 
 22892      4E5600
 22893              	.LASF187:
 22894 0a73 4F505F53 		.ascii	"OP_SDIV_INV\000"
 22894      4449565F 
 22894      494E5600 
 22895              	.LASF267:
 22896 0a7f 616D785F 		.ascii	"amx_NumNatives\000"
 22896      4E756D4E 
 22896      61746976 
 22896      657300
 22897              	.LASF332:
 22898 0a8e 5F5F6D6F 		.ascii	"__movs\000"
 22898      767300
 22899              	.LASF227:
 22900 0a95 4F505F53 		.ascii	"OP_STRB_P_I\000"
 22900      5452425F 
 22900      505F4900 
 22901              	.LASF157:
 22902 0aa1 4F505F42 		.ascii	"OP_BOUNDS\000"
 22902      4F554E44 
 22902      5300
 22903              	.LASF281:
 22904 0aab 6F706D61 		.ascii	"opmask\000"
 22904      736B00
 22905              	.LASF179:
 22906 0ab2 4F505F50 		.ascii	"OP_PUSHR_S\000"
 22906      55534852 
 22906      5F5300
 22907              	.LASF99:
 22908 0abd 4F505F43 		.ascii	"OP_CONST_ALT\000"
 22908      4F4E5354 
 22908      5F414C54 
 22908      00
 22909              	.LASF268:
 22910 0aca 616D785F 		.ascii	"amx_NumPublics\000"
 22910      4E756D50 
 22910      75626C69 
 22910      637300
 22911              	.LASF81:
 22912 0ad9 414D585F 		.ascii	"AMX_ERR_DEBUG\000"
 22912      4552525F 
 22912      44454255 
 22912      4700
 22913              	.LASF147:
 22914 0ae7 4F505F49 		.ascii	"OP_INC_PRI\000"
 22914      4E435F50 
 22914      524900
 22915              	.LASF148:
 22916 0af2 4F505F49 		.ascii	"OP_INC_ALT\000"
ARM GAS  /tmp/ccvHIMcj.s 			page 416


 22916      4E435F41 
 22916      4C5400
 22917              	.LASF214:
 22918 0afd 4F505F4C 		.ascii	"OP_LOAD_P_ALT\000"
 22918      4F41445F 
 22918      505F414C 
 22918      5400
 22919              	.LASF113:
 22920 0b0b 4F505F50 		.ascii	"OP_PUSHR_PRI\000"
 22920      55534852 
 22920      5F505249 
 22920      00
 22921              	.LASF5:
 22922 0b18 73686F72 		.ascii	"short int\000"
 22922      7420696E 
 22922      7400
 22923              	.LASF169:
 22924 0b22 4F505F43 		.ascii	"OP_CASETBL_OVL\000"
 22924      41534554 
 22924      424C5F4F 
 22924      564C00
 22925              	.LASF254:
 22926 0b31 4F505F45 		.ascii	"OP_EQ_P_C_ALT\000"
 22926      515F505F 
 22926      435F414C 
 22926      5400
 22927              	.LASF293:
 22928 0b3f 616D785F 		.ascii	"amx_InitJIT\000"
 22928      496E6974 
 22928      4A495400 
 22929              	.LASF9:
 22930 0b4b 6C6F6E67 		.ascii	"long int\000"
 22930      20696E74 
 22930      00
 22931              	.LASF245:
 22932 0b54 4F505F53 		.ascii	"OP_STACK_P\000"
 22932      5441434B 
 22932      5F5000
 22933              	.LASF333:
 22934 0b5f 5F5F636D 		.ascii	"__cmps\000"
 22934      707300
 22935              	.LASF149:
 22936 0b66 4F505F49 		.ascii	"OP_INC_I\000"
 22936      4E435F49 
 22936      00
 22937              	.LASF304:
 22938 0b6f 6C656E67 		.ascii	"length\000"
 22938      746800
 22939              	.LASF25:
 22940 0b76 6F766572 		.ascii	"overlay\000"
 22940      6C617900 
 22941              	.LASF152:
 22942 0b7e 4F505F44 		.ascii	"OP_DEC_I\000"
 22942      45435F49 
 22942      00
 22943              	.LASF35:
 22944 0b87 636F6465 		.ascii	"codesize\000"
ARM GAS  /tmp/ccvHIMcj.s 			page 417


 22944      73697A65 
 22944      00
 22945              	.LASF255:
 22946 0b90 4F505F49 		.ascii	"OP_INC_P\000"
 22946      4E435F50 
 22946      00
 22947              	.LASF62:
 22948 0b99 414D585F 		.ascii	"AMX_ERR_NONE\000"
 22948      4552525F 
 22948      4E4F4E45 
 22948      00
 22949              	.LASF198:
 22950 0ba6 4F505F49 		.ascii	"OP_INC_S\000"
 22950      4E435F53 
 22950      00
 22951              	.LASF185:
 22952 0baf 4F505F4A 		.ascii	"OP_JSGRTR\000"
 22952      53475254 
 22952      5200
 22953              	.LASF360:
 22954 0bb9 75746638 		.ascii	"utf8_lowmark\000"
 22954      5F6C6F77 
 22954      6D61726B 
 22954      00
 22955              	.LASF177:
 22956 0bc6 4F505F50 		.ascii	"OP_PUSH_ADR\000"
 22956      5553485F 
 22956      41445200 
 22957              	.LASF372:
 22958 0bd2 66696E64 		.ascii	"findfunction\000"
 22958      66756E63 
 22958      74696F6E 
 22958      00
 22959              	.LASF57:
 22960 0bdf 70756276 		.ascii	"pubvars\000"
 22960      61727300 
 22961              	.LASF153:
 22962 0be7 4F505F4D 		.ascii	"OP_MOVS\000"
 22962      4F565300 
 22963              	.LASF171:
 22964 0bef 4F505F4C 		.ascii	"OP_LIDX_B\000"
 22964      4944585F 
 22964      4200
 22965              	.LASF115:
 22966 0bf9 4F505F50 		.ascii	"OP_POP_ALT\000"
 22966      4F505F41 
 22966      4C5400
 22967              	.LASF58:
 22968 0c04 74616773 		.ascii	"tags\000"
 22968      00
 22969              	.LASF191:
 22970 0c09 4F505F5A 		.ascii	"OP_ZERO_PRI\000"
 22970      45524F5F 
 22970      50524900 
 22971              	.LASF90:
 22972 0c15 4F505F4C 		.ascii	"OP_LOAD_PRI\000"
 22972      4F41445F 
ARM GAS  /tmp/ccvHIMcj.s 			page 418


 22972      50524900 
 22973              	.LASF340:
 22974 0c21 616D785F 		.ascii	"amx_Allot\000"
 22974      416C6C6F 
 22974      7400
 22975              	.LASF282:
 22976 0c2b 73797372 		.ascii	"sysreq_flg\000"
 22976      65715F66 
 22976      6C6700
 22977              	.LASF34:
 22978 0c36 6F766C5F 		.ascii	"ovl_index\000"
 22978      696E6465 
 22978      7800
 22979              	.LASF269:
 22980 0c40 616D785F 		.ascii	"amx_NumPubVars\000"
 22980      4E756D50 
 22980      75625661 
 22980      727300
 22981              	.LASF266:
 22982 0c4f 6E756D62 		.ascii	"number\000"
 22982      657200
 22983              	.LASF112:
 22984 0c56 4F505F50 		.ascii	"OP_PUSH_ALT\000"
 22984      5553485F 
 22984      414C5400 
 22985              	.LASF109:
 22986 0c62 4F505F53 		.ascii	"OP_SCTRL\000"
 22986      4354524C 
 22986      00
 22987              	.LASF41:
 22988 0c6b 6E616D65 		.ascii	"name\000"
 22988      00
 22989              	.LASF296:
 22990 0c70 616D785F 		.ascii	"amx_Cleanup\000"
 22990      436C6561 
 22990      6E757000 
 22991              	.LASF312:
 22992 0c7c 616D785F 		.ascii	"amx_GetPubVar\000"
 22992      47657450 
 22992      75625661 
 22992      7200
 22993              	.LASF139:
 22994 0c8a 4F505F4E 		.ascii	"OP_NEG\000"
 22994      454700
 22995              	.LASF130:
 22996 0c91 4F505F53 		.ascii	"OP_SHL_C_ALT\000"
 22996      484C5F43 
 22996      5F414C54 
 22996      00
 22997              	.LASF50:
 22998 0c9e 6D616769 		.ascii	"magic\000"
 22998      6300
 22999              	.LASF63:
 23000 0ca4 414D585F 		.ascii	"AMX_ERR_EXIT\000"
 23000      4552525F 
 23000      45584954 
 23000      00
ARM GAS  /tmp/ccvHIMcj.s 			page 419


 23001              	.LASF27:
 23002 0cb1 75736572 		.ascii	"usertags\000"
 23002      74616773 
 23002      00
 23003              	.LASF142:
 23004 0cba 4F505F4E 		.ascii	"OP_NEQ\000"
 23004      455100
 23005              	.LASF60:
 23006 0cc1 6F766572 		.ascii	"overlays\000"
 23006      6C617973 
 23006      00
 23007              	.LASF241:
 23008 0cca 4F505F50 		.ascii	"OP_PUSHM_P_ADR\000"
 23008      5553484D 
 23008      5F505F41 
 23008      445200
 23009              	.LASF373:
 23010 0cd9 56657269 		.ascii	"VerifyPcode\000"
 23010      66795063 
 23010      6F646500 
 23011              	.LASF125:
 23012 0ce5 4F505F4A 		.ascii	"OP_JNZ\000"
 23012      4E5A00
 23013              	.LASF119:
 23014 0cec 4F505F50 		.ascii	"OP_PROC\000"
 23014      524F4300 
 23015              	.LASF10:
 23016 0cf4 6C6F6E67 		.ascii	"long unsigned int\000"
 23016      20756E73 
 23016      69676E65 
 23016      6420696E 
 23016      7400
 23017              	.LASF45:
 23018 0d06 61646472 		.ascii	"address\000"
 23018      65737300 
 23019              	.LASF134:
 23020 0d0e 4F505F53 		.ascii	"OP_SUB\000"
 23020      554200
 23021              	.LASF195:
 23022 0d15 4F505F45 		.ascii	"OP_EQ_C_PRI\000"
 23022      515F435F 
 23022      50524900 
 23023              	.LASF344:
 23024 0d21 6E756D63 		.ascii	"numcells\000"
 23024      656C6C73 
 23024      00
 23025              	.LASF14:
 23026 0d2a 696E7433 		.ascii	"int32_t\000"
 23026      325F7400 
 23027              	.LASF84:
 23028 0d32 414D585F 		.ascii	"AMX_ERR_INIT_JIT\000"
 23028      4552525F 
 23028      494E4954 
 23028      5F4A4954 
 23028      00
 23029              	.LASF163:
 23030 0d43 4F505F43 		.ascii	"OP_CASETBL\000"
ARM GAS  /tmp/ccvHIMcj.s 			page 420


 23030      41534554 
 23030      424C00
 23031              	.LASF288:
 23032 0d4e 616D785F 		.ascii	"amx_Callback\000"
 23032      43616C6C 
 23032      6261636B 
 23032      00
 23033              	.LASF318:
 23034 0d5b 616D785F 		.ascii	"amx_FindTagId\000"
 23034      46696E64 
 23034      54616749 
 23034      6400
 23035              	.LASF180:
 23036 0d69 4F505F50 		.ascii	"OP_PUSHR_ADR\000"
 23036      55534852 
 23036      5F414452 
 23036      00
 23037              	.LASF223:
 23038 0d76 4F505F41 		.ascii	"OP_ADDR_P_ALT\000"
 23038      4444525F 
 23038      505F414C 
 23038      5400
 23039              	.LASF300:
 23040 0d84 64617461 		.ascii	"dataSource\000"
 23040      536F7572 
 23040      636500
 23041              	.LASF212:
 23042 0d8f 4F505F43 		.ascii	"OP_CONST_S\000"
 23042      4F4E5354 
 23042      5F5300
 23043              	.LASF75:
 23044 0d9a 414D585F 		.ascii	"AMX_ERR_INVSTATE\000"
 23044      4552525F 
 23044      494E5653 
 23044      54415445 
 23044      00
 23045              	.LASF83:
 23046 0dab 414D585F 		.ascii	"AMX_ERR_USERDATA\000"
 23046      4552525F 
 23046      55534552 
 23046      44415441 
 23046      00
 23047              	.LASF4:
 23048 0dbc 756E7369 		.ascii	"unsigned char\000"
 23048      676E6564 
 23048      20636861 
 23048      7200
 23049              	.LASF44:
 23050 0dca 74616746 		.ascii	"tagFUNCSTUB\000"
 23050      554E4353 
 23050      54554200 
 23051              	.LASF43:
 23052 0dd6 414D585F 		.ascii	"AMX_NATIVE_INFO\000"
 23052      4E415449 
 23052      56455F49 
 23052      4E464F00 
 23053              	.LASF365:
ARM GAS  /tmp/ccvHIMcj.s 			page 421


 23054 0de6 616D785F 		.ascii	"amx_UTF8Len\000"
 23054      55544638 
 23054      4C656E00 
 23055              	.LASF305:
 23056 0df2 616D785F 		.ascii	"amx_GetNative\000"
 23056      4765744E 
 23056      61746976 
 23056      6500
 23057              	.LASF260:
 23058 0e00 4F505F43 		.ascii	"OP_CMPS_P\000"
 23058      4D50535F 
 23058      5000
 23059              	.LASF124:
 23060 0e0a 4F505F4A 		.ascii	"OP_JZER\000"
 23060      5A455200 
 23061              	.LASF357:
 23062 0e12 616D785F 		.ascii	"amx_UTF8Get\000"
 23062      55544638 
 23062      47657400 
 23063              	.LASF141:
 23064 0e1e 4F505F45 		.ascii	"OP_EQ\000"
 23064      5100
 23065              	.LASF287:
 23066 0e24 6F666673 		.ascii	"offs\000"
 23066      00
 23067              	.LASF80:
 23068 0e29 414D585F 		.ascii	"AMX_ERR_INDEX\000"
 23068      4552525F 
 23068      494E4445 
 23068      5800
 23069              	.LASF23:
 23070 0e37 63616C6C 		.ascii	"callback\000"
 23070      6261636B 
 23070      00
 23071              	.LASF325:
 23072 0e40 616D785F 		.ascii	"amx_NativeInfo\000"
 23072      4E617469 
 23072      7665496E 
 23072      666F00
 23073              	.LASF301:
 23074 0e4f 616D785F 		.ascii	"amx_MemInfo\000"
 23074      4D656D49 
 23074      6E666F00 
 23075              	.LASF219:
 23076 0e5b 4F505F4C 		.ascii	"OP_LODB_P_I\000"
 23076      4F44425F 
 23076      505F4900 
 23077              	.LASF246:
 23078 0e67 4F505F48 		.ascii	"OP_HEAP_P\000"
 23078      4541505F 
 23078      5000
 23079              	.LASF311:
 23080 0e71 66697273 		.ascii	"first\000"
 23080      7400
 23081              	.LASF310:
 23082 0e77 616D785F 		.ascii	"amx_FindPublic\000"
 23082      46696E64 
ARM GAS  /tmp/ccvHIMcj.s 			page 422


 23082      5075626C 
 23082      696300
 23083              	.LASF249:
 23084 0e86 4F505F41 		.ascii	"OP_ADD_P_C\000"
 23084      44445F50 
 23084      5F4300
 23085              	.LASF258:
 23086 0e91 4F505F44 		.ascii	"OP_DEC_P_S\000"
 23086      45435F50 
 23086      5F5300
 23087              	.LASF70:
 23088 0e9c 414D585F 		.ascii	"AMX_ERR_HEAPLOW\000"
 23088      4552525F 
 23088      48454150 
 23088      4C4F5700 
 23089              	.LASF3:
 23090 0eac 7369676E 		.ascii	"signed char\000"
 23090      65642063 
 23090      68617200 
 23091              	.LASF97:
 23092 0eb8 4F505F4C 		.ascii	"OP_LODB_I\000"
 23092      4F44425F 
 23092      4900
 23093              	.LASF6:
 23094 0ec2 73686F72 		.ascii	"short unsigned int\000"
 23094      7420756E 
 23094      7369676E 
 23094      65642069 
 23094      6E7400
 23095              	.LASF88:
 23096 0ed5 414D585F 		.ascii	"AMX_ERR_OVERLAY\000"
 23096      4552525F 
 23096      4F564552 
 23096      4C415900 
 23097              	.LASF314:
 23098 0ee5 616D785F 		.ascii	"amx_NumTags\000"
 23098      4E756D54 
 23098      61677300 
 23099              	.LASF323:
 23100 0ef1 6E756D6E 		.ascii	"numnatives\000"
 23100      61746976 
 23100      657300
 23101              	.LASF53:
 23102 0efc 64656673 		.ascii	"defsize\000"
 23102      697A6500 
 23103              	.LASF231:
 23104 0f04 4F505F50 		.ascii	"OP_PUSH_P_C\000"
 23104      5553485F 
 23104      505F4300 
 23105              	.LASF65:
 23106 0f10 414D585F 		.ascii	"AMX_ERR_STACKERR\000"
 23106      4552525F 
 23106      53544143 
 23106      4B455252 
 23106      00
 23107              	.LASF48:
 23108 0f21 74616741 		.ascii	"tagAMX_HEADER\000"
ARM GAS  /tmp/ccvHIMcj.s 			page 423


 23108      4D585F48 
 23108      45414445 
 23108      5200
 23109              	.LASF18:
 23110 0f2f 63656C6C 		.ascii	"cell\000"
 23110      00
 23111              	.LASF265:
 23112 0f34 4F50434F 		.ascii	"OPCODE\000"
 23112      444500
 23113              	.LASF244:
 23114 0f3b 4F505F50 		.ascii	"OP_PUSHRM_P_ADR\000"
 23114      55534852 
 23114      4D5F505F 
 23114      41445200 
 23115              	.LASF208:
 23116 0f4b 4F505F50 		.ascii	"OP_PUSHRM_ADR\000"
 23116      55534852 
 23116      4D5F4144 
 23116      5200
 23117              	.LASF336:
 23118 0f59 63707472 		.ascii	"cptr\000"
 23118      00
 23119              	.LASF126:
 23120 0f5e 4F505F53 		.ascii	"OP_SHL\000"
 23120      484C00
 23121              	.LASF211:
 23122 0f65 4F505F43 		.ascii	"OP_CONST\000"
 23122      4F4E5354 
 23122      00
 23123              	.LASF290:
 23124 0f6e 616D785F 		.ascii	"amx_Init\000"
 23124      496E6974 
 23124      00
 23125              	.LASF127:
 23126 0f77 4F505F53 		.ascii	"OP_SHR\000"
 23126      485200
 23127              	.LASF92:
 23128 0f7e 4F505F4C 		.ascii	"OP_LOAD_S_PRI\000"
 23128      4F41445F 
 23128      535F5052 
 23128      4900
 23129              	.LASF326:
 23130 0f8c 616D785F 		.ascii	"amx_PushAddress\000"
 23130      50757368 
 23130      41646472 
 23130      65737300 
 23131              	.LASF220:
 23132 0f9c 4F505F43 		.ascii	"OP_CONST_P_PRI\000"
 23132      4F4E5354 
 23132      5F505F50 
 23132      524900
 23133              	.LASF33:
 23134 0fab 73797372 		.ascii	"sysreq_d\000"
 23134      65715F64 
 23134      00
 23135              	.LASF283:
 23136 0fb4 6D61785F 		.ascii	"max_opcode\000"
ARM GAS  /tmp/ccvHIMcj.s 			page 424


 23136      6F70636F 
 23136      646500
 23137              	.LASF261:
 23138 0fbf 4F505F46 		.ascii	"OP_FILL_P\000"
 23138      494C4C5F 
 23138      5000
 23139              	.LASF349:
 23140 0fc9 616D785F 		.ascii	"amx_SetString\000"
 23140      53657453 
 23140      7472696E 
 23140      6700
 23141              	.LASF96:
 23142 0fd7 4F505F4C 		.ascii	"OP_LOAD_I\000"
 23142      4F41445F 
 23142      4900
 23143              	.LASF350:
 23144 0fe1 64657374 		.ascii	"dest\000"
 23144      00
 23145              	.LASF257:
 23146 0fe6 4F505F44 		.ascii	"OP_DEC_P\000"
 23146      45435F50 
 23146      00
 23147              	.LASF98:
 23148 0fef 4F505F43 		.ascii	"OP_CONST_PRI\000"
 23148      4F4E5354 
 23148      5F505249 
 23148      00
 23149              	.LASF375:
 23150 0ffc 7763736C 		.ascii	"wcslen\000"
 23150      656E00
 23151              	.LASF110:
 23152 1003 4F505F58 		.ascii	"OP_XCHG\000"
 23152      43484700 
 23153              	.LASF309:
 23154 100b 616D785F 		.ascii	"amx_GetPublic\000"
 23154      47657450 
 23154      75626C69 
 23154      6300
 23155              		.ident	"GCC: (Sourcery G++ Lite 2011.03-42) 4.5.2"
ARM GAS  /tmp/ccvHIMcj.s 			page 425


DEFINED SYMBOLS
                            *ABS*:00000000 amx.c
     /tmp/ccvHIMcj.s:24     .text.amx_Callback:00000000 $t
     /tmp/ccvHIMcj.s:30     .text.amx_Callback:00000000 amx_Callback
     /tmp/ccvHIMcj.s:119    .text.amx_Callback:00000060 $d
     /tmp/ccvHIMcj.s:124    .text.VerifyPcode:00000000 $t
     /tmp/ccvHIMcj.s:129    .text.VerifyPcode:00000000 VerifyPcode
     /tmp/ccvHIMcj.s:220    .text.VerifyPcode:0000007c $d
     /tmp/ccvHIMcj.s:399    .text.VerifyPcode:00000338 $t
     /tmp/ccvHIMcj.s:795    .text.amx_Swap32:00000000 $t
     /tmp/ccvHIMcj.s:801    .text.amx_Swap32:00000000 amx_Swap32
     /tmp/ccvHIMcj.s:839    .text.amx_Align16:00000000 $t
     /tmp/ccvHIMcj.s:845    .text.amx_Align16:00000000 amx_Align16
     /tmp/ccvHIMcj.s:859    .text.amx_Align32:00000000 $t
     /tmp/ccvHIMcj.s:865    .text.amx_Align32:00000000 amx_Align32
     /tmp/ccvHIMcj.s:879    .text.amx_Flags:00000000 $t
     /tmp/ccvHIMcj.s:885    .text.amx_Flags:00000000 amx_Flags
     /tmp/ccvHIMcj.s:947    .text.amx_Init:00000000 $t
     /tmp/ccvHIMcj.s:953    .text.amx_Init:00000000 amx_Init
     /tmp/ccvHIMcj.s:1188   .text.amx_Init:00000118 $d
     /tmp/ccvHIMcj.s:1193   .text.amx_InitJIT:00000000 $t
     /tmp/ccvHIMcj.s:1199   .text.amx_InitJIT:00000000 amx_InitJIT
     /tmp/ccvHIMcj.s:1215   .text.amx_Cleanup:00000000 $t
     /tmp/ccvHIMcj.s:1221   .text.amx_Cleanup:00000000 amx_Cleanup
     /tmp/ccvHIMcj.s:1237   .text.amx_Clone:00000000 $t
     /tmp/ccvHIMcj.s:1243   .text.amx_Clone:00000000 amx_Clone
     /tmp/ccvHIMcj.s:1395   .text.amx_MemInfo:00000000 $t
     /tmp/ccvHIMcj.s:1401   .text.amx_MemInfo:00000000 amx_MemInfo
     /tmp/ccvHIMcj.s:1487   .text.amx_NameLength:00000000 $t
     /tmp/ccvHIMcj.s:1493   .text.amx_NameLength:00000000 amx_NameLength
     /tmp/ccvHIMcj.s:1518   .text.amx_NumNatives:00000000 $t
     /tmp/ccvHIMcj.s:1524   .text.amx_NumNatives:00000000 amx_NumNatives
     /tmp/ccvHIMcj.s:1558   .text.amx_GetNative:00000000 $t
     /tmp/ccvHIMcj.s:1564   .text.amx_GetNative:00000000 amx_GetNative
     /tmp/ccvHIMcj.s:1611   .text.amx_FindNative:00000000 $t
     /tmp/ccvHIMcj.s:1617   .text.amx_FindNative:00000000 amx_FindNative
     /tmp/ccvHIMcj.s:1761   .text.amx_NumPublics:00000000 $t
     /tmp/ccvHIMcj.s:1767   .text.amx_NumPublics:00000000 amx_NumPublics
     /tmp/ccvHIMcj.s:1801   .text.amx_GetPublic:00000000 $t
     /tmp/ccvHIMcj.s:1807   .text.amx_GetPublic:00000000 amx_GetPublic
     /tmp/ccvHIMcj.s:1876   .text.amx_FindPublic:00000000 $t
     /tmp/ccvHIMcj.s:1882   .text.amx_FindPublic:00000000 amx_FindPublic
     /tmp/ccvHIMcj.s:1999   .text.amx_NumPubVars:00000000 $t
     /tmp/ccvHIMcj.s:2005   .text.amx_NumPubVars:00000000 amx_NumPubVars
     /tmp/ccvHIMcj.s:2039   .text.amx_GetPubVar:00000000 $t
     /tmp/ccvHIMcj.s:2045   .text.amx_GetPubVar:00000000 amx_GetPubVar
     /tmp/ccvHIMcj.s:2119   .text.amx_FindPubVar:00000000 $t
     /tmp/ccvHIMcj.s:2125   .text.amx_FindPubVar:00000000 amx_FindPubVar
     /tmp/ccvHIMcj.s:2236   .text.amx_NumTags:00000000 $t
     /tmp/ccvHIMcj.s:2242   .text.amx_NumTags:00000000 amx_NumTags
     /tmp/ccvHIMcj.s:2294   .text.amx_GetTag:00000000 $t
     /tmp/ccvHIMcj.s:2300   .text.amx_GetTag:00000000 amx_GetTag
     /tmp/ccvHIMcj.s:2397   .text.amx_FindTagId:00000000 $t
     /tmp/ccvHIMcj.s:2403   .text.amx_FindTagId:00000000 amx_FindTagId
     /tmp/ccvHIMcj.s:2499   .text.amx_GetUserData:00000000 $t
     /tmp/ccvHIMcj.s:2505   .text.amx_GetUserData:00000000 amx_GetUserData
     /tmp/ccvHIMcj.s:2569   .text.amx_SetUserData:00000000 $t
ARM GAS  /tmp/ccvHIMcj.s 			page 426


     /tmp/ccvHIMcj.s:2575   .text.amx_SetUserData:00000000 amx_SetUserData
     /tmp/ccvHIMcj.s:2656   .text.amx_Register:00000000 $t
     /tmp/ccvHIMcj.s:2662   .text.amx_Register:00000000 amx_Register
     /tmp/ccvHIMcj.s:2853   .text.amx_NativeInfo:00000000 $t
     /tmp/ccvHIMcj.s:2859   .text.amx_NativeInfo:00000000 amx_NativeInfo
     /tmp/ccvHIMcj.s:2879   .text.amx_NativeInfo:0000000c $d
     /tmp/ccvHIMcj.s:2884   .text.amx_Push:00000000 $t
     /tmp/ccvHIMcj.s:2890   .text.amx_Push:00000000 amx_Push
     /tmp/ccvHIMcj.s:2954   .text.amx_PushAddress:00000000 $t
     /tmp/ccvHIMcj.s:2960   .text.amx_PushAddress:00000000 amx_PushAddress
     /tmp/ccvHIMcj.s:3064   .text.amx_exec_list:00000000 $t
     /tmp/ccvHIMcj.s:3070   .text.amx_exec_list:00000000 amx_exec_list
     /tmp/ccvHIMcj.s:3093   .text.amx_Exec:00000000 $t
     /tmp/ccvHIMcj.s:3099   .text.amx_Exec:00000000 amx_Exec
     /tmp/ccvHIMcj.s:3347   .text.amx_Exec:00000176 $d
     /tmp/ccvHIMcj.s:3525   .text.amx_Exec:000002d4 $t
     /tmp/ccvHIMcj.s:5598   .text.amx_Exec:00000e20 $d
     /tmp/ccvHIMcj.s:5606   .text.amx_Exec:00000e34 $t
     /tmp/ccvHIMcj.s:5616   .text.amx_Exec:00000e42 $d
     /tmp/ccvHIMcj.s:5626   .text.amx_Exec:00000e50 $t
     /tmp/ccvHIMcj.s:7597   .text.amx_SetCallback:00000000 $t
     /tmp/ccvHIMcj.s:7603   .text.amx_SetCallback:00000000 amx_SetCallback
     /tmp/ccvHIMcj.s:7621   .text.amx_SetDebugHook:00000000 $t
     /tmp/ccvHIMcj.s:7627   .text.amx_SetDebugHook:00000000 amx_SetDebugHook
     /tmp/ccvHIMcj.s:7645   .text.amx_RaiseError:00000000 $t
     /tmp/ccvHIMcj.s:7651   .text.amx_RaiseError:00000000 amx_RaiseError
     /tmp/ccvHIMcj.s:7669   .text.amx_Allot:00000000 $t
     /tmp/ccvHIMcj.s:7675   .text.amx_Allot:00000000 amx_Allot
     /tmp/ccvHIMcj.s:7740   .text.amx_PushArray:00000000 $t
     /tmp/ccvHIMcj.s:7746   .text.amx_PushArray:00000000 amx_PushArray
     /tmp/ccvHIMcj.s:7861   .text.amx_Release:00000000 $t
     /tmp/ccvHIMcj.s:7867   .text.amx_Release:00000000 amx_Release
     /tmp/ccvHIMcj.s:7923   .text.amx_StrLen:00000000 $t
     /tmp/ccvHIMcj.s:7929   .text.amx_StrLen:00000000 amx_StrLen
     /tmp/ccvHIMcj.s:8015   .text.amx_SetString:00000000 $t
     /tmp/ccvHIMcj.s:8021   .text.amx_SetString:00000000 amx_SetString
     /tmp/ccvHIMcj.s:8299   .text.amx_SetString:00000180 $d
     /tmp/ccvHIMcj.s:8305   .text.amx_PushString:00000000 $t
     /tmp/ccvHIMcj.s:8311   .text.amx_PushString:00000000 amx_PushString
     /tmp/ccvHIMcj.s:8449   .text.amx_GetString:00000000 $t
     /tmp/ccvHIMcj.s:8455   .text.amx_GetString:00000000 amx_GetString
     /tmp/ccvHIMcj.s:8771   .text.amx_UTF8Get:00000000 $t
     /tmp/ccvHIMcj.s:8777   .text.amx_UTF8Get:00000000 amx_UTF8Get
     /tmp/ccvHIMcj.s:8850   .text.amx_UTF8Get:0000004c $d
     /tmp/ccvHIMcj.s:8967   .text.amx_UTF8Get:000000e8 $d
     /tmp/ccvHIMcj.s:8973   .text.amx_UTF8Put:00000000 $t
     /tmp/ccvHIMcj.s:8979   .text.amx_UTF8Put:00000000 amx_UTF8Put
     /tmp/ccvHIMcj.s:9246   .text.amx_UTF8Check:00000000 $t
     /tmp/ccvHIMcj.s:9252   .text.amx_UTF8Check:00000000 amx_UTF8Check
     /tmp/ccvHIMcj.s:9316   .text.amx_UTF8Len:00000000 $t
     /tmp/ccvHIMcj.s:9322   .text.amx_UTF8Len:00000000 amx_UTF8Len
     /tmp/ccvHIMcj.s:9445   .bss.n.6308:00000000 $d
     /tmp/ccvHIMcj.s:9449   .bss.n.6308:00000000 n.6308
     /tmp/ccvHIMcj.s:9452   .rodata.utf8_count.6724:00000000 $d
     /tmp/ccvHIMcj.s:9456   .rodata.utf8_count.6724:00000000 utf8_count.6724
     /tmp/ccvHIMcj.s:9474   .rodata.utf8_lowmark.6725:00000000 $d
     /tmp/ccvHIMcj.s:9478   .rodata.utf8_lowmark.6725:00000000 utf8_lowmark.6725
ARM GAS  /tmp/ccvHIMcj.s 			page 427


                     .debug_frame:00000010 $d
     /tmp/ccvHIMcj.s:123    .text.amx_Callback:00000064 $t
     /tmp/ccvHIMcj.s:1192   .text.amx_Init:0000011c $t
     /tmp/ccvHIMcj.s:8304   .text.amx_SetString:00000188 $t
     /tmp/ccvHIMcj.s:8855   .text.amx_UTF8Get:00000051 $d
     /tmp/ccvHIMcj.s:8855   .text.amx_UTF8Get:00000052 $t

UNDEFINED SYMBOLS
g_nativetable
memcpy
strcpy
strcmp
memcmp
strlen
wcslen
