ARM GAS  /tmp/ccEBd0Fn.s 			page 1


   1              		.syntax unified
   2              		.cpu cortex-m3
   3              		.fpu softvfp
   4              		.eabi_attribute 20, 1
   5              		.eabi_attribute 21, 1
   6              		.eabi_attribute 23, 3
   7              		.eabi_attribute 24, 1
   8              		.eabi_attribute 25, 1
   9              		.eabi_attribute 26, 1
  10              		.eabi_attribute 30, 2
  11              		.eabi_attribute 18, 4
  12              		.thumb
  13              		.file	"amxcore.c"
  20 0000 78030000 		.text
  20      0200AB00 
  20      00000201 
  20      FB0E0D00 
  20      01010101 
  21              	.Ltext0:
  22              		.cfi_sections	.debug_frame
  23              		.section	.text.numargs,"ax",%progbits
  24              		.align	2
  25              		.p2align 4,,15
  26              		.thumb
  27              		.thumb_func
  28              		.type	numargs, %function
  29              	numargs:
  30              	.LFB4:
  31              		.file 1 "pawn/amxcore.c"
  32              		.loc 1 139 0
  33              		.cfi_startproc
  34              		@ args = 0, pretend = 0, frame = 0
  35              		@ frame_needed = 0, uses_anonymous_args = 0
  36              		@ link register save eliminated.
  37              	.LVL0:
  38              		.loc 1 146 0
  39 0000 8368     		ldr	r3, [r0, #8]	@ unaligned
  40              		.loc 1 145 0
  41 0002 0268     		ldr	r2, [r0, #0]	@ unaligned
  42              	.LVL1:
  43              		.loc 1 146 0
  44 0004 23B1     		cbz	r3, .L4
  45              	.LVL2:
  46              		.loc 1 148 0 discriminator 3
  47 0006 C269     		ldr	r2, [r0, #28]	@ unaligned
  48              	.LVL3:
  49 0008 9918     		adds	r1, r3, r2
  50              	.LVL4:
  51              		.loc 1 151 0 discriminator 3
  52 000a 8868     		ldr	r0, [r1, #8]
  53              	.LVL5:
ARM GAS  /tmp/ccEBd0Fn.s 			page 2


  54              		.loc 1 152 0 discriminator 3
  55 000c 8008     		lsrs	r0, r0, #2
  56 000e 7047     		bx	lr
  57              	.LVL6:
  58              	.L4:
  59              		.loc 1 146 0 discriminator 2
  60 0010 1369     		ldr	r3, [r2, #16]	@ unaligned
  61 0012 D318     		adds	r3, r2, r3
  62              	.LVL7:
  63              		.loc 1 148 0 discriminator 2
  64 0014 C269     		ldr	r2, [r0, #28]	@ unaligned
  65              	.LVL8:
  66 0016 9918     		adds	r1, r3, r2
  67              	.LVL9:
  68              		.loc 1 151 0 discriminator 2
  69 0018 8868     		ldr	r0, [r1, #8]
  70              	.LVL10:
  71              		.loc 1 152 0 discriminator 2
  72 001a 8008     		lsrs	r0, r0, #2
  73 001c 7047     		bx	lr
  74              		.cfi_endproc
  75              	.LFE4:
  76              		.size	numargs, .-numargs
  77 001e 00BF     		.section	.text.getarg,"ax",%progbits
  78              		.align	2
  79              		.p2align 4,,15
  80              		.thumb
  81              		.thumb_func
  82              		.type	getarg, %function
  83              	getarg:
  84              	.LFB5:
  85              		.loc 1 155 0
  86              		.cfi_startproc
  87              		@ args = 0, pretend = 0, frame = 0
  88              		@ frame_needed = 0, uses_anonymous_args = 0
  89              		@ link register save eliminated.
  90              	.LVL11:
  91              		.loc 1 161 0
  92 0000 8368     		ldr	r3, [r0, #8]	@ unaligned
  93              		.loc 1 160 0
  94 0002 0268     		ldr	r2, [r0, #0]	@ unaligned
  95              	.LVL12:
  96              		.loc 1 161 0
  97 0004 5BB1     		cbz	r3, .L7
  98              	.L6:
  99              	.LVL13:
 100              		.loc 1 163 0 discriminator 3
 101 0006 4A68     		ldr	r2, [r1, #4]
 102              	.LVL14:
 103 0008 C069     		ldr	r0, [r0, #28]	@ unaligned
 104              	.LVL15:
 105 000a 0332     		adds	r2, r2, #3
 106 000c 00EB820C 		add	ip, r0, r2, lsl #2
 107              		.loc 1 165 0 discriminator 3
 108 0010 53F80C00 		ldr	r0, [r3, ip]
 109 0014 8968     		ldr	r1, [r1, #8]
 110              	.LVL16:
ARM GAS  /tmp/ccEBd0Fn.s 			page 3


 111 0016 00EB8102 		add	r2, r0, r1, lsl #2
 112              	.LVL17:
 113              		.loc 1 169 0 discriminator 3
 114 001a 9858     		ldr	r0, [r3, r2]
 115 001c 7047     		bx	lr
 116              	.LVL18:
 117              	.L7:
 118              		.loc 1 161 0 discriminator 2
 119 001e 1369     		ldr	r3, [r2, #16]	@ unaligned
 120 0020 D318     		adds	r3, r2, r3
 121 0022 F0E7     		b	.L6
 122              		.cfi_endproc
 123              	.LFE5:
 124              		.size	getarg, .-getarg
 125 0024 AFF30080 		.section	.text.setarg,"ax",%progbits
 125      AFF30080 
 125      AFF30080 
 126              		.align	2
 127              		.p2align 4,,15
 128              		.thumb
 129              		.thumb_func
 130              		.type	setarg, %function
 131              	setarg:
 132              	.LFB6:
 133              		.loc 1 172 0
 134              		.cfi_startproc
 135              		@ args = 0, pretend = 0, frame = 0
 136              		@ frame_needed = 0, uses_anonymous_args = 0
 137              		@ link register save eliminated.
 138              	.LVL19:
 139 0000 10B4     		push	{r4}
 140              	.LCFI0:
 141              		.cfi_def_cfa_offset 4
 142              		.loc 1 178 0
 143 0002 8368     		ldr	r3, [r0, #8]	@ unaligned
 144              		.loc 1 177 0
 145 0004 0268     		ldr	r2, [r0, #0]	@ unaligned
 146              	.LVL20:
 147              		.loc 1 178 0
 148 0006 BBB1     		cbz	r3, .L14
 149              		.cfi_offset 4, -4
 150              	.L9:
 151              	.LVL21:
 152              		.loc 1 180 0 discriminator 3
 153 0008 4A68     		ldr	r2, [r1, #4]
 154              	.LVL22:
 155 000a C469     		ldr	r4, [r0, #28]	@ unaligned
 156 000c 0332     		adds	r2, r2, #3
 157 000e 04EB820C 		add	ip, r4, r2, lsl #2
 158              		.loc 1 182 0 discriminator 3
 159 0012 53F80C20 		ldr	r2, [r3, ip]
 160 0016 8C68     		ldr	r4, [r1, #8]
 161              	.LVL23:
 162              		.loc 1 184 0 discriminator 3
 163 0018 12EB8402 		adds	r2, r2, r4, lsl #2
 164 001c 0AD4     		bmi	.L13
 165              		.loc 1 184 0 is_stmt 0 discriminator 1
ARM GAS  /tmp/ccEBd0Fn.s 			page 4


 166 001e 046A     		ldr	r4, [r0, #32]	@ unaligned
 167 0020 A242     		cmp	r2, r4
 168 0022 04DA     		bge	.L15
 169              	.LVL24:
 170              	.L11:
 171              		.loc 1 187 0 is_stmt 1
 172 0024 C968     		ldr	r1, [r1, #12]
 173              	.LVL25:
 174              		.loc 1 188 0
 175 0026 0120     		movs	r0, #1
 176              		.loc 1 187 0
 177 0028 9950     		str	r1, [r3, r2]
 178              	.L10:
 179              		.loc 1 189 0
 180 002a 10BC     		pop	{r4}
 181 002c 7047     		bx	lr
 182              	.LVL26:
 183              	.L15:
 184              		.loc 1 184 0 discriminator 1
 185 002e 806A     		ldr	r0, [r0, #40]	@ unaligned
 186              	.LVL27:
 187 0030 8242     		cmp	r2, r0
 188 0032 F7DA     		bge	.L11
 189              	.L13:
 190              		.loc 1 185 0
 191 0034 0020     		movs	r0, #0
 192 0036 F8E7     		b	.L10
 193              	.LVL28:
 194              	.L14:
 195              		.loc 1 178 0 discriminator 2
 196 0038 1369     		ldr	r3, [r2, #16]	@ unaligned
 197 003a D318     		adds	r3, r2, r3
 198 003c E4E7     		b	.L9
 199              		.cfi_endproc
 200              	.LFE6:
 201              		.size	setarg, .-setarg
 202 003e 00BF     		.section	.text.heapspace,"ax",%progbits
 203              		.align	2
 204              		.p2align 4,,15
 205              		.thumb
 206              		.thumb_func
 207              		.type	heapspace, %function
 208              	heapspace:
 209              	.LFB7:
 210              		.loc 1 192 0
 211              		.cfi_startproc
 212              		@ args = 0, pretend = 0, frame = 0
 213              		@ frame_needed = 0, uses_anonymous_args = 0
 214              		@ link register save eliminated.
 215              	.LVL29:
 216              		.loc 1 194 0
 217 0000 826A     		ldr	r2, [r0, #40]	@ unaligned
 218 0002 036A     		ldr	r3, [r0, #32]	@ unaligned
 219              		.loc 1 195 0
 220 0004 D01A     		subs	r0, r2, r3
 221              	.LVL30:
 222 0006 7047     		bx	lr
ARM GAS  /tmp/ccEBd0Fn.s 			page 5


 223              		.cfi_endproc
 224              	.LFE7:
 225              		.size	heapspace, .-heapspace
 226 0008 AFF30080 		.section	.text.swapchars,"ax",%progbits
 226      AFF30080 
 227              		.align	2
 228              		.p2align 4,,15
 229              		.thumb
 230              		.thumb_func
 231              		.type	swapchars, %function
 232              	swapchars:
 233              	.LFB10:
 234              		.loc 1 260 0
 235              		.cfi_startproc
 236              		@ args = 0, pretend = 0, frame = 0
 237              		@ frame_needed = 0, uses_anonymous_args = 0
 238              		@ link register save eliminated.
 239              	.LVL31:
 240              	.LBB12:
 241              	.LBB13:
 242              		.loc 1 228 0
 243 0000 4868     		ldr	r0, [r1, #4]
 244              	.LVL32:
 245              		.loc 1 235 0
 246 0002 030E     		lsrs	r3, r0, #24
 247              	.LVL33:
 248              		.loc 1 234 0
 249 0004 C1B2     		uxtb	r1, r0
 250              	.LVL34:
 251              		.loc 1 235 0
 252 0006 63F30700 		bfi	r0, r3, #0, #8
 253              	.LVL35:
 254              		.loc 1 236 0
 255 000a 61F31F60 		bfi	r0, r1, #24, #8
 256              		.loc 1 238 0
 257 000e C0F30742 		ubfx	r2, r0, #16, #8
 258              		.loc 1 237 0
 259 0012 C0F30723 		ubfx	r3, r0, #8, #8
 260              	.LVL36:
 261              		.loc 1 238 0
 262 0016 62F30F20 		bfi	r0, r2, #8, #8
 263              		.loc 1 239 0
 264 001a 63F31740 		bfi	r0, r3, #16, #8
 265              	.LVL37:
 266              	.LVL38:
 267              	.LBE13:
 268              	.LBE12:
 269              		.loc 1 269 0
 270 001e 7047     		bx	lr
 271              		.cfi_endproc
 272              	.LFE10:
 273              		.size	swapchars, .-swapchars
 274              		.section	.text.core_tolower,"ax",%progbits
 275              		.align	2
 276              		.p2align 4,,15
 277              		.thumb
 278              		.thumb_func
ARM GAS  /tmp/ccEBd0Fn.s 			page 6


 279              		.type	core_tolower, %function
 280              	core_tolower:
 281              	.LFB11:
 282              		.loc 1 272 0
 283              		.cfi_startproc
 284              		@ args = 0, pretend = 0, frame = 0
 285              		@ frame_needed = 0, uses_anonymous_args = 0
 286              		@ link register save eliminated.
 287              	.LVL39:
 288              		.loc 1 279 0
 289 0000 4868     		ldr	r0, [r1, #4]
 290              	.LVL40:
 291 0002 A0F14103 		sub	r3, r0, #65
 292 0006 192B     		cmp	r3, #25
 293              		.loc 1 280 0
 294 0008 98BF     		it	ls
 295 000a 2030     		addls	r0, r0, #32
 296              		.loc 1 283 0
 297 000c 7047     		bx	lr
 298              		.cfi_endproc
 299              	.LFE11:
 300              		.size	core_tolower, .-core_tolower
 301 000e 00BF     		.section	.text.core_toupper,"ax",%progbits
 302              		.align	2
 303              		.p2align 4,,15
 304              		.thumb
 305              		.thumb_func
 306              		.type	core_toupper, %function
 307              	core_toupper:
 308              	.LFB12:
 309              		.loc 1 286 0
 310              		.cfi_startproc
 311              		@ args = 0, pretend = 0, frame = 0
 312              		@ frame_needed = 0, uses_anonymous_args = 0
 313              		@ link register save eliminated.
 314              	.LVL41:
 315              		.loc 1 293 0
 316 0000 4868     		ldr	r0, [r1, #4]
 317              	.LVL42:
 318 0002 A0F16103 		sub	r3, r0, #97
 319 0006 192B     		cmp	r3, #25
 320              		.loc 1 294 0
 321 0008 98BF     		it	ls
 322 000a 2038     		subls	r0, r0, #32
 323              		.loc 1 297 0
 324 000c 7047     		bx	lr
 325              		.cfi_endproc
 326              	.LFE12:
 327              		.size	core_toupper, .-core_toupper
 328 000e 00BF     		.section	.text.core_min,"ax",%progbits
 329              		.align	2
 330              		.p2align 4,,15
 331              		.thumb
 332              		.thumb_func
 333              		.type	core_min, %function
 334              	core_min:
 335              	.LFB13:
ARM GAS  /tmp/ccEBd0Fn.s 			page 7


 336              		.loc 1 300 0
 337              		.cfi_startproc
 338              		@ args = 0, pretend = 0, frame = 0
 339              		@ frame_needed = 0, uses_anonymous_args = 0
 340              		@ link register save eliminated.
 341              	.LVL43:
 342              		.loc 1 302 0
 343 0000 8868     		ldr	r0, [r1, #8]
 344              	.LVL44:
 345 0002 4B68     		ldr	r3, [r1, #4]
 346              		.loc 1 303 0
 347 0004 9842     		cmp	r0, r3
 348 0006 A8BF     		it	ge
 349 0008 1846     		movge	r0, r3
 350 000a 7047     		bx	lr
 351              		.cfi_endproc
 352              	.LFE13:
 353              		.size	core_min, .-core_min
 354 000c AFF30080 		.section	.text.core_max,"ax",%progbits
 355              		.align	2
 356              		.p2align 4,,15
 357              		.thumb
 358              		.thumb_func
 359              		.type	core_max, %function
 360              	core_max:
 361              	.LFB14:
 362              		.loc 1 306 0
 363              		.cfi_startproc
 364              		@ args = 0, pretend = 0, frame = 0
 365              		@ frame_needed = 0, uses_anonymous_args = 0
 366              		@ link register save eliminated.
 367              	.LVL45:
 368              		.loc 1 308 0
 369 0000 8868     		ldr	r0, [r1, #8]
 370              	.LVL46:
 371 0002 4B68     		ldr	r3, [r1, #4]
 372              		.loc 1 309 0
 373 0004 9842     		cmp	r0, r3
 374 0006 B8BF     		it	lt
 375 0008 1846     		movlt	r0, r3
 376 000a 7047     		bx	lr
 377              		.cfi_endproc
 378              	.LFE14:
 379              		.size	core_max, .-core_max
 380 000c AFF30080 		.section	.text.MakePackedString,"ax",%progbits
 381              		.align	2
 382              		.p2align 4,,15
 383              		.thumb
 384              		.thumb_func
 385              		.type	MakePackedString, %function
 386              	MakePackedString:
 387              	.LFB16:
 388              		.loc 1 325 0
 389              		.cfi_startproc
 390              		@ args = 0, pretend = 0, frame = 8
 391              		@ frame_needed = 0, uses_anonymous_args = 0
 392              	.LVL47:
ARM GAS  /tmp/ccEBd0Fn.s 			page 8


 393 0000 30B5     		push	{r4, r5, lr}
 394              	.LCFI1:
 395              		.cfi_def_cfa_offset 12
 396 0002 83B0     		sub	sp, sp, #12
 397              	.LCFI2:
 398              		.cfi_def_cfa_offset 24
 399              		.loc 1 329 0
 400 0004 01A9     		add	r1, sp, #4
 401              		.loc 1 325 0
 402 0006 0546     		mov	r5, r0
 403              		.cfi_offset 14, -4
 404              		.cfi_offset 5, -8
 405              		.cfi_offset 4, -12
 406              		.loc 1 329 0
 407 0008 FFF7FEFF 		bl	amx_StrLen
 408              	.LVL48:
 409              		.loc 1 330 0
 410 000c 0198     		ldr	r0, [sp, #4]
 411 000e 0430     		adds	r0, r0, #4
 412 0010 FFF7FEFF 		bl	malloc
 413              		.loc 1 331 0
 414 0014 019B     		ldr	r3, [sp, #4]
 415              		.loc 1 330 0
 416 0016 0446     		mov	r4, r0
 417              	.LVL49:
 418              		.loc 1 331 0
 419 0018 2946     		mov	r1, r5
 420 001a 0022     		movs	r2, #0
 421 001c 0433     		adds	r3, r3, #4
 422 001e FFF7FEFF 		bl	amx_GetString
 423              	.LVL50:
 424              		.loc 1 333 0
 425 0022 2046     		mov	r0, r4
 426 0024 03B0     		add	sp, sp, #12
 427 0026 30BD     		pop	{r4, r5, pc}
 428              		.cfi_endproc
 429              	.LFE16:
 430              		.size	MakePackedString, .-MakePackedString
 431 0028 AFF30080 		.section	.text.core_clamp,"ax",%progbits
 431      AFF30080 
 432              		.align	2
 433              		.p2align 4,,15
 434              		.thumb
 435              		.thumb_func
 436              		.type	core_clamp, %function
 437              	core_clamp:
 438              	.LFB15:
 439              		.loc 1 312 0
 440              		.cfi_startproc
 441              		@ args = 0, pretend = 0, frame = 0
 442              		@ frame_needed = 0, uses_anonymous_args = 0
 443              	.LVL51:
 444 0000 38B5     		push	{r3, r4, r5, lr}
 445              	.LCFI3:
 446              		.cfi_def_cfa_offset 16
 447              		.loc 1 314 0
 448 0002 CA68     		ldr	r2, [r1, #12]
ARM GAS  /tmp/ccEBd0Fn.s 			page 9


 449 0004 8B68     		ldr	r3, [r1, #8]
 450              		.cfi_offset 14, -4
 451              		.cfi_offset 5, -8
 452              		.cfi_offset 4, -12
 453              		.cfi_offset 3, -16
 454              		.loc 1 312 0
 455 0006 0C46     		mov	r4, r1
 456              		.loc 1 314 0
 457 0008 9342     		cmp	r3, r2
 458              		.loc 1 313 0
 459 000a 4D68     		ldr	r5, [r1, #4]
 460              	.LVL52:
 461              		.loc 1 314 0
 462 000c 07DC     		bgt	.L28
 463              	.LVL53:
 464              	.L26:
 465              		.loc 1 316 0
 466 000e 9D42     		cmp	r5, r3
 467 0010 03DB     		blt	.L27
 468 0012 E368     		ldr	r3, [r4, #12]
 469 0014 9D42     		cmp	r5, r3
 470 0016 B8BF     		it	lt
 471 0018 2B46     		movlt	r3, r5
 472              	.L27:
 473              	.LVL54:
 474              		.loc 1 321 0
 475 001a 1846     		mov	r0, r3
 476 001c 38BD     		pop	{r3, r4, r5, pc}
 477              	.LVL55:
 478              	.L28:
 479              		.loc 1 315 0
 480 001e 0A21     		movs	r1, #10
 481 0020 FFF7FEFF 		bl	amx_RaiseError
 482              	.LVL56:
 483 0024 A368     		ldr	r3, [r4, #8]
 484 0026 F2E7     		b	.L26
 485              		.cfi_endproc
 486              	.LFE15:
 487              		.size	core_clamp, .-core_clamp
 488 0028 AFF30080 		.section	.text.core_random,"ax",%progbits
 488      AFF30080 
 489              		.align	2
 490              		.p2align 4,,15
 491              		.thumb
 492              		.thumb_func
 493              		.type	core_random, %function
 494              	core_random:
 495              	.LFB21:
 496              		.loc 1 432 0
 497              		.cfi_startproc
 498              		@ args = 0, pretend = 0, frame = 8
 499              		@ frame_needed = 0, uses_anonymous_args = 0
 500              	.LVL57:
 501 0000 F0B5     		push	{r4, r5, r6, r7, lr}
 502              	.LCFI4:
 503              		.cfi_def_cfa_offset 20
 504              		.loc 1 438 0
ARM GAS  /tmp/ccEBd0Fn.s 			page 10


 505 0002 194C     		ldr	r4, .L33
 506              		.cfi_offset 14, -4
 507              		.cfi_offset 7, -8
 508              		.cfi_offset 6, -12
 509              		.cfi_offset 5, -16
 510              		.cfi_offset 4, -20
 511 0004 194B     		ldr	r3, .L33+4
 512 0006 2068     		ldr	r0, [r4, #0]
 513              	.LVL58:
 514              		.loc 1 432 0
 515 0008 83B0     		sub	sp, sp, #12
 516              	.LCFI5:
 517              		.cfi_def_cfa_offset 32
 518              		.loc 1 438 0
 519 000a 9842     		cmp	r0, r3
 520 000c 26D0     		beq	.L32
 521              	.LVL59:
 522              	.L30:
 523              		.loc 1 444 0
 524 000e 83B2     		uxth	r3, r0
 525              	.LVL60:
 526              		.loc 1 448 0
 527 0010 44F2C61C 		movw	ip, #16838
 528              		.loc 1 446 0
 529 0014 164D     		ldr	r5, .L33+8
 530              		.loc 1 448 0
 531 0016 0CFB03F7 		mul	r7, ip, r3
 532              		.loc 1 446 0
 533 001a 05FB00F2 		mul	r2, r5, r0
 534              		.loc 1 445 0
 535 001e 000C     		lsrs	r0, r0, #16
 536              	.LVL61:
 537              		.loc 1 449 0
 538 0020 44F66D65 		movw	r5, #20077
 539              		.loc 1 450 0
 540 0024 0CFB00F6 		mul	r6, ip, r0
 541              		.loc 1 447 0
 542 0028 05FB03FC 		mul	ip, r5, r3
 543              		.loc 1 451 0
 544 002c 05FB0070 		mla	r0, r5, r0, r7
 545              	.LVL62:
 546              		.loc 1 446 0
 547 0030 02F54052 		add	r2, r2, #12288
 548 0034 3932     		adds	r2, r2, #57
 549              		.loc 1 451 0
 550 0036 0CF54053 		add	r3, ip, #12288
 551              	.LVL63:
 552              		.loc 1 446 0
 553 003a 2260     		str	r2, [r4, #0]
 554              		.loc 1 451 0
 555 003c 3604     		lsls	r6, r6, #16
 556 003e 00EB060C 		add	ip, r0, r6
 557 0042 3933     		adds	r3, r3, #57
 558              		.loc 1 453 0
 559 0044 4A68     		ldr	r2, [r1, #4]
 560              		.loc 1 451 0
 561 0046 0CEB1340 		add	r0, ip, r3, lsr #16
ARM GAS  /tmp/ccEBd0Fn.s 			page 11


 562              	.LVL64:
 563              		.loc 1 452 0
 564 004a 20F00040 		bic	r0, r0, #-2147483648
 565              	.LVL65:
 566              		.loc 1 453 0
 567 004e 1AB1     		cbz	r2, .L31
 568              		.loc 1 454 0
 569 0050 B0FBF2F1 		udiv	r1, r0, r2
 570 0054 02FB1100 		mls	r0, r2, r1, r0
 571              	.LVL66:
 572              	.L31:
 573              		.loc 1 456 0
 574 0058 03B0     		add	sp, sp, #12
 575 005a F0BD     		pop	{r4, r5, r6, r7, pc}
 576              	.LVL67:
 577              	.L32:
 578              		.loc 1 439 0
 579 005c 0020     		movs	r0, #0
 580 005e 0191     		str	r1, [sp, #4]
 581 0060 FFF7FEFF 		bl	time
 582              	.LVL68:
 583 0064 0199     		ldr	r1, [sp, #4]
 584 0066 D2E7     		b	.L30
 585              	.L34:
 586              		.align	2
 587              	.L33:
 588 0068 00000000 		.word	.LANCHOR0
 589 006c DB38A9CA 		.word	-894879525
 590 0070 6D4EC641 		.word	1103515245
 591              		.cfi_endproc
 592              	.LFE21:
 593              		.size	core_random, .-core_random
 594 0074 AFF30080 		.section	.text.funcidx,"ax",%progbits
 594      AFF30080 
 594      AFF30080 
 595              		.align	2
 596              		.p2align 4,,15
 597              		.thumb
 598              		.thumb_func
 599              		.type	funcidx, %function
 600              	funcidx:
 601              	.LFB8:
 602              		.loc 1 198 0
 603              		.cfi_startproc
 604              		@ args = 0, pretend = 0, frame = 72
 605              		@ frame_needed = 0, uses_anonymous_args = 0
 606              	.LVL69:
 607 0000 10B5     		push	{r4, lr}
 608              	.LCFI6:
 609              		.cfi_def_cfa_offset 8
 610 0002 92B0     		sub	sp, sp, #72
 611              	.LCFI7:
 612              		.cfi_def_cfa_offset 80
 613              		.loc 1 198 0
 614 0004 0446     		mov	r4, r0
 615              		.cfi_offset 14, -4
 616              		.cfi_offset 4, -8
ARM GAS  /tmp/ccEBd0Fn.s 			page 12


 617              		.loc 1 204 0
 618 0006 0022     		movs	r2, #0
 619 0008 4968     		ldr	r1, [r1, #4]
 620              	.LVL70:
 621 000a 01A8     		add	r0, sp, #4
 622              	.LVL71:
 623 000c 4023     		movs	r3, #64
 624 000e FFF7FEFF 		bl	amx_GetString
 625              		.loc 1 205 0
 626 0012 2046     		mov	r0, r4
 627 0014 01A9     		add	r1, sp, #4
 628 0016 11AA     		add	r2, sp, #68
 629 0018 FFF7FEFF 		bl	amx_FindPublic
 630              	.LVL72:
 631              		.loc 1 206 0
 632 001c 18B1     		cbz	r0, .L38
 633 001e 4FF0FF30 		mov	r0, #-1
 634              	.LVL73:
 635              	.L36:
 636              		.loc 1 209 0
 637 0022 12B0     		add	sp, sp, #72
 638 0024 10BD     		pop	{r4, pc}
 639              	.LVL74:
 640              	.L38:
 641              		.loc 1 206 0
 642 0026 1198     		ldr	r0, [sp, #68]
 643              	.LVL75:
 644 0028 FBE7     		b	.L36
 645              		.cfi_endproc
 646              	.LFE8:
 647              		.size	funcidx, .-funcidx
 648 002a 00BFAFF3 		.section	.text.list_finditem.clone.2,"ax",%progbits
 648      0080
 649              		.align	2
 650              		.p2align 4,,15
 651              		.thumb
 652              		.thumb_func
 653              		.type	list_finditem.clone.2, %function
 654              	list_finditem.clone.2:
 655              	.LFB26:
 656              		.loc 1 111 0
 657              		.cfi_startproc
 658              		@ args = 0, pretend = 0, frame = 0
 659              		@ frame_needed = 0, uses_anonymous_args = 0
 660              	.LVL76:
 661 0000 2DE9F041 		push	{r4, r5, r6, r7, r8, lr}
 662              	.LCFI8:
 663              		.cfi_def_cfa_offset 24
 664              		.loc 1 111 0
 665 0004 0D46     		mov	r5, r1
 666              		.cfi_offset 14, -4
 667              		.cfi_offset 8, -8
 668              		.cfi_offset 7, -12
 669              		.cfi_offset 6, -16
 670              		.cfi_offset 5, -20
 671              		.cfi_offset 4, -24
 672              		.loc 1 119 0
ARM GAS  /tmp/ccEBd0Fn.s 			page 13


 673 0006 2E78     		ldrb	r6, [r5, #0]	@ zero_extendqisi2
 674              		.loc 1 114 0
 675 0008 1749     		ldr	r1, .L54
 676              	.LVL77:
 677              		.loc 1 111 0
 678 000a 0446     		mov	r4, r0
 679 000c 9846     		mov	r8, r3
 680              		.loc 1 114 0
 681 000e 0F68     		ldr	r7, [r1, #0]
 682              	.LVL78:
 683              		.loc 1 119 0
 684 0010 AEB9     		cbnz	r6, .L40
 685              		.loc 1 127 0
 686 0012 87B9     		cbnz	r7, .L46
 687              	.LVL79:
 688              	.L51:
 689 0014 3846     		mov	r0, r7
 690 0016 0F46     		mov	r7, r1
 691              	.LVL80:
 692              	.L42:
 693              		.loc 1 132 0
 694 0018 B8F1000F 		cmp	r8, #0
 695 001c 01D0     		beq	.L48
 696              		.loc 1 133 0
 697 001e C8F80070 		str	r7, [r8, #0]
 698              	.L48:
 699              		.loc 1 135 0
 700 0022 BDE8F081 		pop	{r4, r5, r6, r7, r8, pc}
 701              	.LVL81:
 702              	.L53:
 703              		.loc 1 127 0
 704 0026 FB68     		ldr	r3, [r7, #12]
 705 0028 9342     		cmp	r3, r2
 706 002a F3D0     		beq	.L51
 707              	.L47:
 708              	.LVL82:
 709              		.loc 1 129 0
 710 002c 3868     		ldr	r0, [r7, #0]
 711              	.LVL83:
 712              		.loc 1 127 0
 713 002e 3946     		mov	r1, r7
 714 0030 0028     		cmp	r0, #0
 715 0032 F1D0     		beq	.L42
 716              	.LVL84:
 717              		.loc 1 129 0
 718 0034 0746     		mov	r7, r0
 719              	.LVL85:
 720              	.L46:
 721              		.loc 1 127 0
 722 0036 7868     		ldr	r0, [r7, #4]
 723 0038 8442     		cmp	r4, r0
 724 003a F7D1     		bne	.L47
 725 003c F3E7     		b	.L53
 726              	.LVL86:
 727              	.L40:
 728              		.loc 1 121 0
 729 003e 002F     		cmp	r7, #0
ARM GAS  /tmp/ccEBd0Fn.s 			page 14


 730 0040 E8D0     		beq	.L51
 731 0042 0E46     		mov	r6, r1
 732 0044 04E0     		b	.L44
 733              	.LVL87:
 734              	.L45:
 735              		.loc 1 123 0
 736 0046 3868     		ldr	r0, [r7, #0]
 737              	.LVL88:
 738              		.loc 1 121 0
 739 0048 3E46     		mov	r6, r7
 740 004a 0028     		cmp	r0, #0
 741 004c E4D0     		beq	.L42
 742              	.LVL89:
 743              		.loc 1 123 0
 744 004e 0746     		mov	r7, r0
 745              	.LVL90:
 746              	.L44:
 747              		.loc 1 121 0
 748 0050 7B68     		ldr	r3, [r7, #4]
 749 0052 A342     		cmp	r3, r4
 750 0054 F7D1     		bne	.L45
 751 0056 B868     		ldr	r0, [r7, #8]
 752 0058 2946     		mov	r1, r5
 753 005a FFF7FEFF 		bl	strcasecmp
 754 005e 0028     		cmp	r0, #0
 755 0060 F1D1     		bne	.L45
 756 0062 3846     		mov	r0, r7
 757 0064 3746     		mov	r7, r6
 758              	.LVL91:
 759 0066 D7E7     		b	.L42
 760              	.L55:
 761              		.align	2
 762              	.L54:
 763 0068 00000000 		.word	.LANCHOR1
 764              		.cfi_endproc
 765              	.LFE26:
 766              		.size	list_finditem.clone.2, .-list_finditem.clone.2
 767 006c AFF30080 		.section	.text.getproperty,"ax",%progbits
 768              		.align	2
 769              		.p2align 4,,15
 770              		.thumb
 771              		.thumb_func
 772              		.type	getproperty, %function
 773              	getproperty:
 774              	.LFB17:
 775              		.loc 1 337 0
 776              		.cfi_startproc
 777              		@ args = 0, pretend = 0, frame = 0
 778              		@ frame_needed = 0, uses_anonymous_args = 0
 779              	.LVL92:
 780 0000 70B5     		push	{r4, r5, r6, lr}
 781              	.LCFI9:
 782              		.cfi_def_cfa_offset 16
 783              		.loc 1 344 0
 784 0002 8868     		ldr	r0, [r1, #8]
 785              	.LVL93:
 786              		.loc 1 337 0
ARM GAS  /tmp/ccEBd0Fn.s 			page 15


 787 0004 82B0     		sub	sp, sp, #8
 788              	.LCFI10:
 789              		.cfi_def_cfa_offset 24
 790              		.loc 1 337 0
 791 0006 0C46     		mov	r4, r1
 792              		.cfi_offset 14, -4
 793              		.cfi_offset 6, -8
 794              		.cfi_offset 5, -12
 795              		.cfi_offset 4, -16
 796              	.LVL94:
 797              		.loc 1 344 0
 798 0008 FFF7FEFF 		bl	MakePackedString
 799              	.LVL95:
 800              		.loc 1 345 0
 801 000c E268     		ldr	r2, [r4, #12]
 802 000e 0146     		mov	r1, r0
 803              		.loc 1 344 0
 804 0010 0646     		mov	r6, r0
 805              	.LVL96:
 806              		.loc 1 345 0
 807 0012 0023     		movs	r3, #0
 808 0014 6068     		ldr	r0, [r4, #4]
 809              	.LVL97:
 810 0016 FFF7FEFF 		bl	list_finditem.clone.2
 811              	.LVL98:
 812              		.loc 1 347 0
 813 001a 0546     		mov	r5, r0
 814 001c A0B1     		cbz	r0, .L57
 815              		.loc 1 347 0 is_stmt 0 discriminator 1
 816 001e C268     		ldr	r2, [r0, #12]
 817 0020 E368     		ldr	r3, [r4, #12]
 818 0022 9A42     		cmp	r2, r3
 819 0024 05D0     		beq	.L60
 820              	.LVL99:
 821              	.L58:
 822              		.loc 1 351 0 is_stmt 1
 823 0026 3046     		mov	r0, r6
 824 0028 FFF7FEFF 		bl	free
 825              		.loc 1 352 0
 826 002c E868     		ldr	r0, [r5, #12]
 827              	.L59:
 828              		.loc 1 353 0 discriminator 3
 829 002e 02B0     		add	sp, sp, #8
 830 0030 70BD     		pop	{r4, r5, r6, pc}
 831              	.LVL100:
 832              	.L60:
 833              		.loc 1 347 0 discriminator 1
 834 0032 3378     		ldrb	r3, [r6, #0]	@ zero_extendqisi2
 835 0034 002B     		cmp	r3, #0
 836 0036 F6D1     		bne	.L58
 837              	.LVL101:
 838              		.loc 1 349 0
 839 0038 8168     		ldr	r1, [r0, #8]
 840 003a 2069     		ldr	r0, [r4, #16]
 841 003c 6469     		ldr	r4, [r4, #20]
 842              	.LVL102:
 843 003e 0122     		movs	r2, #1
ARM GAS  /tmp/ccEBd0Fn.s 			page 16


 844 0040 0094     		str	r4, [sp, #0]
 845 0042 FFF7FEFF 		bl	amx_SetString
 846              	.LVL103:
 847 0046 EEE7     		b	.L58
 848              	.LVL104:
 849              	.L57:
 850              		.loc 1 351 0
 851 0048 3046     		mov	r0, r6
 852 004a FFF7FEFF 		bl	free
 853              		.loc 1 352 0
 854 004e 2846     		mov	r0, r5
 855 0050 EDE7     		b	.L59
 856              		.cfi_endproc
 857              	.LFE17:
 858              		.size	getproperty, .-getproperty
 859 0052 00BFAFF3 		.section	.text.setproperty,"ax",%progbits
 859      0080AFF3 
 859      0080AFF3 
 859      0080
 860              		.align	2
 861              		.p2align 4,,15
 862              		.thumb
 863              		.thumb_func
 864              		.type	setproperty, %function
 865              	setproperty:
 866              	.LFB18:
 867              		.loc 1 357 0
 868              		.cfi_startproc
 869              		@ args = 0, pretend = 0, frame = 0
 870              		@ frame_needed = 0, uses_anonymous_args = 0
 871              	.LVL105:
 872 0000 2DE9F843 		push	{r3, r4, r5, r6, r7, r8, r9, lr}
 873              	.LCFI11:
 874              		.cfi_def_cfa_offset 32
 875              		.loc 1 357 0
 876 0004 0646     		mov	r6, r0
 877              		.cfi_offset 14, -4
 878              		.cfi_offset 9, -8
 879              		.cfi_offset 8, -12
 880              		.cfi_offset 7, -16
 881              		.cfi_offset 6, -20
 882              		.cfi_offset 5, -24
 883              		.cfi_offset 4, -28
 884              		.cfi_offset 3, -32
 885              		.loc 1 364 0
 886 0006 8868     		ldr	r0, [r1, #8]
 887              	.LVL106:
 888              		.loc 1 357 0
 889 0008 0D46     		mov	r5, r1
 890              	.LVL107:
 891              		.loc 1 364 0
 892 000a FFF7FEFF 		bl	MakePackedString
 893              	.LVL108:
 894              		.loc 1 365 0
 895 000e EA68     		ldr	r2, [r5, #12]
 896 0010 0146     		mov	r1, r0
 897              		.loc 1 364 0
ARM GAS  /tmp/ccEBd0Fn.s 			page 17


 898 0012 0446     		mov	r4, r0
 899              	.LVL109:
 900              		.loc 1 365 0
 901 0014 0023     		movs	r3, #0
 902 0016 6868     		ldr	r0, [r5, #4]
 903              	.LVL110:
 904 0018 FFF7FEFF 		bl	list_finditem.clone.2
 905              	.LVL111:
 906              		.loc 1 366 0
 907 001c 0746     		mov	r7, r0
 908 001e 48B3     		cbz	r0, .L62
 909 0020 C668     		ldr	r6, [r0, #12]
 910              	.LVL112:
 911              	.L63:
 912              		.loc 1 372 0
 913 0022 2078     		ldrb	r0, [r4, #0]	@ zero_extendqisi2
 914 0024 F0B1     		cbz	r0, .L68
 915              	.L65:
 916              	.LBB14:
 917              	.LBB15:
 918              		.loc 1 102 0
 919 0026 2046     		mov	r0, r4
 920 0028 FFF7FEFF 		bl	strlen
 921 002c 0130     		adds	r0, r0, #1
 922              	.LBE15:
 923              	.LBE14:
 924              		.loc 1 377 0
 925 002e D5F80490 		ldr	r9, [r5, #4]
 926 0032 D5F80C80 		ldr	r8, [r5, #12]
 927              	.LVL113:
 928              	.LBB17:
 929              	.LBB16:
 930              		.loc 1 102 0
 931 0036 FFF7FEFF 		bl	malloc
 932              	.LVL114:
 933 003a 0546     		mov	r5, r0
 934              	.LVL115:
 935 003c 60B1     		cbz	r0, .L66
 936              		.loc 1 104 0
 937 003e B868     		ldr	r0, [r7, #8]
 938              	.LVL116:
 939 0040 08B1     		cbz	r0, .L67
 940              		.loc 1 105 0
 941 0042 FFF7FEFF 		bl	free
 942              	.L67:
 943              		.loc 1 106 0
 944 0046 2846     		mov	r0, r5
 945 0048 2146     		mov	r1, r4
 946 004a FFF7FEFF 		bl	strcpy
 947              		.loc 1 107 0
 948 004e BD60     		str	r5, [r7, #8]
 949              		.loc 1 108 0
 950 0050 C7F80490 		str	r9, [r7, #4]
 951              		.loc 1 109 0
 952 0054 C7F80C80 		str	r8, [r7, #12]
 953              	.LVL117:
 954              	.L66:
ARM GAS  /tmp/ccEBd0Fn.s 			page 18


 955              	.LBE16:
 956              	.LBE17:
 957              		.loc 1 379 0
 958 0058 2046     		mov	r0, r4
 959 005a FFF7FEFF 		bl	free
 960              		.loc 1 381 0
 961 005e 3046     		mov	r0, r6
 962 0060 BDE8F883 		pop	{r3, r4, r5, r6, r7, r8, r9, pc}
 963              	.LVL118:
 964              	.L68:
 965              		.loc 1 373 0
 966 0064 2046     		mov	r0, r4
 967 0066 FFF7FEFF 		bl	free
 968              	.LVL119:
 969              		.loc 1 375 0
 970 006a 2869     		ldr	r0, [r5, #16]
 971 006c FFF7FEFF 		bl	MakePackedString
 972              	.LVL120:
 973 0070 0446     		mov	r4, r0
 974              	.LVL121:
 975 0072 D8E7     		b	.L65
 976              	.LVL122:
 977              	.L62:
 978              	.LBB18:
 979              	.LBB19:
 980              		.loc 1 79 0
 981 0074 1020     		movs	r0, #16
 982              	.LVL123:
 983 0076 FFF7FEFF 		bl	malloc
 984 007a 0746     		mov	r7, r0
 985              	.LVL124:
 986 007c 40B1     		cbz	r0, .L64
 987              		.loc 1 84 0
 988 007e 074B     		ldr	r3, .L69
 989              		.loc 1 81 0
 990 0080 0026     		movs	r6, #0
 991              	.LVL125:
 992              		.loc 1 84 0
 993 0082 1A68     		ldr	r2, [r3, #0]
 994              		.loc 1 81 0
 995 0084 8660     		str	r6, [r0, #8]
 996              		.loc 1 82 0
 997 0086 4660     		str	r6, [r0, #4]
 998              		.loc 1 83 0
 999 0088 C660     		str	r6, [r0, #12]
 1000              		.loc 1 84 0
 1001 008a 0260     		str	r2, [r0, #0]
 1002              		.loc 1 85 0
 1003 008c 1860     		str	r0, [r3, #0]
 1004 008e C8E7     		b	.L63
 1005              	.LVL126:
 1006              	.L64:
 1007              	.LBE19:
 1008              	.LBE18:
 1009              		.loc 1 369 0
 1010 0090 3046     		mov	r0, r6
 1011              	.LVL127:
ARM GAS  /tmp/ccEBd0Fn.s 			page 19


 1012 0092 1021     		movs	r1, #16
 1013 0094 FFF7FEFF 		bl	amx_RaiseError
 1014              		.loc 1 358 0
 1015 0098 3E46     		mov	r6, r7
 1016              	.LVL128:
 1017 009a DDE7     		b	.L66
 1018              	.L70:
 1019              		.align	2
 1020              	.L69:
 1021 009c 00000000 		.word	.LANCHOR1
 1022              		.cfi_endproc
 1023              	.LFE18:
 1024              		.size	setproperty, .-setproperty
 1025              		.section	.text.delproperty,"ax",%progbits
 1026              		.align	2
 1027              		.p2align 4,,15
 1028              		.thumb
 1029              		.thumb_func
 1030              		.type	delproperty, %function
 1031              	delproperty:
 1032              	.LFB19:
 1033              		.loc 1 385 0
 1034              		.cfi_startproc
 1035              		@ args = 0, pretend = 0, frame = 8
 1036              		@ frame_needed = 0, uses_anonymous_args = 0
 1037              	.LVL129:
 1038 0000 70B5     		push	{r4, r5, r6, lr}
 1039              	.LCFI12:
 1040              		.cfi_def_cfa_offset 16
 1041              		.loc 1 393 0
 1042 0002 8868     		ldr	r0, [r1, #8]
 1043              	.LVL130:
 1044              		.loc 1 385 0
 1045 0004 82B0     		sub	sp, sp, #8
 1046              	.LCFI13:
 1047              		.cfi_def_cfa_offset 24
 1048              		.loc 1 385 0
 1049 0006 0D46     		mov	r5, r1
 1050              		.cfi_offset 14, -4
 1051              		.cfi_offset 6, -8
 1052              		.cfi_offset 5, -12
 1053              		.cfi_offset 4, -16
 1054              	.LVL131:
 1055              		.loc 1 393 0
 1056 0008 FFF7FEFF 		bl	MakePackedString
 1057              	.LVL132:
 1058              		.loc 1 394 0
 1059 000c EA68     		ldr	r2, [r5, #12]
 1060 000e 0146     		mov	r1, r0
 1061              		.loc 1 393 0
 1062 0010 0446     		mov	r4, r0
 1063              	.LVL133:
 1064              		.loc 1 394 0
 1065 0012 01AB     		add	r3, sp, #4
 1066 0014 6868     		ldr	r0, [r5, #4]
 1067              	.LVL134:
 1068 0016 FFF7FEFF 		bl	list_finditem.clone.2
ARM GAS  /tmp/ccEBd0Fn.s 			page 20


 1069              	.LVL135:
 1070              		.loc 1 395 0
 1071 001a 0546     		mov	r5, r0
 1072              	.LVL136:
 1073 001c 78B1     		cbz	r0, .L73
 1074              	.LBB20:
 1075              	.LBB21:
 1076              		.loc 1 92 0
 1077 001e 0268     		ldr	r2, [r0, #0]
 1078              	.LVL137:
 1079 0020 019B     		ldr	r3, [sp, #4]
 1080              		.loc 1 94 0
 1081 0022 8068     		ldr	r0, [r0, #8]
 1082              	.LVL138:
 1083              		.loc 1 92 0
 1084 0024 1A60     		str	r2, [r3, #0]
 1085              	.LBE21:
 1086              	.LBE20:
 1087              		.loc 1 396 0
 1088 0026 EE68     		ldr	r6, [r5, #12]
 1089              	.LVL139:
 1090              	.LBB23:
 1091              	.LBB22:
 1092              		.loc 1 94 0
 1093 0028 FFF7FEFF 		bl	free
 1094              	.LVL140:
 1095              		.loc 1 95 0
 1096 002c 2846     		mov	r0, r5
 1097 002e FFF7FEFF 		bl	free
 1098              	.LVL141:
 1099              	.L72:
 1100              	.LBE22:
 1101              	.LBE23:
 1102              		.loc 1 399 0
 1103 0032 2046     		mov	r0, r4
 1104 0034 FFF7FEFF 		bl	free
 1105              		.loc 1 401 0
 1106 0038 3046     		mov	r0, r6
 1107 003a 02B0     		add	sp, sp, #8
 1108 003c 70BD     		pop	{r4, r5, r6, pc}
 1109              	.LVL142:
 1110              	.L73:
 1111              		.loc 1 386 0
 1112 003e 0646     		mov	r6, r0
 1113 0040 F7E7     		b	.L72
 1114              		.cfi_endproc
 1115              	.LFE19:
 1116              		.size	delproperty, .-delproperty
 1117 0042 00BFAFF3 		.section	.text.existproperty,"ax",%progbits
 1117      0080AFF3 
 1117      0080AFF3 
 1117      0080
 1118              		.align	2
 1119              		.p2align 4,,15
 1120              		.thumb
 1121              		.thumb_func
 1122              		.type	existproperty, %function
ARM GAS  /tmp/ccEBd0Fn.s 			page 21


 1123              	existproperty:
 1124              	.LFB20:
 1125              		.loc 1 405 0
 1126              		.cfi_startproc
 1127              		@ args = 0, pretend = 0, frame = 0
 1128              		@ frame_needed = 0, uses_anonymous_args = 0
 1129              	.LVL143:
 1130 0000 38B5     		push	{r3, r4, r5, lr}
 1131              	.LCFI14:
 1132              		.cfi_def_cfa_offset 16
 1133              		.loc 1 412 0
 1134 0002 8868     		ldr	r0, [r1, #8]
 1135              	.LVL144:
 1136              		.loc 1 405 0
 1137 0004 0C46     		mov	r4, r1
 1138              		.cfi_offset 14, -4
 1139              		.cfi_offset 5, -8
 1140              		.cfi_offset 4, -12
 1141              		.cfi_offset 3, -16
 1142              	.LVL145:
 1143              		.loc 1 412 0
 1144 0006 FFF7FEFF 		bl	MakePackedString
 1145              	.LVL146:
 1146              		.loc 1 413 0
 1147 000a E268     		ldr	r2, [r4, #12]
 1148 000c 0146     		mov	r1, r0
 1149 000e 0023     		movs	r3, #0
 1150              		.loc 1 412 0
 1151 0010 0546     		mov	r5, r0
 1152              	.LVL147:
 1153              		.loc 1 413 0
 1154 0012 6068     		ldr	r0, [r4, #4]
 1155              	.LVL148:
 1156 0014 FFF7FEFF 		bl	list_finditem.clone.2
 1157              	.LVL149:
 1158 0018 0446     		mov	r4, r0
 1159              	.LVL150:
 1160              		.loc 1 414 0
 1161 001a 2846     		mov	r0, r5
 1162              	.LVL151:
 1163 001c FFF7FEFF 		bl	free
 1164              		.loc 1 416 0
 1165 0020 201E     		subs	r0, r4, #0
 1166 0022 18BF     		it	ne
 1167 0024 0120     		movne	r0, #1
 1168 0026 38BD     		pop	{r3, r4, r5, pc}
 1169              		.cfi_endproc
 1170              	.LFE20:
 1171              		.size	existproperty, .-existproperty
 1172 0028 AFF30080 		.section	.text.amx_swapcell,"ax",%progbits
 1172      AFF30080 
 1173              		.align	2
 1174              		.p2align 4,,15
 1175              		.global	amx_swapcell
 1176              		.thumb
 1177              		.thumb_func
 1178              		.type	amx_swapcell, %function
ARM GAS  /tmp/ccEBd0Fn.s 			page 22


 1179              	amx_swapcell:
 1180              	.LFB9:
 1181              		.loc 1 212 0
 1182              		.cfi_startproc
 1183              		@ args = 0, pretend = 0, frame = 0
 1184              		@ frame_needed = 0, uses_anonymous_args = 0
 1185              		@ link register save eliminated.
 1186              	.LVL152:
 1187              		.loc 1 228 0
 1188 0000 0368     		ldr	r3, [r0, #0]
 1189              	.LVL153:
 1190              		.loc 1 235 0
 1191 0002 1A0E     		lsrs	r2, r3, #24
 1192              	.LVL154:
 1193              		.loc 1 234 0
 1194 0004 5FFA83FC 		uxtb	ip, r3
 1195              	.LVL155:
 1196              		.loc 1 235 0
 1197 0008 62F30703 		bfi	r3, r2, #0, #8
 1198              		.loc 1 236 0
 1199 000c 6CF31F63 		bfi	r3, ip, #24, #8
 1200              		.loc 1 238 0
 1201 0010 C3F30741 		ubfx	r1, r3, #16, #8
 1202              		.loc 1 237 0
 1203 0014 C3F30722 		ubfx	r2, r3, #8, #8
 1204              	.LVL156:
 1205              		.loc 1 238 0
 1206 0018 61F30F23 		bfi	r3, r1, #8, #8
 1207              		.loc 1 239 0
 1208 001c 62F31743 		bfi	r3, r2, #16, #8
 1209              		.loc 1 256 0
 1210 0020 0360     		str	r3, [r0, #0]
 1211              		.loc 1 257 0
 1212 0022 7047     		bx	lr
 1213              		.cfi_endproc
 1214              	.LFE9:
 1215              		.size	amx_swapcell, .-amx_swapcell
 1216 0024 AFF30080 		.section	.text.amx_CoreInit,"ax",%progbits
 1216      AFF30080 
 1216      AFF30080 
 1217              		.align	2
 1218              		.p2align 4,,15
 1219              		.global	amx_CoreInit
 1220              		.thumb
 1221              		.thumb_func
 1222              		.type	amx_CoreInit, %function
 1223              	amx_CoreInit:
 1224              	.LFB22:
 1225              		.loc 1 488 0
 1226              		.cfi_startproc
 1227              		@ args = 0, pretend = 0, frame = 0
 1228              		@ frame_needed = 0, uses_anonymous_args = 0
 1229              		@ link register save eliminated.
 1230              	.LVL157:
 1231              		.loc 1 489 0
 1232 0000 0249     		ldr	r1, .L77
 1233 0002 4FF0FF32 		mov	r2, #-1
ARM GAS  /tmp/ccEBd0Fn.s 			page 23


 1234              		.loc 1 490 0
 1235              		.loc 1 489 0
 1236 0006 FFF7FEBF 		b	amx_Register
 1237              	.LVL158:
 1238              	.L78:
 1239 000a 00BF     		.align	2
 1240              	.L77:
 1241 000c 00000000 		.word	.LANCHOR2
 1242              		.cfi_endproc
 1243              	.LFE22:
 1244              		.size	amx_CoreInit, .-amx_CoreInit
 1245              		.section	.text.amx_CoreCleanup,"ax",%progbits
 1246              		.align	2
 1247              		.p2align 4,,15
 1248              		.global	amx_CoreCleanup
 1249              		.thumb
 1250              		.thumb_func
 1251              		.type	amx_CoreCleanup, %function
 1252              	amx_CoreCleanup:
 1253              	.LFB23:
 1254              		.loc 1 493 0
 1255              		.cfi_startproc
 1256              		@ args = 0, pretend = 0, frame = 0
 1257              		@ frame_needed = 0, uses_anonymous_args = 0
 1258              	.LVL159:
 1259 0000 38B5     		push	{r3, r4, r5, lr}
 1260              	.LCFI15:
 1261              		.cfi_def_cfa_offset 16
 1262              		.loc 1 496 0
 1263 0002 084D     		ldr	r5, .L84
 1264              		.cfi_offset 14, -4
 1265              		.cfi_offset 5, -8
 1266              		.cfi_offset 4, -12
 1267              		.cfi_offset 3, -16
 1268 0004 2C68     		ldr	r4, [r5, #0]
 1269 0006 54B1     		cbz	r4, .L80
 1270              	.LVL160:
 1271              	.L82:
 1272              	.LBB24:
 1273              	.LBB25:
 1274              		.loc 1 92 0
 1275 0008 2368     		ldr	r3, [r4, #0]
 1276              		.loc 1 94 0
 1277 000a A068     		ldr	r0, [r4, #8]
 1278              		.loc 1 92 0
 1279 000c 2B60     		str	r3, [r5, #0]
 1280              		.loc 1 94 0
 1281 000e FFF7FEFF 		bl	free
 1282              		.loc 1 95 0
 1283 0012 2046     		mov	r0, r4
 1284 0014 FFF7FEFF 		bl	free
 1285              	.LBE25:
 1286              	.LBE24:
 1287              		.loc 1 496 0
 1288 0018 2C68     		ldr	r4, [r5, #0]
 1289              	.LVL161:
 1290 001a 002C     		cmp	r4, #0
ARM GAS  /tmp/ccEBd0Fn.s 			page 24


 1291 001c F4D1     		bne	.L82
 1292              	.L80:
 1293              		.loc 1 500 0
 1294 001e 0020     		movs	r0, #0
 1295 0020 38BD     		pop	{r3, r4, r5, pc}
 1296              	.L85:
 1297 0022 00BF     		.align	2
 1298              	.L84:
 1299 0024 00000000 		.word	.LANCHOR1
 1300              		.cfi_endproc
 1301              	.LFE23:
 1302              		.size	amx_CoreCleanup, .-amx_CoreCleanup
 1303              		.global	core_Natives
 1304 0028 AFF30080 		.section	.bss.proproot,"aw",%nobits
 1304      AFF30080 
 1305              		.align	2
 1306              		.set	.LANCHOR1,. + 0
 1307              		.type	proproot, %object
 1308              		.size	proproot, 16
 1309              	proproot:
 1310 0000 00000000 		.space	16
 1310      00000000 
 1310      00000000 
 1310      00000000 
 1311              		.section	.rodata.core_Natives,"a",%progbits
 1312              		.align	2
 1313              		.set	.LANCHOR2,. + 0
 1314              		.type	core_Natives, %object
 1315              		.size	core_Natives, 136
 1316              	core_Natives:
 1317 0000 00000000 		.word	.LC0
 1318 0004 00000000 		.word	numargs
 1319 0008 08000000 		.word	.LC1
 1320 000c 00000000 		.word	getarg
 1321 0010 10000000 		.word	.LC2
 1322 0014 00000000 		.word	setarg
 1323 0018 18000000 		.word	.LC3
 1324 001c 00000000 		.word	heapspace
 1325 0020 24000000 		.word	.LC4
 1326 0024 00000000 		.word	funcidx
 1327 0028 2C000000 		.word	.LC5
 1328 002c 00000000 		.word	swapchars
 1329 0030 38000000 		.word	.LC6
 1330 0034 00000000 		.word	core_tolower
 1331 0038 40000000 		.word	.LC7
 1332 003c 00000000 		.word	core_toupper
 1333 0040 48000000 		.word	.LC8
 1334 0044 00000000 		.word	core_min
 1335 0048 4C000000 		.word	.LC9
 1336 004c 00000000 		.word	core_max
 1337 0050 50000000 		.word	.LC10
 1338 0054 00000000 		.word	core_clamp
 1339 0058 58000000 		.word	.LC11
 1340 005c 00000000 		.word	core_random
 1341 0060 60000000 		.word	.LC12
 1342 0064 00000000 		.word	getproperty
 1343 0068 6C000000 		.word	.LC13
ARM GAS  /tmp/ccEBd0Fn.s 			page 25


 1344 006c 00000000 		.word	setproperty
 1345 0070 78000000 		.word	.LC14
 1346 0074 00000000 		.word	delproperty
 1347 0078 88000000 		.word	.LC15
 1348 007c 00000000 		.word	existproperty
 1349 0080 00000000 		.word	0
 1350 0084 00000000 		.word	0
 1351              		.section	.rodata.str1.4,"aMS",%progbits,1
 1352              		.align	2
 1353              	.LC0:
 1354 0000 6E756D61 		.ascii	"numargs\000"
 1354      72677300 
 1355              	.LC1:
 1356 0008 67657461 		.ascii	"getarg\000"
 1356      726700
 1357 000f 00       		.space	1
 1358              	.LC2:
 1359 0010 73657461 		.ascii	"setarg\000"
 1359      726700
 1360 0017 00       		.space	1
 1361              	.LC3:
 1362 0018 68656170 		.ascii	"heapspace\000"
 1362      73706163 
 1362      6500
 1363 0022 0000     		.space	2
 1364              	.LC4:
 1365 0024 66756E63 		.ascii	"funcidx\000"
 1365      69647800 
 1366              	.LC5:
 1367 002c 73776170 		.ascii	"swapchars\000"
 1367      63686172 
 1367      7300
 1368 0036 0000     		.space	2
 1369              	.LC6:
 1370 0038 746F6C6F 		.ascii	"tolower\000"
 1370      77657200 
 1371              	.LC7:
 1372 0040 746F7570 		.ascii	"toupper\000"
 1372      70657200 
 1373              	.LC8:
 1374 0048 6D696E00 		.ascii	"min\000"
 1375              	.LC9:
 1376 004c 6D617800 		.ascii	"max\000"
 1377              	.LC10:
 1378 0050 636C616D 		.ascii	"clamp\000"
 1378      7000
 1379 0056 0000     		.space	2
 1380              	.LC11:
 1381 0058 72616E64 		.ascii	"random\000"
 1381      6F6D00
 1382 005f 00       		.space	1
 1383              	.LC12:
 1384 0060 67657470 		.ascii	"getproperty\000"
 1384      726F7065 
 1384      72747900 
 1385              	.LC13:
 1386 006c 73657470 		.ascii	"setproperty\000"
ARM GAS  /tmp/ccEBd0Fn.s 			page 26


 1386      726F7065 
 1386      72747900 
 1387              	.LC14:
 1388 0078 64656C65 		.ascii	"deleteproperty\000"
 1388      74657072 
 1388      6F706572 
 1388      747900
 1389 0087 00       		.space	1
 1390              	.LC15:
 1391 0088 65786973 		.ascii	"existproperty\000"
 1391      7470726F 
 1391      70657274 
 1391      7900
 1392 0096 0000     		.section	.data.IL_StandardRandom_seed,"aw",%progbits
 1393              		.align	2
 1394              		.set	.LANCHOR0,. + 0
 1395              		.type	IL_StandardRandom_seed, %object
 1396              		.size	IL_StandardRandom_seed, 4
 1397              	IL_StandardRandom_seed:
 1398 0000 DB38A9CA 		.word	-894879525
 1399              		.text
 1400              	.Letext0: