ARM GAS  /tmp/ccsAiFpk.s 			page 1


   1              		.syntax unified
   2              		.cpu cortex-m3
   3              		.fpu softvfp
   4              		.eabi_attribute 20, 1
   5              		.eabi_attribute 21, 1
   6              		.eabi_attribute 23, 3
   7              		.eabi_attribute 24, 1
   8              		.eabi_attribute 25, 1
   9              		.eabi_attribute 26, 1
  10              		.eabi_attribute 30, 2
  11              		.eabi_attribute 18, 4
  12              		.thumb
  13              		.file	"conf_ctrl.c"
  20 0000 CD010000 		.text
  20      0200F200 
  20      00000201 
  20      FB0E0D00 
  20      01010101 
  21              	.Ltext0:
  22              		.cfi_sections	.debug_frame
  23              		.section	.text.saveConf,"ax",%progbits
  24              		.align	2
  25              		.p2align 4,,15
  26              		.global	saveConf
  27              		.thumb
  28              		.thumb_func
  29              		.type	saveConf, %function
  30              	saveConf:
  31              	.LFB55:
  32              		.file 1 "conf_ctrl.c"
  33              		.loc 1 14 0
  34              		.cfi_startproc
  35              		@ args = 0, pretend = 0, frame = 0
  36              		@ frame_needed = 0, uses_anonymous_args = 0
  37              	.LVL0:
  38 0000 2DE9F84F 		push	{r3, r4, r5, r6, r7, r8, r9, sl, fp, lr}
  39              	.LCFI0:
  40              		.cfi_def_cfa_offset 40
  41              		.loc 1 19 0
  42 0004 0C1E     		subs	r4, r1, #0
  43              		.cfi_offset 14, -4
  44              		.cfi_offset 11, -8
  45              		.cfi_offset 10, -12
  46              		.cfi_offset 9, -16
  47              		.cfi_offset 8, -20
  48              		.cfi_offset 7, -24
  49              		.cfi_offset 6, -28
  50              		.cfi_offset 5, -32
  51              		.cfi_offset 4, -36
  52              		.cfi_offset 3, -40
  53              		.loc 1 14 0
ARM GAS  /tmp/ccsAiFpk.s 			page 2


  54 0006 0546     		mov	r5, r0
  55              		.loc 1 19 0
  56 0008 40F3EE80 		ble	.L26
  57              		.loc 1 21 0
  58 000c 784A     		ldr	r2, .L55
  59 000e 0368     		ldr	r3, [r0, #0]
  60 0010 1168     		ldr	r1, [r2, #0]
  61              	.LVL1:
  62 0012 9942     		cmp	r1, r3
  63 0014 0ED1     		bne	.L3
  64              		.loc 1 19 0
  65 0016 0021     		movs	r1, #0
  66 0018 14F0010F 		tst	r4, #1
  67              		.loc 1 21 0
  68 001c 0346     		mov	r3, r0
  69 001e 40F0B780 		bne	.L4
  70 0022 744A     		ldr	r2, .L55+4
  71 0024 0346     		mov	r3, r0
  72 0026 53F8040F 		ldr	r0, [r3, #4]!
  73              	.LVL2:
  74 002a 1668     		ldr	r6, [r2, #0]
  75              		.loc 1 19 0
  76 002c 0121     		movs	r1, #1
  77              	.LVL3:
  78              		.loc 1 21 0
  79 002e 8642     		cmp	r6, r0
  80 0030 00F0AE80 		beq	.L4
  81              	.LVL4:
  82              	.L3:
  83              		.loc 1 31 0
  84 0034 FFF7FEFF 		bl	FLASH_Unlock
  85              	.LVL5:
  86              		.loc 1 33 0
  87 0038 6D48     		ldr	r0, .L55
  88 003a FFF7FEFF 		bl	FLASH_ErasePage
  89              	.LVL6:
  90              		.loc 1 34 0
  91 003e 0428     		cmp	r0, #4
  92 0040 40F0CD80 		bne	.L46
  93              		.loc 1 41 0
  94 0044 2E46     		mov	r6, r5
  95 0046 6A48     		ldr	r0, .L55
  96              	.LVL7:
  97 0048 56F8041B 		ldr	r1, [r6], #4
  98 004c FFF7FEFF 		bl	FLASH_ProgramWord
  99              	.LVL8:
 100 0050 671E     		subs	r7, r4, #1
 101              		.loc 1 42 0
 102 0052 0428     		cmp	r0, #4
 103              		.loc 1 37 0
 104 0054 AA46     		mov	sl, r5
 105 0056 07F00107 		and	r7, r7, #1
 106              		.loc 1 42 0
 107 005a 40F0BB80 		bne	.L43
 108              		.loc 1 39 0
 109 005e 4FF00108 		mov	r8, #1
 110 0062 A045     		cmp	r8, r4
ARM GAS  /tmp/ccsAiFpk.s 			page 3


 111 0064 DFF88C91 		ldr	r9, .L55+4
 112 0068 11D0     		beq	.L44
 113 006a 002F     		cmp	r7, #0
 114 006c 00F0A380 		beq	.L8
 115              		.loc 1 41 0
 116 0070 4846     		mov	r0, r9
 117              	.LVL9:
 118 0072 56F8041B 		ldr	r1, [r6], #4
 119 0076 FFF7FEFF 		bl	FLASH_ProgramWord
 120              		.loc 1 42 0
 121 007a 0428     		cmp	r0, #4
 122 007c 40F0AA80 		bne	.L43
 123              		.loc 1 39 0
 124 0080 4FF00208 		mov	r8, #2
 125 0084 A045     		cmp	r8, r4
 126 0086 09F10409 		add	r9, r9, #4
 127 008a 40F09480 		bne	.L8
 128              	.L44:
 129              	.LVL10:
 130              		.loc 1 48 0
 131 008e 4FEA8800 		lsl	r0, r8, #2
 132              		.loc 1 13 0
 133 0092 2D18     		adds	r5, r5, r0
 134              	.LVL11:
 135              		.loc 1 70 0
 136 0094 0021     		movs	r1, #0
 137              	.LBB6:
 138              	.LBB7:
 139              		.loc 1 77 0
 140 0096 6FF07303 		mvn	r3, #115
 141 009a 21E0     		b	.L25
 142              	.LVL12:
 143              	.L48:
 144              		.loc 1 79 0
 145 009c 5208     		lsrs	r2, r2, #1
 146              	.LVL13:
 147              		.loc 1 76 0
 148 009e 12F0010F 		tst	r2, #1
 149 00a2 2BD1     		bne	.L11
 150              	.LVL14:
 151              	.L49:
 152              		.loc 1 79 0
 153 00a4 5208     		lsrs	r2, r2, #1
 154              	.LVL15:
 155              		.loc 1 76 0
 156 00a6 12F0010F 		tst	r2, #1
 157 00aa 2ED1     		bne	.L13
 158              	.LVL16:
 159              	.L50:
 160              		.loc 1 79 0
 161 00ac 5208     		lsrs	r2, r2, #1
 162              	.LVL17:
 163              		.loc 1 76 0
 164 00ae 12F0010F 		tst	r2, #1
 165 00b2 30D1     		bne	.L15
 166              	.LVL18:
 167              	.L51:
ARM GAS  /tmp/ccsAiFpk.s 			page 4


 168              		.loc 1 79 0
 169 00b4 5208     		lsrs	r2, r2, #1
 170              	.LVL19:
 171              		.loc 1 76 0
 172 00b6 12F0010F 		tst	r2, #1
 173 00ba 32D1     		bne	.L17
 174              	.LVL20:
 175              	.L52:
 176              		.loc 1 79 0
 177 00bc 5208     		lsrs	r2, r2, #1
 178              	.LVL21:
 179              		.loc 1 76 0
 180 00be 12F0010F 		tst	r2, #1
 181 00c2 35D1     		bne	.L19
 182              	.LVL22:
 183              	.L53:
 184              		.loc 1 79 0
 185 00c4 5208     		lsrs	r2, r2, #1
 186              	.LVL23:
 187              		.loc 1 76 0
 188 00c6 12F0010F 		tst	r2, #1
 189 00ca 38D1     		bne	.L21
 190              	.LVL24:
 191              	.L54:
 192              		.loc 1 79 0
 193 00cc 5208     		lsrs	r2, r2, #1
 194              	.LVL25:
 195              		.loc 1 76 0
 196 00ce 12F0010F 		tst	r2, #1
 197              		.loc 1 77 0
 198 00d2 1ABF     		itte	ne
 199 00d4 83EA5202 		eorne	r2, r3, r2, lsr #1
 200              	.LVL26:
 201 00d8 D1B2     		uxtbne	r1, r2
 202              	.LVL27:
 203              		.loc 1 79 0
 204 00da 5108     		lsreq	r1, r2, #1
 205              	.LVL28:
 206              		.loc 1 71 0
 207 00dc AA45     		cmp	sl, r5
 208 00de 3AD0     		beq	.L47
 209              	.LVL29:
 210              	.L25:
 211              		.loc 1 73 0
 212 00e0 1AF8014B 		ldrb	r4, [sl], #1	@ zero_extendqisi2
 213 00e4 81EA0402 		eor	r2, r1, r4
 214              	.LVL30:
 215              		.loc 1 76 0
 216 00e8 12F0010F 		tst	r2, #1
 217 00ec D6D0     		beq	.L48
 218              		.loc 1 77 0
 219 00ee 83EA520C 		eor	ip, r3, r2, lsr #1
 220 00f2 5FFA8CF2 		uxtb	r2, ip
 221              	.LVL31:
 222              		.loc 1 76 0
 223 00f6 12F0010F 		tst	r2, #1
 224 00fa D3D0     		beq	.L49
ARM GAS  /tmp/ccsAiFpk.s 			page 5


 225              	.LVL32:
 226              	.L11:
 227              		.loc 1 77 0
 228 00fc 83EA520E 		eor	lr, r3, r2, lsr #1
 229 0100 5FFA8EF2 		uxtb	r2, lr
 230              	.LVL33:
 231              		.loc 1 76 0
 232 0104 12F0010F 		tst	r2, #1
 233 0108 D0D0     		beq	.L50
 234              	.LVL34:
 235              	.L13:
 236              		.loc 1 77 0
 237 010a 83EA5202 		eor	r2, r3, r2, lsr #1
 238 010e D2B2     		uxtb	r2, r2
 239              	.LVL35:
 240              		.loc 1 76 0
 241 0110 12F0010F 		tst	r2, #1
 242 0114 CED0     		beq	.L51
 243              	.LVL36:
 244              	.L15:
 245              		.loc 1 77 0
 246 0116 83EA5204 		eor	r4, r3, r2, lsr #1
 247 011a E2B2     		uxtb	r2, r4
 248              	.LVL37:
 249              		.loc 1 76 0
 250 011c 12F0010F 		tst	r2, #1
 251 0120 CCD0     		beq	.L52
 252              	.LVL38:
 253              	.L17:
 254              		.loc 1 77 0
 255 0122 83EA520C 		eor	ip, r3, r2, lsr #1
 256 0126 5FFA8CF2 		uxtb	r2, ip
 257              	.LVL39:
 258              		.loc 1 76 0
 259 012a 12F0010F 		tst	r2, #1
 260 012e C9D0     		beq	.L53
 261              	.LVL40:
 262              	.L19:
 263              		.loc 1 77 0
 264 0130 83EA520E 		eor	lr, r3, r2, lsr #1
 265 0134 5FFA8EF2 		uxtb	r2, lr
 266              	.LVL41:
 267              		.loc 1 76 0
 268 0138 12F0010F 		tst	r2, #1
 269 013c C6D0     		beq	.L54
 270              	.LVL42:
 271              	.L21:
 272              		.loc 1 77 0
 273 013e 83EA5202 		eor	r2, r3, r2, lsr #1
 274 0142 D2B2     		uxtb	r2, r2
 275              	.LVL43:
 276              		.loc 1 76 0
 277 0144 12F0010F 		tst	r2, #1
 278              		.loc 1 77 0
 279 0148 1ABF     		itte	ne
 280 014a 83EA5202 		eorne	r2, r3, r2, lsr #1
 281              	.LVL44:
ARM GAS  /tmp/ccsAiFpk.s 			page 6


 282 014e D1B2     		uxtbne	r1, r2
 283              	.LVL45:
 284              		.loc 1 79 0
 285 0150 5108     		lsreq	r1, r2, #1
 286              	.LVL46:
 287              		.loc 1 71 0
 288 0152 AA45     		cmp	sl, r5
 289 0154 C4D1     		bne	.L25
 290              	.LVL47:
 291              	.L47:
 292              	.LBE7:
 293              	.LBE6:
 294              		.loc 1 49 0
 295 0156 00F10060 		add	r0, r0, #134217728
 296 015a 00F5A040 		add	r0, r0, #20480
 297 015e FFF7FEFF 		bl	FLASH_ProgramWord
 298              	.LVL48:
 299 0162 0446     		mov	r4, r0
 300              	.LVL49:
 301              		.loc 1 50 0
 302 0164 FFF7FEFF 		bl	FLASH_Lock
 303              	.LVL50:
 304              		.loc 1 52 0
 305 0168 042C     		cmp	r4, #4
 306 016a 14BF     		ite	ne
 307 016c 0320     		movne	r0, #3
 308 016e 0020     		moveq	r0, #0
 309 0170 BDE8F88F 		pop	{r3, r4, r5, r6, r7, r8, r9, sl, fp, pc}
 310              	.LVL51:
 311              	.L5:
 312              		.loc 1 21 0
 313 0174 5268     		ldr	r2, [r2, #4]
 314 0176 53F8046F 		ldr	r6, [r3, #4]!
 315 017a B242     		cmp	r2, r6
 316 017c 00F10402 		add	r2, r0, #4
 317 0180 7FF458AF 		bne	.L3
 318              	.LVL52:
 319 0184 53F8046F 		ldr	r6, [r3, #4]!
 320 0188 4068     		ldr	r0, [r0, #4]
 321 018a B042     		cmp	r0, r6
 322 018c 7FF452AF 		bne	.L3
 323              	.LVL53:
 324              	.L4:
 325              		.loc 1 19 0
 326 0190 0131     		adds	r1, r1, #1
 327 0192 A142     		cmp	r1, r4
 328              		.loc 1 21 0
 329 0194 02F10400 		add	r0, r2, #4
 330              		.loc 1 19 0
 331 0198 01F10101 		add	r1, r1, #1
 332 019c EAD1     		bne	.L5
 333              		.loc 1 29 0
 334 019e 0020     		movs	r0, #0
 335 01a0 BDE8F88F 		pop	{r3, r4, r5, r6, r7, r8, r9, sl, fp, pc}
 336              	.LVL54:
 337              	.L7:
 338              		.loc 1 41 0
ARM GAS  /tmp/ccsAiFpk.s 			page 7


 339 01a4 7168     		ldr	r1, [r6, #4]
 340 01a6 FFF7FEFF 		bl	FLASH_ProgramWord
 341 01aa 3E1D     		adds	r6, r7, #4
 342              		.loc 1 42 0
 343 01ac 0428     		cmp	r0, #4
 344 01ae 11D1     		bne	.L43
 345              		.loc 1 39 0
 346 01b0 A045     		cmp	r8, r4
 347 01b2 3FF46CAF 		beq	.L44
 348              	.L8:
 349              		.loc 1 41 0
 350 01b6 3746     		mov	r7, r6
 351 01b8 4846     		mov	r0, r9
 352 01ba 57F8041B 		ldr	r1, [r7], #4
 353 01be FFF7FEFF 		bl	FLASH_ProgramWord
 354              		.loc 1 39 0
 355 01c2 09F1040B 		add	fp, r9, #4
 356              		.loc 1 42 0
 357 01c6 0428     		cmp	r0, #4
 358              		.loc 1 39 0
 359 01c8 08F10208 		add	r8, r8, #2
 360              		.loc 1 41 0
 361 01cc 5846     		mov	r0, fp
 362              		.loc 1 39 0
 363 01ce 09F10809 		add	r9, r9, #8
 364              		.loc 1 42 0
 365 01d2 E7D0     		beq	.L7
 366              	.L43:
 367              		.loc 1 44 0
 368 01d4 FFF7FEFF 		bl	FLASH_Lock
 369              		.loc 1 45 0
 370 01d8 0220     		movs	r0, #2
 371 01da BDE8F88F 		pop	{r3, r4, r5, r6, r7, r8, r9, sl, fp, pc}
 372              	.LVL55:
 373              	.L46:
 374              		.loc 1 36 0
 375 01de FFF7FEFF 		bl	FLASH_Lock
 376              	.LVL56:
 377              		.loc 1 37 0
 378 01e2 0120     		movs	r0, #1
 379 01e4 BDE8F88F 		pop	{r3, r4, r5, r6, r7, r8, r9, sl, fp, pc}
 380              	.LVL57:
 381              	.L26:
 382              		.loc 1 29 0
 383 01e8 0020     		movs	r0, #0
 384              		.loc 1 54 0
 385 01ea BDE8F88F 		pop	{r3, r4, r5, r6, r7, r8, r9, sl, fp, pc}
 386              	.L56:
 387 01ee 00BF     		.align	2
 388              	.L55:
 389 01f0 00500008 		.word	134238208
 390 01f4 04500008 		.word	134238212
 391              		.cfi_endproc
 392              	.LFE55:
 393              		.size	saveConf, .-saveConf
 394 01f8 AFF30080 		.section	.text.loadConf,"ax",%progbits
 394      AFF30080 
ARM GAS  /tmp/ccsAiFpk.s 			page 8


 395              		.align	2
 396              		.p2align 4,,15
 397              		.global	loadConf
 398              		.thumb
 399              		.thumb_func
 400              		.type	loadConf, %function
 401              	loadConf:
 402              	.LFB56:
 403              		.loc 1 57 0
 404              		.cfi_startproc
 405              		@ args = 0, pretend = 0, frame = 0
 406              		@ frame_needed = 0, uses_anonymous_args = 0
 407              		@ link register save eliminated.
 408              	.LVL58:
 409              		.loc 1 59 0
 410 0000 8000     		lsls	r0, r0, #2
 411              	.LVL59:
 412              	.LBB8:
 413              	.LBB10:
 414              		.loc 1 71 0
 415 0002 0028     		cmp	r0, #0
 416              	.LBE10:
 417              	.LBE8:
 418              		.loc 1 57 0
 419 0004 30B4     		push	{r4, r5}
 420              	.LCFI1:
 421              		.cfi_def_cfa_offset 8
 422              	.LBB13:
 423              	.LBB11:
 424              		.loc 1 71 0
 425 0006 6DDD     		ble	.L77
 426              		.cfi_offset 5, -4
 427              		.cfi_offset 4, -8
 428              		.loc 1 56 0
 429 0008 374C     		ldr	r4, .L87
 430              	.LBE11:
 431              	.LBE13:
 432              		.loc 1 70 0
 433 000a 0021     		movs	r1, #0
 434              		.loc 1 56 0
 435 000c 2246     		mov	r2, r4
 436              	.LBB14:
 437              	.LBB9:
 438              		.loc 1 77 0
 439 000e 6FF07303 		mvn	r3, #115
 440              		.loc 1 56 0
 441 0012 0419     		adds	r4, r0, r4
 442 0014 21E0     		b	.L75
 443              	.LVL60:
 444              	.L80:
 445              		.loc 1 79 0
 446 0016 4908     		lsrs	r1, r1, #1
 447              	.LVL61:
 448              		.loc 1 76 0
 449 0018 11F0010F 		tst	r1, #1
 450 001c 29D1     		bne	.L61
 451              	.LVL62:
ARM GAS  /tmp/ccsAiFpk.s 			page 9


 452              	.L81:
 453              		.loc 1 79 0
 454 001e 4908     		lsrs	r1, r1, #1
 455              	.LVL63:
 456              		.loc 1 76 0
 457 0020 11F0010F 		tst	r1, #1
 458 0024 2CD1     		bne	.L63
 459              	.LVL64:
 460              	.L82:
 461              		.loc 1 79 0
 462 0026 4908     		lsrs	r1, r1, #1
 463              	.LVL65:
 464              		.loc 1 76 0
 465 0028 11F0010F 		tst	r1, #1
 466 002c 2ED1     		bne	.L65
 467              	.LVL66:
 468              	.L83:
 469              		.loc 1 79 0
 470 002e 4908     		lsrs	r1, r1, #1
 471              	.LVL67:
 472              		.loc 1 76 0
 473 0030 11F0010F 		tst	r1, #1
 474 0034 31D1     		bne	.L67
 475              	.LVL68:
 476              	.L84:
 477              		.loc 1 79 0
 478 0036 4908     		lsrs	r1, r1, #1
 479              	.LVL69:
 480              		.loc 1 76 0
 481 0038 11F0010F 		tst	r1, #1
 482 003c 33D1     		bne	.L69
 483              	.LVL70:
 484              	.L85:
 485              		.loc 1 79 0
 486 003e 4908     		lsrs	r1, r1, #1
 487              	.LVL71:
 488              		.loc 1 76 0
 489 0040 11F0010F 		tst	r1, #1
 490 0044 36D1     		bne	.L71
 491              	.LVL72:
 492              	.L86:
 493              		.loc 1 79 0
 494 0046 4908     		lsrs	r1, r1, #1
 495              	.LVL73:
 496              		.loc 1 76 0
 497 0048 11F0010F 		tst	r1, #1
 498              		.loc 1 77 0
 499 004c 1ABF     		itte	ne
 500 004e 83EA5101 		eorne	r1, r3, r1, lsr #1
 501              	.LVL74:
 502 0052 C9B2     		uxtbne	r1, r1
 503              	.LVL75:
 504              		.loc 1 79 0
 505 0054 4908     		lsreq	r1, r1, #1
 506              	.LVL76:
 507              		.loc 1 71 0
 508 0056 A242     		cmp	r2, r4
ARM GAS  /tmp/ccsAiFpk.s 			page 10


 509 0058 38D0     		beq	.L58
 510              	.LVL77:
 511              	.L75:
 512              		.loc 1 73 0
 513 005a 12F8015F 		ldrb	r5, [r2, #1]!	@ zero_extendqisi2
 514 005e 6940     		eors	r1, r1, r5
 515              	.LVL78:
 516              		.loc 1 76 0
 517 0060 11F0010F 		tst	r1, #1
 518 0064 D7D0     		beq	.L80
 519              		.loc 1 77 0
 520 0066 83EA5101 		eor	r1, r3, r1, lsr #1
 521              	.LVL79:
 522 006a C9B2     		uxtb	r1, r1
 523              	.LVL80:
 524              		.loc 1 76 0
 525 006c 11F0010F 		tst	r1, #1
 526 0070 D5D0     		beq	.L81
 527              	.LVL81:
 528              	.L61:
 529              		.loc 1 77 0
 530 0072 83EA510C 		eor	ip, r3, r1, lsr #1
 531 0076 5FFA8CF1 		uxtb	r1, ip
 532              	.LVL82:
 533              		.loc 1 76 0
 534 007a 11F0010F 		tst	r1, #1
 535 007e D2D0     		beq	.L82
 536              	.LVL83:
 537              	.L63:
 538              		.loc 1 77 0
 539 0080 83EA5101 		eor	r1, r3, r1, lsr #1
 540 0084 C9B2     		uxtb	r1, r1
 541              	.LVL84:
 542              		.loc 1 76 0
 543 0086 11F0010F 		tst	r1, #1
 544 008a D0D0     		beq	.L83
 545              	.LVL85:
 546              	.L65:
 547              		.loc 1 77 0
 548 008c 83EA510C 		eor	ip, r3, r1, lsr #1
 549 0090 5FFA8CF1 		uxtb	r1, ip
 550              	.LVL86:
 551              		.loc 1 76 0
 552 0094 11F0010F 		tst	r1, #1
 553 0098 CDD0     		beq	.L84
 554              	.LVL87:
 555              	.L67:
 556              		.loc 1 77 0
 557 009a 83EA5101 		eor	r1, r3, r1, lsr #1
 558 009e C9B2     		uxtb	r1, r1
 559              	.LVL88:
 560              		.loc 1 76 0
 561 00a0 11F0010F 		tst	r1, #1
 562 00a4 CBD0     		beq	.L85
 563              	.LVL89:
 564              	.L69:
 565              		.loc 1 77 0
ARM GAS  /tmp/ccsAiFpk.s 			page 11


 566 00a6 83EA510C 		eor	ip, r3, r1, lsr #1
 567 00aa 5FFA8CF1 		uxtb	r1, ip
 568              	.LVL90:
 569              		.loc 1 76 0
 570 00ae 11F0010F 		tst	r1, #1
 571 00b2 C8D0     		beq	.L86
 572              	.LVL91:
 573              	.L71:
 574              		.loc 1 77 0
 575 00b4 83EA5101 		eor	r1, r3, r1, lsr #1
 576 00b8 C9B2     		uxtb	r1, r1
 577              	.LVL92:
 578              		.loc 1 76 0
 579 00ba 11F0010F 		tst	r1, #1
 580              		.loc 1 77 0
 581 00be 1ABF     		itte	ne
 582 00c0 83EA5101 		eorne	r1, r3, r1, lsr #1
 583              	.LVL93:
 584 00c4 C9B2     		uxtbne	r1, r1
 585              	.LVL94:
 586              		.loc 1 79 0
 587 00c6 4908     		lsreq	r1, r1, #1
 588              	.LVL95:
 589              		.loc 1 71 0
 590 00c8 A242     		cmp	r2, r4
 591 00ca C6D1     		bne	.L75
 592              	.LVL96:
 593              	.L58:
 594              	.LBE9:
 595              	.LBE14:
 596              		.loc 1 60 0
 597 00cc 00F1006C 		add	ip, r0, #134217728
 598 00d0 0CF5A042 		add	r2, ip, #20480
 599              		.loc 1 61 0
 600 00d4 1078     		ldrb	r0, [r2, #0]	@ zero_extendqisi2
 601              	.LVL97:
 602              		.loc 1 62 0
 603 00d6 054B     		ldr	r3, .L87+4
 604              		.loc 1 64 0
 605 00d8 8842     		cmp	r0, r1
 606 00da 0CBF     		ite	eq
 607 00dc 1846     		moveq	r0, r3
 608 00de 0020     		movne	r0, #0
 609 00e0 30BC     		pop	{r4, r5}
 610 00e2 7047     		bx	lr
 611              	.LVL98:
 612              	.L77:
 613              	.LBB15:
 614              	.LBB12:
 615              		.loc 1 70 0
 616 00e4 0021     		movs	r1, #0
 617 00e6 F1E7     		b	.L58
 618              	.L88:
 619              		.align	2
 620              	.L87:
 621 00e8 FF4F0008 		.word	134238207
 622 00ec 00500008 		.word	134238208
ARM GAS  /tmp/ccsAiFpk.s 			page 12


 623              	.LBE12:
 624              	.LBE15:
 625              		.cfi_endproc
 626              	.LFE56:
 627              		.size	loadConf, .-loadConf
 628              		.text
 629              	.Letext0: