ARM GAS  /tmp/ccsAiFpk.s 			page 1


   1              		.syntax unified
   2              		.cpu cortex-m3
   3              		.fpu softvfp
   4              		.eabi_attribute 20, 1
   5              		.eabi_attribute 21, 1
   6              		.eabi_attribute 23, 3
   7              		.eabi_attribute 24, 1
   8              		.eabi_attribute 25, 1
   9              		.eabi_attribute 26, 1
  10              		.eabi_attribute 30, 2
  11              		.eabi_attribute 18, 4
  12              		.thumb
  13              		.file	"conf_ctrl.c"
  14              		.section	.debug_abbrev,"",%progbits
  15              	.Ldebug_abbrev0:
  16              		.section	.debug_info,"",%progbits
  17              	.Ldebug_info0:
  18              		.section	.debug_line,"",%progbits
  19              	.Ldebug_line0:
  20 0000 CD010000 		.text
  20      0200F200 
  20      00000201 
  20      FB0E0D00 
  20      01010101 
  21              	.Ltext0:
  22              		.cfi_sections	.debug_frame
  23              		.section	.text.saveConf,"ax",%progbits
  24              		.align	2
  25              		.p2align 4,,15
  26              		.global	saveConf
  27              		.thumb
  28              		.thumb_func
  29              		.type	saveConf, %function
  30              	saveConf:
  31              	.LFB55:
  32              		.file 1 "conf_ctrl.c"
  33              		.loc 1 14 0
  34              		.cfi_startproc
  35              		@ args = 0, pretend = 0, frame = 0
  36              		@ frame_needed = 0, uses_anonymous_args = 0
  37              	.LVL0:
  38 0000 2DE9F84F 		push	{r3, r4, r5, r6, r7, r8, r9, sl, fp, lr}
  39              	.LCFI0:
  40              		.cfi_def_cfa_offset 40
  41              		.loc 1 19 0
  42 0004 0C1E     		subs	r4, r1, #0
  43              		.cfi_offset 14, -4
  44              		.cfi_offset 11, -8
  45              		.cfi_offset 10, -12
  46              		.cfi_offset 9, -16
  47              		.cfi_offset 8, -20
  48              		.cfi_offset 7, -24
  49              		.cfi_offset 6, -28
  50              		.cfi_offset 5, -32
  51              		.cfi_offset 4, -36
  52              		.cfi_offset 3, -40
  53              		.loc 1 14 0
ARM GAS  /tmp/ccsAiFpk.s 			page 2


  54 0006 0546     		mov	r5, r0
  55              		.loc 1 19 0
  56 0008 40F3EE80 		ble	.L26
  57              		.loc 1 21 0
  58 000c 784A     		ldr	r2, .L55
  59 000e 0368     		ldr	r3, [r0, #0]
  60 0010 1168     		ldr	r1, [r2, #0]
  61              	.LVL1:
  62 0012 9942     		cmp	r1, r3
  63 0014 0ED1     		bne	.L3
  64              		.loc 1 19 0
  65 0016 0021     		movs	r1, #0
  66 0018 14F0010F 		tst	r4, #1
  67              		.loc 1 21 0
  68 001c 0346     		mov	r3, r0
  69 001e 40F0B780 		bne	.L4
  70 0022 744A     		ldr	r2, .L55+4
  71 0024 0346     		mov	r3, r0
  72 0026 53F8040F 		ldr	r0, [r3, #4]!
  73              	.LVL2:
  74 002a 1668     		ldr	r6, [r2, #0]
  75              		.loc 1 19 0
  76 002c 0121     		movs	r1, #1
  77              	.LVL3:
  78              		.loc 1 21 0
  79 002e 8642     		cmp	r6, r0
  80 0030 00F0AE80 		beq	.L4
  81              	.LVL4:
  82              	.L3:
  83              		.loc 1 31 0
  84 0034 FFF7FEFF 		bl	FLASH_Unlock
  85              	.LVL5:
  86              		.loc 1 33 0
  87 0038 6D48     		ldr	r0, .L55
  88 003a FFF7FEFF 		bl	FLASH_ErasePage
  89              	.LVL6:
  90              		.loc 1 34 0
  91 003e 0428     		cmp	r0, #4
  92 0040 40F0CD80 		bne	.L46
  93              		.loc 1 41 0
  94 0044 2E46     		mov	r6, r5
  95 0046 6A48     		ldr	r0, .L55
  96              	.LVL7:
  97 0048 56F8041B 		ldr	r1, [r6], #4
  98 004c FFF7FEFF 		bl	FLASH_ProgramWord
  99              	.LVL8:
 100 0050 671E     		subs	r7, r4, #1
 101              		.loc 1 42 0
 102 0052 0428     		cmp	r0, #4
 103              		.loc 1 37 0
 104 0054 AA46     		mov	sl, r5
 105 0056 07F00107 		and	r7, r7, #1
 106              		.loc 1 42 0
 107 005a 40F0BB80 		bne	.L43
 108              		.loc 1 39 0
 109 005e 4FF00108 		mov	r8, #1
 110 0062 A045     		cmp	r8, r4
ARM GAS  /tmp/ccsAiFpk.s 			page 3


 111 0064 DFF88C91 		ldr	r9, .L55+4
 112 0068 11D0     		beq	.L44
 113 006a 002F     		cmp	r7, #0
 114 006c 00F0A380 		beq	.L8
 115              		.loc 1 41 0
 116 0070 4846     		mov	r0, r9
 117              	.LVL9:
 118 0072 56F8041B 		ldr	r1, [r6], #4
 119 0076 FFF7FEFF 		bl	FLASH_ProgramWord
 120              		.loc 1 42 0
 121 007a 0428     		cmp	r0, #4
 122 007c 40F0AA80 		bne	.L43
 123              		.loc 1 39 0
 124 0080 4FF00208 		mov	r8, #2
 125 0084 A045     		cmp	r8, r4
 126 0086 09F10409 		add	r9, r9, #4
 127 008a 40F09480 		bne	.L8
 128              	.L44:
 129              	.LVL10:
 130              		.loc 1 48 0
 131 008e 4FEA8800 		lsl	r0, r8, #2
 132              		.loc 1 13 0
 133 0092 2D18     		adds	r5, r5, r0
 134              	.LVL11:
 135              		.loc 1 70 0
 136 0094 0021     		movs	r1, #0
 137              	.LBB6:
 138              	.LBB7:
 139              		.loc 1 77 0
 140 0096 6FF07303 		mvn	r3, #115
 141 009a 21E0     		b	.L25
 142              	.LVL12:
 143              	.L48:
 144              		.loc 1 79 0
 145 009c 5208     		lsrs	r2, r2, #1
 146              	.LVL13:
 147              		.loc 1 76 0
 148 009e 12F0010F 		tst	r2, #1
 149 00a2 2BD1     		bne	.L11
 150              	.LVL14:
 151              	.L49:
 152              		.loc 1 79 0
 153 00a4 5208     		lsrs	r2, r2, #1
 154              	.LVL15:
 155              		.loc 1 76 0
 156 00a6 12F0010F 		tst	r2, #1
 157 00aa 2ED1     		bne	.L13
 158              	.LVL16:
 159              	.L50:
 160              		.loc 1 79 0
 161 00ac 5208     		lsrs	r2, r2, #1
 162              	.LVL17:
 163              		.loc 1 76 0
 164 00ae 12F0010F 		tst	r2, #1
 165 00b2 30D1     		bne	.L15
 166              	.LVL18:
 167              	.L51:
ARM GAS  /tmp/ccsAiFpk.s 			page 4


 168              		.loc 1 79 0
 169 00b4 5208     		lsrs	r2, r2, #1
 170              	.LVL19:
 171              		.loc 1 76 0
 172 00b6 12F0010F 		tst	r2, #1
 173 00ba 32D1     		bne	.L17
 174              	.LVL20:
 175              	.L52:
 176              		.loc 1 79 0
 177 00bc 5208     		lsrs	r2, r2, #1
 178              	.LVL21:
 179              		.loc 1 76 0
 180 00be 12F0010F 		tst	r2, #1
 181 00c2 35D1     		bne	.L19
 182              	.LVL22:
 183              	.L53:
 184              		.loc 1 79 0
 185 00c4 5208     		lsrs	r2, r2, #1
 186              	.LVL23:
 187              		.loc 1 76 0
 188 00c6 12F0010F 		tst	r2, #1
 189 00ca 38D1     		bne	.L21
 190              	.LVL24:
 191              	.L54:
 192              		.loc 1 79 0
 193 00cc 5208     		lsrs	r2, r2, #1
 194              	.LVL25:
 195              		.loc 1 76 0
 196 00ce 12F0010F 		tst	r2, #1
 197              		.loc 1 77 0
 198 00d2 1ABF     		itte	ne
 199 00d4 83EA5202 		eorne	r2, r3, r2, lsr #1
 200              	.LVL26:
 201 00d8 D1B2     		uxtbne	r1, r2
 202              	.LVL27:
 203              		.loc 1 79 0
 204 00da 5108     		lsreq	r1, r2, #1
 205              	.LVL28:
 206              		.loc 1 71 0
 207 00dc AA45     		cmp	sl, r5
 208 00de 3AD0     		beq	.L47
 209              	.LVL29:
 210              	.L25:
 211              		.loc 1 73 0
 212 00e0 1AF8014B 		ldrb	r4, [sl], #1	@ zero_extendqisi2
 213 00e4 81EA0402 		eor	r2, r1, r4
 214              	.LVL30:
 215              		.loc 1 76 0
 216 00e8 12F0010F 		tst	r2, #1
 217 00ec D6D0     		beq	.L48
 218              		.loc 1 77 0
 219 00ee 83EA520C 		eor	ip, r3, r2, lsr #1
 220 00f2 5FFA8CF2 		uxtb	r2, ip
 221              	.LVL31:
 222              		.loc 1 76 0
 223 00f6 12F0010F 		tst	r2, #1
 224 00fa D3D0     		beq	.L49
ARM GAS  /tmp/ccsAiFpk.s 			page 5


 225              	.LVL32:
 226              	.L11:
 227              		.loc 1 77 0
 228 00fc 83EA520E 		eor	lr, r3, r2, lsr #1
 229 0100 5FFA8EF2 		uxtb	r2, lr
 230              	.LVL33:
 231              		.loc 1 76 0
 232 0104 12F0010F 		tst	r2, #1
 233 0108 D0D0     		beq	.L50
 234              	.LVL34:
 235              	.L13:
 236              		.loc 1 77 0
 237 010a 83EA5202 		eor	r2, r3, r2, lsr #1
 238 010e D2B2     		uxtb	r2, r2
 239              	.LVL35:
 240              		.loc 1 76 0
 241 0110 12F0010F 		tst	r2, #1
 242 0114 CED0     		beq	.L51
 243              	.LVL36:
 244              	.L15:
 245              		.loc 1 77 0
 246 0116 83EA5204 		eor	r4, r3, r2, lsr #1
 247 011a E2B2     		uxtb	r2, r4
 248              	.LVL37:
 249              		.loc 1 76 0
 250 011c 12F0010F 		tst	r2, #1
 251 0120 CCD0     		beq	.L52
 252              	.LVL38:
 253              	.L17:
 254              		.loc 1 77 0
 255 0122 83EA520C 		eor	ip, r3, r2, lsr #1
 256 0126 5FFA8CF2 		uxtb	r2, ip
 257              	.LVL39:
 258              		.loc 1 76 0
 259 012a 12F0010F 		tst	r2, #1
 260 012e C9D0     		beq	.L53
 261              	.LVL40:
 262              	.L19:
 263              		.loc 1 77 0
 264 0130 83EA520E 		eor	lr, r3, r2, lsr #1
 265 0134 5FFA8EF2 		uxtb	r2, lr
 266              	.LVL41:
 267              		.loc 1 76 0
 268 0138 12F0010F 		tst	r2, #1
 269 013c C6D0     		beq	.L54
 270              	.LVL42:
 271              	.L21:
 272              		.loc 1 77 0
 273 013e 83EA5202 		eor	r2, r3, r2, lsr #1
 274 0142 D2B2     		uxtb	r2, r2
 275              	.LVL43:
 276              		.loc 1 76 0
 277 0144 12F0010F 		tst	r2, #1
 278              		.loc 1 77 0
 279 0148 1ABF     		itte	ne
 280 014a 83EA5202 		eorne	r2, r3, r2, lsr #1
 281              	.LVL44:
ARM GAS  /tmp/ccsAiFpk.s 			page 6


 282 014e D1B2     		uxtbne	r1, r2
 283              	.LVL45:
 284              		.loc 1 79 0
 285 0150 5108     		lsreq	r1, r2, #1
 286              	.LVL46:
 287              		.loc 1 71 0
 288 0152 AA45     		cmp	sl, r5
 289 0154 C4D1     		bne	.L25
 290              	.LVL47:
 291              	.L47:
 292              	.LBE7:
 293              	.LBE6:
 294              		.loc 1 49 0
 295 0156 00F10060 		add	r0, r0, #134217728
 296 015a 00F5A040 		add	r0, r0, #20480
 297 015e FFF7FEFF 		bl	FLASH_ProgramWord
 298              	.LVL48:
 299 0162 0446     		mov	r4, r0
 300              	.LVL49:
 301              		.loc 1 50 0
 302 0164 FFF7FEFF 		bl	FLASH_Lock
 303              	.LVL50:
 304              		.loc 1 52 0
 305 0168 042C     		cmp	r4, #4
 306 016a 14BF     		ite	ne
 307 016c 0320     		movne	r0, #3
 308 016e 0020     		moveq	r0, #0
 309 0170 BDE8F88F 		pop	{r3, r4, r5, r6, r7, r8, r9, sl, fp, pc}
 310              	.LVL51:
 311              	.L5:
 312              		.loc 1 21 0
 313 0174 5268     		ldr	r2, [r2, #4]
 314 0176 53F8046F 		ldr	r6, [r3, #4]!
 315 017a B242     		cmp	r2, r6
 316 017c 00F10402 		add	r2, r0, #4
 317 0180 7FF458AF 		bne	.L3
 318              	.LVL52:
 319 0184 53F8046F 		ldr	r6, [r3, #4]!
 320 0188 4068     		ldr	r0, [r0, #4]
 321 018a B042     		cmp	r0, r6
 322 018c 7FF452AF 		bne	.L3
 323              	.LVL53:
 324              	.L4:
 325              		.loc 1 19 0
 326 0190 0131     		adds	r1, r1, #1
 327 0192 A142     		cmp	r1, r4
 328              		.loc 1 21 0
 329 0194 02F10400 		add	r0, r2, #4
 330              		.loc 1 19 0
 331 0198 01F10101 		add	r1, r1, #1
 332 019c EAD1     		bne	.L5
 333              		.loc 1 29 0
 334 019e 0020     		movs	r0, #0
 335 01a0 BDE8F88F 		pop	{r3, r4, r5, r6, r7, r8, r9, sl, fp, pc}
 336              	.LVL54:
 337              	.L7:
 338              		.loc 1 41 0
ARM GAS  /tmp/ccsAiFpk.s 			page 7


 339 01a4 7168     		ldr	r1, [r6, #4]
 340 01a6 FFF7FEFF 		bl	FLASH_ProgramWord
 341 01aa 3E1D     		adds	r6, r7, #4
 342              		.loc 1 42 0
 343 01ac 0428     		cmp	r0, #4
 344 01ae 11D1     		bne	.L43
 345              		.loc 1 39 0
 346 01b0 A045     		cmp	r8, r4
 347 01b2 3FF46CAF 		beq	.L44
 348              	.L8:
 349              		.loc 1 41 0
 350 01b6 3746     		mov	r7, r6
 351 01b8 4846     		mov	r0, r9
 352 01ba 57F8041B 		ldr	r1, [r7], #4
 353 01be FFF7FEFF 		bl	FLASH_ProgramWord
 354              		.loc 1 39 0
 355 01c2 09F1040B 		add	fp, r9, #4
 356              		.loc 1 42 0
 357 01c6 0428     		cmp	r0, #4
 358              		.loc 1 39 0
 359 01c8 08F10208 		add	r8, r8, #2
 360              		.loc 1 41 0
 361 01cc 5846     		mov	r0, fp
 362              		.loc 1 39 0
 363 01ce 09F10809 		add	r9, r9, #8
 364              		.loc 1 42 0
 365 01d2 E7D0     		beq	.L7
 366              	.L43:
 367              		.loc 1 44 0
 368 01d4 FFF7FEFF 		bl	FLASH_Lock
 369              		.loc 1 45 0
 370 01d8 0220     		movs	r0, #2
 371 01da BDE8F88F 		pop	{r3, r4, r5, r6, r7, r8, r9, sl, fp, pc}
 372              	.LVL55:
 373              	.L46:
 374              		.loc 1 36 0
 375 01de FFF7FEFF 		bl	FLASH_Lock
 376              	.LVL56:
 377              		.loc 1 37 0
 378 01e2 0120     		movs	r0, #1
 379 01e4 BDE8F88F 		pop	{r3, r4, r5, r6, r7, r8, r9, sl, fp, pc}
 380              	.LVL57:
 381              	.L26:
 382              		.loc 1 29 0
 383 01e8 0020     		movs	r0, #0
 384              		.loc 1 54 0
 385 01ea BDE8F88F 		pop	{r3, r4, r5, r6, r7, r8, r9, sl, fp, pc}
 386              	.L56:
 387 01ee 00BF     		.align	2
 388              	.L55:
 389 01f0 00500008 		.word	134238208
 390 01f4 04500008 		.word	134238212
 391              		.cfi_endproc
 392              	.LFE55:
 393              		.size	saveConf, .-saveConf
 394 01f8 AFF30080 		.section	.text.loadConf,"ax",%progbits
 394      AFF30080 
ARM GAS  /tmp/ccsAiFpk.s 			page 8


 395              		.align	2
 396              		.p2align 4,,15
 397              		.global	loadConf
 398              		.thumb
 399              		.thumb_func
 400              		.type	loadConf, %function
 401              	loadConf:
 402              	.LFB56:
 403              		.loc 1 57 0
 404              		.cfi_startproc
 405              		@ args = 0, pretend = 0, frame = 0
 406              		@ frame_needed = 0, uses_anonymous_args = 0
 407              		@ link register save eliminated.
 408              	.LVL58:
 409              		.loc 1 59 0
 410 0000 8000     		lsls	r0, r0, #2
 411              	.LVL59:
 412              	.LBB8:
 413              	.LBB10:
 414              		.loc 1 71 0
 415 0002 0028     		cmp	r0, #0
 416              	.LBE10:
 417              	.LBE8:
 418              		.loc 1 57 0
 419 0004 30B4     		push	{r4, r5}
 420              	.LCFI1:
 421              		.cfi_def_cfa_offset 8
 422              	.LBB13:
 423              	.LBB11:
 424              		.loc 1 71 0
 425 0006 6DDD     		ble	.L77
 426              		.cfi_offset 5, -4
 427              		.cfi_offset 4, -8
 428              		.loc 1 56 0
 429 0008 374C     		ldr	r4, .L87
 430              	.LBE11:
 431              	.LBE13:
 432              		.loc 1 70 0
 433 000a 0021     		movs	r1, #0
 434              		.loc 1 56 0
 435 000c 2246     		mov	r2, r4
 436              	.LBB14:
 437              	.LBB9:
 438              		.loc 1 77 0
 439 000e 6FF07303 		mvn	r3, #115
 440              		.loc 1 56 0
 441 0012 0419     		adds	r4, r0, r4
 442 0014 21E0     		b	.L75
 443              	.LVL60:
 444              	.L80:
 445              		.loc 1 79 0
 446 0016 4908     		lsrs	r1, r1, #1
 447              	.LVL61:
 448              		.loc 1 76 0
 449 0018 11F0010F 		tst	r1, #1
 450 001c 29D1     		bne	.L61
 451              	.LVL62:
ARM GAS  /tmp/ccsAiFpk.s 			page 9


 452              	.L81:
 453              		.loc 1 79 0
 454 001e 4908     		lsrs	r1, r1, #1
 455              	.LVL63:
 456              		.loc 1 76 0
 457 0020 11F0010F 		tst	r1, #1
 458 0024 2CD1     		bne	.L63
 459              	.LVL64:
 460              	.L82:
 461              		.loc 1 79 0
 462 0026 4908     		lsrs	r1, r1, #1
 463              	.LVL65:
 464              		.loc 1 76 0
 465 0028 11F0010F 		tst	r1, #1
 466 002c 2ED1     		bne	.L65
 467              	.LVL66:
 468              	.L83:
 469              		.loc 1 79 0
 470 002e 4908     		lsrs	r1, r1, #1
 471              	.LVL67:
 472              		.loc 1 76 0
 473 0030 11F0010F 		tst	r1, #1
 474 0034 31D1     		bne	.L67
 475              	.LVL68:
 476              	.L84:
 477              		.loc 1 79 0
 478 0036 4908     		lsrs	r1, r1, #1
 479              	.LVL69:
 480              		.loc 1 76 0
 481 0038 11F0010F 		tst	r1, #1
 482 003c 33D1     		bne	.L69
 483              	.LVL70:
 484              	.L85:
 485              		.loc 1 79 0
 486 003e 4908     		lsrs	r1, r1, #1
 487              	.LVL71:
 488              		.loc 1 76 0
 489 0040 11F0010F 		tst	r1, #1
 490 0044 36D1     		bne	.L71
 491              	.LVL72:
 492              	.L86:
 493              		.loc 1 79 0
 494 0046 4908     		lsrs	r1, r1, #1
 495              	.LVL73:
 496              		.loc 1 76 0
 497 0048 11F0010F 		tst	r1, #1
 498              		.loc 1 77 0
 499 004c 1ABF     		itte	ne
 500 004e 83EA5101 		eorne	r1, r3, r1, lsr #1
 501              	.LVL74:
 502 0052 C9B2     		uxtbne	r1, r1
 503              	.LVL75:
 504              		.loc 1 79 0
 505 0054 4908     		lsreq	r1, r1, #1
 506              	.LVL76:
 507              		.loc 1 71 0
 508 0056 A242     		cmp	r2, r4
ARM GAS  /tmp/ccsAiFpk.s 			page 10


 509 0058 38D0     		beq	.L58
 510              	.LVL77:
 511              	.L75:
 512              		.loc 1 73 0
 513 005a 12F8015F 		ldrb	r5, [r2, #1]!	@ zero_extendqisi2
 514 005e 6940     		eors	r1, r1, r5
 515              	.LVL78:
 516              		.loc 1 76 0
 517 0060 11F0010F 		tst	r1, #1
 518 0064 D7D0     		beq	.L80
 519              		.loc 1 77 0
 520 0066 83EA5101 		eor	r1, r3, r1, lsr #1
 521              	.LVL79:
 522 006a C9B2     		uxtb	r1, r1
 523              	.LVL80:
 524              		.loc 1 76 0
 525 006c 11F0010F 		tst	r1, #1
 526 0070 D5D0     		beq	.L81
 527              	.LVL81:
 528              	.L61:
 529              		.loc 1 77 0
 530 0072 83EA510C 		eor	ip, r3, r1, lsr #1
 531 0076 5FFA8CF1 		uxtb	r1, ip
 532              	.LVL82:
 533              		.loc 1 76 0
 534 007a 11F0010F 		tst	r1, #1
 535 007e D2D0     		beq	.L82
 536              	.LVL83:
 537              	.L63:
 538              		.loc 1 77 0
 539 0080 83EA5101 		eor	r1, r3, r1, lsr #1
 540 0084 C9B2     		uxtb	r1, r1
 541              	.LVL84:
 542              		.loc 1 76 0
 543 0086 11F0010F 		tst	r1, #1
 544 008a D0D0     		beq	.L83
 545              	.LVL85:
 546              	.L65:
 547              		.loc 1 77 0
 548 008c 83EA510C 		eor	ip, r3, r1, lsr #1
 549 0090 5FFA8CF1 		uxtb	r1, ip
 550              	.LVL86:
 551              		.loc 1 76 0
 552 0094 11F0010F 		tst	r1, #1
 553 0098 CDD0     		beq	.L84
 554              	.LVL87:
 555              	.L67:
 556              		.loc 1 77 0
 557 009a 83EA5101 		eor	r1, r3, r1, lsr #1
 558 009e C9B2     		uxtb	r1, r1
 559              	.LVL88:
 560              		.loc 1 76 0
 561 00a0 11F0010F 		tst	r1, #1
 562 00a4 CBD0     		beq	.L85
 563              	.LVL89:
 564              	.L69:
 565              		.loc 1 77 0
ARM GAS  /tmp/ccsAiFpk.s 			page 11


 566 00a6 83EA510C 		eor	ip, r3, r1, lsr #1
 567 00aa 5FFA8CF1 		uxtb	r1, ip
 568              	.LVL90:
 569              		.loc 1 76 0
 570 00ae 11F0010F 		tst	r1, #1
 571 00b2 C8D0     		beq	.L86
 572              	.LVL91:
 573              	.L71:
 574              		.loc 1 77 0
 575 00b4 83EA5101 		eor	r1, r3, r1, lsr #1
 576 00b8 C9B2     		uxtb	r1, r1
 577              	.LVL92:
 578              		.loc 1 76 0
 579 00ba 11F0010F 		tst	r1, #1
 580              		.loc 1 77 0
 581 00be 1ABF     		itte	ne
 582 00c0 83EA5101 		eorne	r1, r3, r1, lsr #1
 583              	.LVL93:
 584 00c4 C9B2     		uxtbne	r1, r1
 585              	.LVL94:
 586              		.loc 1 79 0
 587 00c6 4908     		lsreq	r1, r1, #1
 588              	.LVL95:
 589              		.loc 1 71 0
 590 00c8 A242     		cmp	r2, r4
 591 00ca C6D1     		bne	.L75
 592              	.LVL96:
 593              	.L58:
 594              	.LBE9:
 595              	.LBE14:
 596              		.loc 1 60 0
 597 00cc 00F1006C 		add	ip, r0, #134217728
 598 00d0 0CF5A042 		add	r2, ip, #20480
 599              		.loc 1 61 0
 600 00d4 1078     		ldrb	r0, [r2, #0]	@ zero_extendqisi2
 601              	.LVL97:
 602              		.loc 1 62 0
 603 00d6 054B     		ldr	r3, .L87+4
 604              		.loc 1 64 0
 605 00d8 8842     		cmp	r0, r1
 606 00da 0CBF     		ite	eq
 607 00dc 1846     		moveq	r0, r3
 608 00de 0020     		movne	r0, #0
 609 00e0 30BC     		pop	{r4, r5}
 610 00e2 7047     		bx	lr
 611              	.LVL98:
 612              	.L77:
 613              	.LBB15:
 614              	.LBB12:
 615              		.loc 1 70 0
 616 00e4 0021     		movs	r1, #0
 617 00e6 F1E7     		b	.L58
 618              	.L88:
 619              		.align	2
 620              	.L87:
 621 00e8 FF4F0008 		.word	134238207
 622 00ec 00500008 		.word	134238208
ARM GAS  /tmp/ccsAiFpk.s 			page 12


 623              	.LBE12:
 624              	.LBE15:
 625              		.cfi_endproc
 626              	.LFE56:
 627              		.size	loadConf, .-loadConf
 628              		.text
 629              	.Letext0:
 630              		.section	.debug_loc,"",%progbits
 631              	.Ldebug_loc0:
 632              	.LLST0:
 633 0000 00000000 		.4byte	.LFB55
 634 0004 04000000 		.4byte	.LCFI0
 635 0008 0200     		.2byte	0x2
 636 000a 7D       		.byte	0x7d
 637 000b 00       		.sleb128 0
 638 000c 04000000 		.4byte	.LCFI0
 639 0010 F8010000 		.4byte	.LFE55
 640 0014 0200     		.2byte	0x2
 641 0016 7D       		.byte	0x7d
 642 0017 28       		.sleb128 40
 643 0018 00000000 		.4byte	0x0
 644 001c 00000000 		.4byte	0x0
 645              	.LLST1:
 646 0020 00000000 		.4byte	.LVL0
 647 0024 2A000000 		.4byte	.LVL2
 648 0028 0100     		.2byte	0x1
 649 002a 50       		.byte	0x50
 650 002b 2A000000 		.4byte	.LVL2
 651 002f 94000000 		.4byte	.LVL11
 652 0033 0100     		.2byte	0x1
 653 0035 55       		.byte	0x55
 654 0036 94000000 		.4byte	.LVL11
 655 003a 9C000000 		.4byte	.LVL12
 656 003e 0100     		.2byte	0x1
 657 0040 5A       		.byte	0x5a
 658 0041 74010000 		.4byte	.LVL51
 659 0045 F8010000 		.4byte	.LFE55
 660 0049 0100     		.2byte	0x1
 661 004b 55       		.byte	0x55
 662 004c 00000000 		.4byte	0x0
 663 0050 00000000 		.4byte	0x0
 664              	.LLST2:
 665 0054 00000000 		.4byte	.LVL0
 666 0058 12000000 		.4byte	.LVL1
 667 005c 0100     		.2byte	0x1
 668 005e 51       		.byte	0x51
 669 005f 12000000 		.4byte	.LVL1
 670 0063 9C000000 		.4byte	.LVL12
 671 0067 0100     		.2byte	0x1
 672 0069 54       		.byte	0x54
 673 006a 74010000 		.4byte	.LVL51
 674 006e F8010000 		.4byte	.LFE55
 675 0072 0100     		.2byte	0x1
 676 0074 54       		.byte	0x54
 677 0075 00000000 		.4byte	0x0
 678 0079 00000000 		.4byte	0x0
 679              	.LLST3:
ARM GAS  /tmp/ccsAiFpk.s 			page 13


 680 007d 00000000 		.4byte	.LVL0
 681 0081 2E000000 		.4byte	.LVL3
 682 0085 0200     		.2byte	0x2
 683 0087 30       		.byte	0x30
 684 0088 9F       		.byte	0x9f
 685 0089 2E000000 		.4byte	.LVL3
 686 008d 34000000 		.4byte	.LVL4
 687 0091 0100     		.2byte	0x1
 688 0093 51       		.byte	0x51
 689 0094 84010000 		.4byte	.LVL52
 690 0098 90010000 		.4byte	.LVL53
 691 009c 0100     		.2byte	0x1
 692 009e 51       		.byte	0x51
 693 009f E8010000 		.4byte	.LVL57
 694 00a3 F8010000 		.4byte	.LFE55
 695 00a7 0200     		.2byte	0x2
 696 00a9 30       		.byte	0x30
 697 00aa 9F       		.byte	0x9f
 698 00ab 00000000 		.4byte	0x0
 699 00af 00000000 		.4byte	0x0
 700              	.LLST4:
 701 00b3 00000000 		.4byte	.LVL0
 702 00b7 34000000 		.4byte	.LVL4
 703 00bb 0200     		.2byte	0x2
 704 00bd 31       		.byte	0x31
 705 00be 9F       		.byte	0x9f
 706 00bf 34000000 		.4byte	.LVL4
 707 00c3 74010000 		.4byte	.LVL51
 708 00c7 0200     		.2byte	0x2
 709 00c9 30       		.byte	0x30
 710 00ca 9F       		.byte	0x9f
 711 00cb 74010000 		.4byte	.LVL51
 712 00cf A4010000 		.4byte	.LVL54
 713 00d3 0200     		.2byte	0x2
 714 00d5 31       		.byte	0x31
 715 00d6 9F       		.byte	0x9f
 716 00d7 A4010000 		.4byte	.LVL54
 717 00db E8010000 		.4byte	.LVL57
 718 00df 0200     		.2byte	0x2
 719 00e1 30       		.byte	0x30
 720 00e2 9F       		.byte	0x9f
 721 00e3 E8010000 		.4byte	.LVL57
 722 00e7 F8010000 		.4byte	.LFE55
 723 00eb 0200     		.2byte	0x2
 724 00ed 31       		.byte	0x31
 725 00ee 9F       		.byte	0x9f
 726 00ef 00000000 		.4byte	0x0
 727 00f3 00000000 		.4byte	0x0
 728              	.LLST5:
 729 00f7 38000000 		.4byte	.LVL5
 730 00fb 74010000 		.4byte	.LVL51
 731 00ff 0600     		.2byte	0x6
 732 0101 0C       		.byte	0xc
 733 0102 00500008 		.4byte	0x8005000
 734 0106 9F       		.byte	0x9f
 735 0107 A4010000 		.4byte	.LVL54
 736 010b E8010000 		.4byte	.LVL57
ARM GAS  /tmp/ccsAiFpk.s 			page 14


 737 010f 0600     		.2byte	0x6
 738 0111 0C       		.byte	0xc
 739 0112 00500008 		.4byte	0x8005000
 740 0116 9F       		.byte	0x9f
 741 0117 00000000 		.4byte	0x0
 742 011b 00000000 		.4byte	0x0
 743              	.LLST6:
 744 011f 3E000000 		.4byte	.LVL6
 745 0123 48000000 		.4byte	.LVL7
 746 0127 0100     		.2byte	0x1
 747 0129 50       		.byte	0x50
 748 012a 50000000 		.4byte	.LVL8
 749 012e 72000000 		.4byte	.LVL9
 750 0132 0100     		.2byte	0x1
 751 0134 50       		.byte	0x50
 752 0135 64010000 		.4byte	.LVL49
 753 0139 67010000 		.4byte	.LVL50-1
 754 013d 0100     		.2byte	0x1
 755 013f 50       		.byte	0x50
 756 0140 67010000 		.4byte	.LVL50-1
 757 0144 74010000 		.4byte	.LVL51
 758 0148 0100     		.2byte	0x1
 759 014a 54       		.byte	0x54
 760 014b DE010000 		.4byte	.LVL55
 761 014f E1010000 		.4byte	.LVL56-1
 762 0153 0100     		.2byte	0x1
 763 0155 50       		.byte	0x50
 764 0156 00000000 		.4byte	0x0
 765 015a 00000000 		.4byte	0x0
 766              	.LLST7:
 767 015e 56010000 		.4byte	.LVL47
 768 0162 61010000 		.4byte	.LVL48-1
 769 0166 0100     		.2byte	0x1
 770 0168 51       		.byte	0x51
 771 0169 00000000 		.4byte	0x0
 772 016d 00000000 		.4byte	0x0
 773              	.LLST8:
 774 0171 8E000000 		.4byte	.LVL10
 775 0175 74010000 		.4byte	.LVL51
 776 0179 0300     		.2byte	0x3
 777 017b 09       		.byte	0x9
 778 017c 8C       		.byte	0x8c
 779 017d 9F       		.byte	0x9f
 780 017e 00000000 		.4byte	0x0
 781 0182 00000000 		.4byte	0x0
 782              	.LLST9:
 783 0186 8E000000 		.4byte	.LVL10
 784 018a 9C000000 		.4byte	.LVL12
 785 018e 0200     		.2byte	0x2
 786 0190 30       		.byte	0x30
 787 0191 9F       		.byte	0x9f
 788 0192 00000000 		.4byte	0x0
 789 0196 00000000 		.4byte	0x0
 790              	.LLST10:
 791 019a 9C000000 		.4byte	.LVL12
 792 019e 9E000000 		.4byte	.LVL13
 793 01a2 0200     		.2byte	0x2
ARM GAS  /tmp/ccsAiFpk.s 			page 15


 794 01a4 30       		.byte	0x30
 795 01a5 9F       		.byte	0x9f
 796 01a6 9E000000 		.4byte	.LVL13
 797 01aa A6000000 		.4byte	.LVL15
 798 01ae 0200     		.2byte	0x2
 799 01b0 31       		.byte	0x31
 800 01b1 9F       		.byte	0x9f
 801 01b2 A6000000 		.4byte	.LVL15
 802 01b6 AC000000 		.4byte	.LVL16
 803 01ba 0200     		.2byte	0x2
 804 01bc 32       		.byte	0x32
 805 01bd 9F       		.byte	0x9f
 806 01be AE000000 		.4byte	.LVL17
 807 01c2 B4000000 		.4byte	.LVL18
 808 01c6 0200     		.2byte	0x2
 809 01c8 33       		.byte	0x33
 810 01c9 9F       		.byte	0x9f
 811 01ca CE000000 		.4byte	.LVL25
 812 01ce DC000000 		.4byte	.LVL28
 813 01d2 0200     		.2byte	0x2
 814 01d4 37       		.byte	0x37
 815 01d5 9F       		.byte	0x9f
 816 01d6 DC000000 		.4byte	.LVL28
 817 01da E0000000 		.4byte	.LVL29
 818 01de 0200     		.2byte	0x2
 819 01e0 38       		.byte	0x38
 820 01e1 9F       		.byte	0x9f
 821 01e2 E8000000 		.4byte	.LVL30
 822 01e6 F6000000 		.4byte	.LVL31
 823 01ea 0200     		.2byte	0x2
 824 01ec 30       		.byte	0x30
 825 01ed 9F       		.byte	0x9f
 826 01ee F6000000 		.4byte	.LVL31
 827 01f2 04010000 		.4byte	.LVL33
 828 01f6 0200     		.2byte	0x2
 829 01f8 31       		.byte	0x31
 830 01f9 9F       		.byte	0x9f
 831 01fa 04010000 		.4byte	.LVL33
 832 01fe 0A010000 		.4byte	.LVL34
 833 0202 0200     		.2byte	0x2
 834 0204 32       		.byte	0x32
 835 0205 9F       		.byte	0x9f
 836 0206 10010000 		.4byte	.LVL35
 837 020a 16010000 		.4byte	.LVL36
 838 020e 0200     		.2byte	0x2
 839 0210 33       		.byte	0x33
 840 0211 9F       		.byte	0x9f
 841 0212 44010000 		.4byte	.LVL43
 842 0216 52010000 		.4byte	.LVL46
 843 021a 0200     		.2byte	0x2
 844 021c 37       		.byte	0x37
 845 021d 9F       		.byte	0x9f
 846 021e 52010000 		.4byte	.LVL46
 847 0222 74010000 		.4byte	.LVL51
 848 0226 0200     		.2byte	0x2
 849 0228 38       		.byte	0x38
 850 0229 9F       		.byte	0x9f
ARM GAS  /tmp/ccsAiFpk.s 			page 16


 851 022a 00000000 		.4byte	0x0
 852 022e 00000000 		.4byte	0x0
 853              	.LLST11:
 854 0232 8E000000 		.4byte	.LVL10
 855 0236 9C000000 		.4byte	.LVL12
 856 023a 0200     		.2byte	0x2
 857 023c 30       		.byte	0x30
 858 023d 9F       		.byte	0x9f
 859 023e 9C000000 		.4byte	.LVL12
 860 0242 9E000000 		.4byte	.LVL13
 861 0246 0100     		.2byte	0x1
 862 0248 52       		.byte	0x52
 863 0249 9E000000 		.4byte	.LVL13
 864 024d A4000000 		.4byte	.LVL14
 865 0251 0100     		.2byte	0x1
 866 0253 52       		.byte	0x52
 867 0254 A6000000 		.4byte	.LVL15
 868 0258 AC000000 		.4byte	.LVL16
 869 025c 0100     		.2byte	0x1
 870 025e 52       		.byte	0x52
 871 025f AE000000 		.4byte	.LVL17
 872 0263 B4000000 		.4byte	.LVL18
 873 0267 0100     		.2byte	0x1
 874 0269 52       		.byte	0x52
 875 026a B6000000 		.4byte	.LVL19
 876 026e BC000000 		.4byte	.LVL20
 877 0272 0100     		.2byte	0x1
 878 0274 52       		.byte	0x52
 879 0275 BE000000 		.4byte	.LVL21
 880 0279 C4000000 		.4byte	.LVL22
 881 027d 0100     		.2byte	0x1
 882 027f 52       		.byte	0x52
 883 0280 C6000000 		.4byte	.LVL23
 884 0284 CC000000 		.4byte	.LVL24
 885 0288 0100     		.2byte	0x1
 886 028a 52       		.byte	0x52
 887 028b CE000000 		.4byte	.LVL25
 888 028f D8000000 		.4byte	.LVL26
 889 0293 0100     		.2byte	0x1
 890 0295 52       		.byte	0x52
 891 0296 DA000000 		.4byte	.LVL27
 892 029a DC000000 		.4byte	.LVL28
 893 029e 0100     		.2byte	0x1
 894 02a0 51       		.byte	0x51
 895 02a1 DC000000 		.4byte	.LVL28
 896 02a5 E0000000 		.4byte	.LVL29
 897 02a9 0100     		.2byte	0x1
 898 02ab 51       		.byte	0x51
 899 02ac E8000000 		.4byte	.LVL30
 900 02b0 F6000000 		.4byte	.LVL31
 901 02b4 0100     		.2byte	0x1
 902 02b6 52       		.byte	0x52
 903 02b7 F6000000 		.4byte	.LVL31
 904 02bb FC000000 		.4byte	.LVL32
 905 02bf 0100     		.2byte	0x1
 906 02c1 52       		.byte	0x52
 907 02c2 04010000 		.4byte	.LVL33
ARM GAS  /tmp/ccsAiFpk.s 			page 17


 908 02c6 0A010000 		.4byte	.LVL34
 909 02ca 0100     		.2byte	0x1
 910 02cc 52       		.byte	0x52
 911 02cd 10010000 		.4byte	.LVL35
 912 02d1 16010000 		.4byte	.LVL36
 913 02d5 0100     		.2byte	0x1
 914 02d7 52       		.byte	0x52
 915 02d8 1C010000 		.4byte	.LVL37
 916 02dc 22010000 		.4byte	.LVL38
 917 02e0 0100     		.2byte	0x1
 918 02e2 52       		.byte	0x52
 919 02e3 2A010000 		.4byte	.LVL39
 920 02e7 30010000 		.4byte	.LVL40
 921 02eb 0100     		.2byte	0x1
 922 02ed 52       		.byte	0x52
 923 02ee 38010000 		.4byte	.LVL41
 924 02f2 3E010000 		.4byte	.LVL42
 925 02f6 0100     		.2byte	0x1
 926 02f8 52       		.byte	0x52
 927 02f9 44010000 		.4byte	.LVL43
 928 02fd 4E010000 		.4byte	.LVL44
 929 0301 0100     		.2byte	0x1
 930 0303 52       		.byte	0x52
 931 0304 50010000 		.4byte	.LVL45
 932 0308 52010000 		.4byte	.LVL46
 933 030c 0100     		.2byte	0x1
 934 030e 51       		.byte	0x51
 935 030f 52010000 		.4byte	.LVL46
 936 0313 56010000 		.4byte	.LVL47
 937 0317 0100     		.2byte	0x1
 938 0319 51       		.byte	0x51
 939 031a 00000000 		.4byte	0x0
 940 031e 00000000 		.4byte	0x0
 941              	.LLST12:
 942 0322 00000000 		.4byte	.LFB56
 943 0326 06000000 		.4byte	.LCFI1
 944 032a 0200     		.2byte	0x2
 945 032c 7D       		.byte	0x7d
 946 032d 00       		.sleb128 0
 947 032e 06000000 		.4byte	.LCFI1
 948 0332 F0000000 		.4byte	.LFE56
 949 0336 0200     		.2byte	0x2
 950 0338 7D       		.byte	0x7d
 951 0339 08       		.sleb128 8
 952 033a 00000000 		.4byte	0x0
 953 033e 00000000 		.4byte	0x0
 954              	.LLST13:
 955 0342 00000000 		.4byte	.LVL58
 956 0346 02000000 		.4byte	.LVL59
 957 034a 0100     		.2byte	0x1
 958 034c 50       		.byte	0x50
 959 034d 00000000 		.4byte	0x0
 960 0351 00000000 		.4byte	0x0
 961              	.LLST14:
 962 0355 02000000 		.4byte	.LVL59
 963 0359 D6000000 		.4byte	.LVL97
 964 035d 0100     		.2byte	0x1
ARM GAS  /tmp/ccsAiFpk.s 			page 18


 965 035f 50       		.byte	0x50
 966 0360 D6000000 		.4byte	.LVL97
 967 0364 E4000000 		.4byte	.LVL98
 968 0368 0600     		.2byte	0x6
 969 036a 7C       		.byte	0x7c
 970 036b 80808040 		.sleb128 -134217728
 971 036f 9F       		.byte	0x9f
 972 0370 E4000000 		.4byte	.LVL98
 973 0374 F0000000 		.4byte	.LFE56
 974 0378 0100     		.2byte	0x1
 975 037a 50       		.byte	0x50
 976 037b 00000000 		.4byte	0x0
 977 037f 00000000 		.4byte	0x0
 978              	.LLST15:
 979 0383 02000000 		.4byte	.LVL59
 980 0387 16000000 		.4byte	.LVL60
 981 038b 0200     		.2byte	0x2
 982 038d 30       		.byte	0x30
 983 038e 9F       		.byte	0x9f
 984 038f E4000000 		.4byte	.LVL98
 985 0393 F0000000 		.4byte	.LFE56
 986 0397 0200     		.2byte	0x2
 987 0399 30       		.byte	0x30
 988 039a 9F       		.byte	0x9f
 989 039b 00000000 		.4byte	0x0
 990 039f 00000000 		.4byte	0x0
 991              	.LLST16:
 992 03a3 16000000 		.4byte	.LVL60
 993 03a7 18000000 		.4byte	.LVL61
 994 03ab 0200     		.2byte	0x2
 995 03ad 30       		.byte	0x30
 996 03ae 9F       		.byte	0x9f
 997 03af 18000000 		.4byte	.LVL61
 998 03b3 20000000 		.4byte	.LVL63
 999 03b7 0200     		.2byte	0x2
 1000 03b9 31       		.byte	0x31
 1001 03ba 9F       		.byte	0x9f
 1002 03bb 20000000 		.4byte	.LVL63
 1003 03bf 26000000 		.4byte	.LVL64
 1004 03c3 0200     		.2byte	0x2
 1005 03c5 32       		.byte	0x32
 1006 03c6 9F       		.byte	0x9f
 1007 03c7 28000000 		.4byte	.LVL65
 1008 03cb 2E000000 		.4byte	.LVL66
 1009 03cf 0200     		.2byte	0x2
 1010 03d1 33       		.byte	0x33
 1011 03d2 9F       		.byte	0x9f
 1012 03d3 48000000 		.4byte	.LVL73
 1013 03d7 56000000 		.4byte	.LVL76
 1014 03db 0200     		.2byte	0x2
 1015 03dd 37       		.byte	0x37
 1016 03de 9F       		.byte	0x9f
 1017 03df 56000000 		.4byte	.LVL76
 1018 03e3 5A000000 		.4byte	.LVL77
 1019 03e7 0200     		.2byte	0x2
 1020 03e9 38       		.byte	0x38
 1021 03ea 9F       		.byte	0x9f
ARM GAS  /tmp/ccsAiFpk.s 			page 19


 1022 03eb 60000000 		.4byte	.LVL78
 1023 03ef 6C000000 		.4byte	.LVL80
 1024 03f3 0200     		.2byte	0x2
 1025 03f5 30       		.byte	0x30
 1026 03f6 9F       		.byte	0x9f
 1027 03f7 6C000000 		.4byte	.LVL80
 1028 03fb 7A000000 		.4byte	.LVL82
 1029 03ff 0200     		.2byte	0x2
 1030 0401 31       		.byte	0x31
 1031 0402 9F       		.byte	0x9f
 1032 0403 7A000000 		.4byte	.LVL82
 1033 0407 80000000 		.4byte	.LVL83
 1034 040b 0200     		.2byte	0x2
 1035 040d 32       		.byte	0x32
 1036 040e 9F       		.byte	0x9f
 1037 040f 86000000 		.4byte	.LVL84
 1038 0413 8C000000 		.4byte	.LVL85
 1039 0417 0200     		.2byte	0x2
 1040 0419 33       		.byte	0x33
 1041 041a 9F       		.byte	0x9f
 1042 041b BA000000 		.4byte	.LVL92
 1043 041f C8000000 		.4byte	.LVL95
 1044 0423 0200     		.2byte	0x2
 1045 0425 37       		.byte	0x37
 1046 0426 9F       		.byte	0x9f
 1047 0427 C8000000 		.4byte	.LVL95
 1048 042b CC000000 		.4byte	.LVL96
 1049 042f 0200     		.2byte	0x2
 1050 0431 38       		.byte	0x38
 1051 0432 9F       		.byte	0x9f
 1052 0433 00000000 		.4byte	0x0
 1053 0437 00000000 		.4byte	0x0
 1054              	.LLST17:
 1055 043b 02000000 		.4byte	.LVL59
 1056 043f 16000000 		.4byte	.LVL60
 1057 0443 0200     		.2byte	0x2
 1058 0445 30       		.byte	0x30
 1059 0446 9F       		.byte	0x9f
 1060 0447 16000000 		.4byte	.LVL60
 1061 044b 18000000 		.4byte	.LVL61
 1062 044f 0100     		.2byte	0x1
 1063 0451 51       		.byte	0x51
 1064 0452 18000000 		.4byte	.LVL61
 1065 0456 1E000000 		.4byte	.LVL62
 1066 045a 0100     		.2byte	0x1
 1067 045c 51       		.byte	0x51
 1068 045d 20000000 		.4byte	.LVL63
 1069 0461 26000000 		.4byte	.LVL64
 1070 0465 0100     		.2byte	0x1
 1071 0467 51       		.byte	0x51
 1072 0468 28000000 		.4byte	.LVL65
 1073 046c 2E000000 		.4byte	.LVL66
 1074 0470 0100     		.2byte	0x1
 1075 0472 51       		.byte	0x51
 1076 0473 30000000 		.4byte	.LVL67
 1077 0477 36000000 		.4byte	.LVL68
 1078 047b 0100     		.2byte	0x1
ARM GAS  /tmp/ccsAiFpk.s 			page 20


 1079 047d 51       		.byte	0x51
 1080 047e 38000000 		.4byte	.LVL69
 1081 0482 3E000000 		.4byte	.LVL70
 1082 0486 0100     		.2byte	0x1
 1083 0488 51       		.byte	0x51
 1084 0489 40000000 		.4byte	.LVL71
 1085 048d 46000000 		.4byte	.LVL72
 1086 0491 0100     		.2byte	0x1
 1087 0493 51       		.byte	0x51
 1088 0494 48000000 		.4byte	.LVL73
 1089 0498 52000000 		.4byte	.LVL74
 1090 049c 0100     		.2byte	0x1
 1091 049e 51       		.byte	0x51
 1092 049f 54000000 		.4byte	.LVL75
 1093 04a3 56000000 		.4byte	.LVL76
 1094 04a7 0100     		.2byte	0x1
 1095 04a9 51       		.byte	0x51
 1096 04aa 56000000 		.4byte	.LVL76
 1097 04ae 5A000000 		.4byte	.LVL77
 1098 04b2 0100     		.2byte	0x1
 1099 04b4 51       		.byte	0x51
 1100 04b5 60000000 		.4byte	.LVL78
 1101 04b9 6A000000 		.4byte	.LVL79
 1102 04bd 0100     		.2byte	0x1
 1103 04bf 51       		.byte	0x51
 1104 04c0 6C000000 		.4byte	.LVL80
 1105 04c4 72000000 		.4byte	.LVL81
 1106 04c8 0100     		.2byte	0x1
 1107 04ca 51       		.byte	0x51
 1108 04cb 7A000000 		.4byte	.LVL82
 1109 04cf 80000000 		.4byte	.LVL83
 1110 04d3 0100     		.2byte	0x1
 1111 04d5 51       		.byte	0x51
 1112 04d6 86000000 		.4byte	.LVL84
 1113 04da 8C000000 		.4byte	.LVL85
 1114 04de 0100     		.2byte	0x1
 1115 04e0 51       		.byte	0x51
 1116 04e1 94000000 		.4byte	.LVL86
 1117 04e5 9A000000 		.4byte	.LVL87
 1118 04e9 0100     		.2byte	0x1
 1119 04eb 51       		.byte	0x51
 1120 04ec A0000000 		.4byte	.LVL88
 1121 04f0 A6000000 		.4byte	.LVL89
 1122 04f4 0100     		.2byte	0x1
 1123 04f6 51       		.byte	0x51
 1124 04f7 AE000000 		.4byte	.LVL90
 1125 04fb B4000000 		.4byte	.LVL91
 1126 04ff 0100     		.2byte	0x1
 1127 0501 51       		.byte	0x51
 1128 0502 BA000000 		.4byte	.LVL92
 1129 0506 C4000000 		.4byte	.LVL93
 1130 050a 0100     		.2byte	0x1
 1131 050c 51       		.byte	0x51
 1132 050d C6000000 		.4byte	.LVL94
 1133 0511 C8000000 		.4byte	.LVL95
 1134 0515 0100     		.2byte	0x1
 1135 0517 51       		.byte	0x51
ARM GAS  /tmp/ccsAiFpk.s 			page 21


 1136 0518 C8000000 		.4byte	.LVL95
 1137 051c CC000000 		.4byte	.LVL96
 1138 0520 0100     		.2byte	0x1
 1139 0522 51       		.byte	0x51
 1140 0523 E4000000 		.4byte	.LVL98
 1141 0527 F0000000 		.4byte	.LFE56
 1142 052b 0200     		.2byte	0x2
 1143 052d 30       		.byte	0x30
 1144 052e 9F       		.byte	0x9f
 1145 052f 00000000 		.4byte	0x0
 1146 0533 00000000 		.4byte	0x0
 1147              		.file 2 "/home/z80/programs/code-sourcery/2011.03-42/bin/../lib/gcc/arm-none-eabi/4.5.2/../../../.
 1148              		.file 3 "stm32f10x_flash.h"
 1149              		.file 4 "../chibios/os/ports/common/ARMCMx/CMSIS/include/core_cm3.h"
 1150              		.section	.debug_info
 1151 0000 BF020000 		.4byte	0x2bf
 1152 0004 0200     		.2byte	0x2
 1153 0006 00000000 		.4byte	.Ldebug_abbrev0
 1154 000a 04       		.byte	0x4
 1155 000b 01       		.uleb128 0x1
 1156 000c CE000000 		.4byte	.LASF30
 1157 0010 01       		.byte	0x1
 1158 0011 3D000000 		.4byte	.LASF31
 1159 0015 5B010000 		.4byte	.LASF32
 1160 0019 00000000 		.4byte	0x0
 1161 001d 00000000 		.4byte	0x0
 1162 0021 50000000 		.4byte	.Ldebug_ranges0+0x50
 1163 0025 00000000 		.4byte	.Ldebug_line0
 1164 0029 02       		.uleb128 0x2
 1165 002a 04       		.byte	0x4
 1166 002b 05       		.byte	0x5
 1167 002c 696E7400 		.ascii	"int\000"
 1168 0030 03       		.uleb128 0x3
 1169 0031 04       		.byte	0x4
 1170 0032 07       		.byte	0x7
 1171 0033 DA000000 		.4byte	.LASF0
 1172 0037 03       		.uleb128 0x3
 1173 0038 01       		.byte	0x1
 1174 0039 06       		.byte	0x6
 1175 003a 91010000 		.4byte	.LASF1
 1176 003e 04       		.uleb128 0x4
 1177 003f F3000000 		.4byte	.LASF5
 1178 0043 02       		.byte	0x2
 1179 0044 2A       		.byte	0x2a
 1180 0045 49000000 		.4byte	0x49
 1181 0049 03       		.uleb128 0x3
 1182 004a 01       		.byte	0x1
 1183 004b 08       		.byte	0x8
 1184 004c 60000000 		.4byte	.LASF2
 1185 0050 03       		.uleb128 0x3
 1186 0051 02       		.byte	0x2
 1187 0052 05       		.byte	0x5
 1188 0053 30010000 		.4byte	.LASF3
 1189 0057 03       		.uleb128 0x3
 1190 0058 02       		.byte	0x2
 1191 0059 07       		.byte	0x7
 1192 005a 80000000 		.4byte	.LASF4
ARM GAS  /tmp/ccsAiFpk.s 			page 22


 1193 005e 04       		.uleb128 0x4
 1194 005f 0D010000 		.4byte	.LASF6
 1195 0063 02       		.byte	0x2
 1196 0064 4F       		.byte	0x4f
 1197 0065 69000000 		.4byte	0x69
 1198 0069 03       		.uleb128 0x3
 1199 006a 04       		.byte	0x4
 1200 006b 05       		.byte	0x5
 1201 006c 52010000 		.4byte	.LASF7
 1202 0070 04       		.uleb128 0x4
 1203 0071 49010000 		.4byte	.LASF8
 1204 0075 02       		.byte	0x2
 1205 0076 50       		.byte	0x50
 1206 0077 7B000000 		.4byte	0x7b
 1207 007b 03       		.uleb128 0x3
 1208 007c 04       		.byte	0x4
 1209 007d 07       		.byte	0x7
 1210 007e 6E000000 		.4byte	.LASF9
 1211 0082 03       		.uleb128 0x3
 1212 0083 08       		.byte	0x8
 1213 0084 05       		.byte	0x5
 1214 0085 15010000 		.4byte	.LASF10
 1215 0089 03       		.uleb128 0x3
 1216 008a 08       		.byte	0x8
 1217 008b 07       		.byte	0x7
 1218 008c 49000000 		.4byte	.LASF11
 1219 0090 03       		.uleb128 0x3
 1220 0091 01       		.byte	0x1
 1221 0092 08       		.byte	0x8
 1222 0093 EE000000 		.4byte	.LASF12
 1223 0097 05       		.uleb128 0x5
 1224 0098 04       		.byte	0x4
 1225 0099 3E000000 		.4byte	0x3e
 1226 009d 06       		.uleb128 0x6
 1227 009e 3E000000 		.4byte	0x3e
 1228 00a2 07       		.uleb128 0x7
 1229 00a3 5E000000 		.4byte	0x5e
 1230 00a7 08       		.uleb128 0x8
 1231 00a8 01       		.byte	0x1
 1232 00a9 03       		.byte	0x3
 1233 00aa 33       		.byte	0x33
 1234 00ab CE000000 		.4byte	0xce
 1235 00af 09       		.uleb128 0x9
 1236 00b0 25000000 		.4byte	.LASF13
 1237 00b4 01       		.sleb128 1
 1238 00b5 09       		.uleb128 0x9
 1239 00b6 BF000000 		.4byte	.LASF14
 1240 00ba 02       		.sleb128 2
 1241 00bb 09       		.uleb128 0x9
 1242 00bc 15000000 		.4byte	.LASF15
 1243 00c0 03       		.sleb128 3
 1244 00c1 09       		.uleb128 0x9
 1245 00c2 06000000 		.4byte	.LASF16
 1246 00c6 04       		.sleb128 4
 1247 00c7 09       		.uleb128 0x9
 1248 00c8 93000000 		.4byte	.LASF17
 1249 00cc 05       		.sleb128 5
ARM GAS  /tmp/ccsAiFpk.s 			page 23


 1250 00cd 00       		.byte	0x0
 1251 00ce 04       		.uleb128 0x4
 1252 00cf 23010000 		.4byte	.LASF18
 1253 00d3 03       		.byte	0x3
 1254 00d4 39       		.byte	0x39
 1255 00d5 A7000000 		.4byte	0xa7
 1256 00d9 0A       		.uleb128 0xa
 1257 00da 00010000 		.4byte	.LASF33
 1258 00de 01       		.byte	0x1
 1259 00df 42       		.byte	0x42
 1260 00e0 01       		.byte	0x1
 1261 00e1 3E000000 		.4byte	0x3e
 1262 00e5 01       		.byte	0x1
 1263 00e6 29010000 		.4byte	0x129
 1264 00ea 0B       		.uleb128 0xb
 1265 00eb 38000000 		.4byte	.LASF19
 1266 00ef 01       		.byte	0x1
 1267 00f0 42       		.byte	0x42
 1268 00f1 97000000 		.4byte	0x97
 1269 00f5 0C       		.uleb128 0xc
 1270 00f6 636E7400 		.ascii	"cnt\000"
 1271 00fa 01       		.byte	0x1
 1272 00fb 42       		.byte	0x42
 1273 00fc 29000000 		.4byte	0x29
 1274 0100 0D       		.uleb128 0xd
 1275 0101 FB000000 		.4byte	.LASF20
 1276 0105 01       		.byte	0x1
 1277 0106 44       		.byte	0x44
 1278 0107 9D000000 		.4byte	0x9d
 1279 010b 0E       		.uleb128 0xe
 1280 010c 6900     		.ascii	"i\000"
 1281 010e 01       		.byte	0x1
 1282 010f 45       		.byte	0x45
 1283 0110 29000000 		.4byte	0x29
 1284 0114 0E       		.uleb128 0xe
 1285 0115 6A00     		.ascii	"j\000"
 1286 0117 01       		.byte	0x1
 1287 0118 45       		.byte	0x45
 1288 0119 29000000 		.4byte	0x29
 1289 011d 0E       		.uleb128 0xe
 1290 011e 76616C00 		.ascii	"val\000"
 1291 0122 01       		.byte	0x1
 1292 0123 46       		.byte	0x46
 1293 0124 3E000000 		.4byte	0x3e
 1294 0128 00       		.byte	0x0
 1295 0129 0F       		.uleb128 0xf
 1296 012a 01       		.byte	0x1
 1297 012b 40010000 		.4byte	.LASF25
 1298 012f 01       		.byte	0x1
 1299 0130 0D       		.byte	0xd
 1300 0131 01       		.byte	0x1
 1301 0132 3E000000 		.4byte	0x3e
 1302 0136 00000000 		.4byte	.LFB55
 1303 013a F8010000 		.4byte	.LFE55
 1304 013e 00000000 		.4byte	.LLST0
 1305 0142 04020000 		.4byte	0x204
 1306 0146 10       		.uleb128 0x10
ARM GAS  /tmp/ccsAiFpk.s 			page 24


 1307 0147 00000000 		.4byte	.LASF21
 1308 014b 01       		.byte	0x1
 1309 014c 0D       		.byte	0xd
 1310 014d 04020000 		.4byte	0x204
 1311 0151 20000000 		.4byte	.LLST1
 1312 0155 11       		.uleb128 0x11
 1313 0156 636E7400 		.ascii	"cnt\000"
 1314 015a 01       		.byte	0x1
 1315 015b 0D       		.byte	0xd
 1316 015c 29000000 		.4byte	0x29
 1317 0160 54000000 		.4byte	.LLST2
 1318 0164 12       		.uleb128 0x12
 1319 0165 3A010000 		.4byte	.LASF22
 1320 0169 01       		.byte	0x1
 1321 016a 0F       		.byte	0xf
 1322 016b 04020000 		.4byte	0x204
 1323 016f 00500008 		.4byte	0x8005000
 1324 0173 13       		.uleb128 0x13
 1325 0174 6900     		.ascii	"i\000"
 1326 0176 01       		.byte	0x1
 1327 0177 11       		.byte	0x11
 1328 0178 29000000 		.4byte	0x29
 1329 017c 7D000000 		.4byte	.LLST3
 1330 0180 14       		.uleb128 0x14
 1331 0181 AE000000 		.4byte	.LASF23
 1332 0185 01       		.byte	0x1
 1333 0186 12       		.byte	0x12
 1334 0187 3E000000 		.4byte	0x3e
 1335 018b B3000000 		.4byte	.LLST4
 1336 018f 14       		.uleb128 0x14
 1337 0190 E7000000 		.4byte	.LASF24
 1338 0194 01       		.byte	0x1
 1339 0195 20       		.byte	0x20
 1340 0196 70000000 		.4byte	0x70
 1341 019a F7000000 		.4byte	.LLST5
 1342 019e 13       		.uleb128 0x13
 1343 019f 737400   		.ascii	"st\000"
 1344 01a2 01       		.byte	0x1
 1345 01a3 21       		.byte	0x21
 1346 01a4 CE000000 		.4byte	0xce
 1347 01a8 1F010000 		.4byte	.LLST6
 1348 01ac 13       		.uleb128 0x13
 1349 01ad 63726300 		.ascii	"crc\000"
 1350 01b1 01       		.byte	0x1
 1351 01b2 30       		.byte	0x30
 1352 01b3 70000000 		.4byte	0x70
 1353 01b7 5E010000 		.4byte	.LLST7
 1354 01bb 15       		.uleb128 0x15
 1355 01bc D9000000 		.4byte	0xd9
 1356 01c0 96000000 		.4byte	.LBB6
 1357 01c4 56010000 		.4byte	.LBE6
 1358 01c8 01       		.byte	0x1
 1359 01c9 30       		.byte	0x30
 1360 01ca 16       		.uleb128 0x16
 1361 01cb F5000000 		.4byte	0xf5
 1362 01cf 16       		.uleb128 0x16
 1363 01d0 EA000000 		.4byte	0xea
ARM GAS  /tmp/ccsAiFpk.s 			page 25


 1364 01d4 17       		.uleb128 0x17
 1365 01d5 96000000 		.4byte	.LBB7
 1366 01d9 56010000 		.4byte	.LBE7
 1367 01dd 18       		.uleb128 0x18
 1368 01de 00010000 		.4byte	0x100
 1369 01e2 71010000 		.4byte	.LLST8
 1370 01e6 18       		.uleb128 0x18
 1371 01e7 0B010000 		.4byte	0x10b
 1372 01eb 86010000 		.4byte	.LLST9
 1373 01ef 18       		.uleb128 0x18
 1374 01f0 14010000 		.4byte	0x114
 1375 01f4 9A010000 		.4byte	.LLST10
 1376 01f8 18       		.uleb128 0x18
 1377 01f9 1D010000 		.4byte	0x11d
 1378 01fd 32020000 		.4byte	.LLST11
 1379 0201 00       		.byte	0x0
 1380 0202 00       		.byte	0x0
 1381 0203 00       		.byte	0x0
 1382 0204 05       		.uleb128 0x5
 1383 0205 04       		.byte	0x4
 1384 0206 70000000 		.4byte	0x70
 1385 020a 0F       		.uleb128 0xf
 1386 020b 01       		.byte	0x1
 1387 020c B6000000 		.4byte	.LASF26
 1388 0210 01       		.byte	0x1
 1389 0211 38       		.byte	0x38
 1390 0212 01       		.byte	0x1
 1391 0213 04020000 		.4byte	0x204
 1392 0217 00000000 		.4byte	.LFB56
 1393 021b F0000000 		.4byte	.LFE56
 1394 021f 22030000 		.4byte	.LLST12
 1395 0223 A6020000 		.4byte	0x2a6
 1396 0227 11       		.uleb128 0x11
 1397 0228 636E7400 		.ascii	"cnt\000"
 1398 022c 01       		.byte	0x1
 1399 022d 38       		.byte	0x38
 1400 022e 29000000 		.4byte	0x29
 1401 0232 42030000 		.4byte	.LLST13
 1402 0236 12       		.uleb128 0x12
 1403 0237 3A010000 		.4byte	.LASF22
 1404 023b 01       		.byte	0x1
 1405 023c 3A       		.byte	0x3a
 1406 023d 04020000 		.4byte	0x204
 1407 0241 00500008 		.4byte	0x8005000
 1408 0245 0D       		.uleb128 0xd
 1409 0246 05010000 		.4byte	.LASF27
 1410 024a 01       		.byte	0x1
 1411 024b 3B       		.byte	0x3b
 1412 024c 3E000000 		.4byte	0x3e
 1413 0250 0D       		.uleb128 0xd
 1414 0251 30000000 		.4byte	.LASF28
 1415 0255 01       		.byte	0x1
 1416 0256 3C       		.byte	0x3c
 1417 0257 3E000000 		.4byte	0x3e
 1418 025b 19       		.uleb128 0x19
 1419 025c D9000000 		.4byte	0xd9
 1420 0260 02000000 		.4byte	.LBB8
ARM GAS  /tmp/ccsAiFpk.s 			page 26


 1421 0264 00000000 		.4byte	.Ldebug_ranges0+0x0
 1422 0268 01       		.byte	0x1
 1423 0269 3B       		.byte	0x3b
 1424 026a 1A       		.uleb128 0x1a
 1425 026b F5000000 		.4byte	0xf5
 1426 026f 55030000 		.4byte	.LLST14
 1427 0273 1B       		.uleb128 0x1b
 1428 0274 EA000000 		.4byte	0xea
 1429 0278 00500008 		.4byte	0x8005000
 1430 027c 1C       		.uleb128 0x1c
 1431 027d 28000000 		.4byte	.Ldebug_ranges0+0x28
 1432 0281 1D       		.uleb128 0x1d
 1433 0282 00010000 		.4byte	0x100
 1434 0286 8C7F     		.sleb128 -116
 1435 0288 18       		.uleb128 0x18
 1436 0289 0B010000 		.4byte	0x10b
 1437 028d 83030000 		.4byte	.LLST15
 1438 0291 18       		.uleb128 0x18
 1439 0292 14010000 		.4byte	0x114
 1440 0296 A3030000 		.4byte	.LLST16
 1441 029a 18       		.uleb128 0x18
 1442 029b 1D010000 		.4byte	0x11d
 1443 029f 3B040000 		.4byte	.LLST17
 1444 02a3 00       		.byte	0x0
 1445 02a4 00       		.byte	0x0
 1446 02a5 00       		.byte	0x0
 1447 02a6 1E       		.uleb128 0x1e
 1448 02a7 A1000000 		.4byte	.LASF29
 1449 02ab 04       		.byte	0x4
 1450 02ac 9404     		.2byte	0x494
 1451 02ae A2000000 		.4byte	0xa2
 1452 02b2 01       		.byte	0x1
 1453 02b3 01       		.byte	0x1
 1454 02b4 1E       		.uleb128 0x1e
 1455 02b5 A1000000 		.4byte	.LASF29
 1456 02b9 04       		.byte	0x4
 1457 02ba 9404     		.2byte	0x494
 1458 02bc A2000000 		.4byte	0xa2
 1459 02c0 01       		.byte	0x1
 1460 02c1 01       		.byte	0x1
 1461 02c2 00       		.byte	0x0
 1462              		.section	.debug_abbrev
 1463 0000 01       		.uleb128 0x1
 1464 0001 11       		.uleb128 0x11
 1465 0002 01       		.byte	0x1
 1466 0003 25       		.uleb128 0x25
 1467 0004 0E       		.uleb128 0xe
 1468 0005 13       		.uleb128 0x13
 1469 0006 0B       		.uleb128 0xb
 1470 0007 03       		.uleb128 0x3
 1471 0008 0E       		.uleb128 0xe
 1472 0009 1B       		.uleb128 0x1b
 1473 000a 0E       		.uleb128 0xe
 1474 000b 11       		.uleb128 0x11
 1475 000c 01       		.uleb128 0x1
 1476 000d 52       		.uleb128 0x52
 1477 000e 01       		.uleb128 0x1
ARM GAS  /tmp/ccsAiFpk.s 			page 27


 1478 000f 55       		.uleb128 0x55
 1479 0010 06       		.uleb128 0x6
 1480 0011 10       		.uleb128 0x10
 1481 0012 06       		.uleb128 0x6
 1482 0013 00       		.byte	0x0
 1483 0014 00       		.byte	0x0
 1484 0015 02       		.uleb128 0x2
 1485 0016 24       		.uleb128 0x24
 1486 0017 00       		.byte	0x0
 1487 0018 0B       		.uleb128 0xb
 1488 0019 0B       		.uleb128 0xb
 1489 001a 3E       		.uleb128 0x3e
 1490 001b 0B       		.uleb128 0xb
 1491 001c 03       		.uleb128 0x3
 1492 001d 08       		.uleb128 0x8
 1493 001e 00       		.byte	0x0
 1494 001f 00       		.byte	0x0
 1495 0020 03       		.uleb128 0x3
 1496 0021 24       		.uleb128 0x24
 1497 0022 00       		.byte	0x0
 1498 0023 0B       		.uleb128 0xb
 1499 0024 0B       		.uleb128 0xb
 1500 0025 3E       		.uleb128 0x3e
 1501 0026 0B       		.uleb128 0xb
 1502 0027 03       		.uleb128 0x3
 1503 0028 0E       		.uleb128 0xe
 1504 0029 00       		.byte	0x0
 1505 002a 00       		.byte	0x0
 1506 002b 04       		.uleb128 0x4
 1507 002c 16       		.uleb128 0x16
 1508 002d 00       		.byte	0x0
 1509 002e 03       		.uleb128 0x3
 1510 002f 0E       		.uleb128 0xe
 1511 0030 3A       		.uleb128 0x3a
 1512 0031 0B       		.uleb128 0xb
 1513 0032 3B       		.uleb128 0x3b
 1514 0033 0B       		.uleb128 0xb
 1515 0034 49       		.uleb128 0x49
 1516 0035 13       		.uleb128 0x13
 1517 0036 00       		.byte	0x0
 1518 0037 00       		.byte	0x0
 1519 0038 05       		.uleb128 0x5
 1520 0039 0F       		.uleb128 0xf
 1521 003a 00       		.byte	0x0
 1522 003b 0B       		.uleb128 0xb
 1523 003c 0B       		.uleb128 0xb
 1524 003d 49       		.uleb128 0x49
 1525 003e 13       		.uleb128 0x13
 1526 003f 00       		.byte	0x0
 1527 0040 00       		.byte	0x0
 1528 0041 06       		.uleb128 0x6
 1529 0042 26       		.uleb128 0x26
 1530 0043 00       		.byte	0x0
 1531 0044 49       		.uleb128 0x49
 1532 0045 13       		.uleb128 0x13
 1533 0046 00       		.byte	0x0
 1534 0047 00       		.byte	0x0
ARM GAS  /tmp/ccsAiFpk.s 			page 28


 1535 0048 07       		.uleb128 0x7
 1536 0049 35       		.uleb128 0x35
 1537 004a 00       		.byte	0x0
 1538 004b 49       		.uleb128 0x49
 1539 004c 13       		.uleb128 0x13
 1540 004d 00       		.byte	0x0
 1541 004e 00       		.byte	0x0
 1542 004f 08       		.uleb128 0x8
 1543 0050 04       		.uleb128 0x4
 1544 0051 01       		.byte	0x1
 1545 0052 0B       		.uleb128 0xb
 1546 0053 0B       		.uleb128 0xb
 1547 0054 3A       		.uleb128 0x3a
 1548 0055 0B       		.uleb128 0xb
 1549 0056 3B       		.uleb128 0x3b
 1550 0057 0B       		.uleb128 0xb
 1551 0058 01       		.uleb128 0x1
 1552 0059 13       		.uleb128 0x13
 1553 005a 00       		.byte	0x0
 1554 005b 00       		.byte	0x0
 1555 005c 09       		.uleb128 0x9
 1556 005d 28       		.uleb128 0x28
 1557 005e 00       		.byte	0x0
 1558 005f 03       		.uleb128 0x3
 1559 0060 0E       		.uleb128 0xe
 1560 0061 1C       		.uleb128 0x1c
 1561 0062 0D       		.uleb128 0xd
 1562 0063 00       		.byte	0x0
 1563 0064 00       		.byte	0x0
 1564 0065 0A       		.uleb128 0xa
 1565 0066 2E       		.uleb128 0x2e
 1566 0067 01       		.byte	0x1
 1567 0068 03       		.uleb128 0x3
 1568 0069 0E       		.uleb128 0xe
 1569 006a 3A       		.uleb128 0x3a
 1570 006b 0B       		.uleb128 0xb
 1571 006c 3B       		.uleb128 0x3b
 1572 006d 0B       		.uleb128 0xb
 1573 006e 27       		.uleb128 0x27
 1574 006f 0C       		.uleb128 0xc
 1575 0070 49       		.uleb128 0x49
 1576 0071 13       		.uleb128 0x13
 1577 0072 20       		.uleb128 0x20
 1578 0073 0B       		.uleb128 0xb
 1579 0074 01       		.uleb128 0x1
 1580 0075 13       		.uleb128 0x13
 1581 0076 00       		.byte	0x0
 1582 0077 00       		.byte	0x0
 1583 0078 0B       		.uleb128 0xb
 1584 0079 05       		.uleb128 0x5
 1585 007a 00       		.byte	0x0
 1586 007b 03       		.uleb128 0x3
 1587 007c 0E       		.uleb128 0xe
 1588 007d 3A       		.uleb128 0x3a
 1589 007e 0B       		.uleb128 0xb
 1590 007f 3B       		.uleb128 0x3b
 1591 0080 0B       		.uleb128 0xb
ARM GAS  /tmp/ccsAiFpk.s 			page 29


 1592 0081 49       		.uleb128 0x49
 1593 0082 13       		.uleb128 0x13
 1594 0083 00       		.byte	0x0
 1595 0084 00       		.byte	0x0
 1596 0085 0C       		.uleb128 0xc
 1597 0086 05       		.uleb128 0x5
 1598 0087 00       		.byte	0x0
 1599 0088 03       		.uleb128 0x3
 1600 0089 08       		.uleb128 0x8
 1601 008a 3A       		.uleb128 0x3a
 1602 008b 0B       		.uleb128 0xb
 1603 008c 3B       		.uleb128 0x3b
 1604 008d 0B       		.uleb128 0xb
 1605 008e 49       		.uleb128 0x49
 1606 008f 13       		.uleb128 0x13
 1607 0090 00       		.byte	0x0
 1608 0091 00       		.byte	0x0
 1609 0092 0D       		.uleb128 0xd
 1610 0093 34       		.uleb128 0x34
 1611 0094 00       		.byte	0x0
 1612 0095 03       		.uleb128 0x3
 1613 0096 0E       		.uleb128 0xe
 1614 0097 3A       		.uleb128 0x3a
 1615 0098 0B       		.uleb128 0xb
 1616 0099 3B       		.uleb128 0x3b
 1617 009a 0B       		.uleb128 0xb
 1618 009b 49       		.uleb128 0x49
 1619 009c 13       		.uleb128 0x13
 1620 009d 00       		.byte	0x0
 1621 009e 00       		.byte	0x0
 1622 009f 0E       		.uleb128 0xe
 1623 00a0 34       		.uleb128 0x34
 1624 00a1 00       		.byte	0x0
 1625 00a2 03       		.uleb128 0x3
 1626 00a3 08       		.uleb128 0x8
 1627 00a4 3A       		.uleb128 0x3a
 1628 00a5 0B       		.uleb128 0xb
 1629 00a6 3B       		.uleb128 0x3b
 1630 00a7 0B       		.uleb128 0xb
 1631 00a8 49       		.uleb128 0x49
 1632 00a9 13       		.uleb128 0x13
 1633 00aa 00       		.byte	0x0
 1634 00ab 00       		.byte	0x0
 1635 00ac 0F       		.uleb128 0xf
 1636 00ad 2E       		.uleb128 0x2e
 1637 00ae 01       		.byte	0x1
 1638 00af 3F       		.uleb128 0x3f
 1639 00b0 0C       		.uleb128 0xc
 1640 00b1 03       		.uleb128 0x3
 1641 00b2 0E       		.uleb128 0xe
 1642 00b3 3A       		.uleb128 0x3a
 1643 00b4 0B       		.uleb128 0xb
 1644 00b5 3B       		.uleb128 0x3b
 1645 00b6 0B       		.uleb128 0xb
 1646 00b7 27       		.uleb128 0x27
 1647 00b8 0C       		.uleb128 0xc
 1648 00b9 49       		.uleb128 0x49
ARM GAS  /tmp/ccsAiFpk.s 			page 30


 1649 00ba 13       		.uleb128 0x13
 1650 00bb 11       		.uleb128 0x11
 1651 00bc 01       		.uleb128 0x1
 1652 00bd 12       		.uleb128 0x12
 1653 00be 01       		.uleb128 0x1
 1654 00bf 40       		.uleb128 0x40
 1655 00c0 06       		.uleb128 0x6
 1656 00c1 01       		.uleb128 0x1
 1657 00c2 13       		.uleb128 0x13
 1658 00c3 00       		.byte	0x0
 1659 00c4 00       		.byte	0x0
 1660 00c5 10       		.uleb128 0x10
 1661 00c6 05       		.uleb128 0x5
 1662 00c7 00       		.byte	0x0
 1663 00c8 03       		.uleb128 0x3
 1664 00c9 0E       		.uleb128 0xe
 1665 00ca 3A       		.uleb128 0x3a
 1666 00cb 0B       		.uleb128 0xb
 1667 00cc 3B       		.uleb128 0x3b
 1668 00cd 0B       		.uleb128 0xb
 1669 00ce 49       		.uleb128 0x49
 1670 00cf 13       		.uleb128 0x13
 1671 00d0 02       		.uleb128 0x2
 1672 00d1 06       		.uleb128 0x6
 1673 00d2 00       		.byte	0x0
 1674 00d3 00       		.byte	0x0
 1675 00d4 11       		.uleb128 0x11
 1676 00d5 05       		.uleb128 0x5
 1677 00d6 00       		.byte	0x0
 1678 00d7 03       		.uleb128 0x3
 1679 00d8 08       		.uleb128 0x8
 1680 00d9 3A       		.uleb128 0x3a
 1681 00da 0B       		.uleb128 0xb
 1682 00db 3B       		.uleb128 0x3b
 1683 00dc 0B       		.uleb128 0xb
 1684 00dd 49       		.uleb128 0x49
 1685 00de 13       		.uleb128 0x13
 1686 00df 02       		.uleb128 0x2
 1687 00e0 06       		.uleb128 0x6
 1688 00e1 00       		.byte	0x0
 1689 00e2 00       		.byte	0x0
 1690 00e3 12       		.uleb128 0x12
 1691 00e4 34       		.uleb128 0x34
 1692 00e5 00       		.byte	0x0
 1693 00e6 03       		.uleb128 0x3
 1694 00e7 0E       		.uleb128 0xe
 1695 00e8 3A       		.uleb128 0x3a
 1696 00e9 0B       		.uleb128 0xb
 1697 00ea 3B       		.uleb128 0x3b
 1698 00eb 0B       		.uleb128 0xb
 1699 00ec 49       		.uleb128 0x49
 1700 00ed 13       		.uleb128 0x13
 1701 00ee 1C       		.uleb128 0x1c
 1702 00ef 06       		.uleb128 0x6
 1703 00f0 00       		.byte	0x0
 1704 00f1 00       		.byte	0x0
 1705 00f2 13       		.uleb128 0x13
ARM GAS  /tmp/ccsAiFpk.s 			page 31


 1706 00f3 34       		.uleb128 0x34
 1707 00f4 00       		.byte	0x0
 1708 00f5 03       		.uleb128 0x3
 1709 00f6 08       		.uleb128 0x8
 1710 00f7 3A       		.uleb128 0x3a
 1711 00f8 0B       		.uleb128 0xb
 1712 00f9 3B       		.uleb128 0x3b
 1713 00fa 0B       		.uleb128 0xb
 1714 00fb 49       		.uleb128 0x49
 1715 00fc 13       		.uleb128 0x13
 1716 00fd 02       		.uleb128 0x2
 1717 00fe 06       		.uleb128 0x6
 1718 00ff 00       		.byte	0x0
 1719 0100 00       		.byte	0x0
 1720 0101 14       		.uleb128 0x14
 1721 0102 34       		.uleb128 0x34
 1722 0103 00       		.byte	0x0
 1723 0104 03       		.uleb128 0x3
 1724 0105 0E       		.uleb128 0xe
 1725 0106 3A       		.uleb128 0x3a
 1726 0107 0B       		.uleb128 0xb
 1727 0108 3B       		.uleb128 0x3b
 1728 0109 0B       		.uleb128 0xb
 1729 010a 49       		.uleb128 0x49
 1730 010b 13       		.uleb128 0x13
 1731 010c 02       		.uleb128 0x2
 1732 010d 06       		.uleb128 0x6
 1733 010e 00       		.byte	0x0
 1734 010f 00       		.byte	0x0
 1735 0110 15       		.uleb128 0x15
 1736 0111 1D       		.uleb128 0x1d
 1737 0112 01       		.byte	0x1
 1738 0113 31       		.uleb128 0x31
 1739 0114 13       		.uleb128 0x13
 1740 0115 11       		.uleb128 0x11
 1741 0116 01       		.uleb128 0x1
 1742 0117 12       		.uleb128 0x12
 1743 0118 01       		.uleb128 0x1
 1744 0119 58       		.uleb128 0x58
 1745 011a 0B       		.uleb128 0xb
 1746 011b 59       		.uleb128 0x59
 1747 011c 0B       		.uleb128 0xb
 1748 011d 00       		.byte	0x0
 1749 011e 00       		.byte	0x0
 1750 011f 16       		.uleb128 0x16
 1751 0120 05       		.uleb128 0x5
 1752 0121 00       		.byte	0x0
 1753 0122 31       		.uleb128 0x31
 1754 0123 13       		.uleb128 0x13
 1755 0124 00       		.byte	0x0
 1756 0125 00       		.byte	0x0
 1757 0126 17       		.uleb128 0x17
 1758 0127 0B       		.uleb128 0xb
 1759 0128 01       		.byte	0x1
 1760 0129 11       		.uleb128 0x11
 1761 012a 01       		.uleb128 0x1
 1762 012b 12       		.uleb128 0x12
ARM GAS  /tmp/ccsAiFpk.s 			page 32


 1763 012c 01       		.uleb128 0x1
 1764 012d 00       		.byte	0x0
 1765 012e 00       		.byte	0x0
 1766 012f 18       		.uleb128 0x18
 1767 0130 34       		.uleb128 0x34
 1768 0131 00       		.byte	0x0
 1769 0132 31       		.uleb128 0x31
 1770 0133 13       		.uleb128 0x13
 1771 0134 02       		.uleb128 0x2
 1772 0135 06       		.uleb128 0x6
 1773 0136 00       		.byte	0x0
 1774 0137 00       		.byte	0x0
 1775 0138 19       		.uleb128 0x19
 1776 0139 1D       		.uleb128 0x1d
 1777 013a 01       		.byte	0x1
 1778 013b 31       		.uleb128 0x31
 1779 013c 13       		.uleb128 0x13
 1780 013d 52       		.uleb128 0x52
 1781 013e 01       		.uleb128 0x1
 1782 013f 55       		.uleb128 0x55
 1783 0140 06       		.uleb128 0x6
 1784 0141 58       		.uleb128 0x58
 1785 0142 0B       		.uleb128 0xb
 1786 0143 59       		.uleb128 0x59
 1787 0144 0B       		.uleb128 0xb
 1788 0145 00       		.byte	0x0
 1789 0146 00       		.byte	0x0
 1790 0147 1A       		.uleb128 0x1a
 1791 0148 05       		.uleb128 0x5
 1792 0149 00       		.byte	0x0
 1793 014a 31       		.uleb128 0x31
 1794 014b 13       		.uleb128 0x13
 1795 014c 02       		.uleb128 0x2
 1796 014d 06       		.uleb128 0x6
 1797 014e 00       		.byte	0x0
 1798 014f 00       		.byte	0x0
 1799 0150 1B       		.uleb128 0x1b
 1800 0151 05       		.uleb128 0x5
 1801 0152 00       		.byte	0x0
 1802 0153 31       		.uleb128 0x31
 1803 0154 13       		.uleb128 0x13
 1804 0155 1C       		.uleb128 0x1c
 1805 0156 06       		.uleb128 0x6
 1806 0157 00       		.byte	0x0
 1807 0158 00       		.byte	0x0
 1808 0159 1C       		.uleb128 0x1c
 1809 015a 0B       		.uleb128 0xb
 1810 015b 01       		.byte	0x1
 1811 015c 55       		.uleb128 0x55
 1812 015d 06       		.uleb128 0x6
 1813 015e 00       		.byte	0x0
 1814 015f 00       		.byte	0x0
 1815 0160 1D       		.uleb128 0x1d
 1816 0161 34       		.uleb128 0x34
 1817 0162 00       		.byte	0x0
 1818 0163 31       		.uleb128 0x31
 1819 0164 13       		.uleb128 0x13
ARM GAS  /tmp/ccsAiFpk.s 			page 33


 1820 0165 1C       		.uleb128 0x1c
 1821 0166 0D       		.uleb128 0xd
 1822 0167 00       		.byte	0x0
 1823 0168 00       		.byte	0x0
 1824 0169 1E       		.uleb128 0x1e
 1825 016a 34       		.uleb128 0x34
 1826 016b 00       		.byte	0x0
 1827 016c 03       		.uleb128 0x3
 1828 016d 0E       		.uleb128 0xe
 1829 016e 3A       		.uleb128 0x3a
 1830 016f 0B       		.uleb128 0xb
 1831 0170 3B       		.uleb128 0x3b
 1832 0171 05       		.uleb128 0x5
 1833 0172 49       		.uleb128 0x49
 1834 0173 13       		.uleb128 0x13
 1835 0174 3F       		.uleb128 0x3f
 1836 0175 0C       		.uleb128 0xc
 1837 0176 3C       		.uleb128 0x3c
 1838 0177 0C       		.uleb128 0xc
 1839 0178 00       		.byte	0x0
 1840 0179 00       		.byte	0x0
 1841 017a 00       		.byte	0x0
 1842              		.section	.debug_pubnames,"",%progbits
 1843 0000 28000000 		.4byte	0x28
 1844 0004 0200     		.2byte	0x2
 1845 0006 00000000 		.4byte	.Ldebug_info0
 1846 000a C3020000 		.4byte	0x2c3
 1847 000e 29010000 		.4byte	0x129
 1848 0012 73617665 		.ascii	"saveConf\000"
 1848      436F6E66 
 1848      00
 1849 001b 0A020000 		.4byte	0x20a
 1850 001f 6C6F6164 		.ascii	"loadConf\000"
 1850      436F6E66 
 1850      00
 1851 0028 00000000 		.4byte	0x0
 1852              		.section	.debug_pubtypes,"",%progbits
 1853 0000 44000000 		.4byte	0x44
 1854 0004 0200     		.2byte	0x2
 1855 0006 00000000 		.4byte	.Ldebug_info0
 1856 000a C3020000 		.4byte	0x2c3
 1857 000e 3E000000 		.4byte	0x3e
 1858 0012 75696E74 		.ascii	"uint8_t\000"
 1858      385F7400 
 1859 001a 5E000000 		.4byte	0x5e
 1860 001e 696E7433 		.ascii	"int32_t\000"
 1860      325F7400 
 1861 0026 70000000 		.4byte	0x70
 1862 002a 75696E74 		.ascii	"uint32_t\000"
 1862      33325F74 
 1862      00
 1863 0033 CE000000 		.4byte	0xce
 1864 0037 464C4153 		.ascii	"FLASH_Status\000"
 1864      485F5374 
 1864      61747573 
 1864      00
 1865 0044 00000000 		.4byte	0x0
ARM GAS  /tmp/ccsAiFpk.s 			page 34


 1866              		.section	.debug_aranges,"",%progbits
 1867 0000 24000000 		.4byte	0x24
 1868 0004 0200     		.2byte	0x2
 1869 0006 00000000 		.4byte	.Ldebug_info0
 1870 000a 04       		.byte	0x4
 1871 000b 00       		.byte	0x0
 1872 000c 0000     		.2byte	0x0
 1873 000e 0000     		.2byte	0x0
 1874 0010 00000000 		.4byte	.LFB55
 1875 0014 F8010000 		.4byte	.LFE55-.LFB55
 1876 0018 00000000 		.4byte	.LFB56
 1877 001c F0000000 		.4byte	.LFE56-.LFB56
 1878 0020 00000000 		.4byte	0x0
 1879 0024 00000000 		.4byte	0x0
 1880              		.section	.debug_ranges,"",%progbits
 1881              	.Ldebug_ranges0:
 1882 0000 02000000 		.4byte	.LBB8
 1883 0004 04000000 		.4byte	.LBE8
 1884 0008 E4000000 		.4byte	.LBB15
 1885 000c F0000000 		.4byte	.LBE15
 1886 0010 0E000000 		.4byte	.LBB14
 1887 0014 CC000000 		.4byte	.LBE14
 1888 0018 06000000 		.4byte	.LBB13
 1889 001c 0A000000 		.4byte	.LBE13
 1890 0020 00000000 		.4byte	0x0
 1891 0024 00000000 		.4byte	0x0
 1892 0028 02000000 		.4byte	.LBB10
 1893 002c 04000000 		.4byte	.LBE10
 1894 0030 E4000000 		.4byte	.LBB12
 1895 0034 F0000000 		.4byte	.LBE12
 1896 0038 0E000000 		.4byte	.LBB9
 1897 003c CC000000 		.4byte	.LBE9
 1898 0040 06000000 		.4byte	.LBB11
 1899 0044 0A000000 		.4byte	.LBE11
 1900 0048 00000000 		.4byte	0x0
 1901 004c 00000000 		.4byte	0x0
 1902 0050 00000000 		.4byte	.LFB55
 1903 0054 F8010000 		.4byte	.LFE55
 1904 0058 00000000 		.4byte	.LFB56
 1905 005c F0000000 		.4byte	.LFE56
 1906 0060 00000000 		.4byte	0x0
 1907 0064 00000000 		.4byte	0x0
 1908              		.section	.debug_str,"MS",%progbits,1
 1909              	.LASF21:
 1910 0000 64617461 		.ascii	"datad\000"
 1910      6400
 1911              	.LASF16:
 1912 0006 464C4153 		.ascii	"FLASH_COMPLETE\000"
 1912      485F434F 
 1912      4D504C45 
 1912      544500
 1913              	.LASF15:
 1914 0015 464C4153 		.ascii	"FLASH_ERROR_WRP\000"
 1914      485F4552 
 1914      524F525F 
 1914      57525000 
 1915              	.LASF13:
ARM GAS  /tmp/ccsAiFpk.s 			page 35


 1916 0025 464C4153 		.ascii	"FLASH_BUSY\000"
 1916      485F4255 
 1916      535900
 1917              	.LASF28:
 1918 0030 72656164 		.ascii	"readCrc\000"
 1918      43726300 
 1919              	.LASF19:
 1920 0038 64617461 		.ascii	"data\000"
 1920      00
 1921              	.LASF31:
 1922 003d 636F6E66 		.ascii	"conf_ctrl.c\000"
 1922      5F637472 
 1922      6C2E6300 
 1923              	.LASF11:
 1924 0049 6C6F6E67 		.ascii	"long long unsigned int\000"
 1924      206C6F6E 
 1924      6720756E 
 1924      7369676E 
 1924      65642069 
 1925              	.LASF2:
 1926 0060 756E7369 		.ascii	"unsigned char\000"
 1926      676E6564 
 1926      20636861 
 1926      7200
 1927              	.LASF9:
 1928 006e 6C6F6E67 		.ascii	"long unsigned int\000"
 1928      20756E73 
 1928      69676E65 
 1928      6420696E 
 1928      7400
 1929              	.LASF4:
 1930 0080 73686F72 		.ascii	"short unsigned int\000"
 1930      7420756E 
 1930      7369676E 
 1930      65642069 
 1930      6E7400
 1931              	.LASF17:
 1932 0093 464C4153 		.ascii	"FLASH_TIMEOUT\000"
 1932      485F5449 
 1932      4D454F55 
 1932      5400
 1933              	.LASF29:
 1934 00a1 49544D5F 		.ascii	"ITM_RxBuffer\000"
 1934      52784275 
 1934      66666572 
 1934      00
 1935              	.LASF23:
 1936 00ae 74686553 		.ascii	"theSame\000"
 1936      616D6500 
 1937              	.LASF26:
 1938 00b6 6C6F6164 		.ascii	"loadConf\000"
 1938      436F6E66 
 1938      00
 1939              	.LASF14:
 1940 00bf 464C4153 		.ascii	"FLASH_ERROR_PG\000"
 1940      485F4552 
 1940      524F525F 
ARM GAS  /tmp/ccsAiFpk.s 			page 36


 1940      504700
 1941              	.LASF30:
 1942 00ce 474E5520 		.ascii	"GNU C 4.5.2\000"
 1942      4320342E 
 1942      352E3200 
 1943              	.LASF0:
 1944 00da 756E7369 		.ascii	"unsigned int\000"
 1944      676E6564 
 1944      20696E74 
 1944      00
 1945              	.LASF24:
 1946 00e7 666C6173 		.ascii	"flashD\000"
 1946      684400
 1947              	.LASF12:
 1948 00ee 63686172 		.ascii	"char\000"
 1948      00
 1949              	.LASF5:
 1950 00f3 75696E74 		.ascii	"uint8_t\000"
 1950      385F7400 
 1951              	.LASF20:
 1952 00fb 706F6C79 		.ascii	"poly\000"
 1952      00
 1953              	.LASF33:
 1954 0100 63726338 		.ascii	"crc8\000"
 1954      00
 1955              	.LASF27:
 1956 0105 64617461 		.ascii	"dataCrc\000"
 1956      43726300 
 1957              	.LASF6:
 1958 010d 696E7433 		.ascii	"int32_t\000"
 1958      325F7400 
 1959              	.LASF10:
 1960 0115 6C6F6E67 		.ascii	"long long int\000"
 1960      206C6F6E 
 1960      6720696E 
 1960      7400
 1961              	.LASF18:
 1962 0123 464C4153 		.ascii	"FLASH_Status\000"
 1962      485F5374 
 1962      61747573 
 1962      00
 1963              	.LASF3:
 1964 0130 73686F72 		.ascii	"short int\000"
 1964      7420696E 
 1964      7400
 1965              	.LASF22:
 1966 013a 666C6173 		.ascii	"flash\000"
 1966      6800
 1967              	.LASF25:
 1968 0140 73617665 		.ascii	"saveConf\000"
 1968      436F6E66 
 1968      00
 1969              	.LASF8:
 1970 0149 75696E74 		.ascii	"uint32_t\000"
 1970      33325F74 
 1970      00
 1971              	.LASF7:
ARM GAS  /tmp/ccsAiFpk.s 			page 37


 1972 0152 6C6F6E67 		.ascii	"long int\000"
 1972      20696E74 
 1972      00
 1973              	.LASF32:
 1974 015b 2F686F6D 		.ascii	"/home/z80/projects/dfu.git/firmware-pawn-dev/firmwa"
 1974      652F7A38 
 1974      302F7072 
 1974      6F6A6563 
 1974      74732F64 
 1975 018e 726500   		.ascii	"re\000"
 1976              	.LASF1:
 1977 0191 7369676E 		.ascii	"signed char\000"
 1977      65642063 
 1977      68617200 
 1978              		.ident	"GCC: (Sourcery G++ Lite 2011.03-42) 4.5.2"
ARM GAS  /tmp/ccsAiFpk.s 			page 38


DEFINED SYMBOLS
                            *ABS*:00000000 conf_ctrl.c
     /tmp/ccsAiFpk.s:24     .text.saveConf:00000000 $t
     /tmp/ccsAiFpk.s:30     .text.saveConf:00000000 saveConf
     /tmp/ccsAiFpk.s:389    .text.saveConf:000001f0 $d
     /tmp/ccsAiFpk.s:395    .text.loadConf:00000000 $t
     /tmp/ccsAiFpk.s:401    .text.loadConf:00000000 loadConf
     /tmp/ccsAiFpk.s:621    .text.loadConf:000000e8 $d
                     .debug_frame:00000010 $d
     /tmp/ccsAiFpk.s:394    .text.saveConf:000001f8 $t

UNDEFINED SYMBOLS
FLASH_Unlock
FLASH_ErasePage
FLASH_ProgramWord
FLASH_Lock
