ARM GAS  /tmp/ccpRQAjU.s 			page 1


   1              		.syntax unified
   2              		.cpu cortex-m3
   3              		.fpu softvfp
   4              		.eabi_attribute 20, 1
   5              		.eabi_attribute 21, 1
   6              		.eabi_attribute 23, 3
   7              		.eabi_attribute 24, 1
   8              		.eabi_attribute 25, 1
   9              		.eabi_attribute 26, 1
  10              		.eabi_attribute 30, 2
  11              		.eabi_attribute 18, 4
  12              		.thumb
  13              		.file	"crt0.c"
  20 0000 57010000 		.text
  20      0200B900 
  20      00000201 
  20      FB0E0D00 
  20      01010101 
  21              	.Ltext0:
  22              		.cfi_sections	.debug_frame
  23              		.section	.text.__early_init,"ax",%progbits
  24              		.align	2
  25              		.p2align 4,,15
  26              		.weak	__early_init
  27              		.thumb
  28              		.thumb_func
  29              		.type	__early_init, %function
  30              	__early_init:
  31              	.LFB0:
  32              		.file 1 "../chibios/os/ports/GCC/ARMCMx/crt0.c"
  33              		.loc 1 209 0
  34              		.cfi_startproc
  35              		@ args = 0, pretend = 0, frame = 0
  36              		@ frame_needed = 0, uses_anonymous_args = 0
  37              		@ link register save eliminated.
  38              		.loc 1 209 0
  39 0000 7047     		bx	lr
  40              		.cfi_endproc
  41              	.LFE0:
  42              		.size	__early_init, .-__early_init
  43 0002 00BFAFF3 		.section	.text.__late_init,"ax",%progbits
  43      0080AFF3 
  43      0080AFF3 
  43      0080
  44              		.align	2
  45              		.p2align 4,,15
  46              		.weak	__late_init
  47              		.thumb
  48              		.thumb_func
  49              		.type	__late_init, %function
  50              	__late_init:
ARM GAS  /tmp/ccpRQAjU.s 			page 2


  51              	.LFB1:
  52              		.loc 1 221 0
  53              		.cfi_startproc
  54              		@ args = 0, pretend = 0, frame = 0
  55              		@ frame_needed = 0, uses_anonymous_args = 0
  56              		@ link register save eliminated.
  57              		.loc 1 221 0
  58 0000 7047     		bx	lr
  59              		.cfi_endproc
  60              	.LFE1:
  61              		.size	__late_init, .-__late_init
  62 0002 00BFAFF3 		.section	.text._default_exit,"ax",%progbits
  62      0080AFF3 
  62      0080AFF3 
  62      0080
  63              		.align	2
  64              		.p2align 4,,15
  65              		.weak	_default_exit
  66              		.thumb
  67              		.thumb_func
  68              		.type	_default_exit, %function
  69              	_default_exit:
  70              	.LFB2:
  71              		.loc 1 232 0
  72              		.cfi_startproc
  73              		@ Naked Function: prologue and epilogue provided by programmer.
  74              		@ args = 0, pretend = 0, frame = 0
  75              		@ frame_needed = 0, uses_anonymous_args = 0
  76              	.L4:
  77 0000 FEE7     		b	.L4
  78              		.cfi_endproc
  79              	.LFE2:
  80              		.size	_default_exit, .-_default_exit
  81 0002 00BFAFF3 		.section	.text.ResetHandler,"ax",%progbits
  81      0080AFF3 
  81      0080AFF3 
  81      0080
  82              		.align	2
  83              		.p2align 4,,15
  84              		.global	ResetHandler
  85              		.thumb
  86              		.thumb_func
  87              		.type	ResetHandler, %function
  88              	ResetHandler:
  89              	.LFB4:
  90              		.loc 1 256 0
  91              		.cfi_startproc
  92              		@ Naked Function: prologue and epilogue provided by programmer.
  93              		@ args = 0, pretend = 0, frame = 0
  94              		@ frame_needed = 0, uses_anonymous_args = 0
  95              		.loc 1 262 0
  96              	@ 262 "../chibios/os/ports/GCC/ARMCMx/crt0.c" 1
  97 0000 72B6     		cpsid   i
  98              	@ 0 "" 2
  99              	.LVL0:
 100              		.loc 1 264 0
 101              		.thumb
ARM GAS  /tmp/ccpRQAjU.s 			page 3


 102 0002 634C     		ldr	r4, .L55
 103              	@ 264 "../chibios/os/ports/GCC/ARMCMx/crt0.c" 1
 104 0004 84F30988 		msr     PSP, r4
 105              	@ 0 "" 2
 106              	.LVL1:
 107              		.loc 1 284 0
 108              		.thumb
 109 0008 0223     		movs	r3, #2
 110              	@ 284 "../chibios/os/ports/GCC/ARMCMx/crt0.c" 1
 111 000a 83F31488 		msr     CONTROL, r3
 112              	@ 0 "" 2
 113              		.loc 1 285 0
 114              	@ 285 "../chibios/os/ports/GCC/ARMCMx/crt0.c" 1
 115 000e BFF36F8F 		isb
 116              	@ 0 "" 2
 117              		.loc 1 288 0
 118              		.thumb
 119 0012 FFF7FEFF 		bl	__early_init
 120              	.LVL2:
 121              	.LBB11:
 122              	.LBB12:
 123              		.loc 1 246 0
 124 0016 5F4A     		ldr	r2, .L55+4
 125 0018 5F48     		ldr	r0, .L55+8
 126 001a 8242     		cmp	r2, r0
 127 001c 17D2     		bcs	.L6
 128              		.loc 1 247 0
 129 001e 1346     		mov	r3, r2
 130 0020 4FF05531 		mov	r1, #1431655765
 131 0024 D643     		mvns	r6, r2
 132 0026 43F8041B 		str	r1, [r3], #4
 133              	.LVL3:
 134 002a 8519     		adds	r5, r0, r6
 135              		.loc 1 246 0
 136 002c 8342     		cmp	r3, r0
 137 002e C5F38005 		ubfx	r5, r5, #2, #1
 138 0032 0CD2     		bcs	.L6
 139 0034 25B1     		cbz	r5, .L7
 140              		.loc 1 247 0
 141 0036 1960     		str	r1, [r3, #0]
 142 0038 02F10803 		add	r3, r2, #8
 143              	.LVL4:
 144              		.loc 1 246 0
 145 003c 8342     		cmp	r3, r0
 146 003e 06D2     		bcs	.L6
 147              	.L7:
 148              		.loc 1 247 0
 149 0040 1A46     		mov	r2, r3
 150 0042 42F8041B 		str	r1, [r2], #4
 151 0046 5960     		str	r1, [r3, #4]
 152 0048 131D     		adds	r3, r2, #4
 153              		.loc 1 246 0
 154 004a 8342     		cmp	r3, r0
 155 004c F8D3     		bcc	.L7
 156              	.L6:
 157              	.LVL5:
 158              	.LBE12:
ARM GAS  /tmp/ccpRQAjU.s 			page 4


 159              	.LBE11:
 160              	.LBB13:
 161              	.LBB14:
 162 004e 534A     		ldr	r2, .L55+12
 163 0050 A242     		cmp	r2, r4
 164 0052 17D2     		bcs	.L8
 165              		.loc 1 247 0
 166 0054 1346     		mov	r3, r2
 167 0056 4FF05531 		mov	r1, #1431655765
 168 005a D543     		mvns	r5, r2
 169 005c 43F8041B 		str	r1, [r3], #4
 170              	.LVL6:
 171 0060 6019     		adds	r0, r4, r5
 172              		.loc 1 246 0
 173 0062 A342     		cmp	r3, r4
 174 0064 C0F38000 		ubfx	r0, r0, #2, #1
 175 0068 0CD2     		bcs	.L8
 176 006a 20B1     		cbz	r0, .L9
 177              		.loc 1 247 0
 178 006c 1960     		str	r1, [r3, #0]
 179 006e 02F10803 		add	r3, r2, #8
 180              	.LVL7:
 181              		.loc 1 246 0
 182 0072 A342     		cmp	r3, r4
 183 0074 06D2     		bcs	.L8
 184              	.L9:
 185              		.loc 1 247 0
 186 0076 1E46     		mov	r6, r3
 187 0078 46F8041B 		str	r1, [r6], #4
 188 007c 5960     		str	r1, [r3, #4]
 189 007e 331D     		adds	r3, r6, #4
 190              		.loc 1 246 0
 191 0080 A342     		cmp	r3, r4
 192 0082 F8D3     		bcc	.L9
 193              	.L8:
 194              	.LVL8:
 195              	.LBE14:
 196              	.LBE13:
 197              	.LBB15:
 198              		.loc 1 307 0 discriminator 1
 199 0084 4649     		ldr	r1, .L55+16
 200 0086 474C     		ldr	r4, .L55+20
 201 0088 A142     		cmp	r1, r4
 202 008a 22D2     		bcs	.L10
 203              		.loc 1 307 0 is_stmt 0
 204 008c 4648     		ldr	r0, .L55+24
 205              		.loc 1 308 0 is_stmt 1
 206 008e 0B46     		mov	r3, r1
 207 0090 0246     		mov	r2, r0
 208 0092 52F8046B 		ldr	r6, [r2], #4
 209 0096 CD43     		mvns	r5, r1
 210 0098 43F8046B 		str	r6, [r3], #4
 211              	.LVL9:
 212 009c 04EB050C 		add	ip, r4, r5
 213              		.loc 1 307 0
 214 00a0 A342     		cmp	r3, r4
 215 00a2 CCF38005 		ubfx	r5, ip, #2, #1
ARM GAS  /tmp/ccpRQAjU.s 			page 5


 216 00a6 14D2     		bcs	.L10
 217 00a8 3DB1     		cbz	r5, .L11
 218              		.loc 1 308 0
 219 00aa 1668     		ldr	r6, [r2, #0]
 220 00ac 00F10802 		add	r2, r0, #8
 221 00b0 1E60     		str	r6, [r3, #0]
 222 00b2 01F10803 		add	r3, r1, #8
 223              	.LVL10:
 224              		.loc 1 307 0
 225 00b6 A342     		cmp	r3, r4
 226 00b8 0BD2     		bcs	.L10
 227              	.L11:
 228              		.loc 1 308 0
 229 00ba 1046     		mov	r0, r2
 230 00bc 50F8045B 		ldr	r5, [r0], #4
 231 00c0 1946     		mov	r1, r3
 232 00c2 41F8045B 		str	r5, [r1], #4
 233 00c6 5668     		ldr	r6, [r2, #4]
 234 00c8 021D     		adds	r2, r0, #4
 235 00ca 5E60     		str	r6, [r3, #4]
 236 00cc 0B1D     		adds	r3, r1, #4
 237              		.loc 1 307 0
 238 00ce A342     		cmp	r3, r4
 239 00d0 F3D3     		bcc	.L11
 240              	.L10:
 241              	.LVL11:
 242              	.LBE15:
 243              	.LBB16:
 244              	.LBB17:
 245              		.loc 1 246 0
 246 00d2 364A     		ldr	r2, .L55+28
 247 00d4 3648     		ldr	r0, .L55+32
 248 00d6 8242     		cmp	r2, r0
 249 00d8 16D2     		bcs	.L12
 250              		.loc 1 247 0
 251 00da 0021     		movs	r1, #0
 252 00dc 1346     		mov	r3, r2
 253 00de D643     		mvns	r6, r2
 254 00e0 43F8041B 		str	r1, [r3], #4
 255              	.LVL12:
 256 00e4 8419     		adds	r4, r0, r6
 257              		.loc 1 246 0
 258 00e6 8342     		cmp	r3, r0
 259 00e8 C4F38004 		ubfx	r4, r4, #2, #1
 260 00ec 0CD2     		bcs	.L12
 261 00ee 24B1     		cbz	r4, .L13
 262              		.loc 1 247 0
 263 00f0 1960     		str	r1, [r3, #0]
 264 00f2 02F10803 		add	r3, r2, #8
 265              	.LVL13:
 266              		.loc 1 246 0
 267 00f6 8342     		cmp	r3, r0
 268 00f8 06D2     		bcs	.L12
 269              	.L13:
 270              		.loc 1 247 0
 271 00fa 1A46     		mov	r2, r3
 272 00fc 42F8041B 		str	r1, [r2], #4
ARM GAS  /tmp/ccpRQAjU.s 			page 6


 273 0100 5960     		str	r1, [r3, #4]
 274 0102 131D     		adds	r3, r2, #4
 275              		.loc 1 246 0
 276 0104 8342     		cmp	r3, r0
 277 0106 F8D3     		bcc	.L13
 278              	.L12:
 279              	.LBE17:
 280              	.LBE16:
 281              	.LBB18:
 282              		.loc 1 324 0
 283 0108 2A4D     		ldr	r5, .L55+36
 284 010a 2B4E     		ldr	r6, .L55+40
 285              	.LBE18:
 286              		.loc 1 318 0
 287 010c FFF7FEFF 		bl	__late_init
 288              	.LVL14:
 289              	.LBB19:
 290              		.loc 1 324 0
 291 0110 B542     		cmp	r5, r6
 292 0112 19D2     		bcs	.L14
 293              		.loc 1 325 0
 294 0114 2C46     		mov	r4, r5
 295 0116 54F8043B 		ldr	r3, [r4], #4
 296 011a E943     		mvns	r1, r5
 297 011c 7718     		adds	r7, r6, r1
 298 011e 9847     		blx	r3
 299              	.LVL15:
 300              		.loc 1 324 0
 301 0120 B442     		cmp	r4, r6
 302 0122 C7F38007 		ubfx	r7, r7, #2, #1
 303 0126 0FD2     		bcs	.L14
 304 0128 2FB1     		cbz	r7, .L15
 305              		.loc 1 325 0
 306 012a 2368     		ldr	r3, [r4, #0]
 307              		.loc 1 326 0
 308 012c 05F10804 		add	r4, r5, #8
 309              		.loc 1 325 0
 310 0130 9847     		blx	r3
 311              	.LVL16:
 312              		.loc 1 324 0
 313 0132 B442     		cmp	r4, r6
 314 0134 08D2     		bcs	.L14
 315              	.L15:
 316              		.loc 1 325 0
 317 0136 2546     		mov	r5, r4
 318 0138 55F8042B 		ldr	r2, [r5], #4
 319 013c 9047     		blx	r2
 320 013e 6068     		ldr	r0, [r4, #4]
 321              		.loc 1 326 0
 322 0140 2C1D     		adds	r4, r5, #4
 323              		.loc 1 325 0
 324 0142 8047     		blx	r0
 325              		.loc 1 324 0
 326 0144 B442     		cmp	r4, r6
 327 0146 F6D3     		bcc	.L15
 328              	.L14:
 329              	.LBE19:
ARM GAS  /tmp/ccpRQAjU.s 			page 7


 330              	.LBB20:
 331              		.loc 1 338 0
 332 0148 1C4D     		ldr	r5, .L55+44
 333 014a 1D4E     		ldr	r6, .L55+48
 334              	.LBE20:
 335              		.loc 1 332 0
 336 014c FFF7FEFF 		bl	main
 337              	.LVL17:
 338              	.LBB21:
 339              		.loc 1 338 0
 340 0150 B542     		cmp	r5, r6
 341 0152 1AD2     		bcs	.L16
 342              		.loc 1 339 0
 343 0154 2C46     		mov	r4, r5
 344 0156 EF43     		mvns	r7, r5
 345 0158 54F8043B 		ldr	r3, [r4], #4
 346 015c 06EB070E 		add	lr, r6, r7
 347 0160 CEF38007 		ubfx	r7, lr, #2, #1
 348 0164 9847     		blx	r3
 349              	.LVL18:
 350              		.loc 1 338 0
 351 0166 B442     		cmp	r4, r6
 352 0168 0FD2     		bcs	.L16
 353 016a 2FB1     		cbz	r7, .L17
 354              		.loc 1 339 0
 355 016c 2268     		ldr	r2, [r4, #0]
 356              		.loc 1 340 0
 357 016e 05F10804 		add	r4, r5, #8
 358              		.loc 1 339 0
 359 0172 9047     		blx	r2
 360              	.LVL19:
 361              		.loc 1 338 0
 362 0174 B442     		cmp	r4, r6
 363 0176 08D2     		bcs	.L16
 364              	.L17:
 365              		.loc 1 339 0
 366 0178 2546     		mov	r5, r4
 367 017a 55F8040B 		ldr	r0, [r5], #4
 368 017e 8047     		blx	r0
 369 0180 6168     		ldr	r1, [r4, #4]
 370              		.loc 1 340 0
 371 0182 2C1D     		adds	r4, r5, #4
 372              		.loc 1 339 0
 373 0184 8847     		blx	r1
 374              		.loc 1 338 0
 375 0186 B442     		cmp	r4, r6
 376 0188 F6D3     		bcc	.L17
 377              	.L16:
 378              	.LBE21:
 379              		.loc 1 347 0
 380              		.loc 1 346 0
 381 018a FFF7FEBF 		b	_default_exit
 382              	.L56:
 383 018e 00BF     		.align	2
 384              	.L55:
 385 0190 00000000 		.word	__process_stack_end__
 386 0194 00000000 		.word	__main_stack_base__
ARM GAS  /tmp/ccpRQAjU.s 			page 8


 387 0198 00000000 		.word	__main_stack_end__
 388 019c 00000000 		.word	__process_stack_base__
 389 01a0 00000000 		.word	_data
 390 01a4 00000000 		.word	_edata
 391 01a8 00000000 		.word	_textdata
 392 01ac 00000000 		.word	_bss_start
 393 01b0 00000000 		.word	_bss_end
 394 01b4 00000000 		.word	__init_array_start
 395 01b8 00000000 		.word	__init_array_end
 396 01bc 00000000 		.word	__fini_array_start
 397 01c0 00000000 		.word	__fini_array_end
 398              		.cfi_endproc
 399              	.LFE4:
 400              		.size	ResetHandler, .-ResetHandler
 401 01c4 AFF30080 		.text
 401      AFF30080 
 401      AFF30080 
 402              	.Letext0: