ARM GAS  /tmp/ccFAgHXG.s 			page 1


   1              		.syntax unified
   2              		.cpu cortex-m3
   3              		.fpu softvfp
   4              		.eabi_attribute 20, 1
   5              		.eabi_attribute 21, 1
   6              		.eabi_attribute 23, 3
   7              		.eabi_attribute 24, 1
   8              		.eabi_attribute 25, 1
   9              		.eabi_attribute 26, 1
  10              		.eabi_attribute 30, 2
  11              		.eabi_attribute 18, 4
  12              		.thumb
  13              		.file	"hal.c"
  20 0000 1A020000 		.text
  20      0200AE01 
  20      00000201 
  20      FB0E0D00 
  20      01010101 
  21              	.Ltext0:
  22              		.cfi_sections	.debug_frame
  23              		.section	.text.halInit,"ax",%progbits
  24              		.align	2
  25              		.p2align 4,,15
  26              		.global	halInit
  27              		.thumb
  28              		.thumb_func
  29              		.type	halInit, %function
  30              	halInit:
  31              	.LFB55:
  32              		.file 1 "../chibios/os/hal/src/hal.c"
  33              		.loc 1 68 0
  34              		.cfi_startproc
  35              		@ args = 0, pretend = 0, frame = 0
  36              		@ frame_needed = 0, uses_anonymous_args = 0
  37 0000 10B5     		push	{r4, lr}
  38              	.LCFI0:
  39              		.cfi_def_cfa_offset 8
  40              		.loc 1 70 0
  41              		.cfi_offset 14, -4
  42              		.cfi_offset 4, -8
  43 0002 FFF7FEFF 		bl	hal_lld_init
  44              		.loc 1 73 0
  45 0006 FFF7FEFF 		bl	tmInit
  46              		.loc 1 76 0
  47 000a 0648     		ldr	r0, .L2
  48 000c FFF7FEFF 		bl	_pal_lld_init
  49              		.loc 1 115 0
  50 0010 FFF7FEFF 		bl	usbInit
  51              		.loc 1 121 0
  52 0014 FFF7FEFF 		bl	sduInit
  53              		.loc 1 124 0
ARM GAS  /tmp/ccFAgHXG.s 			page 2


  54 0018 FFF7FEFF 		bl	rtcInit
  55              		.loc 1 128 0
  56 001c BDE81040 		pop	{r4, lr}
  57              		.loc 1 127 0
  58 0020 FFF7FEBF 		b	boardInit
  59              	.L3:
  60              		.align	2
  61              	.L2:
  62 0024 00000000 		.word	pal_default_config
  63              		.cfi_endproc
  64              	.LFE55:
  65              		.size	halInit, .-halInit
  66 0028 AFF30080 		.section	.text.halIsCounterWithin,"ax",%progbits
  66      AFF30080 
  67              		.align	2
  68              		.p2align 4,,15
  69              		.global	halIsCounterWithin
  70              		.thumb
  71              		.thumb_func
  72              		.type	halIsCounterWithin, %function
  73              	halIsCounterWithin:
  74              	.LFB56:
  75              		.loc 1 174 0
  76              		.cfi_startproc
  77              		@ args = 0, pretend = 0, frame = 0
  78              		@ frame_needed = 0, uses_anonymous_args = 0
  79              		@ link register save eliminated.
  80              	.LVL0:
  81              		.loc 1 175 0
  82 0000 084B     		ldr	r3, .L11
  83              		.loc 1 177 0
  84 0002 8142     		cmp	r1, r0
  85              		.loc 1 175 0
  86 0004 5B68     		ldr	r3, [r3, #4]
  87              	.LVL1:
  88              		.loc 1 177 0
  89 0006 06D9     		bls	.L5
  90              		.loc 1 177 0 is_stmt 0 discriminator 1
  91 0008 8342     		cmp	r3, r0
  92 000a 08D3     		bcc	.L7
  93              	.L9:
  94              		.loc 1 177 0
  95 000c 8B42     		cmp	r3, r1
  96 000e 2CBF     		ite	cs
  97 0010 0020     		movcs	r0, #0
  98              	.LVL2:
  99 0012 0120     		movcc	r0, #1
 100 0014 7047     		bx	lr
 101              	.LVL3:
 102              	.L5:
 103              		.loc 1 177 0 discriminator 2
 104 0016 8342     		cmp	r3, r0
 105 0018 F8D3     		bcc	.L9
 106              		.loc 1 177 0
 107 001a 0120     		movs	r0, #1
 108              	.LVL4:
 109              		.loc 1 179 0 is_stmt 1
ARM GAS  /tmp/ccFAgHXG.s 			page 3


 110 001c 7047     		bx	lr
 111              	.LVL5:
 112              	.L7:
 113              		.loc 1 177 0
 114 001e 0020     		movs	r0, #0
 115              	.LVL6:
 116 0020 7047     		bx	lr
 117              	.L12:
 118 0022 00BF     		.align	2
 119              	.L11:
 120 0024 001000E0 		.word	-536866816
 121              		.cfi_endproc
 122              	.LFE56:
 123              		.size	halIsCounterWithin, .-halIsCounterWithin
 124 0028 AFF30080 		.section	.text.halPolledDelay,"ax",%progbits
 124      AFF30080 
 125              		.align	2
 126              		.p2align 4,,15
 127              		.global	halPolledDelay
 128              		.thumb
 129              		.thumb_func
 130              		.type	halPolledDelay, %function
 131              	halPolledDelay:
 132              	.LFB57:
 133              		.loc 1 193 0
 134              		.cfi_startproc
 135              		@ args = 0, pretend = 0, frame = 0
 136              		@ frame_needed = 0, uses_anonymous_args = 0
 137              		@ link register save eliminated.
 138              	.LVL7:
 139              		.loc 1 194 0
 140 0000 084A     		ldr	r2, .L21
 141 0002 5368     		ldr	r3, [r2, #4]
 142              	.LVL8:
 143              		.loc 1 195 0
 144 0004 C018     		adds	r0, r0, r3
 145              	.LVL9:
 146              	.L19:
 147              	.LBB4:
 148              	.LBB5:
 149              		.loc 1 177 0 discriminator 1
 150 0006 8342     		cmp	r3, r0
 151              		.loc 1 175 0 discriminator 1
 152 0008 5168     		ldr	r1, [r2, #4]
 153              	.LVL10:
 154              		.loc 1 177 0 discriminator 1
 155 000a 02D2     		bcs	.L14
 156              		.loc 1 177 0 is_stmt 0
 157 000c 8B42     		cmp	r3, r1
 158 000e 05D9     		bls	.L20
 159 0010 7047     		bx	lr
 160              	.L14:
 161 0012 8B42     		cmp	r3, r1
 162 0014 F7D9     		bls	.L19
 163              		.loc 1 178 0 is_stmt 1
 164 0016 8842     		cmp	r0, r1
 165 0018 F5D8     		bhi	.L19
ARM GAS  /tmp/ccFAgHXG.s 			page 4


 166 001a 7047     		bx	lr
 167              	.L20:
 168              		.loc 1 177 0
 169 001c 8842     		cmp	r0, r1
 170 001e F2D8     		bhi	.L19
 171 0020 7047     		bx	lr
 172              	.L22:
 173 0022 00BF     		.align	2
 174              	.L21:
 175 0024 001000E0 		.word	-536866816
 176              	.LBE5:
 177              	.LBE4:
 178              		.cfi_endproc
 179              	.LFE57:
 180              		.size	halPolledDelay, .-halPolledDelay
 181 0028 AFF30080 		.text
 181      AFF30080 
 182              	.Letext0: