ARM GAS  /tmp/ccbT4snW.s 			page 1


   1              		.syntax unified
   2              		.cpu cortex-m3
   3              		.fpu softvfp
   4              		.eabi_attribute 20, 1
   5              		.eabi_attribute 21, 1
   6              		.eabi_attribute 23, 3
   7              		.eabi_attribute 24, 1
   8              		.eabi_attribute 25, 1
   9              		.eabi_attribute 26, 1
  10              		.eabi_attribute 30, 2
  11              		.eabi_attribute 18, 4
  12              		.thumb
  13              		.file	"pawn_ctrl.c"
  20 0000 52030000 		.text
  20      0200A501 
  20      00000201 
  20      FB0E0D00 
  20      01010101 
  21              	.Ltext0:
  22              		.cfi_sections	.debug_frame
  23              		.section	.text.aux_Monitor,"ax",%progbits
  24              		.align	2
  25              		.p2align 4,,15
  26              		.global	aux_Monitor
  27              		.thumb
  28              		.thumb_func
  29              		.type	aux_Monitor, %function
  30              	aux_Monitor:
  31              	.LFB55:
  32              		.file 1 "pawn/pawn_ctrl.c"
  33              		.loc 1 33 0
  34              		.cfi_startproc
  35              		@ args = 0, pretend = 0, frame = 0
  36              		@ frame_needed = 0, uses_anonymous_args = 0
  37              		@ link register save eliminated.
  38              	.LVL0:
  39              		.loc 1 36 0
  40 0000 0120     		movs	r0, #1
  41              	.LVL1:
  42 0002 7047     		bx	lr
  43              		.cfi_endproc
  44              	.LFE55:
  45              		.size	aux_Monitor, .-aux_Monitor
  46 0004 AFF30080 		.section	.text.n_io,"ax",%progbits
  46      AFF30080 
  46      AFF30080 
  47              		.align	2
  48              		.p2align 4,,15
  49              		.thumb
  50              		.thumb_func
  51              		.type	n_io, %function
ARM GAS  /tmp/ccbT4snW.s 			page 2


  52              	n_io:
  53              	.LFB57:
  54              		.loc 1 71 0
  55              		.cfi_startproc
  56              		@ args = 0, pretend = 0, frame = 0
  57              		@ frame_needed = 0, uses_anonymous_args = 0
  58              		@ link register save eliminated.
  59              	.LVL2:
  60              		.loc 1 75 0
  61 0000 4868     		ldr	r0, [r1, #4]
  62              	.LVL3:
  63 0002 024A     		ldr	r2, .L3
  64 0004 1318     		adds	r3, r2, r0
  65              		.loc 1 76 0
  66 0006 93F88408 		ldrb	r0, [r3, #2180]	@ zero_extendqisi2
  67 000a 7047     		bx	lr
  68              	.L4:
  69              		.align	2
  70              	.L3:
  71 000c 00000000 		.word	.LANCHOR0
  72              		.cfi_endproc
  73              	.LFE57:
  74              		.size	n_io, .-n_io
  75              		.section	.text.n_setIo,"ax",%progbits
  76              		.align	2
  77              		.p2align 4,,15
  78              		.thumb
  79              		.thumb_func
  80              		.type	n_setIo, %function
  81              	n_setIo:
  82              	.LFB58:
  83              		.loc 1 79 0
  84              		.cfi_startproc
  85              		@ args = 0, pretend = 0, frame = 0
  86              		@ frame_needed = 0, uses_anonymous_args = 0
  87              		@ link register save eliminated.
  88              	.LVL4:
  89              		.loc 1 82 0
  90 0000 0879     		ldrb	r0, [r1, #4]	@ zero_extendqisi2
  91              	.LVL5:
  92              		.loc 1 83 0
  93 0002 8A68     		ldr	r2, [r1, #8]
  94 0004 0249     		ldr	r1, .L6
  95              	.LVL6:
  96 0006 0B18     		adds	r3, r1, r0
  97 0008 83F88428 		strb	r2, [r3, #2180]
  98              		.loc 1 85 0
  99 000c 0020     		movs	r0, #0
 100              	.LVL7:
 101 000e 7047     		bx	lr
 102              	.L7:
 103              		.align	2
 104              	.L6:
 105 0010 00000000 		.word	.LANCHOR0
 106              		.cfi_endproc
 107              	.LFE58:
 108              		.size	n_setIo, .-n_setIo
ARM GAS  /tmp/ccbT4snW.s 			page 3


 109 0014 AFF30080 		.section	.text.execThread,"ax",%progbits
 109      AFF30080 
 109      AFF30080 
 110              		.align	2
 111              		.p2align 4,,15
 112              		.thumb
 113              		.thumb_func
 114              		.type	execThread, %function
 115              	execThread:
 116              	.LFB67:
 117              		.loc 1 193 0
 118              		.cfi_startproc
 119              		@ args = 0, pretend = 0, frame = 0
 120              		@ frame_needed = 0, uses_anonymous_args = 0
 121              	.LVL8:
 122              		.loc 1 195 0
 123 0000 2B48     		ldr	r0, .L16
 124              	.LVL9:
 125              		.loc 1 193 0
 126 0002 2DE9F84F 		push	{r3, r4, r5, r6, r7, r8, r9, sl, fp, lr}
 127              	.LCFI0:
 128              		.cfi_def_cfa_offset 40
 129              		.loc 1 195 0
 130 0006 2B4A     		ldr	r2, .L16+4
 131 0008 2B4D     		ldr	r5, .L16+8
 132              		.cfi_offset 14, -4
 133              		.cfi_offset 11, -8
 134              		.cfi_offset 10, -12
 135              		.cfi_offset 9, -16
 136              		.cfi_offset 8, -20
 137              		.cfi_offset 7, -24
 138              		.cfi_offset 6, -28
 139              		.cfi_offset 5, -32
 140              		.cfi_offset 4, -36
 141              		.cfi_offset 3, -40
 142 000a C369     		ldr	r3, [r0, #28]
 143 000c DFF8B4B0 		ldr	fp, .L16+20
 144 0010 9A61     		str	r2, [r3, #24]
 145              	.LBB4:
 146              	.LBB6:
 147              		.loc 1 42 0
 148 0012 A846     		mov	r8, r5
 149              		.loc 1 192 0
 150 0014 05F17804 		add	r4, r5, #120
 151              	.L11:
 152              	.LBE6:
 153              	.LBE4:
 154              		.loc 1 47 0 discriminator 1
 155 0018 DFF8ACA0 		ldr	sl, .L16+24
 156              	.LBB8:
 157              	.LBB5:
 158              		.loc 1 41 0 discriminator 1
 159 001c 4FF00009 		mov	r9, #0
 160              	.L10:
 161              	.LBE5:
 162              	.LBE8:
 163              		.loc 1 198 0 discriminator 1
ARM GAS  /tmp/ccbT4snW.s 			page 4


 164 0020 2648     		ldr	r0, .L16+12
 165 0022 FFF7FEFF 		bl	chSemWait
 166              	.LVL10:
 167              	.LBB9:
 168              	.LBB7:
 169              		.loc 1 40 0 discriminator 1
 170              	@ 40 "pawn/pawn_ctrl.c" 1
 171 0026 FFF7FEFF 		bl      _port_lock
 172              	@ 0 "" 2
 173              		.thumb
 174 002a FFF7FEFF 		bl	dbg_check_lock
 175              		.loc 1 41 0 discriminator 1
 176 002e 85F87890 		strb	r9, [r5, #120]
 177              		.loc 1 42 0 discriminator 1
 178 0032 FFF7FEFF 		bl	dbg_check_unlock
 179              	@ 42 "pawn/pawn_ctrl.c" 1
 180 0036 FFF7FEFF 		bl      _port_unlock
 181              	@ 0 "" 2
 182              	.LVL11:
 183              		.thumb
 184 003a 1F4D     		ldr	r5, .L16+8
 185 003c 2B46     		mov	r3, r5
 186              	.LVL12:
 187              	.L9:
 188              		.loc 1 46 0
 189 003e 1946     		mov	r1, r3
 190 0040 01F8019B 		strb	r9, [r1], #1
 191 0044 83F80190 		strb	r9, [r3, #1]
 192 0048 4B1C     		adds	r3, r1, #1
 193              		.loc 1 45 0
 194 004a A342     		cmp	r3, r4
 195 004c F7D1     		bne	.L9
 196              		.loc 1 47 0
 197 004e 1A4F     		ldr	r7, .L16+8
 198              		.loc 1 49 0
 199 0050 1B49     		ldr	r1, .L16+16
 200 0052 3846     		mov	r0, r7
 201              		.loc 1 47 0
 202 0054 C8F808A0 		str	sl, [r8, #8]
 203              	.LVL13:
 204              		.loc 1 49 0
 205 0058 FFF7FEFF 		bl	amx_Init
 206 005c 0646     		mov	r6, r0
 207 005e C8F87C00 		str	r0, [r8, #124]
 208              		.loc 1 50 0
 209 0062 0028     		cmp	r0, #0
 210 0064 DCD1     		bne	.L10
 211              		.loc 1 54 0
 212              	@ 54 "pawn/pawn_ctrl.c" 1
 213 0066 FFF7FEFF 		bl      _port_lock
 214              	@ 0 "" 2
 215              		.thumb
 216 006a FFF7FEFF 		bl	dbg_check_lock
 217              		.loc 1 55 0
 218 006e 0123     		movs	r3, #1
 219 0070 87F87830 		strb	r3, [r7, #120]
 220              		.loc 1 56 0
ARM GAS  /tmp/ccbT4snW.s 			page 5


 221 0074 FFF7FEFF 		bl	dbg_check_unlock
 222              	@ 56 "pawn/pawn_ctrl.c" 1
 223 0078 FFF7FEFF 		bl      _port_unlock
 224              	@ 0 "" 2
 225              		.loc 1 58 0
 226              		.thumb
 227 007c 1149     		ldr	r1, .L16+20
 228 007e 4FF0FF32 		mov	r2, #-1
 229 0082 3846     		mov	r0, r7
 230 0084 FFF7FEFF 		bl	amx_Exec
 231              		.loc 1 59 0
 232 0088 DBF80020 		ldr	r2, [fp, #0]
 233              		.loc 1 58 0
 234 008c C7F88000 		str	r0, [r7, #128]
 235              		.loc 1 59 0
 236 0090 FA67     		str	r2, [r7, #124]
 237              		.loc 1 60 0
 238 0092 3846     		mov	r0, r7
 239 0094 FFF7FEFF 		bl	amx_Cleanup
 240              		.loc 1 62 0
 241              	@ 62 "pawn/pawn_ctrl.c" 1
 242 0098 FFF7FEFF 		bl      _port_lock
 243              	@ 0 "" 2
 244              		.thumb
 245 009c FFF7FEFF 		bl	dbg_check_lock
 246              		.loc 1 63 0
 247 00a0 87F87860 		strb	r6, [r7, #120]
 248              		.loc 1 64 0
 249 00a4 FFF7FEFF 		bl	dbg_check_unlock
 250              	@ 64 "pawn/pawn_ctrl.c" 1
 251 00a8 FFF7FEFF 		bl      _port_unlock
 252              	@ 0 "" 2
 253              		.thumb
 254 00ac B4E7     		b	.L11
 255              	.L17:
 256 00ae 00BF     		.align	2
 257              	.L16:
 258 00b0 00000000 		.word	rlist
 259 00b4 00000000 		.word	.LC0
 260 00b8 00000000 		.word	.LANCHOR0
 261 00bc 00000000 		.word	.LANCHOR1
 262 00c0 00540008 		.word	134239232
 263 00c4 00000000 		.word	.LANCHOR2
 264 00c8 84000000 		.word	.LANCHOR0+132
 265              	.LBE7:
 266              	.LBE9:
 267              		.cfi_endproc
 268              	.LFE67:
 269              		.size	execThread, .-execThread
 270 00cc AFF30080 		.section	.text.pawnInit,"ax",%progbits
 271              		.align	2
 272              		.p2align 4,,15
 273              		.global	pawnInit
 274              		.thumb
 275              		.thumb_func
 276              		.type	pawnInit, %function
 277              	pawnInit:
ARM GAS  /tmp/ccbT4snW.s 			page 6


 278              	.LFB59:
 279              		.loc 1 118 0
 280              		.cfi_startproc
 281              		@ args = 0, pretend = 0, frame = 0
 282              		@ frame_needed = 0, uses_anonymous_args = 0
 283 0000 10B5     		push	{r4, lr}
 284              	.LCFI1:
 285              		.cfi_def_cfa_offset 8
 286              		.loc 1 120 0
 287 0002 0021     		movs	r1, #0
 288              		.loc 1 118 0
 289 0004 82B0     		sub	sp, sp, #8
 290              	.LCFI2:
 291              		.cfi_def_cfa_offset 16
 292              		.loc 1 120 0
 293 0006 0748     		ldr	r0, .L19
 294              		.cfi_offset 14, -4
 295              		.cfi_offset 4, -8
 296 0008 FFF7FEFF 		bl	chSemInit
 297              		.loc 1 122 0
 298 000c 0024     		movs	r4, #0
 299 000e 4FF40B61 		mov	r1, #2224
 300 0012 4022     		movs	r2, #64
 301 0014 044B     		ldr	r3, .L19+4
 302 0016 0548     		ldr	r0, .L19+8
 303 0018 0094     		str	r4, [sp, #0]
 304 001a FFF7FEFF 		bl	chThdCreateStatic
 305              		.loc 1 123 0
 306 001e 02B0     		add	sp, sp, #8
 307 0020 10BD     		pop	{r4, pc}
 308              	.L20:
 309 0022 00BF     		.align	2
 310              	.L19:
 311 0024 00000000 		.word	.LANCHOR1
 312 0028 00000000 		.word	execThread
 313 002c 00000000 		.word	.LANCHOR3
 314              		.cfi_endproc
 315              	.LFE59:
 316              		.size	pawnInit, .-pawnInit
 317              		.section	.text.pawnSetIo,"ax",%progbits
 318              		.align	2
 319              		.p2align 4,,15
 320              		.global	pawnSetIo
 321              		.thumb
 322              		.thumb_func
 323              		.type	pawnSetIo, %function
 324              	pawnSetIo:
 325              	.LFB60:
 326              		.loc 1 126 0
 327              		.cfi_startproc
 328              		@ args = 0, pretend = 0, frame = 0
 329              		@ frame_needed = 0, uses_anonymous_args = 0
 330              		@ link register save eliminated.
 331              	.LVL14:
 332 0000 30B4     		push	{r4, r5}
 333              	.LCFI3:
 334              		.cfi_def_cfa_offset 8
ARM GAS  /tmp/ccbT4snW.s 			page 7


 335              		.loc 1 128 0
 336 0002 08B3     		cbz	r0, .L21
 337              		.cfi_offset 5, -4
 338              		.cfi_offset 4, -8
 339              		.loc 1 125 0
 340 0004 431E     		subs	r3, r0, #1
 341 0006 DAB2     		uxtb	r2, r3
 342              		.loc 1 129 0
 343 0008 0B46     		mov	r3, r1
 344              		.loc 1 125 0
 345 000a 8D18     		adds	r5, r1, r2
 346              		.loc 1 129 0
 347 000c 13F8010B 		ldrb	r0, [r3], #1	@ zero_extendqisi2
 348              	.LVL15:
 349 0010 691A     		subs	r1, r5, r1
 350              	.LVL16:
 351 0012 0E4A     		ldr	r2, .L30
 352 0014 0135     		adds	r5, r5, #1
 353              		.loc 1 128 0
 354 0016 AB42     		cmp	r3, r5
 355              		.loc 1 129 0
 356 0018 1070     		strb	r0, [r2, #0]
 357              	.LVL17:
 358 001a 01F00101 		and	r1, r1, #1
 359              		.loc 1 128 0
 360 001e 13D0     		beq	.L21
 361 0020 29B1     		cbz	r1, .L23
 362              		.loc 1 129 0
 363 0022 13F8010B 		ldrb	r0, [r3], #1	@ zero_extendqisi2
 364              	.LVL18:
 365              		.loc 1 128 0
 366 0026 AB42     		cmp	r3, r5
 367              		.loc 1 129 0
 368 0028 02F8010F 		strb	r0, [r2, #1]!
 369              		.loc 1 128 0
 370 002c 0CD0     		beq	.L21
 371              	.LVL19:
 372              	.L23:
 373              		.loc 1 129 0 discriminator 2
 374 002e 1946     		mov	r1, r3
 375 0030 11F8014B 		ldrb	r4, [r1], #1	@ zero_extendqisi2
 376 0034 501C     		adds	r0, r2, #1
 377 0036 5470     		strb	r4, [r2, #1]
 378 0038 93F801C0 		ldrb	ip, [r3, #1]	@ zero_extendqisi2
 379 003c 4B1C     		adds	r3, r1, #1
 380 003e 421C     		adds	r2, r0, #1
 381              		.loc 1 128 0 discriminator 2
 382 0040 AB42     		cmp	r3, r5
 383              		.loc 1 129 0 discriminator 2
 384 0042 80F801C0 		strb	ip, [r0, #1]
 385              		.loc 1 128 0 discriminator 2
 386 0046 F2D1     		bne	.L23
 387              	.L21:
 388              		.loc 1 130 0
 389 0048 30BC     		pop	{r4, r5}
 390 004a 7047     		bx	lr
 391              	.L31:
ARM GAS  /tmp/ccbT4snW.s 			page 8


 392              		.align	2
 393              	.L30:
 394 004c 84080000 		.word	.LANCHOR0+2180
 395              		.cfi_endproc
 396              	.LFE60:
 397              		.size	pawnSetIo, .-pawnSetIo
 398              		.section	.text.pawnIo,"ax",%progbits
 399              		.align	2
 400              		.p2align 4,,15
 401              		.global	pawnIo
 402              		.thumb
 403              		.thumb_func
 404              		.type	pawnIo, %function
 405              	pawnIo:
 406              	.LFB61:
 407              		.loc 1 133 0
 408              		.cfi_startproc
 409              		@ args = 0, pretend = 0, frame = 0
 410              		@ frame_needed = 0, uses_anonymous_args = 0
 411              		@ link register save eliminated.
 412              	.LVL20:
 413 0000 30B4     		push	{r4, r5}
 414              	.LCFI4:
 415              		.cfi_def_cfa_offset 8
 416              		.loc 1 135 0
 417 0002 08B3     		cbz	r0, .L32
 418              		.cfi_offset 5, -4
 419              		.cfi_offset 4, -8
 420 0004 114A     		ldr	r2, .L41
 421              		.loc 1 132 0
 422 0006 431E     		subs	r3, r0, #1
 423 0008 551C     		adds	r5, r2, #1
 424 000a D8B2     		uxtb	r0, r3
 425              	.LVL21:
 426 000c 2818     		adds	r0, r5, r0
 427 000e 2B46     		mov	r3, r5
 428 0010 D443     		mvns	r4, r2
 429              		.loc 1 136 0
 430 0012 2D78     		ldrb	r5, [r5, #0]	@ zero_extendqisi2
 431 0014 2418     		adds	r4, r4, r0
 432              		.loc 1 135 0
 433 0016 8342     		cmp	r3, r0
 434              		.loc 1 136 0
 435 0018 01F8015B 		strb	r5, [r1], #1
 436              	.LVL22:
 437 001c 04F00104 		and	r4, r4, #1
 438              		.loc 1 135 0
 439 0020 12D0     		beq	.L32
 440 0022 34B1     		cbz	r4, .L34
 441              		.loc 1 132 0
 442 0024 1346     		mov	r3, r2
 443              		.loc 1 136 0
 444 0026 13F8022F 		ldrb	r2, [r3, #2]!	@ zero_extendqisi2
 445              		.loc 1 135 0
 446 002a 8342     		cmp	r3, r0
 447              		.loc 1 136 0
 448 002c 01F8012B 		strb	r2, [r1], #1
ARM GAS  /tmp/ccbT4snW.s 			page 9


 449              	.LVL23:
 450              		.loc 1 135 0
 451 0030 0AD0     		beq	.L32
 452              	.LVL24:
 453              	.L34:
 454              		.loc 1 136 0 discriminator 2
 455 0032 93F801C0 		ldrb	ip, [r3, #1]	@ zero_extendqisi2
 456 0036 0A46     		mov	r2, r1
 457 0038 02F801CB 		strb	ip, [r2], #1
 458 003c 9C78     		ldrb	r4, [r3, #2]	@ zero_extendqisi2
 459              		.loc 1 132 0 discriminator 2
 460 003e 0233     		adds	r3, r3, #2
 461              		.loc 1 136 0 discriminator 2
 462 0040 4C70     		strb	r4, [r1, #1]
 463 0042 511C     		adds	r1, r2, #1
 464              		.loc 1 135 0 discriminator 2
 465 0044 8342     		cmp	r3, r0
 466 0046 F4D1     		bne	.L34
 467              	.L32:
 468              		.loc 1 137 0
 469 0048 30BC     		pop	{r4, r5}
 470 004a 7047     		bx	lr
 471              	.L42:
 472              		.align	2
 473              	.L41:
 474 004c 83080000 		.word	.LANCHOR0+2179
 475              		.cfi_endproc
 476              	.LFE61:
 477              		.size	pawnIo, .-pawnIo
 478              		.section	.text.pawnSetMem,"ax",%progbits
 479              		.align	2
 480              		.p2align 4,,15
 481              		.global	pawnSetMem
 482              		.thumb
 483              		.thumb_func
 484              		.type	pawnSetMem, %function
 485              	pawnSetMem:
 486              	.LFB62:
 487              		.loc 1 140 0
 488              		.cfi_startproc
 489              		@ args = 0, pretend = 0, frame = 0
 490              		@ frame_needed = 0, uses_anonymous_args = 0
 491              		@ link register save eliminated.
 492              	.LVL25:
 493 0000 30B4     		push	{r4, r5}
 494              	.LCFI5:
 495              		.cfi_def_cfa_offset 8
 496              		.loc 1 142 0
 497 0002 38B3     		cbz	r0, .L43
 498              		.cfi_offset 5, -4
 499              		.cfi_offset 4, -8
 500              		.loc 1 139 0
 501 0004 431E     		subs	r3, r0, #1
 502 0006 144C     		ldr	r4, .L52
 503 0008 1FFA83FC 		uxth	ip, r3
 504 000c 01EB0C05 		add	r5, r1, ip
 505 0010 04EB8103 		add	r3, r4, r1, lsl #2
ARM GAS  /tmp/ccbT4snW.s 			page 10


 506              		.loc 1 143 0
 507 0014 12F8010B 		ldrb	r0, [r2], #1	@ zero_extendqisi2
 508              	.LVL26:
 509              		.loc 1 139 0
 510 0018 8434     		adds	r4, r4, #132
 511 001a 8033     		adds	r3, r3, #128
 512 001c 04EB8505 		add	r5, r4, r5, lsl #2
 513 0020 E91A     		subs	r1, r5, r3
 514              	.LVL27:
 515              		.loc 1 143 0
 516 0022 43F8040F 		str	r0, [r3, #4]!
 517              	.LVL28:
 518 0026 0439     		subs	r1, r1, #4
 519              		.loc 1 142 0
 520 0028 AB42     		cmp	r3, r5
 521 002a C1F38001 		ubfx	r1, r1, #2, #1
 522 002e 11D0     		beq	.L43
 523 0030 29B1     		cbz	r1, .L45
 524              		.loc 1 143 0
 525 0032 12F8011B 		ldrb	r1, [r2], #1	@ zero_extendqisi2
 526              	.LVL29:
 527 0036 43F8041F 		str	r1, [r3, #4]!
 528              		.loc 1 142 0
 529 003a AB42     		cmp	r3, r5
 530 003c 0AD0     		beq	.L43
 531              	.LVL30:
 532              	.L45:
 533              		.loc 1 143 0 discriminator 2
 534 003e 1146     		mov	r1, r2
 535 0040 11F8014B 		ldrb	r4, [r1], #1	@ zero_extendqisi2
 536 0044 181D     		adds	r0, r3, #4
 537 0046 5C60     		str	r4, [r3, #4]
 538 0048 5278     		ldrb	r2, [r2, #1]	@ zero_extendqisi2
 539 004a 0833     		adds	r3, r3, #8
 540 004c 4260     		str	r2, [r0, #4]
 541 004e 4A1C     		adds	r2, r1, #1
 542              		.loc 1 142 0 discriminator 2
 543 0050 AB42     		cmp	r3, r5
 544 0052 F4D1     		bne	.L45
 545              	.L43:
 546              		.loc 1 144 0
 547 0054 30BC     		pop	{r4, r5}
 548 0056 7047     		bx	lr
 549              	.L53:
 550              		.align	2
 551              	.L52:
 552 0058 00000000 		.word	.LANCHOR0
 553              		.cfi_endproc
 554              	.LFE62:
 555              		.size	pawnSetMem, .-pawnSetMem
 556 005c AFF30080 		.section	.text.pawnWriteFlash,"ax",%progbits
 557              		.align	2
 558              		.p2align 4,,15
 559              		.global	pawnWriteFlash
 560              		.thumb
 561              		.thumb_func
 562              		.type	pawnWriteFlash, %function
ARM GAS  /tmp/ccbT4snW.s 			page 11


 563              	pawnWriteFlash:
 564              	.LFB63:
 565              		.loc 1 147 0
 566              		.cfi_startproc
 567              		@ args = 0, pretend = 0, frame = 0
 568              		@ frame_needed = 0, uses_anonymous_args = 0
 569              	.LVL31:
 570 0000 2DE9F843 		push	{r3, r4, r5, r6, r7, r8, r9, lr}
 571              	.LCFI6:
 572              		.cfi_def_cfa_offset 32
 573              		.loc 1 147 0
 574 0004 8146     		mov	r9, r0
 575              		.cfi_offset 14, -4
 576              		.cfi_offset 9, -8
 577              		.cfi_offset 8, -12
 578              		.cfi_offset 7, -16
 579              		.cfi_offset 6, -20
 580              		.cfi_offset 5, -24
 581              		.cfi_offset 4, -28
 582              		.cfi_offset 3, -32
 583              		.loc 1 149 0
 584 0006 09F50035 		add	r5, r9, #131072
 585 000a 1535     		adds	r5, r5, #21
 586 000c AD02     		lsls	r5, r5, #10
 587              		.loc 1 148 0
 588 000e FFF7FEFF 		bl	FLASH_Unlock
 589              	.LVL32:
 590              		.loc 1 150 0
 591 0012 2846     		mov	r0, r5
 592 0014 FFF7FEFF 		bl	FLASH_ErasePage
 593              		.loc 1 151 0
 594 0018 0428     		cmp	r0, #4
 595              		.loc 1 150 0
 596 001a 8146     		mov	r9, r0
 597              	.LVL33:
 598              		.loc 1 151 0
 599 001c 25D1     		bne	.L64
 600              		.loc 1 154 0
 601 001e 184C     		ldr	r4, .L66
 602              		.loc 1 146 0
 603 0020 04F50068 		add	r8, r4, #2048
 604 0024 08E0     		b	.L58
 605              	.LVL34:
 606              	.L57:
 607              		.loc 1 160 0
 608 0026 D7F88410 		ldr	r1, [r7, #132]
 609 002a FFF7FEFF 		bl	FLASH_ProgramWord
 610              		.loc 1 161 0
 611 002e 0428     		cmp	r0, #4
 612              		.loc 1 160 0
 613 0030 8146     		mov	r9, r0
 614              	.LVL35:
 615              		.loc 1 161 0
 616 0032 12D1     		bne	.L62
 617              	.LVL36:
 618              		.loc 1 158 0
 619 0034 4445     		cmp	r4, r8
ARM GAS  /tmp/ccbT4snW.s 			page 12


 620 0036 1DD0     		beq	.L65
 621              	.LVL37:
 622              	.L58:
 623              		.loc 1 160 0
 624 0038 D4F88410 		ldr	r1, [r4, #132]
 625 003c 2846     		mov	r0, r5
 626 003e FFF7FEFF 		bl	FLASH_ProgramWord
 627 0042 8146     		mov	r9, r0
 628              	.LVL38:
 629              		.loc 1 164 0
 630 0044 2E1D     		adds	r6, r5, #4
 631 0046 04F11007 		add	r7, r4, #16
 632              		.loc 1 161 0
 633 004a B9F1040F 		cmp	r9, #4
 634              		.loc 1 160 0
 635 004e 3046     		mov	r0, r6
 636              	.LVL39:
 637              		.loc 1 164 0
 638 0050 07F11004 		add	r4, r7, #16
 639 0054 05F10805 		add	r5, r5, #8
 640              		.loc 1 161 0
 641 0058 E5D0     		beq	.L57
 642              	.LVL40:
 643              	.L62:
 644              		.loc 1 164 0
 645 005a 09F10A09 		add	r9, r9, #10
 646              		.loc 1 163 0
 647 005e FFF7FEFF 		bl	FLASH_Lock
 648              		.loc 1 164 0
 649 0062 1FFA89F0 		uxth	r0, r9
 650 0066 BDE8F883 		pop	{r3, r4, r5, r6, r7, r8, r9, pc}
 651              	.LVL41:
 652              	.L64:
 653              		.loc 1 153 0
 654 006a FFF7FEFF 		bl	FLASH_Lock
 655              	.LVL42:
 656              		.loc 1 154 0
 657 006e 4846     		mov	r0, r9
 658 0070 BDE8F883 		pop	{r3, r4, r5, r6, r7, r8, r9, pc}
 659              	.LVL43:
 660              	.L65:
 661              		.loc 1 168 0
 662 0074 FFF7FEFF 		bl	FLASH_Lock
 663              	.LVL44:
 664              		.loc 1 169 0
 665 0078 0020     		movs	r0, #0
 666              		.loc 1 170 0
 667 007a BDE8F883 		pop	{r3, r4, r5, r6, r7, r8, r9, pc}
 668              	.L67:
 669 007e 00BF     		.align	2
 670              	.L66:
 671 0080 00000000 		.word	.LANCHOR0
 672              		.cfi_endproc
 673              	.LFE63:
 674              		.size	pawnWriteFlash, .-pawnWriteFlash
 675 0084 AFF30080 		.section	.text.pawnRun,"ax",%progbits
 675      AFF30080 
ARM GAS  /tmp/ccbT4snW.s 			page 13


 675      AFF30080 
 676              		.align	2
 677              		.p2align 4,,15
 678              		.global	pawnRun
 679              		.thumb
 680              		.thumb_func
 681              		.type	pawnRun, %function
 682              	pawnRun:
 683              	.LFB64:
 684              		.loc 1 173 0
 685              		.cfi_startproc
 686              		@ args = 0, pretend = 0, frame = 0
 687              		@ frame_needed = 0, uses_anonymous_args = 0
 688 0000 08B5     		push	{r3, lr}
 689              	.LCFI7:
 690              		.cfi_def_cfa_offset 8
 691              		.loc 1 174 0
 692              	@ 174 "pawn/pawn_ctrl.c" 1
 693 0002 FFF7FEFF 		bl      _port_lock
 694              	@ 0 "" 2
 695              		.thumb
 696              		.cfi_offset 14, -4
 697              		.cfi_offset 3, -8
 698 0006 FFF7FEFF 		bl	dbg_check_lock
 699 000a 0A48     		ldr	r0, .L71
 700 000c 8368     		ldr	r3, [r0, #8]
 701 000e 002B     		cmp	r3, #0
 702 0010 06DD     		ble	.L70
 703              		.loc 1 174 0 is_stmt 0 discriminator 2
 704 0012 FFF7FEFF 		bl	chSchRescheduleS
 705 0016 FFF7FEFF 		bl	dbg_check_unlock
 706              	@ 174 "pawn/pawn_ctrl.c" 1
 707 001a FFF7FEFF 		bl      _port_unlock
 708              	@ 0 "" 2
 709              		.loc 1 175 0 is_stmt 1 discriminator 2
 710              		.thumb
 711 001e 08BD     		pop	{r3, pc}
 712              	.L70:
 713              		.loc 1 174 0 discriminator 1
 714 0020 FFF7FEFF 		bl	chSemSignalI
 715 0024 FFF7FEFF 		bl	chSchRescheduleS
 716 0028 FFF7FEFF 		bl	dbg_check_unlock
 717              	@ 174 "pawn/pawn_ctrl.c" 1
 718 002c FFF7FEFF 		bl      _port_unlock
 719              	@ 0 "" 2
 720              		.loc 1 175 0 discriminator 1
 721              		.thumb
 722 0030 08BD     		pop	{r3, pc}
 723              	.L72:
 724 0032 00BF     		.align	2
 725              	.L71:
 726 0034 00000000 		.word	.LANCHOR1
 727              		.cfi_endproc
 728              	.LFE64:
 729              		.size	pawnRun, .-pawnRun
 730 0038 AFF30080 		.section	.text.pawnIsRunning,"ax",%progbits
 730      AFF30080 
ARM GAS  /tmp/ccbT4snW.s 			page 14


 731              		.align	2
 732              		.p2align 4,,15
 733              		.global	pawnIsRunning
 734              		.thumb
 735              		.thumb_func
 736              		.type	pawnIsRunning, %function
 737              	pawnIsRunning:
 738              	.LFB65:
 739              		.loc 1 178 0
 740              		.cfi_startproc
 741              		@ args = 0, pretend = 0, frame = 0
 742              		@ frame_needed = 0, uses_anonymous_args = 0
 743 0000 10B5     		push	{r4, lr}
 744              	.LCFI8:
 745              		.cfi_def_cfa_offset 8
 746              		.loc 1 179 0
 747              	@ 179 "pawn/pawn_ctrl.c" 1
 748 0002 FFF7FEFF 		bl      _port_lock
 749              	@ 0 "" 2
 750              		.thumb
 751              		.cfi_offset 14, -4
 752              		.cfi_offset 4, -8
 753 0006 FFF7FEFF 		bl	dbg_check_lock
 754              		.loc 1 180 0
 755 000a 044B     		ldr	r3, .L74
 756 000c 93F87840 		ldrb	r4, [r3, #120]	@ zero_extendqisi2
 757              	.LVL45:
 758              		.loc 1 181 0
 759 0010 FFF7FEFF 		bl	dbg_check_unlock
 760              	@ 181 "pawn/pawn_ctrl.c" 1
 761 0014 FFF7FEFF 		bl      _port_unlock
 762              	@ 0 "" 2
 763              		.loc 1 183 0
 764              		.thumb
 765 0018 2046     		mov	r0, r4
 766 001a 10BD     		pop	{r4, pc}
 767              	.L75:
 768              		.align	2
 769              	.L74:
 770 001c 00000000 		.word	.LANCHOR0
 771              		.cfi_endproc
 772              	.LFE65:
 773              		.size	pawnIsRunning, .-pawnIsRunning
 774              		.section	.text.pawnStop,"ax",%progbits
 775              		.align	2
 776              		.p2align 4,,15
 777              		.global	pawnStop
 778              		.thumb
 779              		.thumb_func
 780              		.type	pawnStop, %function
 781              	pawnStop:
 782              	.LFB66:
 783              		.loc 1 186 0
 784              		.cfi_startproc
 785              		@ args = 0, pretend = 0, frame = 0
 786              		@ frame_needed = 0, uses_anonymous_args = 0
 787 0000 08B5     		push	{r3, lr}
ARM GAS  /tmp/ccbT4snW.s 			page 15


 788              	.LCFI9:
 789              		.cfi_def_cfa_offset 8
 790              		.loc 1 187 0
 791              	@ 187 "pawn/pawn_ctrl.c" 1
 792 0002 FFF7FEFF 		bl      _port_lock
 793              	@ 0 "" 2
 794              		.thumb
 795              		.cfi_offset 14, -4
 796              		.cfi_offset 3, -8
 797 0006 FFF7FEFF 		bl	dbg_check_lock
 798              		.loc 1 188 0
 799 000a 0449     		ldr	r1, .L77
 800 000c 0448     		ldr	r0, .L77+4
 801 000e FFF7FEFF 		bl	amx_SetDebugHook
 802              		.loc 1 189 0
 803 0012 FFF7FEFF 		bl	dbg_check_unlock
 804              	@ 189 "pawn/pawn_ctrl.c" 1
 805 0016 FFF7FEFF 		bl      _port_unlock
 806              	@ 0 "" 2
 807              		.loc 1 190 0
 808              		.thumb
 809 001a 08BD     		pop	{r3, pc}
 810              	.L78:
 811              		.align	2
 812              	.L77:
 813 001c 00000000 		.word	aux_Monitor
 814 0020 00000000 		.word	.LANCHOR0
 815              		.cfi_endproc
 816              	.LFE66:
 817              		.size	pawnStop, .-pawnStop
 818              		.global	g_nativetable
 819              		.global	g_pawn
 820 0024 AFF30080 		.section	.bss.semaphore,"aw",%nobits
 820      AFF30080 
 820      AFF30080 
 821              		.align	2
 822              		.set	.LANCHOR1,. + 0
 823              		.type	semaphore, %object
 824              		.size	semaphore, 12
 825              	semaphore:
 826 0000 00000000 		.space	12
 826      00000000 
 826      00000000 
 827              		.section	.bss.waExec,"aw",%nobits
 828              		.align	3
 829              		.set	.LANCHOR3,. + 0
 830              		.type	waExec, %object
 831              		.size	waExec, 2224
 832              	waExec:
 833 0000 00000000 		.space	2224
 833      00000000 
 833      00000000 
 833      00000000 
 833      00000000 
 834              		.section	.bss.ret.6606,"aw",%nobits
 835              		.align	2
 836              		.set	.LANCHOR2,. + 0
ARM GAS  /tmp/ccbT4snW.s 			page 16


 837              		.type	ret.6606, %object
 838              		.size	ret.6606, 4
 839              	ret.6606:
 840 0000 00000000 		.space	4
 841              		.section	.rodata.str1.4,"aMS",%progbits,1
 842              		.align	2
 843              	.LC0:
 844 0000 6500     		.ascii	"e\000"
 845 0002 0000     		.section	.bss.g_pawn,"aw",%nobits
 846              		.align	2
 847              		.set	.LANCHOR0,. + 0
 848              		.type	g_pawn, %object
 849              		.size	g_pawn, 2188
 850              	g_pawn:
 851 0000 00000000 		.space	2188
 851      00000000 
 851      00000000 
 851      00000000 
 851      00000000 
 852              		.section	.rodata.g_nativetable,"a",%progbits
 853              		.align	2
 854              		.type	g_nativetable, %object
 855              		.size	g_nativetable, 8
 856              	g_nativetable:
 857 0000 00000000 		.word	n_io
 858 0004 00000000 		.word	n_setIo
 859              		.text
 860              	.Letext0: