ARM GAS  /tmp/ccueb994.s 			page 1


   1              		.syntax unified
   2              		.cpu cortex-m3
   3              		.fpu softvfp
   4              		.eabi_attribute 20, 1
   5              		.eabi_attribute 21, 1
   6              		.eabi_attribute 23, 3
   7              		.eabi_attribute 24, 1
   8              		.eabi_attribute 25, 1
   9              		.eabi_attribute 26, 1
  10              		.eabi_attribute 30, 2
  11              		.eabi_attribute 18, 4
  12              		.thumb
  13              		.file	"rtc.c"
  20 0000 0C020000 		.text
  20      02004501 
  20      00000201 
  20      FB0E0D00 
  20      01010101 
  21              	.Ltext0:
  22              		.cfi_sections	.debug_frame
  23              		.section	.text.rtcInit,"ax",%progbits
  24              		.align	2
  25              		.p2align 4,,15
  26              		.global	rtcInit
  27              		.thumb
  28              		.thumb_func
  29              		.type	rtcInit, %function
  30              	rtcInit:
  31              	.LFB55:
  32              		.file 1 "../chibios/os/hal/src/rtc.c"
  33              		.loc 1 72 0
  34              		.cfi_startproc
  35              		@ args = 0, pretend = 0, frame = 0
  36              		@ frame_needed = 0, uses_anonymous_args = 0
  37              		@ link register save eliminated.
  38              		.loc 1 75 0
  39              		.loc 1 74 0
  40 0000 FFF7FEBF 		b	rtc_lld_init
  41              		.cfi_endproc
  42              	.LFE55:
  43              		.size	rtcInit, .-rtcInit
  44 0004 AFF30080 		.section	.text.rtcSetTime,"ax",%progbits
  44      AFF30080 
  44      AFF30080 
  45              		.align	2
  46              		.p2align 4,,15
  47              		.global	rtcSetTime
  48              		.thumb
  49              		.thumb_func
  50              		.type	rtcSetTime, %function
  51              	rtcSetTime:
ARM GAS  /tmp/ccueb994.s 			page 2


  52              	.LFB56:
  53              		.loc 1 85 0
  54              		.cfi_startproc
  55              		@ args = 0, pretend = 0, frame = 0
  56              		@ frame_needed = 0, uses_anonymous_args = 0
  57              	.LVL0:
  58 0000 38B5     		push	{r3, r4, r5, lr}
  59              	.LCFI0:
  60              		.cfi_def_cfa_offset 16
  61              		.loc 1 87 0
  62 0002 0446     		mov	r4, r0
  63              		.cfi_offset 14, -4
  64              		.cfi_offset 5, -8
  65              		.cfi_offset 4, -12
  66              		.cfi_offset 3, -16
  67              		.loc 1 85 0
  68 0004 0D46     		mov	r5, r1
  69              		.loc 1 87 0
  70 0006 68B1     		cbz	r0, .L3
  71              		.loc 1 87 0 is_stmt 0 discriminator 2
  72 0008 61B1     		cbz	r1, .L3
  73              	.LVL1:
  74              	.L4:
  75              		.loc 1 89 0 is_stmt 1
  76              	@ 89 "../chibios/os/hal/src/rtc.c" 1
  77 000a FFF7FEFF 		bl      _port_lock
  78              	@ 0 "" 2
  79              		.thumb
  80 000e FFF7FEFF 		bl	dbg_check_lock
  81              		.loc 1 90 0
  82 0012 2046     		mov	r0, r4
  83 0014 2946     		mov	r1, r5
  84 0016 FFF7FEFF 		bl	rtc_lld_set_time
  85              		.loc 1 91 0
  86 001a FFF7FEFF 		bl	dbg_check_unlock
  87              	@ 91 "../chibios/os/hal/src/rtc.c" 1
  88 001e FFF7FEFF 		bl      _port_unlock
  89              	@ 0 "" 2
  90              		.loc 1 92 0
  91              		.thumb
  92 0022 38BD     		pop	{r3, r4, r5, pc}
  93              	.L3:
  94              		.loc 1 87 0 discriminator 1
  95 0024 0148     		ldr	r0, .L6
  96 0026 FFF7FEFF 		bl	chDbgPanic
  97 002a EEE7     		b	.L4
  98              	.L7:
  99              		.align	2
 100              	.L6:
 101 002c 00000000 		.word	.LC0
 102              		.cfi_endproc
 103              	.LFE56:
 104              		.size	rtcSetTime, .-rtcSetTime
 105              		.section	.text.rtcGetTime,"ax",%progbits
 106              		.align	2
 107              		.p2align 4,,15
 108              		.global	rtcGetTime
ARM GAS  /tmp/ccueb994.s 			page 3


 109              		.thumb
 110              		.thumb_func
 111              		.type	rtcGetTime, %function
 112              	rtcGetTime:
 113              	.LFB57:
 114              		.loc 1 102 0
 115              		.cfi_startproc
 116              		@ args = 0, pretend = 0, frame = 0
 117              		@ frame_needed = 0, uses_anonymous_args = 0
 118              	.LVL2:
 119 0000 38B5     		push	{r3, r4, r5, lr}
 120              	.LCFI1:
 121              		.cfi_def_cfa_offset 16
 122              		.loc 1 104 0
 123 0002 0446     		mov	r4, r0
 124              		.cfi_offset 14, -4
 125              		.cfi_offset 5, -8
 126              		.cfi_offset 4, -12
 127              		.cfi_offset 3, -16
 128              		.loc 1 102 0
 129 0004 0D46     		mov	r5, r1
 130              		.loc 1 104 0
 131 0006 68B1     		cbz	r0, .L9
 132              		.loc 1 104 0 is_stmt 0 discriminator 2
 133 0008 61B1     		cbz	r1, .L9
 134              	.LVL3:
 135              	.L10:
 136              		.loc 1 106 0 is_stmt 1
 137              	@ 106 "../chibios/os/hal/src/rtc.c" 1
 138 000a FFF7FEFF 		bl      _port_lock
 139              	@ 0 "" 2
 140              		.thumb
 141 000e FFF7FEFF 		bl	dbg_check_lock
 142              		.loc 1 107 0
 143 0012 2046     		mov	r0, r4
 144 0014 2946     		mov	r1, r5
 145 0016 FFF7FEFF 		bl	rtc_lld_get_time
 146              		.loc 1 108 0
 147 001a FFF7FEFF 		bl	dbg_check_unlock
 148              	@ 108 "../chibios/os/hal/src/rtc.c" 1
 149 001e FFF7FEFF 		bl      _port_unlock
 150              	@ 0 "" 2
 151              		.loc 1 109 0
 152              		.thumb
 153 0022 38BD     		pop	{r3, r4, r5, pc}
 154              	.L9:
 155              		.loc 1 104 0 discriminator 1
 156 0024 0148     		ldr	r0, .L11
 157 0026 FFF7FEFF 		bl	chDbgPanic
 158 002a EEE7     		b	.L10
 159              	.L12:
 160              		.align	2
 161              	.L11:
 162 002c 10000000 		.word	.LC1
 163              		.cfi_endproc
 164              	.LFE57:
 165              		.size	rtcGetTime, .-rtcGetTime
ARM GAS  /tmp/ccueb994.s 			page 4


 166              		.section	.text.rtcSetAlarm,"ax",%progbits
 167              		.align	2
 168              		.p2align 4,,15
 169              		.global	rtcSetAlarm
 170              		.thumb
 171              		.thumb_func
 172              		.type	rtcSetAlarm, %function
 173              	rtcSetAlarm:
 174              	.LFB58:
 175              		.loc 1 123 0
 176              		.cfi_startproc
 177              		@ args = 0, pretend = 0, frame = 0
 178              		@ frame_needed = 0, uses_anonymous_args = 0
 179              	.LVL4:
 180 0000 70B5     		push	{r4, r5, r6, lr}
 181              	.LCFI2:
 182              		.cfi_def_cfa_offset 16
 183              		.loc 1 125 0
 184 0002 0446     		mov	r4, r0
 185              		.cfi_offset 14, -4
 186              		.cfi_offset 6, -8
 187              		.cfi_offset 5, -12
 188              		.cfi_offset 4, -16
 189              		.loc 1 123 0
 190 0004 0D46     		mov	r5, r1
 191 0006 1646     		mov	r6, r2
 192              		.loc 1 125 0
 193 0008 00B1     		cbz	r0, .L14
 194              		.loc 1 125 0 is_stmt 0 discriminator 2
 195 000a 11B1     		cbz	r1, .L15
 196              	.L14:
 197              		.loc 1 125 0 discriminator 1
 198 000c 0848     		ldr	r0, .L16
 199              	.LVL5:
 200 000e FFF7FEFF 		bl	chDbgPanic
 201              	.LVL6:
 202              	.L15:
 203              		.loc 1 127 0 is_stmt 1
 204              	@ 127 "../chibios/os/hal/src/rtc.c" 1
 205 0012 FFF7FEFF 		bl      _port_lock
 206              	@ 0 "" 2
 207              		.thumb
 208 0016 FFF7FEFF 		bl	dbg_check_lock
 209              		.loc 1 128 0
 210 001a 2046     		mov	r0, r4
 211 001c 2946     		mov	r1, r5
 212 001e 3246     		mov	r2, r6
 213 0020 FFF7FEFF 		bl	rtc_lld_set_alarm
 214              		.loc 1 129 0
 215 0024 FFF7FEFF 		bl	dbg_check_unlock
 216              	@ 129 "../chibios/os/hal/src/rtc.c" 1
 217 0028 FFF7FEFF 		bl      _port_unlock
 218              	@ 0 "" 2
 219              		.loc 1 130 0
 220              		.thumb
 221 002c 70BD     		pop	{r4, r5, r6, pc}
 222              	.L17:
ARM GAS  /tmp/ccueb994.s 			page 5


 223 002e 00BF     		.align	2
 224              	.L16:
 225 0030 20000000 		.word	.LC2
 226              		.cfi_endproc
 227              	.LFE58:
 228              		.size	rtcSetAlarm, .-rtcSetAlarm
 229 0034 AFF30080 		.section	.text.rtcGetAlarm,"ax",%progbits
 229      AFF30080 
 229      AFF30080 
 230              		.align	2
 231              		.p2align 4,,15
 232              		.global	rtcGetAlarm
 233              		.thumb
 234              		.thumb_func
 235              		.type	rtcGetAlarm, %function
 236              	rtcGetAlarm:
 237              	.LFB59:
 238              		.loc 1 145 0
 239              		.cfi_startproc
 240              		@ args = 0, pretend = 0, frame = 0
 241              		@ frame_needed = 0, uses_anonymous_args = 0
 242              	.LVL7:
 243 0000 70B5     		push	{r4, r5, r6, lr}
 244              	.LCFI3:
 245              		.cfi_def_cfa_offset 16
 246              		.loc 1 147 0
 247 0002 0446     		mov	r4, r0
 248              		.cfi_offset 14, -4
 249              		.cfi_offset 6, -8
 250              		.cfi_offset 5, -12
 251              		.cfi_offset 4, -16
 252              		.loc 1 145 0
 253 0004 0D46     		mov	r5, r1
 254 0006 1646     		mov	r6, r2
 255              		.loc 1 147 0
 256 0008 00B1     		cbz	r0, .L19
 257              		.loc 1 147 0 is_stmt 0 discriminator 2
 258 000a 81B1     		cbz	r1, .L21
 259              	.L19:
 260              		.loc 1 147 0 discriminator 1
 261 000c 0948     		ldr	r0, .L22
 262              	.LVL8:
 263 000e FFF7FEFF 		bl	chDbgPanic
 264              	.LVL9:
 265              	.L20:
 266              		.loc 1 150 0 is_stmt 1
 267              	@ 150 "../chibios/os/hal/src/rtc.c" 1
 268 0012 FFF7FEFF 		bl      _port_lock
 269              	@ 0 "" 2
 270              		.thumb
 271 0016 FFF7FEFF 		bl	dbg_check_lock
 272              		.loc 1 151 0
 273 001a 2046     		mov	r0, r4
 274 001c 2946     		mov	r1, r5
 275 001e 3246     		mov	r2, r6
 276 0020 FFF7FEFF 		bl	rtc_lld_get_alarm
 277              		.loc 1 152 0
ARM GAS  /tmp/ccueb994.s 			page 6


 278 0024 FFF7FEFF 		bl	dbg_check_unlock
 279              	@ 152 "../chibios/os/hal/src/rtc.c" 1
 280 0028 FFF7FEFF 		bl      _port_unlock
 281              	@ 0 "" 2
 282              		.loc 1 153 0
 283              		.thumb
 284 002c 70BD     		pop	{r4, r5, r6, pc}
 285              	.L21:
 286              		.loc 1 147 0 discriminator 3
 287 002e 002A     		cmp	r2, #0
 288 0030 EFD1     		bne	.L20
 289 0032 EBE7     		b	.L19
 290              	.L23:
 291              		.align	2
 292              	.L22:
 293 0034 30000000 		.word	.LC3
 294              		.cfi_endproc
 295              	.LFE59:
 296              		.size	rtcGetAlarm, .-rtcGetAlarm
 297 0038 AFF30080 		.section	.text.rtcSetCallback,"ax",%progbits
 297      AFF30080 
 298              		.align	2
 299              		.p2align 4,,15
 300              		.global	rtcSetCallback
 301              		.thumb
 302              		.thumb_func
 303              		.type	rtcSetCallback, %function
 304              	rtcSetCallback:
 305              	.LFB60:
 306              		.loc 1 167 0
 307              		.cfi_startproc
 308              		@ args = 0, pretend = 0, frame = 0
 309              		@ frame_needed = 0, uses_anonymous_args = 0
 310              	.LVL10:
 311 0000 38B5     		push	{r3, r4, r5, lr}
 312              	.LCFI4:
 313              		.cfi_def_cfa_offset 16
 314              		.loc 1 169 0
 315 0002 0446     		mov	r4, r0
 316              		.cfi_offset 14, -4
 317              		.cfi_offset 5, -8
 318              		.cfi_offset 4, -12
 319              		.cfi_offset 3, -16
 320              		.loc 1 167 0
 321 0004 0D46     		mov	r5, r1
 322              		.loc 1 169 0
 323 0006 60B1     		cbz	r0, .L26
 324              	.LVL11:
 325              	.L25:
 326              		.loc 1 171 0
 327              	@ 171 "../chibios/os/hal/src/rtc.c" 1
 328 0008 FFF7FEFF 		bl      _port_lock
 329              	@ 0 "" 2
 330              		.thumb
 331 000c FFF7FEFF 		bl	dbg_check_lock
 332              		.loc 1 172 0
 333 0010 2046     		mov	r0, r4
ARM GAS  /tmp/ccueb994.s 			page 7


 334 0012 2946     		mov	r1, r5
 335 0014 FFF7FEFF 		bl	rtc_lld_set_callback
 336              		.loc 1 173 0
 337 0018 FFF7FEFF 		bl	dbg_check_unlock
 338              	@ 173 "../chibios/os/hal/src/rtc.c" 1
 339 001c FFF7FEFF 		bl      _port_unlock
 340              	@ 0 "" 2
 341              		.loc 1 174 0
 342              		.thumb
 343 0020 38BD     		pop	{r3, r4, r5, pc}
 344              	.L26:
 345              		.loc 1 169 0 discriminator 1
 346 0022 0248     		ldr	r0, .L27
 347 0024 FFF7FEFF 		bl	chDbgPanic
 348 0028 EEE7     		b	.L25
 349              	.L28:
 350 002a 00BF     		.align	2
 351              	.L27:
 352 002c 40000000 		.word	.LC4
 353              		.cfi_endproc
 354              	.LFE60:
 355              		.size	rtcSetCallback, .-rtcSetCallback
 356              		.section	.rodata.str1.4,"aMS",%progbits,1
 357              		.align	2
 358              	.LC0:
 359 0000 22727463 		.ascii	"\"rtcSetTime\"()\000"
 359      53657454 
 359      696D6522 
 359      282900
 360 000f 00       		.space	1
 361              	.LC1:
 362 0010 22727463 		.ascii	"\"rtcGetTime\"()\000"
 362      47657454 
 362      696D6522 
 362      282900
 363 001f 00       		.space	1
 364              	.LC2:
 365 0020 22727463 		.ascii	"\"rtcSetAlarm\"()\000"
 365      53657441 
 365      6C61726D 
 365      22282900 
 366              	.LC3:
 367 0030 22727463 		.ascii	"\"rtcGetAlarm\"()\000"
 367      47657441 
 367      6C61726D 
 367      22282900 
 368              	.LC4:
 369 0040 22727463 		.ascii	"\"rtcSetCallback\"()\000"
 369      53657443 
 369      616C6C62 
 369      61636B22 
 369      282900
 370 0053 00       		.text
 371              	.Letext0: