ARM GAS  /tmp/ccKhJN5d.s 			page 1


   1              		.syntax unified
   2              		.cpu cortex-m3
   3              		.fpu softvfp
   4              		.eabi_attribute 20, 1
   5              		.eabi_attribute 21, 1
   6              		.eabi_attribute 23, 3
   7              		.eabi_attribute 24, 1
   8              		.eabi_attribute 25, 1
   9              		.eabi_attribute 26, 1
  10              		.eabi_attribute 30, 2
  11              		.eabi_attribute 18, 4
  12              		.thumb
  13              		.file	"rtc_lld.c"
  20 0000 F1020000 		.text
  20      02006801 
  20      00000201 
  20      FB0E0D00 
  20      01010101 
  21              	.Ltext0:
  22              		.cfi_sections	.debug_frame
  23              		.section	.text.Vector4C,"ax",%progbits
  24              		.align	2
  25              		.p2align 4,,15
  26              		.global	Vector4C
  27              		.thumb
  28              		.thumb_func
  29              		.type	Vector4C, %function
  30              	Vector4C:
  31              	.LFB55:
  32              		.file 1 "../chibios/os/hal/platforms/STM32/RTCv1/rtc_lld.c"
  33              		.loc 1 106 0
  34              		.cfi_startproc
  35              		@ args = 0, pretend = 0, frame = 0
  36              		@ frame_needed = 0, uses_anonymous_args = 0
  37 0000 10B5     		push	{r4, lr}
  38              	.LCFI0:
  39              		.cfi_def_cfa_offset 8
  40              		.loc 1 109 0
  41              		.cfi_offset 14, -4
  42              		.cfi_offset 4, -8
  43 0002 FFF7FEFF 		bl	dbg_check_enter_isr
  44              		.loc 1 113 0
  45 0006 1649     		ldr	r1, .L10
  46              	.L2:
  47              		.loc 1 113 0 is_stmt 0 discriminator 1
  48 0008 8B88     		ldrh	r3, [r1, #4]
  49 000a 154A     		ldr	r2, .L10
  50 000c 13F0080F 		tst	r3, #8
  51 0010 FAD0     		beq	.L2
  52              		.loc 1 116 0 is_stmt 1
  53 0012 1188     		ldrh	r1, [r2, #0]
ARM GAS  /tmp/ccKhJN5d.s 			page 2


  54 0014 9488     		ldrh	r4, [r2, #4]
  55              		.loc 1 117 0
  56 0016 B2F804C0 		ldrh	ip, [r2, #4]
  57              	.LVL0:
  58              		.loc 1 119 0
  59 001a 0C40     		ands	r4, r4, r1
  60              	.LVL1:
  61              		.loc 1 117 0
  62 001c 2CF00700 		bic	r0, ip, #7
  63 0020 0304     		lsls	r3, r0, #16
  64 0022 180C     		lsrs	r0, r3, #16
  65              		.loc 1 119 0
  66 0024 14F0010F 		tst	r4, #1
  67              		.loc 1 117 0
  68 0028 9080     		strh	r0, [r2, #4]	@ movhi
  69              		.loc 1 119 0
  70 002a 14D1     		bne	.L8
  71              	.L3:
  72              		.loc 1 122 0
  73 002c 14F0020F 		tst	r4, #2
  74 0030 0CD1     		bne	.L9
  75              	.L4:
  76              		.loc 1 125 0
  77 0032 14F0040F 		tst	r4, #4
  78 0036 03D0     		beq	.L5
  79              		.loc 1 126 0
  80 0038 0A48     		ldr	r0, .L10+4
  81 003a 0221     		movs	r1, #2
  82 003c 0268     		ldr	r2, [r0, #0]
  83 003e 9047     		blx	r2
  84              	.L5:
  85              		.loc 1 128 0
  86 0040 FFF7FEFF 		bl	dbg_check_leave_isr
  87              		.loc 1 129 0
  88 0044 BDE81040 		pop	{r4, lr}
  89              		.loc 1 128 0
  90 0048 FFF7FEBF 		b	_port_irq_epilogue
  91              	.L9:
  92              		.loc 1 123 0
  93 004c 0548     		ldr	r0, .L10+4
  94 004e 0121     		movs	r1, #1
  95 0050 0368     		ldr	r3, [r0, #0]
  96 0052 9847     		blx	r3
  97 0054 EDE7     		b	.L4
  98              	.L8:
  99              		.loc 1 120 0
 100 0056 0348     		ldr	r0, .L10+4
 101 0058 0021     		movs	r1, #0
 102 005a 0268     		ldr	r2, [r0, #0]
 103 005c 9047     		blx	r2
 104 005e E5E7     		b	.L3
 105              	.L11:
 106              		.align	2
 107              	.L10:
 108 0060 00280040 		.word	1073752064
 109 0064 00000000 		.word	.LANCHOR0
 110              		.cfi_endproc
ARM GAS  /tmp/ccKhJN5d.s 			page 3


 111              	.LFE55:
 112              		.size	Vector4C, .-Vector4C
 113 0068 AFF30080 		.section	.text.rtc_lld_init,"ax",%progbits
 113      AFF30080 
 114              		.align	2
 115              		.p2align 4,,15
 116              		.global	rtc_lld_init
 117              		.thumb
 118              		.thumb_func
 119              		.type	rtc_lld_init, %function
 120              	rtc_lld_init:
 121              	.LFB56:
 122              		.loc 1 143 0
 123              		.cfi_startproc
 124              		@ args = 0, pretend = 0, frame = 0
 125              		@ frame_needed = 0, uses_anonymous_args = 0
 126              		@ link register save eliminated.
 127              		.loc 1 146 0
 128 0000 1A49     		ldr	r1, .L22
 129              	.L13:
 130              		.loc 1 146 0 is_stmt 0 discriminator 1
 131 0002 8B88     		ldrh	r3, [r1, #4]
 132 0004 194A     		ldr	r2, .L22
 133 0006 13F0080F 		tst	r3, #8
 134 000a FAD0     		beq	.L13
 135              		.loc 1 149 0 is_stmt 1
 136 000c 1089     		ldrh	r0, [r2, #8]
 137              		.loc 1 150 0
 138 000e 9389     		ldrh	r3, [r2, #12]
 139              		.loc 1 149 0
 140 0010 0104     		lsls	r1, r0, #16
 141              		.loc 1 150 0
 142 0012 1FFA83FC 		uxth	ip, r3
 143              		.loc 1 149 0
 144 0016 6144     		add	r1, r1, ip
 145 0018 4FF22340 		movw	r0, #62499
 146 001c 8142     		cmp	r1, r0
 147 001e 17D0     		beq	.L16
 148              	.L18:
 149              		.loc 1 151 0 discriminator 1
 150 0020 B2F804C0 		ldrh	ip, [r2, #4]
 151 0024 1149     		ldr	r1, .L22
 152 0026 1CF0200F 		tst	ip, #32
 153 002a F9D0     		beq	.L18
 154              		.loc 1 151 0 is_stmt 0 discriminator 2
 155 002c 8A88     		ldrh	r2, [r1, #4]
 156              		.loc 1 152 0 is_stmt 1 discriminator 2
 157 002e 0023     		movs	r3, #0
 158              		.loc 1 151 0 discriminator 2
 159 0030 1FFA82FC 		uxth	ip, r2
 160 0034 4CF01000 		orr	r0, ip, #16
 161              		.loc 1 153 0 discriminator 2
 162 0038 4FF22342 		movw	r2, 62499	@ movhi
 163              		.loc 1 151 0 discriminator 2
 164 003c 8880     		strh	r0, [r1, #4]	@ movhi
 165              		.loc 1 152 0 discriminator 2
 166 003e 0B81     		strh	r3, [r1, #8]	@ movhi
ARM GAS  /tmp/ccKhJN5d.s 			page 4


 167              		.loc 1 153 0 discriminator 2
 168 0040 8A81     		strh	r2, [r1, #12]	@ movhi
 169              		.loc 1 154 0 discriminator 2
 170 0042 B1F804C0 		ldrh	ip, [r1, #4]
 171 0046 2CF01000 		bic	r0, ip, #16
 172 004a 0304     		lsls	r3, r0, #16
 173 004c 1A0C     		lsrs	r2, r3, #16
 174 004e 8A80     		strh	r2, [r1, #4]	@ movhi
 175              	.L16:
 176              		.loc 1 158 0 discriminator 1
 177 0050 064A     		ldr	r2, .L22
 178              	.L17:
 179 0052 9188     		ldrh	r1, [r2, #4]
 180 0054 11F0200F 		tst	r1, #32
 181 0058 FBD0     		beq	.L17
 182              		.loc 1 159 0
 183 005a 044A     		ldr	r2, .L22
 184 005c 0023     		movs	r3, #0
 185 005e 1380     		strh	r3, [r2, #0]	@ movhi
 186              		.loc 1 162 0
 187 0060 034A     		ldr	r2, .L22+4
 188              		.loc 1 165 0
 189 0062 0320     		movs	r0, #3
 190 0064 F021     		movs	r1, #240
 191              		.loc 1 162 0
 192 0066 1360     		str	r3, [r2, #0]
 193              		.loc 1 166 0
 194              		.loc 1 165 0
 195 0068 FFF7FEBF 		b	nvicEnableVector
 196              	.L23:
 197              		.align	2
 198              	.L22:
 199 006c 00280040 		.word	1073752064
 200 0070 00000000 		.word	.LANCHOR0
 201              		.cfi_endproc
 202              	.LFE56:
 203              		.size	rtc_lld_init, .-rtc_lld_init
 204 0074 AFF30080 		.section	.text.rtc_lld_set_time,"ax",%progbits
 204      AFF30080 
 204      AFF30080 
 205              		.align	2
 206              		.p2align 4,,15
 207              		.global	rtc_lld_set_time
 208              		.thumb
 209              		.thumb_func
 210              		.type	rtc_lld_set_time, %function
 211              	rtc_lld_set_time:
 212              	.LFB57:
 213              		.loc 1 178 0
 214              		.cfi_startproc
 215              		@ args = 0, pretend = 0, frame = 0
 216              		@ frame_needed = 0, uses_anonymous_args = 0
 217              		@ link register save eliminated.
 218              	.LVL2:
 219              		.loc 1 182 0
 220 0000 0B4B     		ldr	r3, .L27
 221              	.LVL3:
ARM GAS  /tmp/ccKhJN5d.s 			page 5


 222              	.L25:
 223              		.loc 1 182 0 is_stmt 0 discriminator 1
 224 0002 9A88     		ldrh	r2, [r3, #4]
 225 0004 0A48     		ldr	r0, .L27
 226 0006 12F0200F 		tst	r2, #32
 227 000a FAD0     		beq	.L25
 228              		.loc 1 182 0 discriminator 2
 229 000c 8288     		ldrh	r2, [r0, #4]
 230              		.loc 1 183 0 is_stmt 1 discriminator 2
 231 000e 0B68     		ldr	r3, [r1, #0]
 232              		.loc 1 182 0 discriminator 2
 233 0010 1FFA82FC 		uxth	ip, r2
 234 0014 4CF01001 		orr	r1, ip, #16
 235              	.LVL4:
 236              		.loc 1 183 0 discriminator 2
 237 0018 1A0C     		lsrs	r2, r3, #16
 238              		.loc 1 182 0 discriminator 2
 239 001a 8180     		strh	r1, [r0, #4]	@ movhi
 240              		.loc 1 183 0 discriminator 2
 241 001c 0283     		strh	r2, [r0, #24]	@ movhi
 242              		.loc 1 184 0 discriminator 2
 243 001e 8383     		strh	r3, [r0, #28]	@ movhi
 244              		.loc 1 185 0 discriminator 2
 245 0020 B0F804C0 		ldrh	ip, [r0, #4]
 246 0024 2CF01002 		bic	r2, ip, #16
 247 0028 1104     		lsls	r1, r2, #16
 248 002a 0B0C     		lsrs	r3, r1, #16
 249 002c 8380     		strh	r3, [r0, #4]	@ movhi
 250              		.loc 1 186 0 discriminator 2
 251 002e 7047     		bx	lr
 252              	.L28:
 253              		.align	2
 254              	.L27:
 255 0030 00280040 		.word	1073752064
 256              		.cfi_endproc
 257              	.LFE57:
 258              		.size	rtc_lld_set_time, .-rtc_lld_set_time
 259 0034 AFF30080 		.section	.text.rtc_lld_get_time,"ax",%progbits
 259      AFF30080 
 259      AFF30080 
 260              		.align	2
 261              		.p2align 4,,15
 262              		.global	rtc_lld_get_time
 263              		.thumb
 264              		.thumb_func
 265              		.type	rtc_lld_get_time, %function
 266              	rtc_lld_get_time:
 267              	.LFB58:
 268              		.loc 1 196 0
 269              		.cfi_startproc
 270              		@ args = 0, pretend = 0, frame = 0
 271              		@ frame_needed = 0, uses_anonymous_args = 0
 272              		@ link register save eliminated.
 273              	.LVL5:
 274 0000 F0B4     		push	{r4, r5, r6, r7}
 275              	.LCFI1:
 276              		.cfi_def_cfa_offset 16
ARM GAS  /tmp/ccKhJN5d.s 			page 6


 277              		.loc 1 202 0
 278 0002 144B     		ldr	r3, .L35
 279              	.L30:
 280              		.loc 1 202 0 is_stmt 0 discriminator 1
 281 0004 9A88     		ldrh	r2, [r3, #4]
 282 0006 12F0080F 		tst	r2, #8
 283 000a FBD0     		beq	.L30
 284              		.cfi_offset 7, -4
 285              		.cfi_offset 6, -8
 286              		.cfi_offset 5, -12
 287              		.cfi_offset 4, -16
 288              		.loc 1 206 0 is_stmt 1 discriminator 1
 289 000c 114B     		ldr	r3, .L35
 290              	.LVL6:
 291              	.L32:
 292 000e 188B     		ldrh	r0, [r3, #24]
 293 0010 9F8B     		ldrh	r7, [r3, #28]
 294              		.loc 1 207 0 discriminator 1
 295 0012 1D8A     		ldrh	r5, [r3, #16]
 296 0014 B3F814C0 		ldrh	ip, [r3, #20]
 297              		.loc 1 208 0 discriminator 1
 298 0018 1C8B     		ldrh	r4, [r3, #24]
 299 001a 9E8B     		ldrh	r6, [r3, #28]
 300              		.loc 1 206 0 discriminator 1
 301 001c 0204     		lsls	r2, r0, #16
 302 001e BFB2     		uxth	r7, r7
 303              		.loc 1 208 0 discriminator 1
 304 0020 2004     		lsls	r0, r4, #16
 305 0022 B6B2     		uxth	r6, r6
 306              		.loc 1 206 0 discriminator 1
 307 0024 D219     		adds	r2, r2, r7
 308              		.loc 1 208 0 discriminator 1
 309 0026 8019     		adds	r0, r0, r6
 310              		.loc 1 207 0 discriminator 1
 311 0028 2D04     		lsls	r5, r5, #16
 312 002a 1FFA8CF4 		uxth	r4, ip
 313              		.loc 1 208 0 discriminator 1
 314 002e 8242     		cmp	r2, r0
 315              		.loc 1 207 0 discriminator 1
 316 0030 2C44     		add	r4, r5, r4
 317              		.loc 1 208 0 discriminator 1
 318 0032 ECD1     		bne	.L32
 319              		.loc 1 210 0
 320 0034 084D     		ldr	r5, .L35+4
 321 0036 094B     		ldr	r3, .L35+8
 322 0038 05FB04FC 		mul	ip, r5, r4
 323 003c 0848     		ldr	r0, .L35+12
 324 003e 0CEB0304 		add	r4, ip, r3
 325 0042 A0FB044C 		umull	r4, ip, r0, r4
 326 0046 CCF38F33 		ubfx	r3, ip, #14, #16
 327              		.loc 1 208 0
 328 004a 0A60     		str	r2, [r1, #0]
 329              		.loc 1 210 0
 330 004c 4B60     		str	r3, [r1, #4]
 331              		.loc 1 212 0
 332 004e F0BC     		pop	{r4, r5, r6, r7}
 333 0050 7047     		bx	lr
ARM GAS  /tmp/ccKhJN5d.s 			page 7


 334              	.L36:
 335 0052 00BF     		.align	2
 336              	.L35:
 337 0054 00280040 		.word	1073752064
 338 0058 18FCFFFF 		.word	-1000
 339 005c B8A8B903 		.word	62499000
 340 0060 83DE1B43 		.word	1125899907
 341              		.cfi_endproc
 342              	.LFE58:
 343              		.size	rtc_lld_get_time, .-rtc_lld_get_time
 344 0064 AFF30080 		.section	.text.rtc_lld_set_alarm,"ax",%progbits
 344      AFF30080 
 344      AFF30080 
 345              		.align	2
 346              		.p2align 4,,15
 347              		.global	rtc_lld_set_alarm
 348              		.thumb
 349              		.thumb_func
 350              		.type	rtc_lld_set_alarm, %function
 351              	rtc_lld_set_alarm:
 352              	.LFB59:
 353              		.loc 1 227 0
 354              		.cfi_startproc
 355              		@ args = 0, pretend = 0, frame = 0
 356              		@ frame_needed = 0, uses_anonymous_args = 0
 357              		@ link register save eliminated.
 358              	.LVL7:
 359              		.loc 1 232 0
 360 0000 124B     		ldr	r3, .L42
 361              	.LVL8:
 362              	.L38:
 363              		.loc 1 232 0 is_stmt 0 discriminator 1
 364 0002 9988     		ldrh	r1, [r3, #4]
 365 0004 1148     		ldr	r0, .L42
 366 0006 11F0200F 		tst	r1, #32
 367 000a FAD0     		beq	.L38
 368              		.loc 1 232 0 discriminator 2
 369 000c 8188     		ldrh	r1, [r0, #4]
 370 000e 1FFA81FC 		uxth	ip, r1
 371 0012 4CF01003 		orr	r3, ip, #16
 372 0016 8380     		strh	r3, [r0, #4]	@ movhi
 373              		.loc 1 233 0 is_stmt 1 discriminator 2
 374 0018 62B1     		cbz	r2, .L39
 375              		.loc 1 234 0
 376 001a 1368     		ldr	r3, [r2, #0]
 377 001c 1A0C     		lsrs	r2, r3, #16
 378              	.LVL9:
 379 001e 0284     		strh	r2, [r0, #32]	@ movhi
 380              		.loc 1 235 0
 381 0020 8384     		strh	r3, [r0, #36]	@ movhi
 382              		.loc 1 241 0
 383 0022 0A48     		ldr	r0, .L42
 384 0024 B0F804C0 		ldrh	ip, [r0, #4]
 385 0028 2CF01002 		bic	r2, ip, #16
 386 002c 1304     		lsls	r3, r2, #16
 387 002e 190C     		lsrs	r1, r3, #16
 388 0030 8180     		strh	r1, [r0, #4]	@ movhi
ARM GAS  /tmp/ccKhJN5d.s 			page 8


 389              		.loc 1 242 0
 390 0032 7047     		bx	lr
 391              	.LVL10:
 392              	.L39:
 393              		.loc 1 238 0
 394 0034 0284     		strh	r2, [r0, #32]	@ movhi
 395              		.loc 1 239 0
 396 0036 8284     		strh	r2, [r0, #36]	@ movhi
 397              		.loc 1 241 0
 398 0038 0448     		ldr	r0, .L42
 399 003a B0F804C0 		ldrh	ip, [r0, #4]
 400 003e 2CF01002 		bic	r2, ip, #16
 401              	.LVL11:
 402 0042 1304     		lsls	r3, r2, #16
 403 0044 190C     		lsrs	r1, r3, #16
 404 0046 8180     		strh	r1, [r0, #4]	@ movhi
 405              		.loc 1 242 0
 406 0048 7047     		bx	lr
 407              	.L43:
 408 004a 00BF     		.align	2
 409              	.L42:
 410 004c 00280040 		.word	1073752064
 411              		.cfi_endproc
 412              	.LFE59:
 413              		.size	rtc_lld_set_alarm, .-rtc_lld_set_alarm
 414              		.section	.text.rtc_lld_get_alarm,"ax",%progbits
 415              		.align	2
 416              		.p2align 4,,15
 417              		.global	rtc_lld_get_alarm
 418              		.thumb
 419              		.thumb_func
 420              		.type	rtc_lld_get_alarm, %function
 421              	rtc_lld_get_alarm:
 422              	.LFB60:
 423              		.loc 1 259 0
 424              		.cfi_startproc
 425              		@ args = 0, pretend = 0, frame = 0
 426              		@ frame_needed = 0, uses_anonymous_args = 0
 427              		@ link register save eliminated.
 428              	.LVL12:
 429              		.loc 1 265 0
 430 0000 074B     		ldr	r3, .L47
 431              	.LVL13:
 432              	.L45:
 433              		.loc 1 265 0 is_stmt 0 discriminator 1
 434 0002 9988     		ldrh	r1, [r3, #4]
 435 0004 0648     		ldr	r0, .L47
 436 0006 11F0080F 		tst	r1, #8
 437 000a FAD0     		beq	.L45
 438              		.loc 1 267 0 is_stmt 1
 439 000c 038C     		ldrh	r3, [r0, #32]
 440 000e B0F824C0 		ldrh	ip, [r0, #36]
 441 0012 1904     		lsls	r1, r3, #16
 442 0014 1FFA8CF0 		uxth	r0, ip
 443 0018 0B18     		adds	r3, r1, r0
 444 001a 1360     		str	r3, [r2, #0]
 445              		.loc 1 268 0
ARM GAS  /tmp/ccKhJN5d.s 			page 9


 446 001c 7047     		bx	lr
 447              	.L48:
 448 001e 00BF     		.align	2
 449              	.L47:
 450 0020 00280040 		.word	1073752064
 451              		.cfi_endproc
 452              	.LFE60:
 453              		.size	rtc_lld_get_alarm, .-rtc_lld_get_alarm
 454 0024 AFF30080 		.section	.text.rtc_lld_set_callback,"ax",%progbits
 454      AFF30080 
 454      AFF30080 
 455              		.align	2
 456              		.p2align 4,,15
 457              		.global	rtc_lld_set_callback
 458              		.thumb
 459              		.thumb_func
 460              		.type	rtc_lld_set_callback, %function
 461              	rtc_lld_set_callback:
 462              	.LFB61:
 463              		.loc 1 280 0
 464              		.cfi_startproc
 465              		@ args = 0, pretend = 0, frame = 0
 466              		@ frame_needed = 0, uses_anonymous_args = 0
 467              		@ link register save eliminated.
 468              	.LVL14:
 469 0000 10B4     		push	{r4}
 470              	.LCFI2:
 471              		.cfi_def_cfa_offset 4
 472              		.loc 1 282 0
 473 0002 89B1     		cbz	r1, .L50
 474              		.cfi_offset 4, -4
 475              		.loc 1 287 0
 476 0004 0D4C     		ldr	r4, .L56
 477              		.loc 1 285 0
 478 0006 0160     		str	r1, [r0, #0]
 479              	.L51:
 480              		.loc 1 287 0 discriminator 1
 481 0008 A388     		ldrh	r3, [r4, #4]
 482 000a 0C4A     		ldr	r2, .L56
 483 000c 13F0200F 		tst	r3, #32
 484 0010 FAD0     		beq	.L51
 485              		.loc 1 288 0
 486 0012 B2F804C0 		ldrh	ip, [r2, #4]
 487 0016 2CF00700 		bic	r0, ip, #7
 488              	.LVL15:
 489 001a 0304     		lsls	r3, r0, #16
 490 001c 190C     		lsrs	r1, r3, #16
 491              	.LVL16:
 492              		.loc 1 289 0
 493 001e 0720     		movs	r0, #7
 494              		.loc 1 288 0
 495 0020 9180     		strh	r1, [r2, #4]	@ movhi
 496              		.loc 1 289 0
 497 0022 1080     		strh	r0, [r2, #0]	@ movhi
 498              	.L49:
 499              		.loc 1 298 0
 500 0024 10BC     		pop	{r4}
ARM GAS  /tmp/ccKhJN5d.s 			page 10


 501 0026 7047     		bx	lr
 502              	.LVL17:
 503              	.L50:
 504              		.loc 1 292 0 discriminator 1
 505 0028 044A     		ldr	r2, .L56
 506              	.LVL18:
 507              	.L53:
 508 002a 9188     		ldrh	r1, [r2, #4]
 509 002c 11F0200F 		tst	r1, #32
 510 0030 FBD0     		beq	.L53
 511              		.loc 1 293 0
 512 0032 024A     		ldr	r2, .L56
 513 0034 0023     		movs	r3, #0
 514 0036 1380     		strh	r3, [r2, #0]	@ movhi
 515              		.loc 1 296 0
 516 0038 0360     		str	r3, [r0, #0]
 517 003a F3E7     		b	.L49
 518              	.L57:
 519              		.align	2
 520              	.L56:
 521 003c 00280040 		.word	1073752064
 522              		.cfi_endproc
 523              	.LFE61:
 524              		.size	rtc_lld_set_callback, .-rtc_lld_set_callback
 525              		.global	RTCD1
 526              		.section	.bss.RTCD1,"aw",%nobits
 527              		.align	2
 528              		.set	.LANCHOR0,. + 0
 529              		.type	RTCD1, %object
 530              		.size	RTCD1, 4
 531              	RTCD1:
 532 0000 00000000 		.space	4
 533              		.text
 534              	.Letext0: