ARM GAS  /tmp/ccMZ4Xvt.s 			page 1


   1              		.syntax unified
   2              		.cpu cortex-m3
   3              		.fpu softvfp
   4              		.eabi_attribute 20, 1
   5              		.eabi_attribute 21, 1
   6              		.eabi_attribute 23, 3
   7              		.eabi_attribute 24, 1
   8              		.eabi_attribute 25, 1
   9              		.eabi_attribute 26, 1
  10              		.eabi_attribute 30, 2
  11              		.eabi_attribute 18, 4
  12              		.thumb
  13              		.file	"usb.c"
  20 0000 D5040000 		.text
  20      0200D401 
  20      00000201 
  20      FB0E0D00 
  20      01010101 
  21              	.Ltext0:
  22              		.cfi_sections	.debug_frame
  23              		.section	.text.set_address,"ax",%progbits
  24              		.align	2
  25              		.p2align 4,,15
  26              		.thumb
  27              		.thumb_func
  28              		.type	set_address, %function
  29              	set_address:
  30              	.LFB55:
  31              		.file 1 "../chibios/os/hal/src/usb.c"
  32              		.loc 1 69 0
  33              		.cfi_startproc
  34              		@ args = 0, pretend = 0, frame = 0
  35              		@ frame_needed = 0, uses_anonymous_args = 0
  36              	.LVL0:
  37 0000 10B5     		push	{r4, lr}
  38              	.LCFI0:
  39              		.cfi_def_cfa_offset 8
  40              		.loc 1 71 0
  41 0002 90F84210 		ldrb	r1, [r0, #66]	@ zero_extendqisi2
  42              		.loc 1 69 0
  43 0006 0446     		mov	r4, r0
  44              		.cfi_offset 14, -4
  45              		.cfi_offset 4, -8
  46              		.loc 1 71 0
  47 0008 80F84A10 		strb	r1, [r0, #74]
  48              		.loc 1 72 0
  49 000c FFF7FEFF 		bl	usb_lld_set_address
  50              	.LVL1:
  51              		.loc 1 73 0
  52 0010 6368     		ldr	r3, [r4, #4]
  53 0012 1B68     		ldr	r3, [r3, #0]
ARM GAS  /tmp/ccMZ4Xvt.s 			page 2


  54 0014 13B1     		cbz	r3, .L2
  55              		.loc 1 73 0 is_stmt 0 discriminator 1
  56 0016 2046     		mov	r0, r4
  57 0018 0121     		movs	r1, #1
  58 001a 9847     		blx	r3
  59              	.L2:
  60              		.loc 1 74 0 is_stmt 1
  61 001c 0320     		movs	r0, #3
  62 001e 2070     		strb	r0, [r4, #0]
  63              		.loc 1 75 0
  64 0020 10BD     		pop	{r4, pc}
  65              		.cfi_endproc
  66              	.LFE55:
  67              		.size	set_address, .-set_address
  68 0022 00BFAFF3 		.section	.text.usbInit,"ax",%progbits
  68      0080AFF3 
  68      0080AFF3 
  68      0080
  69              		.align	2
  70              		.p2align 4,,15
  71              		.global	usbInit
  72              		.thumb
  73              		.thumb_func
  74              		.type	usbInit, %function
  75              	usbInit:
  76              	.LFB57:
  77              		.loc 1 235 0
  78              		.cfi_startproc
  79              		@ args = 0, pretend = 0, frame = 0
  80              		@ frame_needed = 0, uses_anonymous_args = 0
  81              		@ link register save eliminated.
  82              		.loc 1 238 0
  83              		.loc 1 237 0
  84 0000 FFF7FEBF 		b	usb_lld_init
  85              		.cfi_endproc
  86              	.LFE57:
  87              		.size	usbInit, .-usbInit
  88 0004 AFF30080 		.section	.text.usbObjectInit,"ax",%progbits
  88      AFF30080 
  88      AFF30080 
  89              		.align	2
  90              		.p2align 4,,15
  91              		.global	usbObjectInit
  92              		.thumb
  93              		.thumb_func
  94              		.type	usbObjectInit, %function
  95              	usbObjectInit:
  96              	.LFB58:
  97              		.loc 1 247 0
  98              		.cfi_startproc
  99              		@ args = 0, pretend = 0, frame = 0
 100              		@ frame_needed = 0, uses_anonymous_args = 0
 101              		@ link register save eliminated.
 102              	.LVL2:
 103              		.loc 1 250 0
 104 0000 0023     		movs	r3, #0
 105              		.loc 1 249 0
ARM GAS  /tmp/ccMZ4Xvt.s 			page 3


 106 0002 0122     		movs	r2, #1
 107 0004 0270     		strb	r2, [r0, #0]
 108              		.loc 1 250 0
 109 0006 4360     		str	r3, [r0, #4]
 110              		.loc 1 251 0
 111 0008 8360     		str	r3, [r0, #8]
 112              		.loc 1 252 0
 113 000a 8381     		strh	r3, [r0, #12]	@ movhi
 114              		.loc 1 253 0
 115 000c C381     		strh	r3, [r0, #14]	@ movhi
 116              		.loc 1 254 0
 117 000e 7047     		bx	lr
 118              		.cfi_endproc
 119              	.LFE58:
 120              		.size	usbObjectInit, .-usbObjectInit
 121              		.section	.text.usbStart,"ax",%progbits
 122              		.align	2
 123              		.p2align 4,,15
 124              		.global	usbStart
 125              		.thumb
 126              		.thumb_func
 127              		.type	usbStart, %function
 128              	usbStart:
 129              	.LFB59:
 130              		.loc 1 264 0
 131              		.cfi_startproc
 132              		@ args = 0, pretend = 0, frame = 0
 133              		@ frame_needed = 0, uses_anonymous_args = 0
 134              	.LVL3:
 135 0000 38B5     		push	{r3, r4, r5, lr}
 136              	.LCFI1:
 137              		.cfi_def_cfa_offset 16
 138              		.loc 1 267 0
 139 0002 0446     		mov	r4, r0
 140              		.cfi_offset 14, -4
 141              		.cfi_offset 5, -8
 142              		.cfi_offset 4, -12
 143              		.cfi_offset 3, -16
 144              		.loc 1 264 0
 145 0004 0D46     		mov	r5, r1
 146              		.loc 1 267 0
 147 0006 00B3     		cbz	r0, .L7
 148              		.loc 1 267 0 is_stmt 0 discriminator 2
 149 0008 F9B1     		cbz	r1, .L7
 150              	.LVL4:
 151              	.L8:
 152              		.loc 1 269 0 is_stmt 1
 153              	@ 269 "../chibios/os/hal/src/usb.c" 1
 154 000a FFF7FEFF 		bl      _port_lock
 155              	@ 0 "" 2
 156              		.thumb
 157 000e FFF7FEFF 		bl	dbg_check_lock
 158              		.loc 1 270 0
 159 0012 2178     		ldrb	r1, [r4, #0]	@ zero_extendqisi2
 160 0014 481E     		subs	r0, r1, #1
 161 0016 C3B2     		uxtb	r3, r0
 162 0018 012B     		cmp	r3, #1
ARM GAS  /tmp/ccMZ4Xvt.s 			page 4


 163 001a 02D9     		bls	.L9
 164              		.loc 1 270 0 is_stmt 0 discriminator 1
 165 001c 0D48     		ldr	r0, .L10
 166 001e FFF7FEFF 		bl	chDbgPanic
 167              	.L9:
 168              		.loc 1 274 0 is_stmt 1
 169 0022 0023     		movs	r3, #0
 170              		.loc 1 275 0
 171 0024 2046     		mov	r0, r4
 172              		.loc 1 274 0
 173 0026 2361     		str	r3, [r4, #16]
 174 0028 6361     		str	r3, [r4, #20]
 175 002a A361     		str	r3, [r4, #24]
 176 002c E361     		str	r3, [r4, #28]
 177 002e 2362     		str	r3, [r4, #32]
 178 0030 6362     		str	r3, [r4, #36]
 179 0032 A362     		str	r3, [r4, #40]
 180 0034 E362     		str	r3, [r4, #44]
 181              		.loc 1 272 0
 182 0036 6560     		str	r5, [r4, #4]
 183              	.LVL5:
 184              		.loc 1 275 0
 185 0038 FFF7FEFF 		bl	usb_lld_start
 186              		.loc 1 276 0
 187 003c 0222     		movs	r2, #2
 188 003e 2270     		strb	r2, [r4, #0]
 189              		.loc 1 277 0
 190 0040 FFF7FEFF 		bl	dbg_check_unlock
 191              	@ 277 "../chibios/os/hal/src/usb.c" 1
 192 0044 FFF7FEFF 		bl      _port_unlock
 193              	@ 0 "" 2
 194              		.loc 1 278 0
 195              		.thumb
 196 0048 38BD     		pop	{r3, r4, r5, pc}
 197              	.LVL6:
 198              	.L7:
 199              		.loc 1 267 0 discriminator 1
 200 004a 0348     		ldr	r0, .L10+4
 201 004c FFF7FEFF 		bl	chDbgPanic
 202 0050 DBE7     		b	.L8
 203              	.L11:
 204 0052 00BF     		.align	2
 205              	.L10:
 206 0054 10000000 		.word	.LC1
 207 0058 00000000 		.word	.LC0
 208              		.cfi_endproc
 209              	.LFE59:
 210              		.size	usbStart, .-usbStart
 211 005c AFF30080 		.section	.text.usbStop,"ax",%progbits
 212              		.align	2
 213              		.p2align 4,,15
 214              		.global	usbStop
 215              		.thumb
 216              		.thumb_func
 217              		.type	usbStop, %function
 218              	usbStop:
 219              	.LFB60:
ARM GAS  /tmp/ccMZ4Xvt.s 			page 5


 220              		.loc 1 287 0
 221              		.cfi_startproc
 222              		@ args = 0, pretend = 0, frame = 0
 223              		@ frame_needed = 0, uses_anonymous_args = 0
 224              	.LVL7:
 225 0000 10B5     		push	{r4, lr}
 226              	.LCFI2:
 227              		.cfi_def_cfa_offset 8
 228              		.loc 1 289 0
 229 0002 0446     		mov	r4, r0
 230              		.cfi_offset 14, -4
 231              		.cfi_offset 4, -8
 232 0004 A8B1     		cbz	r0, .L15
 233              	.LVL8:
 234              	.L13:
 235              		.loc 1 291 0
 236              	@ 291 "../chibios/os/hal/src/usb.c" 1
 237 0006 FFF7FEFF 		bl      _port_lock
 238              	@ 0 "" 2
 239              		.thumb
 240 000a FFF7FEFF 		bl	dbg_check_lock
 241              		.loc 1 292 0
 242 000e 2178     		ldrb	r1, [r4, #0]	@ zero_extendqisi2
 243 0010 481E     		subs	r0, r1, #1
 244 0012 C3B2     		uxtb	r3, r0
 245 0014 012B     		cmp	r3, #1
 246 0016 02D9     		bls	.L14
 247              		.loc 1 292 0 is_stmt 0 discriminator 1
 248 0018 0848     		ldr	r0, .L16
 249 001a FFF7FEFF 		bl	chDbgPanic
 250              	.L14:
 251              		.loc 1 294 0 is_stmt 1
 252 001e 2046     		mov	r0, r4
 253 0020 FFF7FEFF 		bl	usb_lld_stop
 254              		.loc 1 295 0
 255 0024 0122     		movs	r2, #1
 256 0026 2270     		strb	r2, [r4, #0]
 257              		.loc 1 296 0
 258 0028 FFF7FEFF 		bl	dbg_check_unlock
 259              	@ 296 "../chibios/os/hal/src/usb.c" 1
 260 002c FFF7FEFF 		bl      _port_unlock
 261              	@ 0 "" 2
 262              		.loc 1 297 0
 263              		.thumb
 264 0030 10BD     		pop	{r4, pc}
 265              	.L15:
 266              		.loc 1 289 0 discriminator 1
 267 0032 0348     		ldr	r0, .L16+4
 268 0034 FFF7FEFF 		bl	chDbgPanic
 269 0038 E5E7     		b	.L13
 270              	.L17:
 271 003a 00BF     		.align	2
 272              	.L16:
 273 003c 2C000000 		.word	.LC3
 274 0040 20000000 		.word	.LC2
 275              		.cfi_endproc
 276              	.LFE60:
ARM GAS  /tmp/ccMZ4Xvt.s 			page 6


 277              		.size	usbStop, .-usbStop
 278 0044 AFF30080 		.section	.text.usbInitEndpointI,"ax",%progbits
 278      AFF30080 
 278      AFF30080 
 279              		.align	2
 280              		.p2align 4,,15
 281              		.global	usbInitEndpointI
 282              		.thumb
 283              		.thumb_func
 284              		.type	usbInitEndpointI, %function
 285              	usbInitEndpointI:
 286              	.LFB61:
 287              		.loc 1 313 0
 288              		.cfi_startproc
 289              		@ args = 0, pretend = 0, frame = 0
 290              		@ frame_needed = 0, uses_anonymous_args = 0
 291              	.LVL9:
 292 0000 2DE9F041 		push	{r4, r5, r6, r7, r8, lr}
 293              	.LCFI3:
 294              		.cfi_def_cfa_offset 24
 295              		.loc 1 313 0
 296 0004 0446     		mov	r4, r0
 297              		.cfi_offset 14, -4
 298              		.cfi_offset 8, -8
 299              		.cfi_offset 7, -12
 300              		.cfi_offset 6, -16
 301              		.cfi_offset 5, -20
 302              		.cfi_offset 4, -24
 303 0006 0D46     		mov	r5, r1
 304 0008 1646     		mov	r6, r2
 305              		.loc 1 315 0
 306 000a FFF7FEFF 		bl	chDbgCheckClassI
 307              	.LVL10:
 308              		.loc 1 316 0
 309 000e 002C     		cmp	r4, #0
 310 0010 2AD0     		beq	.L19
 311              		.loc 1 316 0 is_stmt 0 discriminator 2
 312 0012 002E     		cmp	r6, #0
 313 0014 28D0     		beq	.L19
 314              	.L20:
 315              		.loc 1 317 0 is_stmt 1
 316 0016 2378     		ldrb	r3, [r4, #0]	@ zero_extendqisi2
 317 0018 042B     		cmp	r3, #4
 318 001a 02D0     		beq	.L21
 319              		.loc 1 317 0 is_stmt 0 discriminator 1
 320 001c 1448     		ldr	r0, .L24
 321 001e FFF7FEFF 		bl	chDbgPanic
 322              	.L21:
 323              		.loc 1 319 0 is_stmt 1
 324 0022 2F1D     		adds	r7, r5, #4
 325 0024 54F82700 		ldr	r0, [r4, r7, lsl #2]
 326 0028 10B1     		cbz	r0, .L22
 327              		.loc 1 319 0 is_stmt 0 discriminator 1
 328 002a 1248     		ldr	r0, .L24+4
 329 002c FFF7FEFF 		bl	chDbgPanic
 330              	.L22:
 331              		.loc 1 323 0 is_stmt 1
ARM GAS  /tmp/ccMZ4Xvt.s 			page 7


 332 0030 3168     		ldr	r1, [r6, #0]
 333 0032 11F01003 		ands	r3, r1, #16
 334 0036 0FD1     		bne	.L23
 335              		.loc 1 324 0
 336 0038 7269     		ldr	r2, [r6, #20]
 337 003a 9446     		mov	ip, r2
 338 003c 4CF8043B 		str	r3, [ip], #4
 339 0040 5360     		str	r3, [r2, #4]
 340 0042 CCF80430 		str	r3, [ip, #4]
 341              		.loc 1 325 0
 342 0046 B069     		ldr	r0, [r6, #24]
 343 0048 0146     		mov	r1, r0
 344 004a 41F8043B 		str	r3, [r1], #4
 345 004e 0A1D     		adds	r2, r1, #4
 346 0050 4360     		str	r3, [r0, #4]
 347 0052 42F8043B 		str	r3, [r2], #4
 348 0056 1360     		str	r3, [r2, #0]
 349              	.L23:
 350              		.loc 1 330 0
 351 0058 2046     		mov	r0, r4
 352 005a 2946     		mov	r1, r5
 353              		.loc 1 327 0
 354 005c 44F82760 		str	r6, [r4, r7, lsl #2]
 355              		.loc 1 331 0
 356 0060 BDE8F041 		pop	{r4, r5, r6, r7, r8, lr}
 357              		.loc 1 330 0
 358 0064 FFF7FEBF 		b	usb_lld_init_endpoint
 359              	.L19:
 360              		.loc 1 316 0 discriminator 1
 361 0068 0348     		ldr	r0, .L24+8
 362 006a FFF7FEFF 		bl	chDbgPanic
 363 006e D2E7     		b	.L20
 364              	.L25:
 365              		.align	2
 366              	.L24:
 367 0070 54000000 		.word	.LC5
 368 0074 70000000 		.word	.LC6
 369 0078 3C000000 		.word	.LC4
 370              		.cfi_endproc
 371              	.LFE61:
 372              		.size	usbInitEndpointI, .-usbInitEndpointI
 373 007c AFF30080 		.section	.text.usbDisableEndpointsI,"ax",%progbits
 374              		.align	2
 375              		.p2align 4,,15
 376              		.global	usbDisableEndpointsI
 377              		.thumb
 378              		.thumb_func
 379              		.type	usbDisableEndpointsI, %function
 380              	usbDisableEndpointsI:
 381              	.LFB62:
 382              		.loc 1 344 0
 383              		.cfi_startproc
 384              		@ args = 0, pretend = 0, frame = 0
 385              		@ frame_needed = 0, uses_anonymous_args = 0
 386              	.LVL11:
 387 0000 10B5     		push	{r4, lr}
 388              	.LCFI4:
ARM GAS  /tmp/ccMZ4Xvt.s 			page 8


 389              		.cfi_def_cfa_offset 8
 390              		.loc 1 344 0
 391 0002 0446     		mov	r4, r0
 392              		.cfi_offset 14, -4
 393              		.cfi_offset 4, -8
 394              		.loc 1 347 0
 395 0004 FFF7FEFF 		bl	chDbgCheckClassI
 396              	.LVL12:
 397              		.loc 1 348 0
 398 0008 E4B1     		cbz	r4, .L29
 399              	.L27:
 400              		.loc 1 349 0
 401 000a 2378     		ldrb	r3, [r4, #0]	@ zero_extendqisi2
 402 000c 032B     		cmp	r3, #3
 403 000e 02D0     		beq	.L28
 404              		.loc 1 349 0 is_stmt 0 discriminator 1
 405 0010 0E48     		ldr	r0, .L30
 406 0012 FFF7FEFF 		bl	chDbgPanic
 407              	.L28:
 408              		.loc 1 352 0 is_stmt 1
 409 0016 B4F80CE0 		ldrh	lr, [r4, #12]
 410              		.loc 1 353 0
 411 001a B4F80EC0 		ldrh	ip, [r4, #14]
 412              		.loc 1 355 0
 413 001e 0020     		movs	r0, #0
 414              		.loc 1 352 0
 415 0020 2EF00101 		bic	r1, lr, #1
 416              		.loc 1 353 0
 417 0024 2CF00102 		bic	r2, ip, #1
 418              		.loc 1 355 0
 419 0028 6061     		str	r0, [r4, #20]
 420 002a A061     		str	r0, [r4, #24]
 421 002c E061     		str	r0, [r4, #28]
 422 002e 2062     		str	r0, [r4, #32]
 423 0030 6062     		str	r0, [r4, #36]
 424 0032 A062     		str	r0, [r4, #40]
 425 0034 E062     		str	r0, [r4, #44]
 426              		.loc 1 358 0
 427 0036 2046     		mov	r0, r4
 428              		.loc 1 352 0
 429 0038 A181     		strh	r1, [r4, #12]	@ movhi
 430              		.loc 1 353 0
 431 003a E281     		strh	r2, [r4, #14]	@ movhi
 432              	.LVL13:
 433              		.loc 1 359 0
 434 003c BDE81040 		pop	{r4, lr}
 435              		.loc 1 358 0
 436 0040 FFF7FEBF 		b	usb_lld_disable_endpoints
 437              	.LVL14:
 438              	.L29:
 439              		.loc 1 348 0 discriminator 1
 440 0044 0248     		ldr	r0, .L30+4
 441 0046 FFF7FEFF 		bl	chDbgPanic
 442 004a DEE7     		b	.L27
 443              	.L31:
 444              		.align	2
 445              	.L30:
ARM GAS  /tmp/ccMZ4Xvt.s 			page 9


 446 004c A8000000 		.word	.LC8
 447 0050 8C000000 		.word	.LC7
 448              		.cfi_endproc
 449              	.LFE62:
 450              		.size	usbDisableEndpointsI, .-usbDisableEndpointsI
 451 0054 AFF30080 		.section	.text.usbStartReceiveI,"ax",%progbits
 451      AFF30080 
 451      AFF30080 
 452              		.align	2
 453              		.p2align 4,,15
 454              		.global	usbStartReceiveI
 455              		.thumb
 456              		.thumb_func
 457              		.type	usbStartReceiveI, %function
 458              	usbStartReceiveI:
 459              	.LFB63:
 460              		.loc 1 374 0
 461              		.cfi_startproc
 462              		@ args = 0, pretend = 0, frame = 0
 463              		@ frame_needed = 0, uses_anonymous_args = 0
 464              	.LVL15:
 465 0000 70B5     		push	{r4, r5, r6, lr}
 466              	.LCFI5:
 467              		.cfi_def_cfa_offset 16
 468              		.loc 1 374 0
 469 0002 0446     		mov	r4, r0
 470              		.cfi_offset 14, -4
 471              		.cfi_offset 6, -8
 472              		.cfi_offset 5, -12
 473              		.cfi_offset 4, -16
 474 0004 0E46     		mov	r6, r1
 475              		.loc 1 376 0
 476 0006 FFF7FEFF 		bl	chDbgCheckClassI
 477              	.LVL16:
 478              		.loc 1 377 0
 479 000a 9CB1     		cbz	r4, .L36
 480              	.L33:
 481              		.loc 1 379 0
 482 000c E389     		ldrh	r3, [r4, #14]
 483 000e 53FA06F5 		asrs	r5, r3, r6
 484 0012 15F00105 		ands	r5, r5, #1
 485 0016 01D0     		beq	.L37
 486              		.loc 1 380 0
 487 0018 0120     		movs	r0, #1
 488              		.loc 1 385 0
 489 001a 70BD     		pop	{r4, r5, r6, pc}
 490              	.L37:
 491              		.loc 1 382 0
 492 001c 0120     		movs	r0, #1
 493 001e 10FA06F2 		lsls	r2, r0, r6
 494 0022 42EA0303 		orr	r3, r2, r3
 495              		.loc 1 383 0
 496 0026 2046     		mov	r0, r4
 497              		.loc 1 382 0
 498 0028 E381     		strh	r3, [r4, #14]	@ movhi
 499              		.loc 1 383 0
 500 002a 3146     		mov	r1, r6
ARM GAS  /tmp/ccMZ4Xvt.s 			page 10


 501 002c FFF7FEFF 		bl	usb_lld_start_out
 502              		.loc 1 384 0
 503 0030 2846     		mov	r0, r5
 504 0032 70BD     		pop	{r4, r5, r6, pc}
 505              	.L36:
 506              		.loc 1 377 0 discriminator 1
 507 0034 0148     		ldr	r0, .L38
 508 0036 FFF7FEFF 		bl	chDbgPanic
 509 003a E7E7     		b	.L33
 510              	.L39:
 511              		.align	2
 512              	.L38:
 513 003c C4000000 		.word	.LC9
 514              		.cfi_endproc
 515              	.LFE63:
 516              		.size	usbStartReceiveI, .-usbStartReceiveI
 517              		.section	.text.usbStartTransmitI,"ax",%progbits
 518              		.align	2
 519              		.p2align 4,,15
 520              		.global	usbStartTransmitI
 521              		.thumb
 522              		.thumb_func
 523              		.type	usbStartTransmitI, %function
 524              	usbStartTransmitI:
 525              	.LFB64:
 526              		.loc 1 400 0
 527              		.cfi_startproc
 528              		@ args = 0, pretend = 0, frame = 0
 529              		@ frame_needed = 0, uses_anonymous_args = 0
 530              	.LVL17:
 531 0000 70B5     		push	{r4, r5, r6, lr}
 532              	.LCFI6:
 533              		.cfi_def_cfa_offset 16
 534              		.loc 1 400 0
 535 0002 0446     		mov	r4, r0
 536              		.cfi_offset 14, -4
 537              		.cfi_offset 6, -8
 538              		.cfi_offset 5, -12
 539              		.cfi_offset 4, -16
 540 0004 0E46     		mov	r6, r1
 541              		.loc 1 402 0
 542 0006 FFF7FEFF 		bl	chDbgCheckClassI
 543              	.LVL18:
 544              		.loc 1 403 0
 545 000a 9CB1     		cbz	r4, .L44
 546              	.L41:
 547              		.loc 1 405 0
 548 000c A389     		ldrh	r3, [r4, #12]
 549 000e 53FA06F5 		asrs	r5, r3, r6
 550 0012 15F00105 		ands	r5, r5, #1
 551 0016 01D0     		beq	.L45
 552              		.loc 1 406 0
 553 0018 0120     		movs	r0, #1
 554              		.loc 1 411 0
 555 001a 70BD     		pop	{r4, r5, r6, pc}
 556              	.L45:
 557              		.loc 1 408 0
ARM GAS  /tmp/ccMZ4Xvt.s 			page 11


 558 001c 0120     		movs	r0, #1
 559 001e 10FA06F2 		lsls	r2, r0, r6
 560 0022 42EA0303 		orr	r3, r2, r3
 561              		.loc 1 409 0
 562 0026 2046     		mov	r0, r4
 563              		.loc 1 408 0
 564 0028 A381     		strh	r3, [r4, #12]	@ movhi
 565              		.loc 1 409 0
 566 002a 3146     		mov	r1, r6
 567 002c FFF7FEFF 		bl	usb_lld_start_in
 568              		.loc 1 410 0
 569 0030 2846     		mov	r0, r5
 570 0032 70BD     		pop	{r4, r5, r6, pc}
 571              	.L44:
 572              		.loc 1 403 0 discriminator 1
 573 0034 0148     		ldr	r0, .L46
 574 0036 FFF7FEFF 		bl	chDbgPanic
 575 003a E7E7     		b	.L41
 576              	.L47:
 577              		.align	2
 578              	.L46:
 579 003c DC000000 		.word	.LC10
 580              		.cfi_endproc
 581              	.LFE64:
 582              		.size	usbStartTransmitI, .-usbStartTransmitI
 583              		.section	.text.usbStallReceiveI,"ax",%progbits
 584              		.align	2
 585              		.p2align 4,,15
 586              		.global	usbStallReceiveI
 587              		.thumb
 588              		.thumb_func
 589              		.type	usbStallReceiveI, %function
 590              	usbStallReceiveI:
 591              	.LFB65:
 592              		.loc 1 424 0
 593              		.cfi_startproc
 594              		@ args = 0, pretend = 0, frame = 0
 595              		@ frame_needed = 0, uses_anonymous_args = 0
 596              	.LVL19:
 597 0000 70B5     		push	{r4, r5, r6, lr}
 598              	.LCFI7:
 599              		.cfi_def_cfa_offset 16
 600              		.loc 1 424 0
 601 0002 0446     		mov	r4, r0
 602              		.cfi_offset 14, -4
 603              		.cfi_offset 6, -8
 604              		.cfi_offset 5, -12
 605              		.cfi_offset 4, -16
 606 0004 0E46     		mov	r6, r1
 607              		.loc 1 426 0
 608 0006 FFF7FEFF 		bl	chDbgCheckClassI
 609              	.LVL20:
 610              		.loc 1 427 0
 611 000a 6CB1     		cbz	r4, .L52
 612              	.L49:
 613              		.loc 1 429 0
 614 000c E089     		ldrh	r0, [r4, #14]
ARM GAS  /tmp/ccMZ4Xvt.s 			page 12


 615 000e 50FA06F5 		asrs	r5, r0, r6
 616 0012 15F00105 		ands	r5, r5, #1
 617 0016 01D0     		beq	.L53
 618              		.loc 1 430 0
 619 0018 0120     		movs	r0, #1
 620              		.loc 1 434 0
 621 001a 70BD     		pop	{r4, r5, r6, pc}
 622              	.L53:
 623              		.loc 1 432 0
 624 001c 2046     		mov	r0, r4
 625 001e 3146     		mov	r1, r6
 626 0020 FFF7FEFF 		bl	usb_lld_stall_out
 627              		.loc 1 433 0
 628 0024 2846     		mov	r0, r5
 629 0026 70BD     		pop	{r4, r5, r6, pc}
 630              	.L52:
 631              		.loc 1 427 0 discriminator 1
 632 0028 0148     		ldr	r0, .L54
 633 002a FFF7FEFF 		bl	chDbgPanic
 634 002e EDE7     		b	.L49
 635              	.L55:
 636              		.align	2
 637              	.L54:
 638 0030 F4000000 		.word	.LC11
 639              		.cfi_endproc
 640              	.LFE65:
 641              		.size	usbStallReceiveI, .-usbStallReceiveI
 642 0034 AFF30080 		.section	.text.usbStallTransmitI,"ax",%progbits
 642      AFF30080 
 642      AFF30080 
 643              		.align	2
 644              		.p2align 4,,15
 645              		.global	usbStallTransmitI
 646              		.thumb
 647              		.thumb_func
 648              		.type	usbStallTransmitI, %function
 649              	usbStallTransmitI:
 650              	.LFB66:
 651              		.loc 1 447 0
 652              		.cfi_startproc
 653              		@ args = 0, pretend = 0, frame = 0
 654              		@ frame_needed = 0, uses_anonymous_args = 0
 655              	.LVL21:
 656 0000 70B5     		push	{r4, r5, r6, lr}
 657              	.LCFI8:
 658              		.cfi_def_cfa_offset 16
 659              		.loc 1 447 0
 660 0002 0446     		mov	r4, r0
 661              		.cfi_offset 14, -4
 662              		.cfi_offset 6, -8
 663              		.cfi_offset 5, -12
 664              		.cfi_offset 4, -16
 665 0004 0E46     		mov	r6, r1
 666              		.loc 1 449 0
 667 0006 FFF7FEFF 		bl	chDbgCheckClassI
 668              	.LVL22:
 669              		.loc 1 450 0
ARM GAS  /tmp/ccMZ4Xvt.s 			page 13


 670 000a 6CB1     		cbz	r4, .L60
 671              	.L57:
 672              		.loc 1 452 0
 673 000c A089     		ldrh	r0, [r4, #12]
 674 000e 50FA06F5 		asrs	r5, r0, r6
 675 0012 15F00105 		ands	r5, r5, #1
 676 0016 01D0     		beq	.L61
 677              		.loc 1 453 0
 678 0018 0120     		movs	r0, #1
 679              		.loc 1 457 0
 680 001a 70BD     		pop	{r4, r5, r6, pc}
 681              	.L61:
 682              		.loc 1 455 0
 683 001c 2046     		mov	r0, r4
 684 001e 3146     		mov	r1, r6
 685 0020 FFF7FEFF 		bl	usb_lld_stall_in
 686              		.loc 1 456 0
 687 0024 2846     		mov	r0, r5
 688 0026 70BD     		pop	{r4, r5, r6, pc}
 689              	.L60:
 690              		.loc 1 450 0 discriminator 1
 691 0028 0148     		ldr	r0, .L62
 692 002a FFF7FEFF 		bl	chDbgPanic
 693 002e EDE7     		b	.L57
 694              	.L63:
 695              		.align	2
 696              	.L62:
 697 0030 0C010000 		.word	.LC12
 698              		.cfi_endproc
 699              	.LFE66:
 700              		.size	usbStallTransmitI, .-usbStallTransmitI
 701 0034 AFF30080 		.section	.text._usb_reset,"ax",%progbits
 701      AFF30080 
 701      AFF30080 
 702              		.align	2
 703              		.p2align 4,,15
 704              		.global	_usb_reset
 705              		.thumb
 706              		.thumb_func
 707              		.type	_usb_reset, %function
 708              	_usb_reset:
 709              	.LFB67:
 710              		.loc 1 468 0
 711              		.cfi_startproc
 712              		@ args = 0, pretend = 0, frame = 0
 713              		@ frame_needed = 0, uses_anonymous_args = 0
 714              		@ link register save eliminated.
 715              	.LVL23:
 716 0000 10B4     		push	{r4}
 717              	.LCFI9:
 718              		.cfi_def_cfa_offset 4
 719              		.loc 1 472 0
 720 0002 0022     		movs	r2, #0
 721              		.loc 1 471 0
 722 0004 0224     		movs	r4, #2
 723              		.cfi_offset 4, -4
 724 0006 0470     		strb	r4, [r0, #0]
ARM GAS  /tmp/ccMZ4Xvt.s 			page 14


 725              		.loc 1 472 0
 726 0008 A0F84820 		strh	r2, [r0, #72]	@ movhi
 727              		.loc 1 473 0
 728 000c 80F84A20 		strb	r2, [r0, #74]
 729              		.loc 1 474 0
 730 0010 80F84B20 		strb	r2, [r0, #75]
 731              		.loc 1 475 0
 732 0014 8281     		strh	r2, [r0, #12]	@ movhi
 733              		.loc 1 476 0
 734 0016 C281     		strh	r2, [r0, #14]	@ movhi
 735              	.LVL24:
 736              		.loc 1 480 0
 737 0018 0261     		str	r2, [r0, #16]
 738              	.LVL25:
 739 001a 4261     		str	r2, [r0, #20]
 740              	.LVL26:
 741 001c 8261     		str	r2, [r0, #24]
 742              	.LVL27:
 743 001e C261     		str	r2, [r0, #28]
 744              	.LVL28:
 745 0020 0262     		str	r2, [r0, #32]
 746              	.LVL29:
 747 0022 4262     		str	r2, [r0, #36]
 748              	.LVL30:
 749 0024 8262     		str	r2, [r0, #40]
 750              	.LVL31:
 751 0026 C262     		str	r2, [r0, #44]
 752              	.LVL32:
 753              		.loc 1 483 0
 754 0028 80F83020 		strb	r2, [r0, #48]
 755              		.loc 1 487 0
 756 002c 10BC     		pop	{r4}
 757              		.loc 1 486 0
 758 002e FFF7FEBF 		b	usb_lld_reset
 759              		.cfi_endproc
 760              	.LFE67:
 761              		.size	_usb_reset, .-_usb_reset
 762 0032 00BFAFF3 		.section	.text._usb_ep0setup,"ax",%progbits
 762      0080AFF3 
 762      0080AFF3 
 762      0080
 763              		.align	2
 764              		.p2align 4,,15
 765              		.global	_usb_ep0setup
 766              		.thumb
 767              		.thumb_func
 768              		.type	_usb_ep0setup, %function
 769              	_usb_ep0setup:
 770              	.LFB68:
 771              		.loc 1 499 0
 772              		.cfi_startproc
 773              		@ args = 0, pretend = 0, frame = 0
 774              		@ frame_needed = 0, uses_anonymous_args = 0
 775              	.LVL33:
 776              		.loc 1 502 0
 777 0000 0022     		movs	r2, #0
 778              		.loc 1 499 0
ARM GAS  /tmp/ccMZ4Xvt.s 			page 15


 779 0002 2DE9F041 		push	{r4, r5, r6, r7, r8, lr}
 780              	.LCFI10:
 781              		.cfi_def_cfa_offset 24
 782              		.loc 1 499 0
 783 0006 0446     		mov	r4, r0
 784              		.cfi_offset 14, -4
 785              		.cfi_offset 8, -8
 786              		.cfi_offset 7, -12
 787              		.cfi_offset 6, -16
 788              		.cfi_offset 5, -20
 789              		.cfi_offset 4, -24
 790              		.loc 1 502 0
 791 0008 80F83020 		strb	r2, [r0, #48]
 792              		.loc 1 503 0
 793 000c 00F14002 		add	r2, r0, #64
 794 0010 FFF7FEFF 		bl	usb_lld_read_setup
 795              	.LVL34:
 796              		.loc 1 507 0
 797 0014 6368     		ldr	r3, [r4, #4]
 798 0016 9B68     		ldr	r3, [r3, #8]
 799 0018 002B     		cmp	r3, #0
 800 001a 1FD0     		beq	.L66
 801              		.loc 1 508 0 discriminator 1
 802 001c 2046     		mov	r0, r4
 803 001e 9847     		blx	r3
 804              		.loc 1 507 0 discriminator 1
 805 0020 E0B1     		cbz	r0, .L66
 806              		.loc 1 507 0 is_stmt 0
 807 0022 A56B     		ldr	r5, [r4, #56]
 808 0024 94F84030 		ldrb	r3, [r4, #64]	@ zero_extendqisi2
 809              	.L67:
 810              		.loc 1 526 0 is_stmt 1
 811 0028 B4F84610 		ldrh	r1, [r4, #70]
 812              	.LVL35:
 813              		.loc 1 528 0
 814 002c A942     		cmp	r1, r5
 815              		.loc 1 529 0
 816 002e 3CBF     		itt	cc
 817 0030 A163     		strcc	r1, [r4, #56]
 818 0032 0D46     		movcc	r5, r1
 819              		.loc 1 530 0
 820 0034 13F0800F 		tst	r3, #128
 821 0038 33D1     		bne	.L104
 822              	.L99:
 823              		.loc 1 548 0
 824 003a 002D     		cmp	r5, #0
 825 003c 64D1     		bne	.L105
 826              		.loc 1 557 0
 827 003e 0421     		movs	r1, #4
 828              	.LVL36:
 829 0040 84F83010 		strb	r1, [r4, #48]
 830              		.loc 1 558 0
 831 0044 2046     		mov	r0, r4
 832 0046 2946     		mov	r1, r5
 833 0048 2A46     		mov	r2, r5
 834 004a 2B46     		mov	r3, r5
 835 004c FFF7FEFF 		bl	usb_lld_prepare_transmit
ARM GAS  /tmp/ccMZ4Xvt.s 			page 16


 836              		.loc 1 559 0
 837 0050 2046     		mov	r0, r4
 838 0052 2946     		mov	r1, r5
 839              		.loc 1 562 0
 840 0054 BDE8F041 		pop	{r4, r5, r6, r7, r8, lr}
 841              		.loc 1 559 0
 842 0058 FFF7FEBF 		b	usb_lld_start_in
 843              	.L66:
 844              		.loc 1 511 0
 845 005c 94F84030 		ldrb	r3, [r4, #64]	@ zero_extendqisi2
 846 0060 13F06006 		ands	r6, r3, #96
 847 0064 1A46     		mov	r2, r3
 848 0066 2DD0     		beq	.L106
 849              	.L68:
 850              		.loc 1 516 0
 851 0068 0021     		movs	r1, #0
 852 006a 2046     		mov	r0, r4
 853 006c FFF7FEFF 		bl	usb_lld_stall_in
 854              		.loc 1 517 0
 855 0070 2046     		mov	r0, r4
 856 0072 0021     		movs	r1, #0
 857 0074 FFF7FEFF 		bl	usb_lld_stall_out
 858              		.loc 1 518 0
 859 0078 6268     		ldr	r2, [r4, #4]
 860 007a 1368     		ldr	r3, [r2, #0]
 861 007c 13B1     		cbz	r3, .L97
 862              		.loc 1 518 0 is_stmt 0 discriminator 1
 863 007e 2046     		mov	r0, r4
 864 0080 0521     		movs	r1, #5
 865 0082 9847     		blx	r3
 866              	.L97:
 867              		.loc 1 519 0 is_stmt 1
 868 0084 A56B     		ldr	r5, [r4, #56]
 869              		.loc 1 526 0
 870 0086 B4F84610 		ldrh	r1, [r4, #70]
 871              	.LVL37:
 872              		.loc 1 519 0
 873 008a 94F84030 		ldrb	r3, [r4, #64]	@ zero_extendqisi2
 874 008e 0520     		movs	r0, #5
 875              		.loc 1 528 0
 876 0090 A942     		cmp	r1, r5
 877              		.loc 1 529 0
 878 0092 3CBF     		itt	cc
 879 0094 A163     		strcc	r1, [r4, #56]
 880 0096 0D46     		movcc	r5, r1
 881              		.loc 1 530 0
 882 0098 13F0800F 		tst	r3, #128
 883              		.loc 1 519 0
 884 009c 84F83000 		strb	r0, [r4, #48]
 885              		.loc 1 530 0
 886 00a0 CBD0     		beq	.L99
 887              	.L104:
 888              		.loc 1 532 0
 889 00a2 002D     		cmp	r5, #0
 890 00a4 3FD0     		beq	.L100
 891              		.loc 1 534 0
 892 00a6 0123     		movs	r3, #1
ARM GAS  /tmp/ccMZ4Xvt.s 			page 17


 893              		.loc 1 535 0
 894 00a8 0021     		movs	r1, #0
 895              	.LVL38:
 896              		.loc 1 534 0
 897 00aa 84F83030 		strb	r3, [r4, #48]
 898              		.loc 1 535 0
 899 00ae 2046     		mov	r0, r4
 900 00b0 626B     		ldr	r2, [r4, #52]
 901 00b2 2B46     		mov	r3, r5
 902 00b4 FFF7FEFF 		bl	usb_lld_prepare_transmit
 903              		.loc 1 536 0
 904 00b8 2046     		mov	r0, r4
 905 00ba 0021     		movs	r1, #0
 906              		.loc 1 562 0
 907 00bc BDE8F041 		pop	{r4, r5, r6, r7, r8, lr}
 908              		.loc 1 536 0
 909 00c0 FFF7FEBF 		b	usb_lld_start_in
 910              	.L106:
 911              	.LVL39:
 912              	.LBB4:
 913              	.LBB5:
 914              		.loc 1 95 0
 915 00c4 94F84170 		ldrb	r7, [r4, #65]	@ zero_extendqisi2
 916              		.loc 1 93 0
 917 00c8 03F07F01 		and	r1, r3, #127
 918              		.loc 1 94 0
 919 00cc 41EA0727 		orr	r7, r1, r7, lsl #8
 920              		.loc 1 93 0
 921 00d0 B7F5407F 		cmp	r7, #768
 922 00d4 00F09980 		beq	.L75
 923 00d8 34DD     		ble	.L107
 924 00da B7F5C06F 		cmp	r7, #1536
 925 00de 00F0BD80 		beq	.L78
 926 00e2 50DD     		ble	.L108
 927 00e4 B7F5106F 		cmp	r7, #2304
 928 00e8 00F0A680 		beq	.L80
 929 00ec 40F60245 		movw	r5, #3074
 930 00f0 AF42     		cmp	r7, r5
 931 00f2 5BD0     		beq	.L71
 932 00f4 B7F5006F 		cmp	r7, #2048
 933 00f8 B6D1     		bne	.L68
 934              		.loc 1 142 0
 935 00fa 0125     		movs	r5, #1
 936 00fc 04F14B00 		add	r0, r4, #75
 937 0100 6063     		str	r0, [r4, #52]
 938 0102 A563     		str	r5, [r4, #56]
 939 0104 E663     		str	r6, [r4, #60]
 940 0106 8FE7     		b	.L67
 941              	.LVL40:
 942              	.L105:
 943              	.LBE5:
 944              	.LBE4:
 945              		.loc 1 550 0
 946 0108 0320     		movs	r0, #3
 947              		.loc 1 551 0
 948 010a 0021     		movs	r1, #0
 949              	.LVL41:
ARM GAS  /tmp/ccMZ4Xvt.s 			page 18


 950              		.loc 1 550 0
 951 010c 84F83000 		strb	r0, [r4, #48]
 952              		.loc 1 551 0
 953 0110 626B     		ldr	r2, [r4, #52]
 954 0112 2046     		mov	r0, r4
 955 0114 2B46     		mov	r3, r5
 956 0116 FFF7FEFF 		bl	usb_lld_prepare_receive
 957              		.loc 1 552 0
 958 011a 2046     		mov	r0, r4
 959 011c 0021     		movs	r1, #0
 960              		.loc 1 562 0
 961 011e BDE8F041 		pop	{r4, r5, r6, r7, r8, lr}
 962              		.loc 1 552 0
 963 0122 FFF7FEBF 		b	usb_lld_start_out
 964              	.LVL42:
 965              	.L100:
 966              		.loc 1 541 0
 967 0126 0222     		movs	r2, #2
 968 0128 84F83020 		strb	r2, [r4, #48]
 969              		.loc 1 542 0
 970 012c 2046     		mov	r0, r4
 971 012e 2946     		mov	r1, r5
 972              	.LVL43:
 973 0130 2A46     		mov	r2, r5
 974 0132 2B46     		mov	r3, r5
 975 0134 FFF7FEFF 		bl	usb_lld_prepare_receive
 976              		.loc 1 543 0
 977 0138 2046     		mov	r0, r4
 978 013a 2946     		mov	r1, r5
 979              		.loc 1 562 0
 980 013c BDE8F041 		pop	{r4, r5, r6, r7, r8, lr}
 981              		.loc 1 543 0
 982 0140 FFF7FEBF 		b	usb_lld_start_out
 983              	.LVL44:
 984              	.L107:
 985              	.LBB7:
 986              	.LBB6:
 987              		.loc 1 93 0
 988 0144 022F     		cmp	r7, #2
 989 0146 49D0     		beq	.L72
 990 0148 2BDD     		ble	.L109
 991 014a B7F5807F 		cmp	r7, #256
 992 014e 34D0     		beq	.L73
 993 0150 B7F5817F 		cmp	r7, #258
 994 0154 88D1     		bne	.L68
 995              		.loc 1 188 0
 996 0156 94F84200 		ldrb	r0, [r4, #66]	@ zero_extendqisi2
 997 015a 0028     		cmp	r0, #0
 998 015c 84D1     		bne	.L68
 999              		.loc 1 191 0
 1000 015e 94F84430 		ldrb	r3, [r4, #68]	@ zero_extendqisi2
 1001 0162 13F00F01 		ands	r1, r3, #15
 1002 0166 08D0     		beq	.L95
 1003              		.loc 1 192 0
 1004 0168 13F0800F 		tst	r3, #128
 1005 016c 40F0B180 		bne	.L110
 1006              		.loc 1 195 0
ARM GAS  /tmp/ccMZ4Xvt.s 			page 19


 1007 0170 2046     		mov	r0, r4
 1008 0172 FFF7FEFF 		bl	usb_lld_clear_out
 1009 0176 94F84020 		ldrb	r2, [r4, #64]	@ zero_extendqisi2
 1010              	.L95:
 1011              		.loc 1 210 0
 1012 017a 0025     		movs	r5, #0
 1013 017c 6563     		str	r5, [r4, #52]
 1014 017e A563     		str	r5, [r4, #56]
 1015 0180 E563     		str	r5, [r4, #60]
 1016 0182 1346     		mov	r3, r2
 1017 0184 50E7     		b	.L67
 1018              	.L108:
 1019              		.loc 1 93 0
 1020 0186 40F20230 		movw	r0, #770
 1021 018a 8742     		cmp	r7, r0
 1022 018c 7BD0     		beq	.L76
 1023 018e B7F5A06F 		cmp	r7, #1280
 1024 0192 7FF469AF 		bne	.L68
 1025              		.loc 1 128 0
 1026 0196 5549     		ldr	r1, .L113
 1027 0198 6663     		str	r6, [r4, #52]
 1028 019a A663     		str	r6, [r4, #56]
 1029 019c E163     		str	r1, [r4, #60]
 1030 019e 3546     		mov	r5, r6
 1031 01a0 42E7     		b	.L67
 1032              	.L109:
 1033              		.loc 1 93 0
 1034 01a2 002F     		cmp	r7, #0
 1035 01a4 41D0     		beq	.L70
 1036 01a6 012F     		cmp	r7, #1
 1037 01a8 7FF45EAF 		bne	.L68
 1038              	.L71:
 1039              		.loc 1 158 0
 1040 01ac 5049     		ldr	r1, .L113+4
 1041 01ae 0225     		movs	r5, #2
 1042 01b0 0022     		movs	r2, #0
 1043 01b2 6163     		str	r1, [r4, #52]
 1044 01b4 A563     		str	r5, [r4, #56]
 1045 01b6 E263     		str	r2, [r4, #60]
 1046 01b8 36E7     		b	.L67
 1047              	.L73:
 1048              		.loc 1 103 0
 1049 01ba 94F842C0 		ldrb	ip, [r4, #66]	@ zero_extendqisi2
 1050 01be BCF1010F 		cmp	ip, #1
 1051 01c2 7FF451AF 		bne	.L68
 1052              		.loc 1 104 0
 1053 01c6 B4F84810 		ldrh	r1, [r4, #72]
 1054              		.loc 1 105 0
 1055 01ca 6663     		str	r6, [r4, #52]
 1056              		.loc 1 104 0
 1057 01cc 21F0020E 		bic	lr, r1, #2
 1058 01d0 A4F848E0 		strh	lr, [r4, #72]	@ movhi
 1059              		.loc 1 105 0
 1060 01d4 A663     		str	r6, [r4, #56]
 1061 01d6 E663     		str	r6, [r4, #60]
 1062 01d8 3546     		mov	r5, r6
 1063 01da 25E7     		b	.L67
ARM GAS  /tmp/ccMZ4Xvt.s 			page 20


 1064              	.L72:
 1065              		.loc 1 162 0
 1066 01dc 94F84410 		ldrb	r1, [r4, #68]	@ zero_extendqisi2
 1067 01e0 11F0800F 		tst	r1, #128
 1068 01e4 66D1     		bne	.L111
 1069              		.loc 1 175 0
 1070 01e6 2046     		mov	r0, r4
 1071 01e8 01F00F01 		and	r1, r1, #15
 1072 01ec FFF7FEFF 		bl	usb_lld_get_status_out
 1073 01f0 0128     		cmp	r0, #1
 1074 01f2 66D0     		beq	.L91
 1075              	.L103:
 1076 01f4 0228     		cmp	r0, #2
 1077 01f6 7FF437AF 		bne	.L68
 1078              		.loc 1 180 0
 1079 01fa 3E4B     		ldr	r3, .L113+8
 1080 01fc A063     		str	r0, [r4, #56]
 1081 01fe 6363     		str	r3, [r4, #52]
 1082 0200 E663     		str	r6, [r4, #60]
 1083 0202 94F84030 		ldrb	r3, [r4, #64]	@ zero_extendqisi2
 1084 0206 0546     		mov	r5, r0
 1085 0208 0EE7     		b	.L67
 1086              	.L75:
 1087              		.loc 1 112 0
 1088 020a 94F84200 		ldrb	r0, [r4, #66]	@ zero_extendqisi2
 1089 020e 0128     		cmp	r0, #1
 1090 0210 7FF42AAF 		bne	.L68
 1091              		.loc 1 113 0
 1092 0214 B4F84820 		ldrh	r2, [r4, #72]
 1093              		.loc 1 114 0
 1094 0218 6663     		str	r6, [r4, #52]
 1095              		.loc 1 113 0
 1096 021a 42F00205 		orr	r5, r2, #2
 1097 021e A4F84850 		strh	r5, [r4, #72]	@ movhi
 1098              		.loc 1 114 0
 1099 0222 A663     		str	r6, [r4, #56]
 1100 0224 E663     		str	r6, [r4, #60]
 1101 0226 3546     		mov	r5, r6
 1102 0228 FEE6     		b	.L67
 1103              	.L70:
 1104              		.loc 1 98 0
 1105 022a 0225     		movs	r5, #2
 1106 022c 04F14802 		add	r2, r4, #72
 1107 0230 6263     		str	r2, [r4, #52]
 1108 0232 A563     		str	r5, [r4, #56]
 1109 0234 E763     		str	r7, [r4, #60]
 1110 0236 F7E6     		b	.L67
 1111              	.L80:
 1112              		.loc 1 146 0
 1113 0238 94F84210 		ldrb	r1, [r4, #66]	@ zero_extendqisi2
 1114 023c 84F84B10 		strb	r1, [r4, #75]
 1115              		.loc 1 147 0
 1116 0240 0029     		cmp	r1, #0
 1117 0242 34D1     		bne	.L85
 1118              		.loc 1 148 0
 1119 0244 0325     		movs	r5, #3
 1120 0246 2570     		strb	r5, [r4, #0]
ARM GAS  /tmp/ccMZ4Xvt.s 			page 21


 1121              	.L86:
 1122              		.loc 1 151 0
 1123 0248 6068     		ldr	r0, [r4, #4]
 1124 024a 0368     		ldr	r3, [r0, #0]
 1125 024c 002B     		cmp	r3, #0
 1126 024e 94D0     		beq	.L95
 1127 0250 2046     		mov	r0, r4
 1128 0252 0221     		movs	r1, #2
 1129 0254 9847     		blx	r3
 1130 0256 94F84020 		ldrb	r2, [r4, #64]	@ zero_extendqisi2
 1131 025a 8EE7     		b	.L95
 1132              	.L78:
 1133              		.loc 1 133 0
 1134 025c 6368     		ldr	r3, [r4, #4]
 1135 025e 2046     		mov	r0, r4
 1136 0260 5D68     		ldr	r5, [r3, #4]
 1137 0262 94F84310 		ldrb	r1, [r4, #67]	@ zero_extendqisi2
 1138 0266 94F84220 		ldrb	r2, [r4, #66]	@ zero_extendqisi2
 1139 026a B4F84430 		ldrh	r3, [r4, #68]
 1140 026e A847     		blx	r5
 1141              	.LVL45:
 1142              		.loc 1 136 0
 1143 0270 0028     		cmp	r0, #0
 1144 0272 3FF4F9AE 		beq	.L68
 1145              		.loc 1 138 0
 1146 0276 4268     		ldr	r2, [r0, #4]
 1147 0278 0568     		ldr	r5, [r0, #0]
 1148 027a 94F84030 		ldrb	r3, [r4, #64]	@ zero_extendqisi2
 1149 027e 6263     		str	r2, [r4, #52]
 1150 0280 A563     		str	r5, [r4, #56]
 1151 0282 E663     		str	r6, [r4, #60]
 1152 0284 D0E6     		b	.L67
 1153              	.LVL46:
 1154              	.L76:
 1155              		.loc 1 201 0
 1156 0286 94F84210 		ldrb	r1, [r4, #66]	@ zero_extendqisi2
 1157 028a 0029     		cmp	r1, #0
 1158 028c 7FF4ECAE 		bne	.L68
 1159              		.loc 1 204 0
 1160 0290 94F84430 		ldrb	r3, [r4, #68]	@ zero_extendqisi2
 1161 0294 13F00F01 		ands	r1, r3, #15
 1162 0298 3FF46FAF 		beq	.L95
 1163              		.loc 1 205 0
 1164 029c 13F0800F 		tst	r3, #128
 1165 02a0 1DD1     		bne	.L112
 1166              		.loc 1 208 0
 1167 02a2 2046     		mov	r0, r4
 1168 02a4 FFF7FEFF 		bl	usb_lld_stall_out
 1169 02a8 94F84020 		ldrb	r2, [r4, #64]	@ zero_extendqisi2
 1170 02ac 65E7     		b	.L95
 1171              	.L85:
 1172              		.loc 1 150 0
 1173 02ae 0423     		movs	r3, #4
 1174 02b0 2370     		strb	r3, [r4, #0]
 1175 02b2 C9E7     		b	.L86
 1176              	.L111:
 1177              		.loc 1 163 0
ARM GAS  /tmp/ccMZ4Xvt.s 			page 22


 1178 02b4 2046     		mov	r0, r4
 1179 02b6 01F00F01 		and	r1, r1, #15
 1180 02ba FFF7FEFF 		bl	usb_lld_get_status_in
 1181 02be 0128     		cmp	r0, #1
 1182 02c0 98D1     		bne	.L103
 1183              	.L91:
 1184              		.loc 1 177 0
 1185 02c2 0D4D     		ldr	r5, .L113+12
 1186 02c4 A763     		str	r7, [r4, #56]
 1187 02c6 6563     		str	r5, [r4, #52]
 1188 02c8 E663     		str	r6, [r4, #60]
 1189 02ca 94F84030 		ldrb	r3, [r4, #64]	@ zero_extendqisi2
 1190 02ce 3D46     		mov	r5, r7
 1191 02d0 AAE6     		b	.L67
 1192              	.L110:
 1193              		.loc 1 193 0
 1194 02d2 2046     		mov	r0, r4
 1195 02d4 FFF7FEFF 		bl	usb_lld_clear_in
 1196 02d8 94F84020 		ldrb	r2, [r4, #64]	@ zero_extendqisi2
 1197 02dc 4DE7     		b	.L95
 1198              	.L112:
 1199              		.loc 1 206 0
 1200 02de 2046     		mov	r0, r4
 1201 02e0 FFF7FEFF 		bl	usb_lld_stall_in
 1202 02e4 94F84020 		ldrb	r2, [r4, #64]	@ zero_extendqisi2
 1203 02e8 47E7     		b	.L95
 1204              	.L114:
 1205 02ea 00BF     		.align	2
 1206              	.L113:
 1207 02ec 00000000 		.word	set_address
 1208 02f0 00000000 		.word	.LANCHOR0
 1209 02f4 00000000 		.word	.LANCHOR2
 1210 02f8 00000000 		.word	.LANCHOR1
 1211              	.LBE6:
 1212              	.LBE7:
 1213              		.cfi_endproc
 1214              	.LFE68:
 1215              		.size	_usb_ep0setup, .-_usb_ep0setup
 1216 02fc AFF30080 		.section	.text._usb_ep0in,"ax",%progbits
 1217              		.align	2
 1218              		.p2align 4,,15
 1219              		.global	_usb_ep0in
 1220              		.thumb
 1221              		.thumb_func
 1222              		.type	_usb_ep0in, %function
 1223              	_usb_ep0in:
 1224              	.LFB69:
 1225              		.loc 1 574 0
 1226              		.cfi_startproc
 1227              		@ args = 0, pretend = 0, frame = 0
 1228              		@ frame_needed = 0, uses_anonymous_args = 0
 1229              	.LVL47:
 1230              		.loc 1 578 0
 1231 0000 90F83030 		ldrb	r3, [r0, #48]	@ zero_extendqisi2
 1232              		.loc 1 574 0
 1233 0004 70B5     		push	{r4, r5, r6, lr}
 1234              	.LCFI11:
ARM GAS  /tmp/ccMZ4Xvt.s 			page 23


 1235              		.cfi_def_cfa_offset 16
 1236              		.loc 1 578 0
 1237 0006 012B     		cmp	r3, #1
 1238              		.loc 1 574 0
 1239 0008 0446     		mov	r4, r0
 1240              		.cfi_offset 14, -4
 1241              		.cfi_offset 6, -8
 1242              		.cfi_offset 5, -12
 1243              		.cfi_offset 4, -16
 1244              		.loc 1 578 0
 1245 000a 19D0     		beq	.L117
 1246 000c 042B     		cmp	r3, #4
 1247 000e 10D0     		beq	.L124
 1248              		.loc 1 608 0
 1249 0010 0021     		movs	r1, #0
 1250              	.LVL48:
 1251 0012 FFF7FEFF 		bl	usb_lld_stall_in
 1252              	.LVL49:
 1253              		.loc 1 609 0
 1254 0016 0021     		movs	r1, #0
 1255 0018 2046     		mov	r0, r4
 1256 001a FFF7FEFF 		bl	usb_lld_stall_out
 1257              		.loc 1 610 0
 1258 001e 6168     		ldr	r1, [r4, #4]
 1259 0020 0B68     		ldr	r3, [r1, #0]
 1260 0022 13B1     		cbz	r3, .L122
 1261              		.loc 1 610 0 is_stmt 0 discriminator 1
 1262 0024 2046     		mov	r0, r4
 1263 0026 0521     		movs	r1, #5
 1264 0028 9847     		blx	r3
 1265              	.L122:
 1266              		.loc 1 611 0 is_stmt 1
 1267 002a 0522     		movs	r2, #5
 1268 002c 84F83020 		strb	r2, [r4, #48]
 1269 0030 70BD     		pop	{r4, r5, r6, pc}
 1270              	.LVL50:
 1271              	.L124:
 1272              		.loc 1 598 0
 1273 0032 C36B     		ldr	r3, [r0, #60]
 1274 0034 03B1     		cbz	r3, .L120
 1275              		.loc 1 599 0
 1276 0036 9847     		blx	r3
 1277              	.LVL51:
 1278              	.L120:
 1279              		.loc 1 600 0
 1280 0038 0023     		movs	r3, #0
 1281 003a 84F83030 		strb	r3, [r4, #48]
 1282              		.loc 1 601 0
 1283 003e 70BD     		pop	{r4, r5, r6, pc}
 1284              	.LVL52:
 1285              	.L117:
 1286              		.loc 1 584 0
 1287 0040 836B     		ldr	r3, [r0, #56]
 1288              		.loc 1 580 0
 1289 0042 B0F84620 		ldrh	r2, [r0, #70]
 1290              		.loc 1 584 0
 1291 0046 9A42     		cmp	r2, r3
ARM GAS  /tmp/ccMZ4Xvt.s 			page 24


 1292 0048 06D9     		bls	.L119
 1293              		.loc 1 585 0 discriminator 1
 1294 004a 0269     		ldr	r2, [r0, #16]
 1295 004c 118A     		ldrh	r1, [r2, #16]
 1296              	.LVL53:
 1297 004e B3FBF1F5 		udiv	r5, r3, r1
 1298 0052 01FB1535 		mls	r5, r1, r5, r3
 1299              		.loc 1 584 0 discriminator 1
 1300 0056 75B1     		cbz	r5, .L125
 1301              	.L119:
 1302              		.loc 1 593 0
 1303 0058 0021     		movs	r1, #0
 1304              		.loc 1 592 0
 1305 005a 0220     		movs	r0, #2
 1306              		.loc 1 593 0
 1307 005c 0A46     		mov	r2, r1
 1308 005e 0B46     		mov	r3, r1
 1309              		.loc 1 592 0
 1310 0060 84F83000 		strb	r0, [r4, #48]
 1311              		.loc 1 593 0
 1312 0064 2046     		mov	r0, r4
 1313 0066 FFF7FEFF 		bl	usb_lld_prepare_receive
 1314              	.LVL54:
 1315              		.loc 1 594 0
 1316 006a 2046     		mov	r0, r4
 1317 006c 0021     		movs	r1, #0
 1318              		.loc 1 612 0
 1319 006e BDE87040 		pop	{r4, r5, r6, lr}
 1320              		.loc 1 594 0
 1321 0072 FFF7FEBF 		b	usb_lld_start_out
 1322              	.LVL55:
 1323              	.L125:
 1324              		.loc 1 586 0
 1325 0076 2946     		mov	r1, r5
 1326 0078 2A46     		mov	r2, r5
 1327 007a 2B46     		mov	r3, r5
 1328 007c FFF7FEFF 		bl	usb_lld_prepare_transmit
 1329              	.LVL56:
 1330              		.loc 1 587 0
 1331 0080 2046     		mov	r0, r4
 1332 0082 2946     		mov	r1, r5
 1333              		.loc 1 612 0
 1334 0084 BDE87040 		pop	{r4, r5, r6, lr}
 1335              		.loc 1 587 0
 1336 0088 FFF7FEBF 		b	usb_lld_start_in
 1337              		.cfi_endproc
 1338              	.LFE69:
 1339              		.size	_usb_ep0in, .-_usb_ep0in
 1340 008c AFF30080 		.section	.text._usb_ep0out,"ax",%progbits
 1341              		.align	2
 1342              		.p2align 4,,15
 1343              		.global	_usb_ep0out
 1344              		.thumb
 1345              		.thumb_func
 1346              		.type	_usb_ep0out, %function
 1347              	_usb_ep0out:
 1348              	.LFB70:
ARM GAS  /tmp/ccMZ4Xvt.s 			page 25


 1349              		.loc 1 624 0
 1350              		.cfi_startproc
 1351              		@ args = 0, pretend = 0, frame = 0
 1352              		@ frame_needed = 0, uses_anonymous_args = 0
 1353              	.LVL57:
 1354              		.loc 1 627 0
 1355 0000 90F83030 		ldrb	r3, [r0, #48]	@ zero_extendqisi2
 1356              		.loc 1 624 0
 1357 0004 70B5     		push	{r4, r5, r6, lr}
 1358              	.LCFI12:
 1359              		.cfi_def_cfa_offset 16
 1360              		.loc 1 627 0
 1361 0006 022B     		cmp	r3, #2
 1362              		.loc 1 624 0
 1363 0008 0446     		mov	r4, r0
 1364              		.cfi_offset 14, -4
 1365              		.cfi_offset 6, -8
 1366              		.cfi_offset 5, -12
 1367              		.cfi_offset 4, -16
 1368              		.loc 1 627 0
 1369 000a 21D0     		beq	.L128
 1370 000c 032B     		cmp	r3, #3
 1371 000e 11D0     		beq	.L133
 1372              	.LVL58:
 1373              	.L127:
 1374              		.loc 1 649 0
 1375 0010 0021     		movs	r1, #0
 1376 0012 2046     		mov	r0, r4
 1377              	.LVL59:
 1378 0014 FFF7FEFF 		bl	usb_lld_stall_in
 1379              		.loc 1 650 0
 1380 0018 2046     		mov	r0, r4
 1381 001a 0021     		movs	r1, #0
 1382 001c FFF7FEFF 		bl	usb_lld_stall_out
 1383              		.loc 1 651 0
 1384 0020 6368     		ldr	r3, [r4, #4]
 1385 0022 1B68     		ldr	r3, [r3, #0]
 1386 0024 13B1     		cbz	r3, .L132
 1387              		.loc 1 651 0 is_stmt 0 discriminator 1
 1388 0026 2046     		mov	r0, r4
 1389 0028 0521     		movs	r1, #5
 1390 002a 9847     		blx	r3
 1391              	.L132:
 1392              		.loc 1 652 0 is_stmt 1
 1393 002c 0521     		movs	r1, #5
 1394 002e 84F83010 		strb	r1, [r4, #48]
 1395 0032 70BD     		pop	{r4, r5, r6, pc}
 1396              	.LVL60:
 1397              	.L133:
 1398              		.loc 1 631 0
 1399 0034 0021     		movs	r1, #0
 1400              	.LVL61:
 1401              		.loc 1 630 0
 1402 0036 0425     		movs	r5, #4
 1403              		.loc 1 631 0
 1404 0038 0A46     		mov	r2, r1
 1405 003a 0B46     		mov	r3, r1
ARM GAS  /tmp/ccMZ4Xvt.s 			page 26


 1406              		.loc 1 630 0
 1407 003c 80F83050 		strb	r5, [r0, #48]
 1408              		.loc 1 631 0
 1409 0040 FFF7FEFF 		bl	usb_lld_prepare_transmit
 1410              		.loc 1 632 0
 1411 0044 2046     		mov	r0, r4
 1412 0046 0021     		movs	r1, #0
 1413              		.loc 1 653 0
 1414 0048 BDE87040 		pop	{r4, r5, r6, lr}
 1415              		.loc 1 632 0
 1416 004c FFF7FEBF 		b	usb_lld_start_in
 1417              	.LVL62:
 1418              	.L128:
 1419              		.loc 1 637 0
 1420 0050 0269     		ldr	r2, [r0, #16]
 1421 0052 9169     		ldr	r1, [r2, #24]
 1422              	.LVL63:
 1423 0054 CB68     		ldr	r3, [r1, #12]
 1424 0056 002B     		cmp	r3, #0
 1425 0058 DAD1     		bne	.L127
 1426              		.loc 1 639 0
 1427 005a C36B     		ldr	r3, [r0, #60]
 1428 005c 03B1     		cbz	r3, .L130
 1429              		.loc 1 640 0
 1430 005e 9847     		blx	r3
 1431              	.L130:
 1432              		.loc 1 641 0
 1433 0060 0020     		movs	r0, #0
 1434 0062 84F83000 		strb	r0, [r4, #48]
 1435              		.loc 1 642 0
 1436 0066 70BD     		pop	{r4, r5, r6, pc}
 1437              		.cfi_endproc
 1438              	.LFE70:
 1439              		.size	_usb_ep0out, .-_usb_ep0out
 1440 0068 AFF30080 		.section	.rodata.zero_status,"a",%progbits
 1440      AFF30080 
 1441              		.align	2
 1442              		.set	.LANCHOR0,. + 0
 1443              		.type	zero_status, %object
 1444              		.size	zero_status, 2
 1445              	zero_status:
 1446 0000 0000     		.space	2
 1447 0002 0000     		.section	.rodata.active_status,"a",%progbits
 1448              		.align	2
 1449              		.set	.LANCHOR2,. + 0
 1450              		.type	active_status, %object
 1451              		.size	active_status, 2
 1452              	active_status:
 1453 0000 0000     		.space	2
 1454 0002 0000     		.section	.rodata.str1.4,"aMS",%progbits,1
 1455              		.align	2
 1456              	.LC0:
 1457 0000 22757362 		.ascii	"\"usbStart\"()\000"
 1457      53746172 
 1457      74222829 
 1457      00
 1458 000d 000000   		.space	3
ARM GAS  /tmp/ccMZ4Xvt.s 			page 27


 1459              	.LC1:
 1460 0010 75736253 		.ascii	"usbStart(), #1\000"
 1460      74617274 
 1460      28292C20 
 1460      233100
 1461 001f 00       		.space	1
 1462              	.LC2:
 1463 0020 22757362 		.ascii	"\"usbStop\"()\000"
 1463      53746F70 
 1463      22282900 
 1464              	.LC3:
 1465 002c 75736253 		.ascii	"usbStop(), #1\000"
 1465      746F7028 
 1465      292C2023 
 1465      3100
 1466 003a 0000     		.space	2
 1467              	.LC4:
 1468 003c 22757362 		.ascii	"\"usbInitEndpointI\"()\000"
 1468      496E6974 
 1468      456E6470 
 1468      6F696E74 
 1468      49222829 
 1469 0051 000000   		.space	3
 1470              	.LC5:
 1471 0054 75736245 		.ascii	"usbEnableEndpointI(), #1\000"
 1471      6E61626C 
 1471      65456E64 
 1471      706F696E 
 1471      74492829 
 1472 006d 000000   		.space	3
 1473              	.LC6:
 1474 0070 75736245 		.ascii	"usbEnableEndpointI(), #2\000"
 1474      6E61626C 
 1474      65456E64 
 1474      706F696E 
 1474      74492829 
 1475 0089 000000   		.space	3
 1476              	.LC7:
 1477 008c 22757362 		.ascii	"\"usbDisableEndpointsI\"()\000"
 1477      44697361 
 1477      626C6545 
 1477      6E64706F 
 1477      696E7473 
 1478 00a5 000000   		.space	3
 1479              	.LC8:
 1480 00a8 75736244 		.ascii	"usbDisableEndpointsI(), #1\000"
 1480      69736162 
 1480      6C65456E 
 1480      64706F69 
 1480      6E747349 
 1481 00c3 00       		.space	1
 1482              	.LC9:
 1483 00c4 22757362 		.ascii	"\"usbStartReceiveI\"()\000"
 1483      53746172 
 1483      74526563 
 1483      65697665 
 1483      49222829 
ARM GAS  /tmp/ccMZ4Xvt.s 			page 28


 1484 00d9 000000   		.space	3
 1485              	.LC10:
 1486 00dc 22757362 		.ascii	"\"usbStartTransmitI\"()\000"
 1486      53746172 
 1486      74547261 
 1486      6E736D69 
 1486      74492228 
 1487 00f2 0000     		.space	2
 1488              	.LC11:
 1489 00f4 22757362 		.ascii	"\"usbStallReceiveI\"()\000"
 1489      5374616C 
 1489      6C526563 
 1489      65697665 
 1489      49222829 
 1490 0109 000000   		.space	3
 1491              	.LC12:
 1492 010c 22757362 		.ascii	"\"usbStallTransmitI\"()\000"
 1492      5374616C 
 1492      6C547261 
 1492      6E736D69 
 1492      74492228 
 1493 0122 0000     		.section	.rodata.halted_status,"a",%progbits
 1494              		.align	2
 1495              		.set	.LANCHOR1,. + 0
 1496              		.type	halted_status, %object
 1497              		.size	halted_status, 2
 1498              	halted_status:
 1499 0000 01       		.byte	1
 1500 0001 00       		.byte	0
 1501 0002 0000     		.text
 1502              	.Letext0: